ARM GAS  C:\Users\glenn\AppData\Local\Temp\ccvOL8yy.s 			page 1


   1              		.cpu cortex-m0
   2              		.fpu softvfp
   3              		.eabi_attribute 20, 1
   4              		.eabi_attribute 21, 1
   5              		.eabi_attribute 23, 3
   6              		.eabi_attribute 24, 1
   7              		.eabi_attribute 25, 1
   8              		.eabi_attribute 26, 1
   9              		.eabi_attribute 30, 2
  10              		.eabi_attribute 34, 0
  11              		.eabi_attribute 18, 4
  12              		.code	16
  13              		.file	"ADC_SAR_Seq_1_IRQ.c"
  14              		.text
  15              	.Ltext0:
  16              		.cfi_sections	.debug_frame
  17              		.section	.text.ADC_SAR_Seq_1_IRQ_Interrupt,"ax",%progbits
  18              		.align	2
  19              		.global	ADC_SAR_Seq_1_IRQ_Interrupt
  20              		.code	16
  21              		.thumb_func
  22              		.type	ADC_SAR_Seq_1_IRQ_Interrupt, %function
  23              	ADC_SAR_Seq_1_IRQ_Interrupt:
  24              	.LFB4:
  25              		.file 1 "Generated_Source\\PSoC4\\ADC_SAR_Seq_1_IRQ.c"
   1:Generated_Source\PSoC4/ADC_SAR_Seq_1_IRQ.c **** /*******************************************************************************
   2:Generated_Source\PSoC4/ADC_SAR_Seq_1_IRQ.c **** * File Name: ADC_SAR_Seq_1_IRQ.c  
   3:Generated_Source\PSoC4/ADC_SAR_Seq_1_IRQ.c **** * Version 1.70
   4:Generated_Source\PSoC4/ADC_SAR_Seq_1_IRQ.c **** *
   5:Generated_Source\PSoC4/ADC_SAR_Seq_1_IRQ.c **** *  Description:
   6:Generated_Source\PSoC4/ADC_SAR_Seq_1_IRQ.c **** *   API for controlling the state of an interrupt.
   7:Generated_Source\PSoC4/ADC_SAR_Seq_1_IRQ.c **** *
   8:Generated_Source\PSoC4/ADC_SAR_Seq_1_IRQ.c **** *
   9:Generated_Source\PSoC4/ADC_SAR_Seq_1_IRQ.c **** *  Note:
  10:Generated_Source\PSoC4/ADC_SAR_Seq_1_IRQ.c **** *
  11:Generated_Source\PSoC4/ADC_SAR_Seq_1_IRQ.c **** ********************************************************************************
  12:Generated_Source\PSoC4/ADC_SAR_Seq_1_IRQ.c **** * Copyright 2008-2015, Cypress Semiconductor Corporation.  All rights reserved.
  13:Generated_Source\PSoC4/ADC_SAR_Seq_1_IRQ.c **** * You may use this file only in accordance with the license, terms, conditions, 
  14:Generated_Source\PSoC4/ADC_SAR_Seq_1_IRQ.c **** * disclaimers, and limitations in the end user license agreement accompanying 
  15:Generated_Source\PSoC4/ADC_SAR_Seq_1_IRQ.c **** * the software package with which this file was provided.
  16:Generated_Source\PSoC4/ADC_SAR_Seq_1_IRQ.c **** *******************************************************************************/
  17:Generated_Source\PSoC4/ADC_SAR_Seq_1_IRQ.c **** 
  18:Generated_Source\PSoC4/ADC_SAR_Seq_1_IRQ.c **** 
  19:Generated_Source\PSoC4/ADC_SAR_Seq_1_IRQ.c **** #include <cydevice_trm.h>
  20:Generated_Source\PSoC4/ADC_SAR_Seq_1_IRQ.c **** #include <CyLib.h>
  21:Generated_Source\PSoC4/ADC_SAR_Seq_1_IRQ.c **** #include <ADC_SAR_Seq_1_IRQ.h>
  22:Generated_Source\PSoC4/ADC_SAR_Seq_1_IRQ.c **** #include "cyapicallbacks.h"
  23:Generated_Source\PSoC4/ADC_SAR_Seq_1_IRQ.c **** 
  24:Generated_Source\PSoC4/ADC_SAR_Seq_1_IRQ.c **** #if !defined(ADC_SAR_Seq_1_IRQ__REMOVED) /* Check for removal by optimization */
  25:Generated_Source\PSoC4/ADC_SAR_Seq_1_IRQ.c **** 
  26:Generated_Source\PSoC4/ADC_SAR_Seq_1_IRQ.c **** /*******************************************************************************
  27:Generated_Source\PSoC4/ADC_SAR_Seq_1_IRQ.c **** *  Place your includes, defines and code here 
  28:Generated_Source\PSoC4/ADC_SAR_Seq_1_IRQ.c **** ********************************************************************************/
  29:Generated_Source\PSoC4/ADC_SAR_Seq_1_IRQ.c **** /* `#START ADC_SAR_Seq_1_IRQ_intc` */
  30:Generated_Source\PSoC4/ADC_SAR_Seq_1_IRQ.c **** 
  31:Generated_Source\PSoC4/ADC_SAR_Seq_1_IRQ.c **** /* `#END` */
  32:Generated_Source\PSoC4/ADC_SAR_Seq_1_IRQ.c **** 
ARM GAS  C:\Users\glenn\AppData\Local\Temp\ccvOL8yy.s 			page 2


  33:Generated_Source\PSoC4/ADC_SAR_Seq_1_IRQ.c **** extern cyisraddress CyRamVectors[CYINT_IRQ_BASE + CY_NUM_INTERRUPTS];
  34:Generated_Source\PSoC4/ADC_SAR_Seq_1_IRQ.c **** 
  35:Generated_Source\PSoC4/ADC_SAR_Seq_1_IRQ.c **** /* Declared in startup, used to set unused interrupts to. */
  36:Generated_Source\PSoC4/ADC_SAR_Seq_1_IRQ.c **** CY_ISR_PROTO(IntDefaultHandler);
  37:Generated_Source\PSoC4/ADC_SAR_Seq_1_IRQ.c **** 
  38:Generated_Source\PSoC4/ADC_SAR_Seq_1_IRQ.c **** 
  39:Generated_Source\PSoC4/ADC_SAR_Seq_1_IRQ.c **** /*******************************************************************************
  40:Generated_Source\PSoC4/ADC_SAR_Seq_1_IRQ.c **** * Function Name: ADC_SAR_Seq_1_IRQ_Start
  41:Generated_Source\PSoC4/ADC_SAR_Seq_1_IRQ.c **** ********************************************************************************
  42:Generated_Source\PSoC4/ADC_SAR_Seq_1_IRQ.c **** *
  43:Generated_Source\PSoC4/ADC_SAR_Seq_1_IRQ.c **** * Summary:
  44:Generated_Source\PSoC4/ADC_SAR_Seq_1_IRQ.c **** *  Set up the interrupt and enable it. This function disables the interrupt, 
  45:Generated_Source\PSoC4/ADC_SAR_Seq_1_IRQ.c **** *  sets the default interrupt vector, sets the priority from the value in the
  46:Generated_Source\PSoC4/ADC_SAR_Seq_1_IRQ.c **** *  Design Wide Resources Interrupt Editor, then enables the interrupt to the 
  47:Generated_Source\PSoC4/ADC_SAR_Seq_1_IRQ.c **** *  interrupt controller.
  48:Generated_Source\PSoC4/ADC_SAR_Seq_1_IRQ.c **** *
  49:Generated_Source\PSoC4/ADC_SAR_Seq_1_IRQ.c **** * Parameters:  
  50:Generated_Source\PSoC4/ADC_SAR_Seq_1_IRQ.c **** *   None
  51:Generated_Source\PSoC4/ADC_SAR_Seq_1_IRQ.c **** *
  52:Generated_Source\PSoC4/ADC_SAR_Seq_1_IRQ.c **** * Return:
  53:Generated_Source\PSoC4/ADC_SAR_Seq_1_IRQ.c **** *   None
  54:Generated_Source\PSoC4/ADC_SAR_Seq_1_IRQ.c **** *
  55:Generated_Source\PSoC4/ADC_SAR_Seq_1_IRQ.c **** *******************************************************************************/
  56:Generated_Source\PSoC4/ADC_SAR_Seq_1_IRQ.c **** void ADC_SAR_Seq_1_IRQ_Start(void)
  57:Generated_Source\PSoC4/ADC_SAR_Seq_1_IRQ.c **** {
  58:Generated_Source\PSoC4/ADC_SAR_Seq_1_IRQ.c ****     /* For all we know the interrupt is active. */
  59:Generated_Source\PSoC4/ADC_SAR_Seq_1_IRQ.c ****     ADC_SAR_Seq_1_IRQ_Disable();
  60:Generated_Source\PSoC4/ADC_SAR_Seq_1_IRQ.c **** 
  61:Generated_Source\PSoC4/ADC_SAR_Seq_1_IRQ.c ****     /* Set the ISR to point to the ADC_SAR_Seq_1_IRQ Interrupt. */
  62:Generated_Source\PSoC4/ADC_SAR_Seq_1_IRQ.c ****     ADC_SAR_Seq_1_IRQ_SetVector(&ADC_SAR_Seq_1_IRQ_Interrupt);
  63:Generated_Source\PSoC4/ADC_SAR_Seq_1_IRQ.c **** 
  64:Generated_Source\PSoC4/ADC_SAR_Seq_1_IRQ.c ****     /* Set the priority. */
  65:Generated_Source\PSoC4/ADC_SAR_Seq_1_IRQ.c ****     ADC_SAR_Seq_1_IRQ_SetPriority((uint8)ADC_SAR_Seq_1_IRQ_INTC_PRIOR_NUMBER);
  66:Generated_Source\PSoC4/ADC_SAR_Seq_1_IRQ.c **** 
  67:Generated_Source\PSoC4/ADC_SAR_Seq_1_IRQ.c ****     /* Enable it. */
  68:Generated_Source\PSoC4/ADC_SAR_Seq_1_IRQ.c ****     ADC_SAR_Seq_1_IRQ_Enable();
  69:Generated_Source\PSoC4/ADC_SAR_Seq_1_IRQ.c **** }
  70:Generated_Source\PSoC4/ADC_SAR_Seq_1_IRQ.c **** 
  71:Generated_Source\PSoC4/ADC_SAR_Seq_1_IRQ.c **** 
  72:Generated_Source\PSoC4/ADC_SAR_Seq_1_IRQ.c **** /*******************************************************************************
  73:Generated_Source\PSoC4/ADC_SAR_Seq_1_IRQ.c **** * Function Name: ADC_SAR_Seq_1_IRQ_StartEx
  74:Generated_Source\PSoC4/ADC_SAR_Seq_1_IRQ.c **** ********************************************************************************
  75:Generated_Source\PSoC4/ADC_SAR_Seq_1_IRQ.c **** *
  76:Generated_Source\PSoC4/ADC_SAR_Seq_1_IRQ.c **** * Summary:
  77:Generated_Source\PSoC4/ADC_SAR_Seq_1_IRQ.c **** *  Sets up the interrupt and enables it. This function disables the interrupt,
  78:Generated_Source\PSoC4/ADC_SAR_Seq_1_IRQ.c **** *  sets the interrupt vector based on the address passed in, sets the priority 
  79:Generated_Source\PSoC4/ADC_SAR_Seq_1_IRQ.c **** *  from the value in the Design Wide Resources Interrupt Editor, then enables 
  80:Generated_Source\PSoC4/ADC_SAR_Seq_1_IRQ.c **** *  the interrupt to the interrupt controller.
  81:Generated_Source\PSoC4/ADC_SAR_Seq_1_IRQ.c **** *  
  82:Generated_Source\PSoC4/ADC_SAR_Seq_1_IRQ.c **** *  When defining ISR functions, the CY_ISR and CY_ISR_PROTO macros should be 
  83:Generated_Source\PSoC4/ADC_SAR_Seq_1_IRQ.c **** *  used to provide consistent definition across compilers:
  84:Generated_Source\PSoC4/ADC_SAR_Seq_1_IRQ.c **** *  
  85:Generated_Source\PSoC4/ADC_SAR_Seq_1_IRQ.c **** *  Function definition example:
  86:Generated_Source\PSoC4/ADC_SAR_Seq_1_IRQ.c **** *   CY_ISR(MyISR)
  87:Generated_Source\PSoC4/ADC_SAR_Seq_1_IRQ.c **** *   {
  88:Generated_Source\PSoC4/ADC_SAR_Seq_1_IRQ.c **** *   }
  89:Generated_Source\PSoC4/ADC_SAR_Seq_1_IRQ.c **** *   Function prototype example:
ARM GAS  C:\Users\glenn\AppData\Local\Temp\ccvOL8yy.s 			page 3


  90:Generated_Source\PSoC4/ADC_SAR_Seq_1_IRQ.c **** *   CY_ISR_PROTO(MyISR);
  91:Generated_Source\PSoC4/ADC_SAR_Seq_1_IRQ.c **** *
  92:Generated_Source\PSoC4/ADC_SAR_Seq_1_IRQ.c **** * Parameters:  
  93:Generated_Source\PSoC4/ADC_SAR_Seq_1_IRQ.c **** *   address: Address of the ISR to set in the interrupt vector table.
  94:Generated_Source\PSoC4/ADC_SAR_Seq_1_IRQ.c **** *
  95:Generated_Source\PSoC4/ADC_SAR_Seq_1_IRQ.c **** * Return:
  96:Generated_Source\PSoC4/ADC_SAR_Seq_1_IRQ.c **** *   None
  97:Generated_Source\PSoC4/ADC_SAR_Seq_1_IRQ.c **** *
  98:Generated_Source\PSoC4/ADC_SAR_Seq_1_IRQ.c **** *******************************************************************************/
  99:Generated_Source\PSoC4/ADC_SAR_Seq_1_IRQ.c **** void ADC_SAR_Seq_1_IRQ_StartEx(cyisraddress address)
 100:Generated_Source\PSoC4/ADC_SAR_Seq_1_IRQ.c **** {
 101:Generated_Source\PSoC4/ADC_SAR_Seq_1_IRQ.c ****     /* For all we know the interrupt is active. */
 102:Generated_Source\PSoC4/ADC_SAR_Seq_1_IRQ.c ****     ADC_SAR_Seq_1_IRQ_Disable();
 103:Generated_Source\PSoC4/ADC_SAR_Seq_1_IRQ.c **** 
 104:Generated_Source\PSoC4/ADC_SAR_Seq_1_IRQ.c ****     /* Set the ISR to point to the ADC_SAR_Seq_1_IRQ Interrupt. */
 105:Generated_Source\PSoC4/ADC_SAR_Seq_1_IRQ.c ****     ADC_SAR_Seq_1_IRQ_SetVector(address);
 106:Generated_Source\PSoC4/ADC_SAR_Seq_1_IRQ.c **** 
 107:Generated_Source\PSoC4/ADC_SAR_Seq_1_IRQ.c ****     /* Set the priority. */
 108:Generated_Source\PSoC4/ADC_SAR_Seq_1_IRQ.c ****     ADC_SAR_Seq_1_IRQ_SetPriority((uint8)ADC_SAR_Seq_1_IRQ_INTC_PRIOR_NUMBER);
 109:Generated_Source\PSoC4/ADC_SAR_Seq_1_IRQ.c **** 
 110:Generated_Source\PSoC4/ADC_SAR_Seq_1_IRQ.c ****     /* Enable it. */
 111:Generated_Source\PSoC4/ADC_SAR_Seq_1_IRQ.c ****     ADC_SAR_Seq_1_IRQ_Enable();
 112:Generated_Source\PSoC4/ADC_SAR_Seq_1_IRQ.c **** }
 113:Generated_Source\PSoC4/ADC_SAR_Seq_1_IRQ.c **** 
 114:Generated_Source\PSoC4/ADC_SAR_Seq_1_IRQ.c **** 
 115:Generated_Source\PSoC4/ADC_SAR_Seq_1_IRQ.c **** /*******************************************************************************
 116:Generated_Source\PSoC4/ADC_SAR_Seq_1_IRQ.c **** * Function Name: ADC_SAR_Seq_1_IRQ_Stop
 117:Generated_Source\PSoC4/ADC_SAR_Seq_1_IRQ.c **** ********************************************************************************
 118:Generated_Source\PSoC4/ADC_SAR_Seq_1_IRQ.c **** *
 119:Generated_Source\PSoC4/ADC_SAR_Seq_1_IRQ.c **** * Summary:
 120:Generated_Source\PSoC4/ADC_SAR_Seq_1_IRQ.c **** *   Disables and removes the interrupt.
 121:Generated_Source\PSoC4/ADC_SAR_Seq_1_IRQ.c **** *
 122:Generated_Source\PSoC4/ADC_SAR_Seq_1_IRQ.c **** * Parameters:  
 123:Generated_Source\PSoC4/ADC_SAR_Seq_1_IRQ.c **** *   None
 124:Generated_Source\PSoC4/ADC_SAR_Seq_1_IRQ.c **** *
 125:Generated_Source\PSoC4/ADC_SAR_Seq_1_IRQ.c **** * Return:
 126:Generated_Source\PSoC4/ADC_SAR_Seq_1_IRQ.c **** *   None
 127:Generated_Source\PSoC4/ADC_SAR_Seq_1_IRQ.c **** *
 128:Generated_Source\PSoC4/ADC_SAR_Seq_1_IRQ.c **** *******************************************************************************/
 129:Generated_Source\PSoC4/ADC_SAR_Seq_1_IRQ.c **** void ADC_SAR_Seq_1_IRQ_Stop(void)
 130:Generated_Source\PSoC4/ADC_SAR_Seq_1_IRQ.c **** {
 131:Generated_Source\PSoC4/ADC_SAR_Seq_1_IRQ.c ****     /* Disable this interrupt. */
 132:Generated_Source\PSoC4/ADC_SAR_Seq_1_IRQ.c ****     ADC_SAR_Seq_1_IRQ_Disable();
 133:Generated_Source\PSoC4/ADC_SAR_Seq_1_IRQ.c **** 
 134:Generated_Source\PSoC4/ADC_SAR_Seq_1_IRQ.c ****     /* Set the ISR to point to the passive one. */
 135:Generated_Source\PSoC4/ADC_SAR_Seq_1_IRQ.c ****     ADC_SAR_Seq_1_IRQ_SetVector(&IntDefaultHandler);
 136:Generated_Source\PSoC4/ADC_SAR_Seq_1_IRQ.c **** }
 137:Generated_Source\PSoC4/ADC_SAR_Seq_1_IRQ.c **** 
 138:Generated_Source\PSoC4/ADC_SAR_Seq_1_IRQ.c **** 
 139:Generated_Source\PSoC4/ADC_SAR_Seq_1_IRQ.c **** /*******************************************************************************
 140:Generated_Source\PSoC4/ADC_SAR_Seq_1_IRQ.c **** * Function Name: ADC_SAR_Seq_1_IRQ_Interrupt
 141:Generated_Source\PSoC4/ADC_SAR_Seq_1_IRQ.c **** ********************************************************************************
 142:Generated_Source\PSoC4/ADC_SAR_Seq_1_IRQ.c **** *
 143:Generated_Source\PSoC4/ADC_SAR_Seq_1_IRQ.c **** * Summary:
 144:Generated_Source\PSoC4/ADC_SAR_Seq_1_IRQ.c **** *   The default Interrupt Service Routine for ADC_SAR_Seq_1_IRQ.
 145:Generated_Source\PSoC4/ADC_SAR_Seq_1_IRQ.c **** *
 146:Generated_Source\PSoC4/ADC_SAR_Seq_1_IRQ.c **** *   Add custom code between the START and END comments to keep the next version
ARM GAS  C:\Users\glenn\AppData\Local\Temp\ccvOL8yy.s 			page 4


 147:Generated_Source\PSoC4/ADC_SAR_Seq_1_IRQ.c **** *   of this file from over-writing your code.
 148:Generated_Source\PSoC4/ADC_SAR_Seq_1_IRQ.c **** *
 149:Generated_Source\PSoC4/ADC_SAR_Seq_1_IRQ.c **** *   Note You may use either the default ISR by using this API, or you may define
 150:Generated_Source\PSoC4/ADC_SAR_Seq_1_IRQ.c **** *   your own separate ISR through ISR_StartEx().
 151:Generated_Source\PSoC4/ADC_SAR_Seq_1_IRQ.c **** *
 152:Generated_Source\PSoC4/ADC_SAR_Seq_1_IRQ.c **** * Parameters:  
 153:Generated_Source\PSoC4/ADC_SAR_Seq_1_IRQ.c **** *   None
 154:Generated_Source\PSoC4/ADC_SAR_Seq_1_IRQ.c **** *
 155:Generated_Source\PSoC4/ADC_SAR_Seq_1_IRQ.c **** * Return:
 156:Generated_Source\PSoC4/ADC_SAR_Seq_1_IRQ.c **** *   None
 157:Generated_Source\PSoC4/ADC_SAR_Seq_1_IRQ.c **** *
 158:Generated_Source\PSoC4/ADC_SAR_Seq_1_IRQ.c **** *******************************************************************************/
 159:Generated_Source\PSoC4/ADC_SAR_Seq_1_IRQ.c **** CY_ISR(ADC_SAR_Seq_1_IRQ_Interrupt)
 160:Generated_Source\PSoC4/ADC_SAR_Seq_1_IRQ.c **** {
  26              		.loc 1 160 0
  27              		.cfi_startproc
 161:Generated_Source\PSoC4/ADC_SAR_Seq_1_IRQ.c ****     #ifdef ADC_SAR_Seq_1_IRQ_INTERRUPT_INTERRUPT_CALLBACK
 162:Generated_Source\PSoC4/ADC_SAR_Seq_1_IRQ.c ****         ADC_SAR_Seq_1_IRQ_Interrupt_InterruptCallback();
 163:Generated_Source\PSoC4/ADC_SAR_Seq_1_IRQ.c ****     #endif /* ADC_SAR_Seq_1_IRQ_INTERRUPT_INTERRUPT_CALLBACK */ 
 164:Generated_Source\PSoC4/ADC_SAR_Seq_1_IRQ.c **** 
 165:Generated_Source\PSoC4/ADC_SAR_Seq_1_IRQ.c ****     /*  Place your Interrupt code here. */
 166:Generated_Source\PSoC4/ADC_SAR_Seq_1_IRQ.c ****     /* `#START ADC_SAR_Seq_1_IRQ_Interrupt` */
 167:Generated_Source\PSoC4/ADC_SAR_Seq_1_IRQ.c **** 
 168:Generated_Source\PSoC4/ADC_SAR_Seq_1_IRQ.c ****     /* `#END` */
 169:Generated_Source\PSoC4/ADC_SAR_Seq_1_IRQ.c **** }
  28              		.loc 1 169 0
  29              		@ sp needed
  30 0000 7047     		bx	lr
  31              		.cfi_endproc
  32              	.LFE4:
  33              		.size	ADC_SAR_Seq_1_IRQ_Interrupt, .-ADC_SAR_Seq_1_IRQ_Interrupt
  34 0002 C046     		.section	.text.ADC_SAR_Seq_1_IRQ_Start,"ax",%progbits
  35              		.align	2
  36              		.global	ADC_SAR_Seq_1_IRQ_Start
  37              		.code	16
  38              		.thumb_func
  39              		.type	ADC_SAR_Seq_1_IRQ_Start, %function
  40              	ADC_SAR_Seq_1_IRQ_Start:
  41              	.LFB1:
  57:Generated_Source\PSoC4/ADC_SAR_Seq_1_IRQ.c ****     /* For all we know the interrupt is active. */
  42              		.loc 1 57 0
  43              		.cfi_startproc
  44 0000 10B5     		push	{r4, lr}
  45              		.cfi_def_cfa_offset 8
  46              		.cfi_offset 4, -8
  47              		.cfi_offset 14, -4
  48              	.LBB26:
  49              	.LBB27:
 170:Generated_Source\PSoC4/ADC_SAR_Seq_1_IRQ.c **** 
 171:Generated_Source\PSoC4/ADC_SAR_Seq_1_IRQ.c **** 
 172:Generated_Source\PSoC4/ADC_SAR_Seq_1_IRQ.c **** /*******************************************************************************
 173:Generated_Source\PSoC4/ADC_SAR_Seq_1_IRQ.c **** * Function Name: ADC_SAR_Seq_1_IRQ_SetVector
 174:Generated_Source\PSoC4/ADC_SAR_Seq_1_IRQ.c **** ********************************************************************************
 175:Generated_Source\PSoC4/ADC_SAR_Seq_1_IRQ.c **** *
 176:Generated_Source\PSoC4/ADC_SAR_Seq_1_IRQ.c **** * Summary:
 177:Generated_Source\PSoC4/ADC_SAR_Seq_1_IRQ.c **** *   Change the ISR vector for the Interrupt. Note calling ADC_SAR_Seq_1_IRQ_Start
 178:Generated_Source\PSoC4/ADC_SAR_Seq_1_IRQ.c **** *   will override any effect this method would have had. To set the vector 
ARM GAS  C:\Users\glenn\AppData\Local\Temp\ccvOL8yy.s 			page 5


 179:Generated_Source\PSoC4/ADC_SAR_Seq_1_IRQ.c **** *   before the component has been started use ADC_SAR_Seq_1_IRQ_StartEx instead.
 180:Generated_Source\PSoC4/ADC_SAR_Seq_1_IRQ.c **** * 
 181:Generated_Source\PSoC4/ADC_SAR_Seq_1_IRQ.c **** *   When defining ISR functions, the CY_ISR and CY_ISR_PROTO macros should be 
 182:Generated_Source\PSoC4/ADC_SAR_Seq_1_IRQ.c **** *   used to provide consistent definition across compilers:
 183:Generated_Source\PSoC4/ADC_SAR_Seq_1_IRQ.c **** *
 184:Generated_Source\PSoC4/ADC_SAR_Seq_1_IRQ.c **** *   Function definition example:
 185:Generated_Source\PSoC4/ADC_SAR_Seq_1_IRQ.c **** *   CY_ISR(MyISR)
 186:Generated_Source\PSoC4/ADC_SAR_Seq_1_IRQ.c **** *   {
 187:Generated_Source\PSoC4/ADC_SAR_Seq_1_IRQ.c **** *   }
 188:Generated_Source\PSoC4/ADC_SAR_Seq_1_IRQ.c **** *
 189:Generated_Source\PSoC4/ADC_SAR_Seq_1_IRQ.c **** *   Function prototype example:
 190:Generated_Source\PSoC4/ADC_SAR_Seq_1_IRQ.c **** *     CY_ISR_PROTO(MyISR);
 191:Generated_Source\PSoC4/ADC_SAR_Seq_1_IRQ.c **** *
 192:Generated_Source\PSoC4/ADC_SAR_Seq_1_IRQ.c **** * Parameters:
 193:Generated_Source\PSoC4/ADC_SAR_Seq_1_IRQ.c **** *   address: Address of the ISR to set in the interrupt vector table.
 194:Generated_Source\PSoC4/ADC_SAR_Seq_1_IRQ.c **** *
 195:Generated_Source\PSoC4/ADC_SAR_Seq_1_IRQ.c **** * Return:
 196:Generated_Source\PSoC4/ADC_SAR_Seq_1_IRQ.c **** *   None
 197:Generated_Source\PSoC4/ADC_SAR_Seq_1_IRQ.c **** *
 198:Generated_Source\PSoC4/ADC_SAR_Seq_1_IRQ.c **** *******************************************************************************/
 199:Generated_Source\PSoC4/ADC_SAR_Seq_1_IRQ.c **** void ADC_SAR_Seq_1_IRQ_SetVector(cyisraddress address)
 200:Generated_Source\PSoC4/ADC_SAR_Seq_1_IRQ.c **** {
 201:Generated_Source\PSoC4/ADC_SAR_Seq_1_IRQ.c ****     CyRamVectors[CYINT_IRQ_BASE + ADC_SAR_Seq_1_IRQ__INTC_NUMBER] = address;
 202:Generated_Source\PSoC4/ADC_SAR_Seq_1_IRQ.c **** }
 203:Generated_Source\PSoC4/ADC_SAR_Seq_1_IRQ.c **** 
 204:Generated_Source\PSoC4/ADC_SAR_Seq_1_IRQ.c **** 
 205:Generated_Source\PSoC4/ADC_SAR_Seq_1_IRQ.c **** /*******************************************************************************
 206:Generated_Source\PSoC4/ADC_SAR_Seq_1_IRQ.c **** * Function Name: ADC_SAR_Seq_1_IRQ_GetVector
 207:Generated_Source\PSoC4/ADC_SAR_Seq_1_IRQ.c **** ********************************************************************************
 208:Generated_Source\PSoC4/ADC_SAR_Seq_1_IRQ.c **** *
 209:Generated_Source\PSoC4/ADC_SAR_Seq_1_IRQ.c **** * Summary:
 210:Generated_Source\PSoC4/ADC_SAR_Seq_1_IRQ.c **** *   Gets the "address" of the current ISR vector for the Interrupt.
 211:Generated_Source\PSoC4/ADC_SAR_Seq_1_IRQ.c **** *
 212:Generated_Source\PSoC4/ADC_SAR_Seq_1_IRQ.c **** * Parameters:
 213:Generated_Source\PSoC4/ADC_SAR_Seq_1_IRQ.c **** *   None
 214:Generated_Source\PSoC4/ADC_SAR_Seq_1_IRQ.c **** *
 215:Generated_Source\PSoC4/ADC_SAR_Seq_1_IRQ.c **** * Return:
 216:Generated_Source\PSoC4/ADC_SAR_Seq_1_IRQ.c **** *   Address of the ISR in the interrupt vector table.
 217:Generated_Source\PSoC4/ADC_SAR_Seq_1_IRQ.c **** *
 218:Generated_Source\PSoC4/ADC_SAR_Seq_1_IRQ.c **** *******************************************************************************/
 219:Generated_Source\PSoC4/ADC_SAR_Seq_1_IRQ.c **** cyisraddress ADC_SAR_Seq_1_IRQ_GetVector(void)
 220:Generated_Source\PSoC4/ADC_SAR_Seq_1_IRQ.c **** {
 221:Generated_Source\PSoC4/ADC_SAR_Seq_1_IRQ.c ****     return CyRamVectors[CYINT_IRQ_BASE + ADC_SAR_Seq_1_IRQ__INTC_NUMBER];
 222:Generated_Source\PSoC4/ADC_SAR_Seq_1_IRQ.c **** }
 223:Generated_Source\PSoC4/ADC_SAR_Seq_1_IRQ.c **** 
 224:Generated_Source\PSoC4/ADC_SAR_Seq_1_IRQ.c **** 
 225:Generated_Source\PSoC4/ADC_SAR_Seq_1_IRQ.c **** /*******************************************************************************
 226:Generated_Source\PSoC4/ADC_SAR_Seq_1_IRQ.c **** * Function Name: ADC_SAR_Seq_1_IRQ_SetPriority
 227:Generated_Source\PSoC4/ADC_SAR_Seq_1_IRQ.c **** ********************************************************************************
 228:Generated_Source\PSoC4/ADC_SAR_Seq_1_IRQ.c **** *
 229:Generated_Source\PSoC4/ADC_SAR_Seq_1_IRQ.c **** * Summary:
 230:Generated_Source\PSoC4/ADC_SAR_Seq_1_IRQ.c **** *   Sets the Priority of the Interrupt. 
 231:Generated_Source\PSoC4/ADC_SAR_Seq_1_IRQ.c **** *
 232:Generated_Source\PSoC4/ADC_SAR_Seq_1_IRQ.c **** *   Note calling ADC_SAR_Seq_1_IRQ_Start or ADC_SAR_Seq_1_IRQ_StartEx will 
 233:Generated_Source\PSoC4/ADC_SAR_Seq_1_IRQ.c **** *   override any effect this API would have had. This API should only be called
 234:Generated_Source\PSoC4/ADC_SAR_Seq_1_IRQ.c **** *   after ADC_SAR_Seq_1_IRQ_Start or ADC_SAR_Seq_1_IRQ_StartEx has been called. 
 235:Generated_Source\PSoC4/ADC_SAR_Seq_1_IRQ.c **** *   To set the initial priority for the component, use the Design-Wide Resources
ARM GAS  C:\Users\glenn\AppData\Local\Temp\ccvOL8yy.s 			page 6


 236:Generated_Source\PSoC4/ADC_SAR_Seq_1_IRQ.c **** *   Interrupt Editor.
 237:Generated_Source\PSoC4/ADC_SAR_Seq_1_IRQ.c **** *
 238:Generated_Source\PSoC4/ADC_SAR_Seq_1_IRQ.c **** *   Note This API has no effect on Non-maskable interrupt NMI).
 239:Generated_Source\PSoC4/ADC_SAR_Seq_1_IRQ.c **** *
 240:Generated_Source\PSoC4/ADC_SAR_Seq_1_IRQ.c **** * Parameters:
 241:Generated_Source\PSoC4/ADC_SAR_Seq_1_IRQ.c **** *   priority: Priority of the interrupt, 0 being the highest priority
 242:Generated_Source\PSoC4/ADC_SAR_Seq_1_IRQ.c **** *             PSoC 3 and PSoC 5LP: Priority is from 0 to 7.
 243:Generated_Source\PSoC4/ADC_SAR_Seq_1_IRQ.c **** *             PSoC 4: Priority is from 0 to 3.
 244:Generated_Source\PSoC4/ADC_SAR_Seq_1_IRQ.c **** *
 245:Generated_Source\PSoC4/ADC_SAR_Seq_1_IRQ.c **** * Return:
 246:Generated_Source\PSoC4/ADC_SAR_Seq_1_IRQ.c **** *   None
 247:Generated_Source\PSoC4/ADC_SAR_Seq_1_IRQ.c **** *
 248:Generated_Source\PSoC4/ADC_SAR_Seq_1_IRQ.c **** *******************************************************************************/
 249:Generated_Source\PSoC4/ADC_SAR_Seq_1_IRQ.c **** void ADC_SAR_Seq_1_IRQ_SetPriority(uint8 priority)
 250:Generated_Source\PSoC4/ADC_SAR_Seq_1_IRQ.c **** {
 251:Generated_Source\PSoC4/ADC_SAR_Seq_1_IRQ.c **** 	uint8 interruptState;
 252:Generated_Source\PSoC4/ADC_SAR_Seq_1_IRQ.c ****     uint32 priorityOffset = ((ADC_SAR_Seq_1_IRQ__INTC_NUMBER % 4u) * 8u) + 6u;
 253:Generated_Source\PSoC4/ADC_SAR_Seq_1_IRQ.c ****     
 254:Generated_Source\PSoC4/ADC_SAR_Seq_1_IRQ.c **** 	interruptState = CyEnterCriticalSection();
 255:Generated_Source\PSoC4/ADC_SAR_Seq_1_IRQ.c ****     *ADC_SAR_Seq_1_IRQ_INTC_PRIOR = (*ADC_SAR_Seq_1_IRQ_INTC_PRIOR & (uint32)(~ADC_SAR_Seq_1_IRQ__I
 256:Generated_Source\PSoC4/ADC_SAR_Seq_1_IRQ.c ****                                     ((uint32)priority << priorityOffset);
 257:Generated_Source\PSoC4/ADC_SAR_Seq_1_IRQ.c **** 	CyExitCriticalSection(interruptState);
 258:Generated_Source\PSoC4/ADC_SAR_Seq_1_IRQ.c **** }
 259:Generated_Source\PSoC4/ADC_SAR_Seq_1_IRQ.c **** 
 260:Generated_Source\PSoC4/ADC_SAR_Seq_1_IRQ.c **** 
 261:Generated_Source\PSoC4/ADC_SAR_Seq_1_IRQ.c **** /*******************************************************************************
 262:Generated_Source\PSoC4/ADC_SAR_Seq_1_IRQ.c **** * Function Name: ADC_SAR_Seq_1_IRQ_GetPriority
 263:Generated_Source\PSoC4/ADC_SAR_Seq_1_IRQ.c **** ********************************************************************************
 264:Generated_Source\PSoC4/ADC_SAR_Seq_1_IRQ.c **** *
 265:Generated_Source\PSoC4/ADC_SAR_Seq_1_IRQ.c **** * Summary:
 266:Generated_Source\PSoC4/ADC_SAR_Seq_1_IRQ.c **** *   Gets the Priority of the Interrupt.
 267:Generated_Source\PSoC4/ADC_SAR_Seq_1_IRQ.c **** *
 268:Generated_Source\PSoC4/ADC_SAR_Seq_1_IRQ.c **** * Parameters:
 269:Generated_Source\PSoC4/ADC_SAR_Seq_1_IRQ.c **** *   None
 270:Generated_Source\PSoC4/ADC_SAR_Seq_1_IRQ.c **** *
 271:Generated_Source\PSoC4/ADC_SAR_Seq_1_IRQ.c **** * Return:
 272:Generated_Source\PSoC4/ADC_SAR_Seq_1_IRQ.c **** *   Priority of the interrupt, 0 being the highest priority
 273:Generated_Source\PSoC4/ADC_SAR_Seq_1_IRQ.c **** *    PSoC 3 and PSoC 5LP: Priority is from 0 to 7.
 274:Generated_Source\PSoC4/ADC_SAR_Seq_1_IRQ.c **** *    PSoC 4: Priority is from 0 to 3.
 275:Generated_Source\PSoC4/ADC_SAR_Seq_1_IRQ.c **** *
 276:Generated_Source\PSoC4/ADC_SAR_Seq_1_IRQ.c **** *******************************************************************************/
 277:Generated_Source\PSoC4/ADC_SAR_Seq_1_IRQ.c **** uint8 ADC_SAR_Seq_1_IRQ_GetPriority(void)
 278:Generated_Source\PSoC4/ADC_SAR_Seq_1_IRQ.c **** {
 279:Generated_Source\PSoC4/ADC_SAR_Seq_1_IRQ.c ****     uint32 priority;
 280:Generated_Source\PSoC4/ADC_SAR_Seq_1_IRQ.c **** 	uint32 priorityOffset = ((ADC_SAR_Seq_1_IRQ__INTC_NUMBER % 4u) * 8u) + 6u;
 281:Generated_Source\PSoC4/ADC_SAR_Seq_1_IRQ.c **** 
 282:Generated_Source\PSoC4/ADC_SAR_Seq_1_IRQ.c ****     priority = (*ADC_SAR_Seq_1_IRQ_INTC_PRIOR & ADC_SAR_Seq_1_IRQ__INTC_PRIOR_MASK) >> priorityOffs
 283:Generated_Source\PSoC4/ADC_SAR_Seq_1_IRQ.c **** 
 284:Generated_Source\PSoC4/ADC_SAR_Seq_1_IRQ.c ****     return (uint8)priority;
 285:Generated_Source\PSoC4/ADC_SAR_Seq_1_IRQ.c **** }
 286:Generated_Source\PSoC4/ADC_SAR_Seq_1_IRQ.c **** 
 287:Generated_Source\PSoC4/ADC_SAR_Seq_1_IRQ.c **** 
 288:Generated_Source\PSoC4/ADC_SAR_Seq_1_IRQ.c **** /*******************************************************************************
 289:Generated_Source\PSoC4/ADC_SAR_Seq_1_IRQ.c **** * Function Name: ADC_SAR_Seq_1_IRQ_Enable
 290:Generated_Source\PSoC4/ADC_SAR_Seq_1_IRQ.c **** ********************************************************************************
 291:Generated_Source\PSoC4/ADC_SAR_Seq_1_IRQ.c **** *
 292:Generated_Source\PSoC4/ADC_SAR_Seq_1_IRQ.c **** * Summary:
ARM GAS  C:\Users\glenn\AppData\Local\Temp\ccvOL8yy.s 			page 7


 293:Generated_Source\PSoC4/ADC_SAR_Seq_1_IRQ.c **** *   Enables the interrupt to the interrupt controller. Do not call this function
 294:Generated_Source\PSoC4/ADC_SAR_Seq_1_IRQ.c **** *   unless ISR_Start() has been called or the functionality of the ISR_Start() 
 295:Generated_Source\PSoC4/ADC_SAR_Seq_1_IRQ.c **** *   function, which sets the vector and the priority, has been called.
 296:Generated_Source\PSoC4/ADC_SAR_Seq_1_IRQ.c **** *
 297:Generated_Source\PSoC4/ADC_SAR_Seq_1_IRQ.c **** * Parameters:
 298:Generated_Source\PSoC4/ADC_SAR_Seq_1_IRQ.c **** *   None
 299:Generated_Source\PSoC4/ADC_SAR_Seq_1_IRQ.c **** *
 300:Generated_Source\PSoC4/ADC_SAR_Seq_1_IRQ.c **** * Return:
 301:Generated_Source\PSoC4/ADC_SAR_Seq_1_IRQ.c **** *   None
 302:Generated_Source\PSoC4/ADC_SAR_Seq_1_IRQ.c **** *
 303:Generated_Source\PSoC4/ADC_SAR_Seq_1_IRQ.c **** *******************************************************************************/
 304:Generated_Source\PSoC4/ADC_SAR_Seq_1_IRQ.c **** void ADC_SAR_Seq_1_IRQ_Enable(void)
 305:Generated_Source\PSoC4/ADC_SAR_Seq_1_IRQ.c **** {
 306:Generated_Source\PSoC4/ADC_SAR_Seq_1_IRQ.c ****     /* Enable the general interrupt. */
 307:Generated_Source\PSoC4/ADC_SAR_Seq_1_IRQ.c ****     *ADC_SAR_Seq_1_IRQ_INTC_SET_EN = ADC_SAR_Seq_1_IRQ__INTC_MASK;
 308:Generated_Source\PSoC4/ADC_SAR_Seq_1_IRQ.c **** }
 309:Generated_Source\PSoC4/ADC_SAR_Seq_1_IRQ.c **** 
 310:Generated_Source\PSoC4/ADC_SAR_Seq_1_IRQ.c **** 
 311:Generated_Source\PSoC4/ADC_SAR_Seq_1_IRQ.c **** /*******************************************************************************
 312:Generated_Source\PSoC4/ADC_SAR_Seq_1_IRQ.c **** * Function Name: ADC_SAR_Seq_1_IRQ_GetState
 313:Generated_Source\PSoC4/ADC_SAR_Seq_1_IRQ.c **** ********************************************************************************
 314:Generated_Source\PSoC4/ADC_SAR_Seq_1_IRQ.c **** *
 315:Generated_Source\PSoC4/ADC_SAR_Seq_1_IRQ.c **** * Summary:
 316:Generated_Source\PSoC4/ADC_SAR_Seq_1_IRQ.c **** *   Gets the state (enabled, disabled) of the Interrupt.
 317:Generated_Source\PSoC4/ADC_SAR_Seq_1_IRQ.c **** *
 318:Generated_Source\PSoC4/ADC_SAR_Seq_1_IRQ.c **** * Parameters:
 319:Generated_Source\PSoC4/ADC_SAR_Seq_1_IRQ.c **** *   None
 320:Generated_Source\PSoC4/ADC_SAR_Seq_1_IRQ.c **** *
 321:Generated_Source\PSoC4/ADC_SAR_Seq_1_IRQ.c **** * Return:
 322:Generated_Source\PSoC4/ADC_SAR_Seq_1_IRQ.c **** *   1 if enabled, 0 if disabled.
 323:Generated_Source\PSoC4/ADC_SAR_Seq_1_IRQ.c **** *
 324:Generated_Source\PSoC4/ADC_SAR_Seq_1_IRQ.c **** *******************************************************************************/
 325:Generated_Source\PSoC4/ADC_SAR_Seq_1_IRQ.c **** uint8 ADC_SAR_Seq_1_IRQ_GetState(void)
 326:Generated_Source\PSoC4/ADC_SAR_Seq_1_IRQ.c **** {
 327:Generated_Source\PSoC4/ADC_SAR_Seq_1_IRQ.c ****     /* Get the state of the general interrupt. */
 328:Generated_Source\PSoC4/ADC_SAR_Seq_1_IRQ.c ****     return ((*ADC_SAR_Seq_1_IRQ_INTC_SET_EN & (uint32)ADC_SAR_Seq_1_IRQ__INTC_MASK) != 0u) ? 1u:0u;
 329:Generated_Source\PSoC4/ADC_SAR_Seq_1_IRQ.c **** }
 330:Generated_Source\PSoC4/ADC_SAR_Seq_1_IRQ.c **** 
 331:Generated_Source\PSoC4/ADC_SAR_Seq_1_IRQ.c **** 
 332:Generated_Source\PSoC4/ADC_SAR_Seq_1_IRQ.c **** /*******************************************************************************
 333:Generated_Source\PSoC4/ADC_SAR_Seq_1_IRQ.c **** * Function Name: ADC_SAR_Seq_1_IRQ_Disable
 334:Generated_Source\PSoC4/ADC_SAR_Seq_1_IRQ.c **** ********************************************************************************
 335:Generated_Source\PSoC4/ADC_SAR_Seq_1_IRQ.c **** *
 336:Generated_Source\PSoC4/ADC_SAR_Seq_1_IRQ.c **** * Summary:
 337:Generated_Source\PSoC4/ADC_SAR_Seq_1_IRQ.c **** *   Disables the Interrupt in the interrupt controller.
 338:Generated_Source\PSoC4/ADC_SAR_Seq_1_IRQ.c **** *
 339:Generated_Source\PSoC4/ADC_SAR_Seq_1_IRQ.c **** * Parameters:
 340:Generated_Source\PSoC4/ADC_SAR_Seq_1_IRQ.c **** *   None
 341:Generated_Source\PSoC4/ADC_SAR_Seq_1_IRQ.c **** *
 342:Generated_Source\PSoC4/ADC_SAR_Seq_1_IRQ.c **** * Return:
 343:Generated_Source\PSoC4/ADC_SAR_Seq_1_IRQ.c **** *   None
 344:Generated_Source\PSoC4/ADC_SAR_Seq_1_IRQ.c **** *
 345:Generated_Source\PSoC4/ADC_SAR_Seq_1_IRQ.c **** *******************************************************************************/
 346:Generated_Source\PSoC4/ADC_SAR_Seq_1_IRQ.c **** void ADC_SAR_Seq_1_IRQ_Disable(void)
 347:Generated_Source\PSoC4/ADC_SAR_Seq_1_IRQ.c **** {
 348:Generated_Source\PSoC4/ADC_SAR_Seq_1_IRQ.c ****     /* Disable the general interrupt. */
 349:Generated_Source\PSoC4/ADC_SAR_Seq_1_IRQ.c ****     *ADC_SAR_Seq_1_IRQ_INTC_CLR_EN = ADC_SAR_Seq_1_IRQ__INTC_MASK;
ARM GAS  C:\Users\glenn\AppData\Local\Temp\ccvOL8yy.s 			page 8


  50              		.loc 1 349 0
  51 0002 8024     		mov	r4, #128
  52 0004 094B     		ldr	r3, .L3
  53 0006 6402     		lsl	r4, r4, #9
  54 0008 1C60     		str	r4, [r3]
  55              	.LVL0:
  56              	.LBE27:
  57              	.LBE26:
  58              	.LBB28:
  59              	.LBB29:
 201:Generated_Source\PSoC4/ADC_SAR_Seq_1_IRQ.c **** }
  60              		.loc 1 201 0
  61 000a 8023     		mov	r3, #128
  62 000c 0849     		ldr	r1, .L3+4
  63 000e 094A     		ldr	r2, .L3+8
  64              	.LBE29:
  65              	.LBE28:
  69:Generated_Source\PSoC4/ADC_SAR_Seq_1_IRQ.c **** 
  66              		.loc 1 69 0
  67              		@ sp needed
  68              	.LBB31:
  69              	.LBB30:
 201:Generated_Source\PSoC4/ADC_SAR_Seq_1_IRQ.c **** }
  70              		.loc 1 201 0
  71 0010 D150     		str	r1, [r2, r3]
  72              	.LVL1:
  73              	.LBE30:
  74              	.LBE31:
  75              	.LBB32:
  76              	.LBB33:
 254:Generated_Source\PSoC4/ADC_SAR_Seq_1_IRQ.c ****     *ADC_SAR_Seq_1_IRQ_INTC_PRIOR = (*ADC_SAR_Seq_1_IRQ_INTC_PRIOR & (uint32)(~ADC_SAR_Seq_1_IRQ__I
  77              		.loc 1 254 0
  78 0012 FFF7FEFF 		bl	CyEnterCriticalSection
  79              	.LVL2:
 255:Generated_Source\PSoC4/ADC_SAR_Seq_1_IRQ.c ****                                     ((uint32)priority << priorityOffset);
  80              		.loc 1 255 0
  81 0016 C023     		mov	r3, #192
  82 0018 074A     		ldr	r2, .L3+12
  83 001a 1168     		ldr	r1, [r2]
  84 001c 0B43     		orr	r3, r1
  85 001e 1360     		str	r3, [r2]
 257:Generated_Source\PSoC4/ADC_SAR_Seq_1_IRQ.c **** }
  86              		.loc 1 257 0
  87 0020 FFF7FEFF 		bl	CyExitCriticalSection
  88              	.LVL3:
  89              	.LBE33:
  90              	.LBE32:
  91              	.LBB34:
  92              	.LBB35:
 307:Generated_Source\PSoC4/ADC_SAR_Seq_1_IRQ.c **** }
  93              		.loc 1 307 0
  94 0024 054B     		ldr	r3, .L3+16
  95 0026 1C60     		str	r4, [r3]
  96              	.LBE35:
  97              	.LBE34:
  69:Generated_Source\PSoC4/ADC_SAR_Seq_1_IRQ.c **** 
  98              		.loc 1 69 0
ARM GAS  C:\Users\glenn\AppData\Local\Temp\ccvOL8yy.s 			page 9


  99 0028 10BD     		pop	{r4, pc}
 100              	.L4:
 101 002a C046     		.align	2
 102              	.L3:
 103 002c 80E100E0 		.word	-536813184
 104 0030 00000000 		.word	ADC_SAR_Seq_1_IRQ_Interrupt
 105 0034 00000000 		.word	CyRamVectors
 106 0038 10E400E0 		.word	-536812528
 107 003c 00E100E0 		.word	-536813312
 108              		.cfi_endproc
 109              	.LFE1:
 110              		.size	ADC_SAR_Seq_1_IRQ_Start, .-ADC_SAR_Seq_1_IRQ_Start
 111              		.section	.text.ADC_SAR_Seq_1_IRQ_StartEx,"ax",%progbits
 112              		.align	2
 113              		.global	ADC_SAR_Seq_1_IRQ_StartEx
 114              		.code	16
 115              		.thumb_func
 116              		.type	ADC_SAR_Seq_1_IRQ_StartEx, %function
 117              	ADC_SAR_Seq_1_IRQ_StartEx:
 118              	.LFB2:
 100:Generated_Source\PSoC4/ADC_SAR_Seq_1_IRQ.c ****     /* For all we know the interrupt is active. */
 119              		.loc 1 100 0
 120              		.cfi_startproc
 121              	.LVL4:
 122 0000 10B5     		push	{r4, lr}
 123              		.cfi_def_cfa_offset 8
 124              		.cfi_offset 4, -8
 125              		.cfi_offset 14, -4
 126              	.LBB44:
 127              	.LBB45:
 128              		.loc 1 349 0
 129 0002 8024     		mov	r4, #128
 130 0004 084B     		ldr	r3, .L6
 131 0006 6402     		lsl	r4, r4, #9
 132 0008 1C60     		str	r4, [r3]
 133              	.LVL5:
 134              	.LBE45:
 135              	.LBE44:
 136              	.LBB46:
 137              	.LBB47:
 201:Generated_Source\PSoC4/ADC_SAR_Seq_1_IRQ.c **** }
 138              		.loc 1 201 0
 139 000a 8023     		mov	r3, #128
 140 000c 074A     		ldr	r2, .L6+4
 141              	.LBE47:
 142              	.LBE46:
 112:Generated_Source\PSoC4/ADC_SAR_Seq_1_IRQ.c **** 
 143              		.loc 1 112 0
 144              		@ sp needed
 145              	.LBB49:
 146              	.LBB48:
 201:Generated_Source\PSoC4/ADC_SAR_Seq_1_IRQ.c **** }
 147              		.loc 1 201 0
 148 000e D050     		str	r0, [r2, r3]
 149              	.LVL6:
 150              	.LBE48:
 151              	.LBE49:
ARM GAS  C:\Users\glenn\AppData\Local\Temp\ccvOL8yy.s 			page 10


 152              	.LBB50:
 153              	.LBB51:
 254:Generated_Source\PSoC4/ADC_SAR_Seq_1_IRQ.c ****     *ADC_SAR_Seq_1_IRQ_INTC_PRIOR = (*ADC_SAR_Seq_1_IRQ_INTC_PRIOR & (uint32)(~ADC_SAR_Seq_1_IRQ__I
 154              		.loc 1 254 0
 155 0010 FFF7FEFF 		bl	CyEnterCriticalSection
 156              	.LVL7:
 255:Generated_Source\PSoC4/ADC_SAR_Seq_1_IRQ.c ****                                     ((uint32)priority << priorityOffset);
 157              		.loc 1 255 0
 158 0014 C023     		mov	r3, #192
 159 0016 064A     		ldr	r2, .L6+8
 160 0018 1168     		ldr	r1, [r2]
 161 001a 0B43     		orr	r3, r1
 162 001c 1360     		str	r3, [r2]
 257:Generated_Source\PSoC4/ADC_SAR_Seq_1_IRQ.c **** }
 163              		.loc 1 257 0
 164 001e FFF7FEFF 		bl	CyExitCriticalSection
 165              	.LVL8:
 166              	.LBE51:
 167              	.LBE50:
 168              	.LBB52:
 169              	.LBB53:
 307:Generated_Source\PSoC4/ADC_SAR_Seq_1_IRQ.c **** }
 170              		.loc 1 307 0
 171 0022 044B     		ldr	r3, .L6+12
 172 0024 1C60     		str	r4, [r3]
 173              	.LBE53:
 174              	.LBE52:
 112:Generated_Source\PSoC4/ADC_SAR_Seq_1_IRQ.c **** 
 175              		.loc 1 112 0
 176 0026 10BD     		pop	{r4, pc}
 177              	.L7:
 178              		.align	2
 179              	.L6:
 180 0028 80E100E0 		.word	-536813184
 181 002c 00000000 		.word	CyRamVectors
 182 0030 10E400E0 		.word	-536812528
 183 0034 00E100E0 		.word	-536813312
 184              		.cfi_endproc
 185              	.LFE2:
 186              		.size	ADC_SAR_Seq_1_IRQ_StartEx, .-ADC_SAR_Seq_1_IRQ_StartEx
 187              		.section	.text.ADC_SAR_Seq_1_IRQ_Stop,"ax",%progbits
 188              		.align	2
 189              		.global	ADC_SAR_Seq_1_IRQ_Stop
 190              		.code	16
 191              		.thumb_func
 192              		.type	ADC_SAR_Seq_1_IRQ_Stop, %function
 193              	ADC_SAR_Seq_1_IRQ_Stop:
 194              	.LFB3:
 130:Generated_Source\PSoC4/ADC_SAR_Seq_1_IRQ.c ****     /* Disable this interrupt. */
 195              		.loc 1 130 0
 196              		.cfi_startproc
 197              	.LBB54:
 198              	.LBB55:
 199              		.loc 1 349 0
 200 0000 8022     		mov	r2, #128
 201 0002 044B     		ldr	r3, .L9
 202 0004 5202     		lsl	r2, r2, #9
ARM GAS  C:\Users\glenn\AppData\Local\Temp\ccvOL8yy.s 			page 11


 203 0006 1A60     		str	r2, [r3]
 204              	.LVL9:
 205              	.LBE55:
 206              	.LBE54:
 207              	.LBB56:
 208              	.LBB57:
 201:Generated_Source\PSoC4/ADC_SAR_Seq_1_IRQ.c **** }
 209              		.loc 1 201 0
 210 0008 8023     		mov	r3, #128
 211 000a 0349     		ldr	r1, .L9+4
 212 000c 034A     		ldr	r2, .L9+8
 213              	.LBE57:
 214              	.LBE56:
 136:Generated_Source\PSoC4/ADC_SAR_Seq_1_IRQ.c **** 
 215              		.loc 1 136 0
 216              		@ sp needed
 217              	.LBB59:
 218              	.LBB58:
 201:Generated_Source\PSoC4/ADC_SAR_Seq_1_IRQ.c **** }
 219              		.loc 1 201 0
 220 000e D150     		str	r1, [r2, r3]
 221              	.LBE58:
 222              	.LBE59:
 136:Generated_Source\PSoC4/ADC_SAR_Seq_1_IRQ.c **** 
 223              		.loc 1 136 0
 224 0010 7047     		bx	lr
 225              	.L10:
 226 0012 C046     		.align	2
 227              	.L9:
 228 0014 80E100E0 		.word	-536813184
 229 0018 00000000 		.word	IntDefaultHandler
 230 001c 00000000 		.word	CyRamVectors
 231              		.cfi_endproc
 232              	.LFE3:
 233              		.size	ADC_SAR_Seq_1_IRQ_Stop, .-ADC_SAR_Seq_1_IRQ_Stop
 234              		.section	.text.ADC_SAR_Seq_1_IRQ_SetVector,"ax",%progbits
 235              		.align	2
 236              		.global	ADC_SAR_Seq_1_IRQ_SetVector
 237              		.code	16
 238              		.thumb_func
 239              		.type	ADC_SAR_Seq_1_IRQ_SetVector, %function
 240              	ADC_SAR_Seq_1_IRQ_SetVector:
 241              	.LFB5:
 200:Generated_Source\PSoC4/ADC_SAR_Seq_1_IRQ.c ****     CyRamVectors[CYINT_IRQ_BASE + ADC_SAR_Seq_1_IRQ__INTC_NUMBER] = address;
 242              		.loc 1 200 0
 243              		.cfi_startproc
 244              	.LVL10:
 201:Generated_Source\PSoC4/ADC_SAR_Seq_1_IRQ.c **** }
 245              		.loc 1 201 0
 246 0000 8023     		mov	r3, #128
 247 0002 014A     		ldr	r2, .L12
 202:Generated_Source\PSoC4/ADC_SAR_Seq_1_IRQ.c **** 
 248              		.loc 1 202 0
 249              		@ sp needed
 201:Generated_Source\PSoC4/ADC_SAR_Seq_1_IRQ.c **** }
 250              		.loc 1 201 0
 251 0004 D050     		str	r0, [r2, r3]
ARM GAS  C:\Users\glenn\AppData\Local\Temp\ccvOL8yy.s 			page 12


 202:Generated_Source\PSoC4/ADC_SAR_Seq_1_IRQ.c **** 
 252              		.loc 1 202 0
 253 0006 7047     		bx	lr
 254              	.L13:
 255              		.align	2
 256              	.L12:
 257 0008 00000000 		.word	CyRamVectors
 258              		.cfi_endproc
 259              	.LFE5:
 260              		.size	ADC_SAR_Seq_1_IRQ_SetVector, .-ADC_SAR_Seq_1_IRQ_SetVector
 261              		.section	.text.ADC_SAR_Seq_1_IRQ_GetVector,"ax",%progbits
 262              		.align	2
 263              		.global	ADC_SAR_Seq_1_IRQ_GetVector
 264              		.code	16
 265              		.thumb_func
 266              		.type	ADC_SAR_Seq_1_IRQ_GetVector, %function
 267              	ADC_SAR_Seq_1_IRQ_GetVector:
 268              	.LFB6:
 220:Generated_Source\PSoC4/ADC_SAR_Seq_1_IRQ.c ****     return CyRamVectors[CYINT_IRQ_BASE + ADC_SAR_Seq_1_IRQ__INTC_NUMBER];
 269              		.loc 1 220 0
 270              		.cfi_startproc
 221:Generated_Source\PSoC4/ADC_SAR_Seq_1_IRQ.c **** }
 271              		.loc 1 221 0
 272 0000 8023     		mov	r3, #128
 273 0002 014A     		ldr	r2, .L15
 222:Generated_Source\PSoC4/ADC_SAR_Seq_1_IRQ.c **** 
 274              		.loc 1 222 0
 275              		@ sp needed
 221:Generated_Source\PSoC4/ADC_SAR_Seq_1_IRQ.c **** }
 276              		.loc 1 221 0
 277 0004 D058     		ldr	r0, [r2, r3]
 222:Generated_Source\PSoC4/ADC_SAR_Seq_1_IRQ.c **** 
 278              		.loc 1 222 0
 279 0006 7047     		bx	lr
 280              	.L16:
 281              		.align	2
 282              	.L15:
 283 0008 00000000 		.word	CyRamVectors
 284              		.cfi_endproc
 285              	.LFE6:
 286              		.size	ADC_SAR_Seq_1_IRQ_GetVector, .-ADC_SAR_Seq_1_IRQ_GetVector
 287              		.section	.text.ADC_SAR_Seq_1_IRQ_SetPriority,"ax",%progbits
 288              		.align	2
 289              		.global	ADC_SAR_Seq_1_IRQ_SetPriority
 290              		.code	16
 291              		.thumb_func
 292              		.type	ADC_SAR_Seq_1_IRQ_SetPriority, %function
 293              	ADC_SAR_Seq_1_IRQ_SetPriority:
 294              	.LFB7:
 250:Generated_Source\PSoC4/ADC_SAR_Seq_1_IRQ.c **** 	uint8 interruptState;
 295              		.loc 1 250 0
 296              		.cfi_startproc
 297              	.LVL11:
 298 0000 10B5     		push	{r4, lr}
 299              		.cfi_def_cfa_offset 8
 300              		.cfi_offset 4, -8
 301              		.cfi_offset 14, -4
ARM GAS  C:\Users\glenn\AppData\Local\Temp\ccvOL8yy.s 			page 13


 250:Generated_Source\PSoC4/ADC_SAR_Seq_1_IRQ.c **** 	uint8 interruptState;
 302              		.loc 1 250 0
 303 0002 041C     		mov	r4, r0
 254:Generated_Source\PSoC4/ADC_SAR_Seq_1_IRQ.c ****     *ADC_SAR_Seq_1_IRQ_INTC_PRIOR = (*ADC_SAR_Seq_1_IRQ_INTC_PRIOR & (uint32)(~ADC_SAR_Seq_1_IRQ__I
 304              		.loc 1 254 0
 305 0004 FFF7FEFF 		bl	CyEnterCriticalSection
 306              	.LVL12:
 255:Generated_Source\PSoC4/ADC_SAR_Seq_1_IRQ.c ****                                     ((uint32)priority << priorityOffset);
 307              		.loc 1 255 0
 308 0008 C021     		mov	r1, #192
 309 000a 044A     		ldr	r2, .L18
 256:Generated_Source\PSoC4/ADC_SAR_Seq_1_IRQ.c **** 	CyExitCriticalSection(interruptState);
 310              		.loc 1 256 0
 311 000c A401     		lsl	r4, r4, #6
 255:Generated_Source\PSoC4/ADC_SAR_Seq_1_IRQ.c ****                                     ((uint32)priority << priorityOffset);
 312              		.loc 1 255 0
 313 000e 1368     		ldr	r3, [r2]
 258:Generated_Source\PSoC4/ADC_SAR_Seq_1_IRQ.c **** 
 314              		.loc 1 258 0
 315              		@ sp needed
 255:Generated_Source\PSoC4/ADC_SAR_Seq_1_IRQ.c ****                                     ((uint32)priority << priorityOffset);
 316              		.loc 1 255 0
 317 0010 8B43     		bic	r3, r1
 318 0012 2343     		orr	r3, r4
 319 0014 1360     		str	r3, [r2]
 257:Generated_Source\PSoC4/ADC_SAR_Seq_1_IRQ.c **** }
 320              		.loc 1 257 0
 321 0016 FFF7FEFF 		bl	CyExitCriticalSection
 322              	.LVL13:
 258:Generated_Source\PSoC4/ADC_SAR_Seq_1_IRQ.c **** 
 323              		.loc 1 258 0
 324 001a 10BD     		pop	{r4, pc}
 325              	.L19:
 326              		.align	2
 327              	.L18:
 328 001c 10E400E0 		.word	-536812528
 329              		.cfi_endproc
 330              	.LFE7:
 331              		.size	ADC_SAR_Seq_1_IRQ_SetPriority, .-ADC_SAR_Seq_1_IRQ_SetPriority
 332              		.section	.text.ADC_SAR_Seq_1_IRQ_GetPriority,"ax",%progbits
 333              		.align	2
 334              		.global	ADC_SAR_Seq_1_IRQ_GetPriority
 335              		.code	16
 336              		.thumb_func
 337              		.type	ADC_SAR_Seq_1_IRQ_GetPriority, %function
 338              	ADC_SAR_Seq_1_IRQ_GetPriority:
 339              	.LFB8:
 278:Generated_Source\PSoC4/ADC_SAR_Seq_1_IRQ.c ****     uint32 priority;
 340              		.loc 1 278 0
 341              		.cfi_startproc
 342              	.LVL14:
 282:Generated_Source\PSoC4/ADC_SAR_Seq_1_IRQ.c **** 
 343              		.loc 1 282 0
 344 0000 024B     		ldr	r3, .L21
 285:Generated_Source\PSoC4/ADC_SAR_Seq_1_IRQ.c **** 
 345              		.loc 1 285 0
 346              		@ sp needed
ARM GAS  C:\Users\glenn\AppData\Local\Temp\ccvOL8yy.s 			page 14


 282:Generated_Source\PSoC4/ADC_SAR_Seq_1_IRQ.c **** 
 347              		.loc 1 282 0
 348 0002 1868     		ldr	r0, [r3]
 349              	.LVL15:
 350 0004 0006     		lsl	r0, r0, #24
 351              	.LVL16:
 284:Generated_Source\PSoC4/ADC_SAR_Seq_1_IRQ.c **** }
 352              		.loc 1 284 0
 353 0006 800F     		lsr	r0, r0, #30
 285:Generated_Source\PSoC4/ADC_SAR_Seq_1_IRQ.c **** 
 354              		.loc 1 285 0
 355 0008 7047     		bx	lr
 356              	.L22:
 357 000a C046     		.align	2
 358              	.L21:
 359 000c 10E400E0 		.word	-536812528
 360              		.cfi_endproc
 361              	.LFE8:
 362              		.size	ADC_SAR_Seq_1_IRQ_GetPriority, .-ADC_SAR_Seq_1_IRQ_GetPriority
 363              		.section	.text.ADC_SAR_Seq_1_IRQ_Enable,"ax",%progbits
 364              		.align	2
 365              		.global	ADC_SAR_Seq_1_IRQ_Enable
 366              		.code	16
 367              		.thumb_func
 368              		.type	ADC_SAR_Seq_1_IRQ_Enable, %function
 369              	ADC_SAR_Seq_1_IRQ_Enable:
 370              	.LFB9:
 305:Generated_Source\PSoC4/ADC_SAR_Seq_1_IRQ.c ****     /* Enable the general interrupt. */
 371              		.loc 1 305 0
 372              		.cfi_startproc
 307:Generated_Source\PSoC4/ADC_SAR_Seq_1_IRQ.c **** }
 373              		.loc 1 307 0
 374 0000 8022     		mov	r2, #128
 375 0002 024B     		ldr	r3, .L24
 376 0004 5202     		lsl	r2, r2, #9
 377 0006 1A60     		str	r2, [r3]
 308:Generated_Source\PSoC4/ADC_SAR_Seq_1_IRQ.c **** 
 378              		.loc 1 308 0
 379              		@ sp needed
 380 0008 7047     		bx	lr
 381              	.L25:
 382 000a C046     		.align	2
 383              	.L24:
 384 000c 00E100E0 		.word	-536813312
 385              		.cfi_endproc
 386              	.LFE9:
 387              		.size	ADC_SAR_Seq_1_IRQ_Enable, .-ADC_SAR_Seq_1_IRQ_Enable
 388              		.section	.text.ADC_SAR_Seq_1_IRQ_GetState,"ax",%progbits
 389              		.align	2
 390              		.global	ADC_SAR_Seq_1_IRQ_GetState
 391              		.code	16
 392              		.thumb_func
 393              		.type	ADC_SAR_Seq_1_IRQ_GetState, %function
 394              	ADC_SAR_Seq_1_IRQ_GetState:
 395              	.LFB10:
 326:Generated_Source\PSoC4/ADC_SAR_Seq_1_IRQ.c ****     /* Get the state of the general interrupt. */
 396              		.loc 1 326 0
ARM GAS  C:\Users\glenn\AppData\Local\Temp\ccvOL8yy.s 			page 15


 397              		.cfi_startproc
 328:Generated_Source\PSoC4/ADC_SAR_Seq_1_IRQ.c **** }
 398              		.loc 1 328 0
 399 0000 024B     		ldr	r3, .L27
 329:Generated_Source\PSoC4/ADC_SAR_Seq_1_IRQ.c **** 
 400              		.loc 1 329 0
 401              		@ sp needed
 328:Generated_Source\PSoC4/ADC_SAR_Seq_1_IRQ.c **** }
 402              		.loc 1 328 0
 403 0002 1868     		ldr	r0, [r3]
 404 0004 C003     		lsl	r0, r0, #15
 405 0006 C00F     		lsr	r0, r0, #31
 329:Generated_Source\PSoC4/ADC_SAR_Seq_1_IRQ.c **** 
 406              		.loc 1 329 0
 407 0008 7047     		bx	lr
 408              	.L28:
 409 000a C046     		.align	2
 410              	.L27:
 411 000c 00E100E0 		.word	-536813312
 412              		.cfi_endproc
 413              	.LFE10:
 414              		.size	ADC_SAR_Seq_1_IRQ_GetState, .-ADC_SAR_Seq_1_IRQ_GetState
 415              		.section	.text.ADC_SAR_Seq_1_IRQ_Disable,"ax",%progbits
 416              		.align	2
 417              		.global	ADC_SAR_Seq_1_IRQ_Disable
 418              		.code	16
 419              		.thumb_func
 420              		.type	ADC_SAR_Seq_1_IRQ_Disable, %function
 421              	ADC_SAR_Seq_1_IRQ_Disable:
 422              	.LFB11:
 347:Generated_Source\PSoC4/ADC_SAR_Seq_1_IRQ.c ****     /* Disable the general interrupt. */
 423              		.loc 1 347 0
 424              		.cfi_startproc
 425              		.loc 1 349 0
 426 0000 8022     		mov	r2, #128
 427 0002 024B     		ldr	r3, .L30
 428 0004 5202     		lsl	r2, r2, #9
 429 0006 1A60     		str	r2, [r3]
 350:Generated_Source\PSoC4/ADC_SAR_Seq_1_IRQ.c **** }
 430              		.loc 1 350 0
 431              		@ sp needed
 432 0008 7047     		bx	lr
 433              	.L31:
 434 000a C046     		.align	2
 435              	.L30:
 436 000c 80E100E0 		.word	-536813184
 437              		.cfi_endproc
 438              	.LFE11:
 439              		.size	ADC_SAR_Seq_1_IRQ_Disable, .-ADC_SAR_Seq_1_IRQ_Disable
 440              		.section	.text.ADC_SAR_Seq_1_IRQ_SetPending,"ax",%progbits
 441              		.align	2
 442              		.global	ADC_SAR_Seq_1_IRQ_SetPending
 443              		.code	16
 444              		.thumb_func
 445              		.type	ADC_SAR_Seq_1_IRQ_SetPending, %function
 446              	ADC_SAR_Seq_1_IRQ_SetPending:
 447              	.LFB12:
ARM GAS  C:\Users\glenn\AppData\Local\Temp\ccvOL8yy.s 			page 16


 351:Generated_Source\PSoC4/ADC_SAR_Seq_1_IRQ.c **** 
 352:Generated_Source\PSoC4/ADC_SAR_Seq_1_IRQ.c **** 
 353:Generated_Source\PSoC4/ADC_SAR_Seq_1_IRQ.c **** /*******************************************************************************
 354:Generated_Source\PSoC4/ADC_SAR_Seq_1_IRQ.c **** * Function Name: ADC_SAR_Seq_1_IRQ_SetPending
 355:Generated_Source\PSoC4/ADC_SAR_Seq_1_IRQ.c **** ********************************************************************************
 356:Generated_Source\PSoC4/ADC_SAR_Seq_1_IRQ.c **** *
 357:Generated_Source\PSoC4/ADC_SAR_Seq_1_IRQ.c **** * Summary:
 358:Generated_Source\PSoC4/ADC_SAR_Seq_1_IRQ.c **** *   Causes the Interrupt to enter the pending state, a software method of
 359:Generated_Source\PSoC4/ADC_SAR_Seq_1_IRQ.c **** *   generating the interrupt.
 360:Generated_Source\PSoC4/ADC_SAR_Seq_1_IRQ.c **** *
 361:Generated_Source\PSoC4/ADC_SAR_Seq_1_IRQ.c **** * Parameters:
 362:Generated_Source\PSoC4/ADC_SAR_Seq_1_IRQ.c **** *   None
 363:Generated_Source\PSoC4/ADC_SAR_Seq_1_IRQ.c **** *
 364:Generated_Source\PSoC4/ADC_SAR_Seq_1_IRQ.c **** * Return:
 365:Generated_Source\PSoC4/ADC_SAR_Seq_1_IRQ.c **** *   None
 366:Generated_Source\PSoC4/ADC_SAR_Seq_1_IRQ.c **** *
 367:Generated_Source\PSoC4/ADC_SAR_Seq_1_IRQ.c **** * Side Effects:
 368:Generated_Source\PSoC4/ADC_SAR_Seq_1_IRQ.c **** *   If interrupts are enabled and the interrupt is set up properly, the ISR is
 369:Generated_Source\PSoC4/ADC_SAR_Seq_1_IRQ.c **** *   entered (depending on the priority of this interrupt and other pending 
 370:Generated_Source\PSoC4/ADC_SAR_Seq_1_IRQ.c **** *   interrupts).
 371:Generated_Source\PSoC4/ADC_SAR_Seq_1_IRQ.c **** *
 372:Generated_Source\PSoC4/ADC_SAR_Seq_1_IRQ.c **** *******************************************************************************/
 373:Generated_Source\PSoC4/ADC_SAR_Seq_1_IRQ.c **** void ADC_SAR_Seq_1_IRQ_SetPending(void)
 374:Generated_Source\PSoC4/ADC_SAR_Seq_1_IRQ.c **** {
 448              		.loc 1 374 0
 449              		.cfi_startproc
 375:Generated_Source\PSoC4/ADC_SAR_Seq_1_IRQ.c ****     *ADC_SAR_Seq_1_IRQ_INTC_SET_PD = ADC_SAR_Seq_1_IRQ__INTC_MASK;
 450              		.loc 1 375 0
 451 0000 8022     		mov	r2, #128
 452 0002 024B     		ldr	r3, .L33
 453 0004 5202     		lsl	r2, r2, #9
 454 0006 1A60     		str	r2, [r3]
 376:Generated_Source\PSoC4/ADC_SAR_Seq_1_IRQ.c **** }
 455              		.loc 1 376 0
 456              		@ sp needed
 457 0008 7047     		bx	lr
 458              	.L34:
 459 000a C046     		.align	2
 460              	.L33:
 461 000c 00E200E0 		.word	-536813056
 462              		.cfi_endproc
 463              	.LFE12:
 464              		.size	ADC_SAR_Seq_1_IRQ_SetPending, .-ADC_SAR_Seq_1_IRQ_SetPending
 465              		.section	.text.ADC_SAR_Seq_1_IRQ_ClearPending,"ax",%progbits
 466              		.align	2
 467              		.global	ADC_SAR_Seq_1_IRQ_ClearPending
 468              		.code	16
 469              		.thumb_func
 470              		.type	ADC_SAR_Seq_1_IRQ_ClearPending, %function
 471              	ADC_SAR_Seq_1_IRQ_ClearPending:
 472              	.LFB13:
 377:Generated_Source\PSoC4/ADC_SAR_Seq_1_IRQ.c **** 
 378:Generated_Source\PSoC4/ADC_SAR_Seq_1_IRQ.c **** 
 379:Generated_Source\PSoC4/ADC_SAR_Seq_1_IRQ.c **** /*******************************************************************************
 380:Generated_Source\PSoC4/ADC_SAR_Seq_1_IRQ.c **** * Function Name: ADC_SAR_Seq_1_IRQ_ClearPending
 381:Generated_Source\PSoC4/ADC_SAR_Seq_1_IRQ.c **** ********************************************************************************
 382:Generated_Source\PSoC4/ADC_SAR_Seq_1_IRQ.c **** *
ARM GAS  C:\Users\glenn\AppData\Local\Temp\ccvOL8yy.s 			page 17


 383:Generated_Source\PSoC4/ADC_SAR_Seq_1_IRQ.c **** * Summary:
 384:Generated_Source\PSoC4/ADC_SAR_Seq_1_IRQ.c **** *   Clears a pending interrupt in the interrupt controller.
 385:Generated_Source\PSoC4/ADC_SAR_Seq_1_IRQ.c **** *
 386:Generated_Source\PSoC4/ADC_SAR_Seq_1_IRQ.c **** *   Note Some interrupt sources are clear-on-read and require the block 
 387:Generated_Source\PSoC4/ADC_SAR_Seq_1_IRQ.c **** *   interrupt/status register to be read/cleared with the appropriate block API 
 388:Generated_Source\PSoC4/ADC_SAR_Seq_1_IRQ.c **** *   (GPIO, UART, and so on). Otherwise the ISR will continue to remain in 
 389:Generated_Source\PSoC4/ADC_SAR_Seq_1_IRQ.c **** *   pending state even though the interrupt itself is cleared using this API.
 390:Generated_Source\PSoC4/ADC_SAR_Seq_1_IRQ.c **** *
 391:Generated_Source\PSoC4/ADC_SAR_Seq_1_IRQ.c **** * Parameters:
 392:Generated_Source\PSoC4/ADC_SAR_Seq_1_IRQ.c **** *   None
 393:Generated_Source\PSoC4/ADC_SAR_Seq_1_IRQ.c **** *
 394:Generated_Source\PSoC4/ADC_SAR_Seq_1_IRQ.c **** * Return:
 395:Generated_Source\PSoC4/ADC_SAR_Seq_1_IRQ.c **** *   None
 396:Generated_Source\PSoC4/ADC_SAR_Seq_1_IRQ.c **** *
 397:Generated_Source\PSoC4/ADC_SAR_Seq_1_IRQ.c **** *******************************************************************************/
 398:Generated_Source\PSoC4/ADC_SAR_Seq_1_IRQ.c **** void ADC_SAR_Seq_1_IRQ_ClearPending(void)
 399:Generated_Source\PSoC4/ADC_SAR_Seq_1_IRQ.c **** {
 473              		.loc 1 399 0
 474              		.cfi_startproc
 400:Generated_Source\PSoC4/ADC_SAR_Seq_1_IRQ.c ****     *ADC_SAR_Seq_1_IRQ_INTC_CLR_PD = ADC_SAR_Seq_1_IRQ__INTC_MASK;
 475              		.loc 1 400 0
 476 0000 8022     		mov	r2, #128
 477 0002 024B     		ldr	r3, .L36
 478 0004 5202     		lsl	r2, r2, #9
 479 0006 1A60     		str	r2, [r3]
 401:Generated_Source\PSoC4/ADC_SAR_Seq_1_IRQ.c **** }
 480              		.loc 1 401 0
 481              		@ sp needed
 482 0008 7047     		bx	lr
 483              	.L37:
 484 000a C046     		.align	2
 485              	.L36:
 486 000c 80E200E0 		.word	-536812928
 487              		.cfi_endproc
 488              	.LFE13:
 489              		.size	ADC_SAR_Seq_1_IRQ_ClearPending, .-ADC_SAR_Seq_1_IRQ_ClearPending
 490              		.text
 491              	.Letext0:
 492              		.file 2 "Generated_Source\\PSoC4/cytypes.h"
 493              		.file 3 "Generated_Source\\PSoC4/CyLib.h"