ARM GAS  C:\Users\glenn\AppData\Local\Temp\ccPcZrmN.s 			page 1


   1              		.cpu cortex-m0
   2              		.fpu softvfp
   3              		.eabi_attribute 20, 1
   4              		.eabi_attribute 21, 1
   5              		.eabi_attribute 23, 3
   6              		.eabi_attribute 24, 1
   7              		.eabi_attribute 25, 1
   8              		.eabi_attribute 26, 1
   9              		.eabi_attribute 30, 1
  10              		.eabi_attribute 34, 0
  11              		.eabi_attribute 18, 4
  12              		.code	16
  13              		.file	"CapSense_2.c"
  14              		.text
  15              	.Ltext0:
  16              		.cfi_sections	.debug_frame
  17              		.section	.text.CapSense_2_CsdHwBlockInit,"ax",%progbits
  18              		.align	2
  19              		.global	CapSense_2_CsdHwBlockInit
  20              		.code	16
  21              		.thumb_func
  22              		.type	CapSense_2_CsdHwBlockInit, %function
  23              	CapSense_2_CsdHwBlockInit:
  24              	.LFB36:
  25              		.file 1 ".\\Generated_Source\\PSoC4\\CapSense_2.c"
   1:.\Generated_Source\PSoC4/CapSense_2.c **** /*******************************************************************************
   2:.\Generated_Source\PSoC4/CapSense_2.c **** * File Name: CapSense_2.c
   3:.\Generated_Source\PSoC4/CapSense_2.c **** * Version 2.40
   4:.\Generated_Source\PSoC4/CapSense_2.c **** *
   5:.\Generated_Source\PSoC4/CapSense_2.c **** * Description:
   6:.\Generated_Source\PSoC4/CapSense_2.c **** *  This file provides the source code for scanning APIs for the CapSense CSD
   7:.\Generated_Source\PSoC4/CapSense_2.c **** *  component.
   8:.\Generated_Source\PSoC4/CapSense_2.c **** *
   9:.\Generated_Source\PSoC4/CapSense_2.c **** * Note:
  10:.\Generated_Source\PSoC4/CapSense_2.c **** *
  11:.\Generated_Source\PSoC4/CapSense_2.c **** ********************************************************************************
  12:.\Generated_Source\PSoC4/CapSense_2.c **** * Copyright 2013-2015, Cypress Semiconductor Corporation.  All rights reserved.
  13:.\Generated_Source\PSoC4/CapSense_2.c **** * You may use this file only in accordance with the license, terms, conditions,
  14:.\Generated_Source\PSoC4/CapSense_2.c **** * disclaimers, and limitations in the end user license agreement accompanying
  15:.\Generated_Source\PSoC4/CapSense_2.c **** * the software package with which this file was provided.
  16:.\Generated_Source\PSoC4/CapSense_2.c **** *******************************************************************************/
  17:.\Generated_Source\PSoC4/CapSense_2.c **** 
  18:.\Generated_Source\PSoC4/CapSense_2.c **** #include "CapSense_2.h"
  19:.\Generated_Source\PSoC4/CapSense_2.c **** #include "CapSense_2_PVT.h"
  20:.\Generated_Source\PSoC4/CapSense_2.c **** #include "cypins.h"
  21:.\Generated_Source\PSoC4/CapSense_2.c **** #include "cyapicallbacks.h"
  22:.\Generated_Source\PSoC4/CapSense_2.c **** 
  23:.\Generated_Source\PSoC4/CapSense_2.c **** #if(0u != CapSense_2_CSHL_API_GENERATE)
  24:.\Generated_Source\PSoC4/CapSense_2.c ****     #include "CapSense_2_CSHL.h"
  25:.\Generated_Source\PSoC4/CapSense_2.c **** #endif /* (0u != CapSense_2_CSHL_API_GENERATE) */
  26:.\Generated_Source\PSoC4/CapSense_2.c **** 
  27:.\Generated_Source\PSoC4/CapSense_2.c **** /* This definition is intended to prevent unexpected linker error.
  28:.\Generated_Source\PSoC4/CapSense_2.c ****    For more details please see the IAR Technical Note 49981 */
  29:.\Generated_Source\PSoC4/CapSense_2.c **** #if defined(__ICCARM__)
  30:.\Generated_Source\PSoC4/CapSense_2.c ****     extern void CapSense_2_EnableSensor(uint32 sensor);
  31:.\Generated_Source\PSoC4/CapSense_2.c ****     extern void CapSense_2_DisableSensor(uint32 sensor);
  32:.\Generated_Source\PSoC4/CapSense_2.c **** #endif /* (__ICCARM__) */
ARM GAS  C:\Users\glenn\AppData\Local\Temp\ccPcZrmN.s 			page 2


  33:.\Generated_Source\PSoC4/CapSense_2.c **** 
  34:.\Generated_Source\PSoC4/CapSense_2.c **** /* SmartSense functions */
  35:.\Generated_Source\PSoC4/CapSense_2.c **** #if (CapSense_2_TUNING_METHOD == CapSense_2__TUNING_AUTO)
  36:.\Generated_Source\PSoC4/CapSense_2.c ****     uint8 CapSense_2_lowLevelTuningDone = 0u;
  37:.\Generated_Source\PSoC4/CapSense_2.c ****     uint8 CapSense_2_scanSpeedTbl[((CapSense_2_TOTAL_SENSOR_COUNT - 1u) / 8u) + 1u];
  38:.\Generated_Source\PSoC4/CapSense_2.c **** #endif /* (CapSense_2_TUNING_METHOD == CapSense_2__TUNING_AUTO) */
  39:.\Generated_Source\PSoC4/CapSense_2.c **** 
  40:.\Generated_Source\PSoC4/CapSense_2.c **** #if(CapSense_2_PRS_OPTIONS != CapSense_2__PRS_NONE)
  41:.\Generated_Source\PSoC4/CapSense_2.c ****     uint8 CapSense_2_prescalersTuningDone = 0u;
  42:.\Generated_Source\PSoC4/CapSense_2.c **** #endif /* (CapSense_2_PRS_OPTIONS == CapSense_2__PRS_NONE) */
  43:.\Generated_Source\PSoC4/CapSense_2.c **** 
  44:.\Generated_Source\PSoC4/CapSense_2.c **** /* Global software variables */
  45:.\Generated_Source\PSoC4/CapSense_2.c **** volatile uint8 CapSense_2_csdStatusVar = 0u;   /* CapSense CSD status, variable */
  46:.\Generated_Source\PSoC4/CapSense_2.c **** volatile uint8 CapSense_2_sensorIndex = 0u;    /* Index of scannig sensor */
  47:.\Generated_Source\PSoC4/CapSense_2.c **** 
  48:.\Generated_Source\PSoC4/CapSense_2.c **** /* Global array of Raw Counts */
  49:.\Generated_Source\PSoC4/CapSense_2.c **** uint16 CapSense_2_sensorRaw[CapSense_2_TOTAL_SENSOR_COUNT] = {0u};
  50:.\Generated_Source\PSoC4/CapSense_2.c **** 
  51:.\Generated_Source\PSoC4/CapSense_2.c **** /* Backup variables for trim registers*/
  52:.\Generated_Source\PSoC4/CapSense_2.c **** #if (CapSense_2_IDAC1_POLARITY == CapSense_2__IDAC_SINK)
  53:.\Generated_Source\PSoC4/CapSense_2.c ****     uint8 CapSense_2_csdTrim2;
  54:.\Generated_Source\PSoC4/CapSense_2.c **** #else
  55:.\Generated_Source\PSoC4/CapSense_2.c ****     uint8 CapSense_2_csdTrim1;
  56:.\Generated_Source\PSoC4/CapSense_2.c **** #endif /* (CapSense_2_IDAC1_POLARITY == CapSense_2__IDAC_SINK) */
  57:.\Generated_Source\PSoC4/CapSense_2.c **** 
  58:.\Generated_Source\PSoC4/CapSense_2.c **** /* Global array of un-scanned sensors state */
  59:.\Generated_Source\PSoC4/CapSense_2.c **** uint8 CapSense_2_unscannedSnsDriveMode[CapSense_2_PORT_PIN_CONFIG_TBL_ZISE];
  60:.\Generated_Source\PSoC4/CapSense_2.c **** 
  61:.\Generated_Source\PSoC4/CapSense_2.c **** /* Backup array for CapSense_2_sensorEnableMask */
  62:.\Generated_Source\PSoC4/CapSense_2.c **** uint8 CapSense_2_sensorEnableMaskBackup[(((CapSense_2_TOTAL_SENSOR_COUNT - 1u) / 8u) + 1u)];
  63:.\Generated_Source\PSoC4/CapSense_2.c **** 
  64:.\Generated_Source\PSoC4/CapSense_2.c **** /* Configured constants and arrays by Customizer */
  65:.\Generated_Source\PSoC4/CapSense_2.c **** uint8 CapSense_2_sensorEnableMask[(((CapSense_2_TOTAL_SENSOR_COUNT - 1u) / 8u) + 1u)] = {
  66:.\Generated_Source\PSoC4/CapSense_2.c **** 0x1u, };
  67:.\Generated_Source\PSoC4/CapSense_2.c **** 
  68:.\Generated_Source\PSoC4/CapSense_2.c **** reg32 * CapSense_2_pcTable[] = {
  69:.\Generated_Source\PSoC4/CapSense_2.c ****     (reg32 *)CapSense_2_Sns__Generic0_0__GEN__PC, 
  70:.\Generated_Source\PSoC4/CapSense_2.c **** };
  71:.\Generated_Source\PSoC4/CapSense_2.c **** 
  72:.\Generated_Source\PSoC4/CapSense_2.c **** const uint8 CapSense_2_portTable[] = {
  73:.\Generated_Source\PSoC4/CapSense_2.c ****     CapSense_2_Sns__Generic0_0__GEN__PORT, 
  74:.\Generated_Source\PSoC4/CapSense_2.c **** };
  75:.\Generated_Source\PSoC4/CapSense_2.c **** 
  76:.\Generated_Source\PSoC4/CapSense_2.c **** const uint32 CapSense_2_maskTable[] = {
  77:.\Generated_Source\PSoC4/CapSense_2.c ****     CapSense_2_Sns__Generic0_0__GEN__MASK, 
  78:.\Generated_Source\PSoC4/CapSense_2.c **** };
  79:.\Generated_Source\PSoC4/CapSense_2.c **** 
  80:.\Generated_Source\PSoC4/CapSense_2.c **** const uint8 CapSense_2_pinShiftTbl[] = {
  81:.\Generated_Source\PSoC4/CapSense_2.c ****     (uint8) CapSense_2_Sns__Generic0_0__GEN__SHIFT, 
  82:.\Generated_Source\PSoC4/CapSense_2.c **** };
  83:.\Generated_Source\PSoC4/CapSense_2.c **** 
  84:.\Generated_Source\PSoC4/CapSense_2.c **** const uint8 CapSense_2_modulationIDAC[CapSense_2_TOTAL_SENSOR_COUNT] = {
  85:.\Generated_Source\PSoC4/CapSense_2.c ****     80u, 
  86:.\Generated_Source\PSoC4/CapSense_2.c **** };
  87:.\Generated_Source\PSoC4/CapSense_2.c **** const uint8 CapSense_2_compensationIDAC[CapSense_2_TOTAL_SENSOR_COUNT] = {
  88:.\Generated_Source\PSoC4/CapSense_2.c ****     80u, 
  89:.\Generated_Source\PSoC4/CapSense_2.c **** };
ARM GAS  C:\Users\glenn\AppData\Local\Temp\ccPcZrmN.s 			page 3


  90:.\Generated_Source\PSoC4/CapSense_2.c **** 
  91:.\Generated_Source\PSoC4/CapSense_2.c **** const uint32 CapSense_2_widgetResolution[CapSense_2_RESOLUTIONS_TBL_SIZE] = {
  92:.\Generated_Source\PSoC4/CapSense_2.c ****     CapSense_2_RESOLUTION_16_BITS,
  93:.\Generated_Source\PSoC4/CapSense_2.c **** };
  94:.\Generated_Source\PSoC4/CapSense_2.c **** 
  95:.\Generated_Source\PSoC4/CapSense_2.c **** const uint8 CapSense_2_senseClkDividerVal[CapSense_2_TOTAL_SCANSLOT_COUNT] = {
  96:.\Generated_Source\PSoC4/CapSense_2.c ****     2u, 
  97:.\Generated_Source\PSoC4/CapSense_2.c **** };
  98:.\Generated_Source\PSoC4/CapSense_2.c **** const uint8 CapSense_2_sampleClkDividerVal[CapSense_2_TOTAL_SCANSLOT_COUNT] = {
  99:.\Generated_Source\PSoC4/CapSense_2.c ****     2u, 
 100:.\Generated_Source\PSoC4/CapSense_2.c **** };
 101:.\Generated_Source\PSoC4/CapSense_2.c **** 
 102:.\Generated_Source\PSoC4/CapSense_2.c **** 
 103:.\Generated_Source\PSoC4/CapSense_2.c **** const uint8 CapSense_2_widgetNumber[CapSense_2_TOTAL_SENSOR_COUNT] = {
 104:.\Generated_Source\PSoC4/CapSense_2.c ****     0u, /* Generic0__GEN */
 105:.\Generated_Source\PSoC4/CapSense_2.c **** };
 106:.\Generated_Source\PSoC4/CapSense_2.c **** 
 107:.\Generated_Source\PSoC4/CapSense_2.c **** reg32* const CapSense_2_prtSelTbl[CapSense_2_CFG_REG_TBL_SIZE] = {
 108:.\Generated_Source\PSoC4/CapSense_2.c ****     ((reg32 *) CYREG_HSIOM_PORT_SEL0),
 109:.\Generated_Source\PSoC4/CapSense_2.c ****     ((reg32 *) CYREG_HSIOM_PORT_SEL1),
 110:.\Generated_Source\PSoC4/CapSense_2.c ****     ((reg32 *) CYREG_HSIOM_PORT_SEL2),
 111:.\Generated_Source\PSoC4/CapSense_2.c ****     ((reg32 *) CYREG_HSIOM_PORT_SEL3),
 112:.\Generated_Source\PSoC4/CapSense_2.c ****     ((reg32 *) CYREG_HSIOM_PORT_SEL4),
 113:.\Generated_Source\PSoC4/CapSense_2.c ****     ((reg32 *) CYREG_HSIOM_PORT_SEL5),
 114:.\Generated_Source\PSoC4/CapSense_2.c ****     ((reg32 *) CYREG_HSIOM_PORT_SEL6),
 115:.\Generated_Source\PSoC4/CapSense_2.c ****     ((reg32 *) CYREG_HSIOM_PORT_SEL7),
 116:.\Generated_Source\PSoC4/CapSense_2.c **** };
 117:.\Generated_Source\PSoC4/CapSense_2.c **** 
 118:.\Generated_Source\PSoC4/CapSense_2.c **** reg32* const CapSense_2_prtCfgTbl[CapSense_2_CFG_REG_TBL_SIZE] = {
 119:.\Generated_Source\PSoC4/CapSense_2.c ****     ((reg32 *) CYREG_GPIO_PRT0_PC),
 120:.\Generated_Source\PSoC4/CapSense_2.c ****     ((reg32 *) CYREG_GPIO_PRT1_PC),
 121:.\Generated_Source\PSoC4/CapSense_2.c ****     ((reg32 *) CYREG_GPIO_PRT2_PC),
 122:.\Generated_Source\PSoC4/CapSense_2.c ****     ((reg32 *) CYREG_GPIO_PRT3_PC),
 123:.\Generated_Source\PSoC4/CapSense_2.c ****     ((reg32 *) CYREG_GPIO_PRT4_PC),
 124:.\Generated_Source\PSoC4/CapSense_2.c ****     ((reg32 *) CYREG_GPIO_PRT5_PC),
 125:.\Generated_Source\PSoC4/CapSense_2.c ****     ((reg32 *) CYREG_GPIO_PRT6_PC),
 126:.\Generated_Source\PSoC4/CapSense_2.c ****     ((reg32 *) CYREG_GPIO_PRT7_PC),
 127:.\Generated_Source\PSoC4/CapSense_2.c **** };
 128:.\Generated_Source\PSoC4/CapSense_2.c **** 
 129:.\Generated_Source\PSoC4/CapSense_2.c **** reg32* const CapSense_2_prtDRTbl[CapSense_2_CFG_REG_TBL_SIZE] = {
 130:.\Generated_Source\PSoC4/CapSense_2.c ****     ((reg32 *) CYREG_GPIO_PRT0_DR),
 131:.\Generated_Source\PSoC4/CapSense_2.c ****     ((reg32 *) CYREG_GPIO_PRT1_DR),
 132:.\Generated_Source\PSoC4/CapSense_2.c ****     ((reg32 *) CYREG_GPIO_PRT2_DR),
 133:.\Generated_Source\PSoC4/CapSense_2.c ****     ((reg32 *) CYREG_GPIO_PRT3_DR),
 134:.\Generated_Source\PSoC4/CapSense_2.c ****     ((reg32 *) CYREG_GPIO_PRT4_DR),
 135:.\Generated_Source\PSoC4/CapSense_2.c ****     ((reg32 *) CYREG_GPIO_PRT5_DR),
 136:.\Generated_Source\PSoC4/CapSense_2.c ****     ((reg32 *) CYREG_GPIO_PRT6_DR),
 137:.\Generated_Source\PSoC4/CapSense_2.c ****     ((reg32 *) CYREG_GPIO_PRT7_DR),
 138:.\Generated_Source\PSoC4/CapSense_2.c **** };
 139:.\Generated_Source\PSoC4/CapSense_2.c **** 
 140:.\Generated_Source\PSoC4/CapSense_2.c **** 
 141:.\Generated_Source\PSoC4/CapSense_2.c **** 
 142:.\Generated_Source\PSoC4/CapSense_2.c **** /*******************************************************************************
 143:.\Generated_Source\PSoC4/CapSense_2.c **** * Function Name: CapSense_2_Init
 144:.\Generated_Source\PSoC4/CapSense_2.c **** ********************************************************************************
 145:.\Generated_Source\PSoC4/CapSense_2.c **** *
 146:.\Generated_Source\PSoC4/CapSense_2.c **** * Summary:
ARM GAS  C:\Users\glenn\AppData\Local\Temp\ccPcZrmN.s 			page 4


 147:.\Generated_Source\PSoC4/CapSense_2.c **** *  API initializes default CapSense configuration provided by the customizer that defines
 148:.\Generated_Source\PSoC4/CapSense_2.c **** *  the mode of component operations and resets all the sensors to an inactive state.
 149:.\Generated_Source\PSoC4/CapSense_2.c **** *
 150:.\Generated_Source\PSoC4/CapSense_2.c **** * Parameters:
 151:.\Generated_Source\PSoC4/CapSense_2.c **** *  None
 152:.\Generated_Source\PSoC4/CapSense_2.c **** *
 153:.\Generated_Source\PSoC4/CapSense_2.c **** * Return:
 154:.\Generated_Source\PSoC4/CapSense_2.c **** *  None
 155:.\Generated_Source\PSoC4/CapSense_2.c **** *
 156:.\Generated_Source\PSoC4/CapSense_2.c **** * Global Variables:
 157:.\Generated_Source\PSoC4/CapSense_2.c **** *  CapSense_2_immunityIndex - defines immunity level.
 158:.\Generated_Source\PSoC4/CapSense_2.c **** *
 159:.\Generated_Source\PSoC4/CapSense_2.c **** * Side Effects:
 160:.\Generated_Source\PSoC4/CapSense_2.c **** *  None
 161:.\Generated_Source\PSoC4/CapSense_2.c **** *
 162:.\Generated_Source\PSoC4/CapSense_2.c **** *******************************************************************************/
 163:.\Generated_Source\PSoC4/CapSense_2.c **** void CapSense_2_Init(void)
 164:.\Generated_Source\PSoC4/CapSense_2.c **** {
 165:.\Generated_Source\PSoC4/CapSense_2.c ****     uint32 curSensor;
 166:.\Generated_Source\PSoC4/CapSense_2.c **** 
 167:.\Generated_Source\PSoC4/CapSense_2.c ****     #if(CapSense_2_IS_SHIELD_ENABLE)
 168:.\Generated_Source\PSoC4/CapSense_2.c **** 
 169:.\Generated_Source\PSoC4/CapSense_2.c ****         #if((CapSense_2_CSH_TANK_PREGARGE_OPTION == CapSense_2__CAPPRIOBUF) || (0u != CapSense_2_CS
 170:.\Generated_Source\PSoC4/CapSense_2.c ****             uint32 newRegValue;
 171:.\Generated_Source\PSoC4/CapSense_2.c **** 
 172:.\Generated_Source\PSoC4/CapSense_2.c ****             newRegValue = CapSense_2_CTANK_CONNECTION_REG;
 173:.\Generated_Source\PSoC4/CapSense_2.c ****             newRegValue &= ~(CapSense_2_CSD_CTANK_CONNECTION_MASK);
 174:.\Generated_Source\PSoC4/CapSense_2.c ****             newRegValue |= CapSense_2_CSD_CTANK_TO_AMUXBUS_B;
 175:.\Generated_Source\PSoC4/CapSense_2.c ****             CapSense_2_CTANK_CONNECTION_REG = newRegValue;
 176:.\Generated_Source\PSoC4/CapSense_2.c **** 
 177:.\Generated_Source\PSoC4/CapSense_2.c ****             #if(CapSense_2_CSH_TANK_PREGARGE_OPTION == CapSense_2__CAPPRIOBUF)
 178:.\Generated_Source\PSoC4/CapSense_2.c ****                 newRegValue = CapSense_2_CTANK_PORT_PC_REG;
 179:.\Generated_Source\PSoC4/CapSense_2.c ****                 newRegValue &= ~(CapSense_2_CSD_CTANK_PC_MASK);
 180:.\Generated_Source\PSoC4/CapSense_2.c ****                 newRegValue |= CapSense_2_CTANK_PC_STRONG_MODE;
 181:.\Generated_Source\PSoC4/CapSense_2.c ****                 CapSense_2_CTANK_PORT_PC_REG = newRegValue;
 182:.\Generated_Source\PSoC4/CapSense_2.c **** 
 183:.\Generated_Source\PSoC4/CapSense_2.c ****                 newRegValue = CapSense_2_CTANK_PORT_DR_REG;
 184:.\Generated_Source\PSoC4/CapSense_2.c ****                 newRegValue &= ~(CapSense_2_CTANK_DR_MASK);
 185:.\Generated_Source\PSoC4/CapSense_2.c ****                 newRegValue |= CapSense_2_CTANK_DR_CONFIG;
 186:.\Generated_Source\PSoC4/CapSense_2.c ****                 CapSense_2_CTANK_PORT_DR_REG = newRegValue;
 187:.\Generated_Source\PSoC4/CapSense_2.c ****             #endif /* (CapSense_2_CSH_TANK_PREGARGE_OPTION == CapSense_2__CAPPRIOBUF) */
 188:.\Generated_Source\PSoC4/CapSense_2.c **** 
 189:.\Generated_Source\PSoC4/CapSense_2.c ****         #endif /* ((CapSense_2_CSH_TANK_PREGARGE_OPTION == CapSense_2__CAPPRIOBUF) || (CapSense_2_C
 190:.\Generated_Source\PSoC4/CapSense_2.c **** 
 191:.\Generated_Source\PSoC4/CapSense_2.c ****         CapSense_2_EnableShieldElectrode((uint32)CapSense_2_SHIELD_PIN_NUMBER, (uint32)CapSense_2_S
 192:.\Generated_Source\PSoC4/CapSense_2.c **** 
 193:.\Generated_Source\PSoC4/CapSense_2.c ****     #endif /* (CapSense_2_IS_SHIELD_ENABLE) */
 194:.\Generated_Source\PSoC4/CapSense_2.c **** 
 195:.\Generated_Source\PSoC4/CapSense_2.c ****     for(curSensor = 0u; curSensor < CapSense_2_TOTAL_SENSOR_COUNT; curSensor++)
 196:.\Generated_Source\PSoC4/CapSense_2.c ****     {
 197:.\Generated_Source\PSoC4/CapSense_2.c ****         CapSense_2_SetUnscannedSensorState(curSensor, CapSense_2_CONNECT_INACTIVE_SNS);
 198:.\Generated_Source\PSoC4/CapSense_2.c ****     }
 199:.\Generated_Source\PSoC4/CapSense_2.c **** 
 200:.\Generated_Source\PSoC4/CapSense_2.c ****     CapSense_2_CsdHwBlockInit();
 201:.\Generated_Source\PSoC4/CapSense_2.c ****     CapSense_2_SetShieldDelay(CapSense_2_SHIELD_DELAY );
 202:.\Generated_Source\PSoC4/CapSense_2.c **** 
 203:.\Generated_Source\PSoC4/CapSense_2.c ****     /* Clear all sensors */
ARM GAS  C:\Users\glenn\AppData\Local\Temp\ccPcZrmN.s 			page 5


 204:.\Generated_Source\PSoC4/CapSense_2.c ****     CapSense_2_ClearSensors();
 205:.\Generated_Source\PSoC4/CapSense_2.c **** }
 206:.\Generated_Source\PSoC4/CapSense_2.c **** 
 207:.\Generated_Source\PSoC4/CapSense_2.c **** /*******************************************************************************
 208:.\Generated_Source\PSoC4/CapSense_2.c **** * Function Name: CapSense_2_CsdHwBlockInit
 209:.\Generated_Source\PSoC4/CapSense_2.c **** ********************************************************************************
 210:.\Generated_Source\PSoC4/CapSense_2.c **** *
 211:.\Generated_Source\PSoC4/CapSense_2.c **** * Summary:
 212:.\Generated_Source\PSoC4/CapSense_2.c **** *  Initialises the hardware parameters of the CSD block
 213:.\Generated_Source\PSoC4/CapSense_2.c **** *
 214:.\Generated_Source\PSoC4/CapSense_2.c **** * Parameters:
 215:.\Generated_Source\PSoC4/CapSense_2.c **** *  None
 216:.\Generated_Source\PSoC4/CapSense_2.c **** *
 217:.\Generated_Source\PSoC4/CapSense_2.c **** * Return:
 218:.\Generated_Source\PSoC4/CapSense_2.c **** *  None
 219:.\Generated_Source\PSoC4/CapSense_2.c **** *
 220:.\Generated_Source\PSoC4/CapSense_2.c **** * Global Variables:
 221:.\Generated_Source\PSoC4/CapSense_2.c **** *  CapSense_2_csdTrim1 - Contains IDAC trim register value for Sourcing Mode.
 222:.\Generated_Source\PSoC4/CapSense_2.c **** *  CapSense_2_csdTrim2 - Contains IDAC trim register value for Sinking Mode.
 223:.\Generated_Source\PSoC4/CapSense_2.c **** *
 224:.\Generated_Source\PSoC4/CapSense_2.c **** * Side Effects:
 225:.\Generated_Source\PSoC4/CapSense_2.c **** *  None
 226:.\Generated_Source\PSoC4/CapSense_2.c **** *
 227:.\Generated_Source\PSoC4/CapSense_2.c **** *******************************************************************************/
 228:.\Generated_Source\PSoC4/CapSense_2.c **** void CapSense_2_CsdHwBlockInit(void)
 229:.\Generated_Source\PSoC4/CapSense_2.c **** {
  26              		.loc 1 229 0
  27              		.cfi_startproc
  28 0000 38B5     		push	{r3, r4, r5, lr}
  29              		.cfi_def_cfa_offset 16
  30              		.cfi_offset 3, -16
  31              		.cfi_offset 4, -12
  32              		.cfi_offset 5, -8
  33              		.cfi_offset 14, -4
 230:.\Generated_Source\PSoC4/CapSense_2.c ****     uint32 newRegValue;
 231:.\Generated_Source\PSoC4/CapSense_2.c **** 
 232:.\Generated_Source\PSoC4/CapSense_2.c ****         /* Set trim registers for CSD Mode */
 233:.\Generated_Source\PSoC4/CapSense_2.c ****     #if (CapSense_2_IDAC1_POLARITY == CapSense_2__IDAC_SINK)
 234:.\Generated_Source\PSoC4/CapSense_2.c ****         /* iDAC1 Sinking Mode */
 235:.\Generated_Source\PSoC4/CapSense_2.c ****         CapSense_2_csdTrim2 = (uint8)CapSense_2_CSD_TRIM2_REG;
 236:.\Generated_Source\PSoC4/CapSense_2.c ****         newRegValue = CapSense_2_csdTrim2;
 237:.\Generated_Source\PSoC4/CapSense_2.c ****         newRegValue &= CapSense_2_CSD_IDAC1_TRIM_MASK;
 238:.\Generated_Source\PSoC4/CapSense_2.c ****         newRegValue |= (uint32)((uint32)CapSense_2_SFLASH_CSD_TRIM2_REG & (uint32)CapSense_2_CSFLAS
 239:.\Generated_Source\PSoC4/CapSense_2.c **** 
 240:.\Generated_Source\PSoC4/CapSense_2.c ****         #if (CapSense_2_IDAC_CNT == 2u)
 241:.\Generated_Source\PSoC4/CapSense_2.c ****             /* iDAC2 Sinking Mode */
 242:.\Generated_Source\PSoC4/CapSense_2.c ****             newRegValue &= CapSense_2_CSD_IDAC2_TRIM_MASK;
 243:.\Generated_Source\PSoC4/CapSense_2.c ****             newRegValue |= (uint32)((uint32)CapSense_2_SFLASH_CSD_TRIM2_REG & (uint32)CapSense_2_CS
 244:.\Generated_Source\PSoC4/CapSense_2.c ****         #endif /* (CapSense_2_IDAC_CNT == 2u) */
 245:.\Generated_Source\PSoC4/CapSense_2.c ****         CapSense_2_CSD_TRIM2_REG = newRegValue;
 246:.\Generated_Source\PSoC4/CapSense_2.c ****     #else
 247:.\Generated_Source\PSoC4/CapSense_2.c ****         /* iDAC1 Sourcing Mode */
 248:.\Generated_Source\PSoC4/CapSense_2.c ****         CapSense_2_csdTrim1 = (uint8)CapSense_2_CSD_TRIM1_REG;
  34              		.loc 1 248 0
  35 0002 1748     		ldr	r0, .L2
  36 0004 0368     		ldr	r3, [r0]
  37 0006 DBB2     		uxtb	r3, r3
ARM GAS  C:\Users\glenn\AppData\Local\Temp\ccPcZrmN.s 			page 6


  38 0008 164A     		ldr	r2, .L2+4
  39 000a 1370     		strb	r3, [r2]
  40              	.LVL0:
 249:.\Generated_Source\PSoC4/CapSense_2.c ****         newRegValue = CapSense_2_csdTrim1;
 250:.\Generated_Source\PSoC4/CapSense_2.c ****         newRegValue &= CapSense_2_CSD_IDAC1_TRIM_MASK;
  41              		.loc 1 250 0
  42 000c 0F24     		mov	r4, #15
  43 000e A343     		bic	r3, r4
  44              	.LVL1:
  45 0010 191C     		mov	r1, r3
  46              	.LVL2:
 251:.\Generated_Source\PSoC4/CapSense_2.c ****         newRegValue |= (uint32)((uint32)CapSense_2_SFLASH_CSD_TRIM1_REG & (uint32)CapSense_2_CSFLAS
  47              		.loc 1 251 0
  48 0012 154D     		ldr	r5, .L2+8
  49 0014 2A78     		ldrb	r2, [r5]
  50 0016 0F23     		mov	r3, #15
  51 0018 1340     		and	r3, r2
  52 001a 0B43     		orr	r3, r1
  53              	.LVL3:
 252:.\Generated_Source\PSoC4/CapSense_2.c ****         #if (CapSense_2_IDAC_CNT == 2u)
 253:.\Generated_Source\PSoC4/CapSense_2.c ****              /* iDAC2 Sourcing Mode */
 254:.\Generated_Source\PSoC4/CapSense_2.c ****             newRegValue &= CapSense_2_CSD_IDAC2_TRIM_MASK;
  54              		.loc 1 254 0
  55 001c F022     		mov	r2, #240
  56 001e 9343     		bic	r3, r2
  57              	.LVL4:
  58 0020 1A1C     		mov	r2, r3
  59              	.LVL5:
 255:.\Generated_Source\PSoC4/CapSense_2.c ****             newRegValue |= (uint32)((uint32)CapSense_2_SFLASH_CSD_TRIM1_REG & (uint32)CapSense_2_CS
  60              		.loc 1 255 0
  61 0022 2B78     		ldrb	r3, [r5]
  62 0024 A343     		bic	r3, r4
  63 0026 1343     		orr	r3, r2
  64              	.LVL6:
 256:.\Generated_Source\PSoC4/CapSense_2.c ****         #endif
 257:.\Generated_Source\PSoC4/CapSense_2.c ****         CapSense_2_CSD_TRIM1_REG = newRegValue;
  65              		.loc 1 257 0
  66 0028 0360     		str	r3, [r0]
 258:.\Generated_Source\PSoC4/CapSense_2.c ****     #endif /* (CapSense_2_IDAC1_POLARITY == CapSense_2__IDAC_SINK) */
 259:.\Generated_Source\PSoC4/CapSense_2.c **** 
 260:.\Generated_Source\PSoC4/CapSense_2.c ****     /* Configure CSD and IDAC */
 261:.\Generated_Source\PSoC4/CapSense_2.c ****     #if (CapSense_2_IDAC_CNT > 1u)
 262:.\Generated_Source\PSoC4/CapSense_2.c ****         CapSense_2_CSD_IDAC_REG = CapSense_2_DEFAULT_CSD_IDAC_CONFIG;
  67              		.loc 1 262 0
  68 002a 104A     		ldr	r2, .L2+12
  69 002c 104B     		ldr	r3, .L2+16
  70              	.LVL7:
  71 002e 1A60     		str	r2, [r3]
  72              	.LVL8:
 263:.\Generated_Source\PSoC4/CapSense_2.c ****         CapSense_2_CSD_CFG_REG = CapSense_2_DEFAULT_CSD_CONFIG;
  73              		.loc 1 263 0
  74 0030 104A     		ldr	r2, .L2+20
  75 0032 114B     		ldr	r3, .L2+24
  76 0034 1A60     		str	r2, [r3]
 264:.\Generated_Source\PSoC4/CapSense_2.c ****     #else
 265:.\Generated_Source\PSoC4/CapSense_2.c ****         CapSense_2_CSD_IDAC_REG &= ~(CapSense_2_CSD_IDAC1_MODE_MASK  | CapSense_2_CSD_IDAC1_DATA_MA
 266:.\Generated_Source\PSoC4/CapSense_2.c ****         CapSense_2_CSD_IDAC_REG |= CapSense_2_DEFAULT_CSD_IDAC_CONFIG;
ARM GAS  C:\Users\glenn\AppData\Local\Temp\ccPcZrmN.s 			page 7


 267:.\Generated_Source\PSoC4/CapSense_2.c **** 
 268:.\Generated_Source\PSoC4/CapSense_2.c ****         CapSense_2_CSD_CFG_REG &= ~(CapSense_2_CSD_CONFIG_MASK);
 269:.\Generated_Source\PSoC4/CapSense_2.c ****         CapSense_2_CSD_CFG_REG |= (CapSense_2_DEFAULT_CSD_CONFIG);
 270:.\Generated_Source\PSoC4/CapSense_2.c ****     #endif /* (CapSense_2_IDAC_CNT > 1u) */
 271:.\Generated_Source\PSoC4/CapSense_2.c **** 
 272:.\Generated_Source\PSoC4/CapSense_2.c **** 
 273:.\Generated_Source\PSoC4/CapSense_2.c ****     /* Connect Cmod to AMUX bus */
 274:.\Generated_Source\PSoC4/CapSense_2.c ****     newRegValue = CapSense_2_CMOD_CONNECTION_REG;
  77              		.loc 1 274 0
  78 0036 114A     		ldr	r2, .L2+28
  79 0038 1168     		ldr	r1, [r2]
  80              	.LVL9:
 275:.\Generated_Source\PSoC4/CapSense_2.c ****     newRegValue &= ~(CapSense_2_CSD_CMOD_CONNECTION_MASK);
  81              		.loc 1 275 0
  82 003a 114B     		ldr	r3, .L2+32
  83 003c 0B40     		and	r3, r1
  84              	.LVL10:
 276:.\Generated_Source\PSoC4/CapSense_2.c ****     newRegValue |= CapSense_2_CSD_CMOD_TO_AMUXBUS_A;
  85              		.loc 1 276 0
  86 003e C021     		mov	r1, #192
  87 0040 C900     		lsl	r1, r1, #3
  88 0042 0B43     		orr	r3, r1
  89              	.LVL11:
 277:.\Generated_Source\PSoC4/CapSense_2.c ****     CapSense_2_CMOD_CONNECTION_REG = newRegValue;
  90              		.loc 1 277 0
  91 0044 1360     		str	r3, [r2]
 278:.\Generated_Source\PSoC4/CapSense_2.c **** 
 279:.\Generated_Source\PSoC4/CapSense_2.c ****     /* Configure Dead Band PWM if it is enabled */
 280:.\Generated_Source\PSoC4/CapSense_2.c ****     #if(CapSense_2_CSD_4B_PWM_MODE != CapSense_2__PWM_OFF)
 281:.\Generated_Source\PSoC4/CapSense_2.c ****         CapSense_2_CSD_4B_PWM_REG = CapSense_2_DEFAULT_CSD_4B_PWM_CONFIG;
 282:.\Generated_Source\PSoC4/CapSense_2.c ****     #endif /* (CapSense_2_CSD_4B_PWM_MODE != CapSense_2__PWM_OFF) */
 283:.\Generated_Source\PSoC4/CapSense_2.c **** 
 284:.\Generated_Source\PSoC4/CapSense_2.c ****     /* Setup ISR */
 285:.\Generated_Source\PSoC4/CapSense_2.c ****     CyIntDisable(CapSense_2_ISR_NUMBER);
  92              		.loc 1 285 0
  93 0046 1120     		mov	r0, #17
  94 0048 FFF7FEFF 		bl	CyIntDisable
  95              	.LVL12:
 286:.\Generated_Source\PSoC4/CapSense_2.c ****     #if !defined(CY_EXTERNAL_INTERRUPT_CONFIG)
 287:.\Generated_Source\PSoC4/CapSense_2.c ****         (void)CyIntSetVector(CapSense_2_ISR_NUMBER, &CapSense_2_ISR);
  96              		.loc 1 287 0
  97 004c 1120     		mov	r0, #17
  98 004e 0D49     		ldr	r1, .L2+36
  99 0050 FFF7FEFF 		bl	CyIntSetVector
 100              	.LVL13:
 288:.\Generated_Source\PSoC4/CapSense_2.c ****         CyIntSetPriority(CapSense_2_ISR_NUMBER, CapSense_2_ISR_PRIORITY);
 101              		.loc 1 288 0
 102 0054 1120     		mov	r0, #17
 103 0056 0321     		mov	r1, #3
 104 0058 FFF7FEFF 		bl	CyIntSetPriority
 105              	.LVL14:
 289:.\Generated_Source\PSoC4/CapSense_2.c ****     #endif /* (CY_EXTERNAL_INTERRUPT_CONFIG) */
 290:.\Generated_Source\PSoC4/CapSense_2.c **** }
 106              		.loc 1 290 0
 107              		@ sp needed
 108 005c 38BD     		pop	{r3, r4, r5, pc}
 109              	.L3:
ARM GAS  C:\Users\glenn\AppData\Local\Temp\ccPcZrmN.s 			page 8


 110 005e C046     		.align	2
 111              	.L2:
 112 0060 00FF2840 		.word	1076428544
 113 0064 00000000 		.word	CapSense_2_csdTrim1
 114 0068 62F1FF0F 		.word	268431714
 115 006c 00020001 		.word	16777728
 116 0070 08002840 		.word	1076363272
 117 0074 0008A001 		.word	27265024
 118 0078 04002840 		.word	1076363268
 119 007c 00040240 		.word	1073873920
 120 0080 FFF0FFFF 		.word	-3841
 121 0084 00000000 		.word	CapSense_2_ISR
 122              		.cfi_endproc
 123              	.LFE36:
 124              		.size	CapSense_2_CsdHwBlockInit, .-CapSense_2_CsdHwBlockInit
 125              		.section	.text.CapSense_2_Enable,"ax",%progbits
 126              		.align	2
 127              		.global	CapSense_2_Enable
 128              		.code	16
 129              		.thumb_func
 130              		.type	CapSense_2_Enable, %function
 131              	CapSense_2_Enable:
 132              	.LFB37:
 291:.\Generated_Source\PSoC4/CapSense_2.c **** 
 292:.\Generated_Source\PSoC4/CapSense_2.c **** 
 293:.\Generated_Source\PSoC4/CapSense_2.c **** /*******************************************************************************
 294:.\Generated_Source\PSoC4/CapSense_2.c **** * Function Name: CapSense_2_Enable
 295:.\Generated_Source\PSoC4/CapSense_2.c **** ********************************************************************************
 296:.\Generated_Source\PSoC4/CapSense_2.c **** *
 297:.\Generated_Source\PSoC4/CapSense_2.c **** * Summary:
 298:.\Generated_Source\PSoC4/CapSense_2.c **** *  Enables the CSD block and related resources to an active mode.
 299:.\Generated_Source\PSoC4/CapSense_2.c **** *
 300:.\Generated_Source\PSoC4/CapSense_2.c **** * Parameters:
 301:.\Generated_Source\PSoC4/CapSense_2.c **** *  None
 302:.\Generated_Source\PSoC4/CapSense_2.c **** *
 303:.\Generated_Source\PSoC4/CapSense_2.c **** * Return:
 304:.\Generated_Source\PSoC4/CapSense_2.c **** *  None
 305:.\Generated_Source\PSoC4/CapSense_2.c **** *
 306:.\Generated_Source\PSoC4/CapSense_2.c **** * Global Variables:
 307:.\Generated_Source\PSoC4/CapSense_2.c **** *  None.
 308:.\Generated_Source\PSoC4/CapSense_2.c **** *
 309:.\Generated_Source\PSoC4/CapSense_2.c **** * Side Effects:
 310:.\Generated_Source\PSoC4/CapSense_2.c **** *  None
 311:.\Generated_Source\PSoC4/CapSense_2.c **** *
 312:.\Generated_Source\PSoC4/CapSense_2.c **** *******************************************************************************/
 313:.\Generated_Source\PSoC4/CapSense_2.c **** void CapSense_2_Enable(void)
 314:.\Generated_Source\PSoC4/CapSense_2.c **** {
 133              		.loc 1 314 0
 134              		.cfi_startproc
 135 0000 08B5     		push	{r3, lr}
 136              		.cfi_def_cfa_offset 8
 137              		.cfi_offset 3, -8
 138              		.cfi_offset 14, -4
 315:.\Generated_Source\PSoC4/CapSense_2.c ****     uint32 newRegValue;
 316:.\Generated_Source\PSoC4/CapSense_2.c **** 
 317:.\Generated_Source\PSoC4/CapSense_2.c ****     /* Enable Clocks */
 318:.\Generated_Source\PSoC4/CapSense_2.c ****     CapSense_2_SenseClk_Stop();
ARM GAS  C:\Users\glenn\AppData\Local\Temp\ccPcZrmN.s 			page 9


 139              		.loc 1 318 0
 140 0002 FFF7FEFF 		bl	CapSense_2_SenseClk_Stop
 141              	.LVL15:
 319:.\Generated_Source\PSoC4/CapSense_2.c ****     CapSense_2_SampleClk_Stop();
 142              		.loc 1 319 0
 143 0006 FFF7FEFF 		bl	CapSense_2_SampleClk_Stop
 144              	.LVL16:
 320:.\Generated_Source\PSoC4/CapSense_2.c **** 
 321:.\Generated_Source\PSoC4/CapSense_2.c ****     CapSense_2_SampleClk_SetDividerValue((uint16)CapSense_2_INITIAL_CLK_DIVIDER);
 145              		.loc 1 321 0
 146 000a 0020     		mov	r0, #0
 147 000c 0021     		mov	r1, #0
 148 000e FFF7FEFF 		bl	CapSense_2_SampleClk_SetFractionalDividerRegister
 149              	.LVL17:
 322:.\Generated_Source\PSoC4/CapSense_2.c ****     CapSense_2_SenseClk_SetDividerValue((uint16)CapSense_2_INITIAL_CLK_DIVIDER);
 150              		.loc 1 322 0
 151 0012 0020     		mov	r0, #0
 152 0014 0021     		mov	r1, #0
 153 0016 FFF7FEFF 		bl	CapSense_2_SenseClk_SetFractionalDividerRegister
 154              	.LVL18:
 323:.\Generated_Source\PSoC4/CapSense_2.c **** 
 324:.\Generated_Source\PSoC4/CapSense_2.c ****     #if (0u == CapSense_2_IS_M0S8PERI_BLOCK)
 325:.\Generated_Source\PSoC4/CapSense_2.c ****         CapSense_2_SenseClk_Start();
 326:.\Generated_Source\PSoC4/CapSense_2.c ****         CapSense_2_SampleClk_Start();
 327:.\Generated_Source\PSoC4/CapSense_2.c ****     #else
 328:.\Generated_Source\PSoC4/CapSense_2.c ****         CapSense_2_SampleClk_Start();
 155              		.loc 1 328 0
 156 001a FF20     		mov	r0, #255
 157 001c FFF7FEFF 		bl	CapSense_2_SampleClk_StartEx
 158              	.LVL19:
 329:.\Generated_Source\PSoC4/CapSense_2.c ****         CapSense_2_SenseClk_StartEx(CapSense_2_SampleClk__DIV_ID);
 159              		.loc 1 329 0
 160 0020 4020     		mov	r0, #64
 161 0022 FFF7FEFF 		bl	CapSense_2_SenseClk_StartEx
 162              	.LVL20:
 330:.\Generated_Source\PSoC4/CapSense_2.c ****     #endif /* (0u == CapSense_2_IS_M0S8PERI_BLOCK) */
 331:.\Generated_Source\PSoC4/CapSense_2.c **** 
 332:.\Generated_Source\PSoC4/CapSense_2.c ****     /* Enable the CSD block */
 333:.\Generated_Source\PSoC4/CapSense_2.c ****     newRegValue = CapSense_2_CSD_CFG_REG;
 163              		.loc 1 333 0
 164 0026 044A     		ldr	r2, .L5
 165 0028 1368     		ldr	r3, [r2]
 166              	.LVL21:
 334:.\Generated_Source\PSoC4/CapSense_2.c ****     newRegValue |= (CapSense_2_CSD_CFG_ENABLE | CapSense_2_CSD_CFG_SENSE_COMP_EN
 167              		.loc 1 334 0
 168 002a 0449     		ldr	r1, .L5+4
 169 002c 0B43     		orr	r3, r1
 170              	.LVL22:
 335:.\Generated_Source\PSoC4/CapSense_2.c ****                                                    | CapSense_2_CSD_CFG_SENSE_EN);
 336:.\Generated_Source\PSoC4/CapSense_2.c ****     CapSense_2_CSD_CFG_REG = newRegValue;
 171              		.loc 1 336 0
 172 002e 1360     		str	r3, [r2]
 337:.\Generated_Source\PSoC4/CapSense_2.c **** 
 338:.\Generated_Source\PSoC4/CapSense_2.c ****     /* Enable interrupt */
 339:.\Generated_Source\PSoC4/CapSense_2.c ****     CyIntEnable(CapSense_2_ISR_NUMBER);
 173              		.loc 1 339 0
 174 0030 1120     		mov	r0, #17
ARM GAS  C:\Users\glenn\AppData\Local\Temp\ccPcZrmN.s 			page 10


 175 0032 FFF7FEFF 		bl	CyIntEnable
 176              	.LVL23:
 340:.\Generated_Source\PSoC4/CapSense_2.c **** }
 177              		.loc 1 340 0
 178              		@ sp needed
 179 0036 08BD     		pop	{r3, pc}
 180              	.L6:
 181              		.align	2
 182              	.L5:
 183 0038 04002840 		.word	1076363268
 184 003c 00100880 		.word	-2146955264
 185              		.cfi_endproc
 186              	.LFE37:
 187              		.size	CapSense_2_Enable, .-CapSense_2_Enable
 188              		.section	.text.CapSense_2_Stop,"ax",%progbits
 189              		.align	2
 190              		.global	CapSense_2_Stop
 191              		.code	16
 192              		.thumb_func
 193              		.type	CapSense_2_Stop, %function
 194              	CapSense_2_Stop:
 195              	.LFB39:
 341:.\Generated_Source\PSoC4/CapSense_2.c **** 
 342:.\Generated_Source\PSoC4/CapSense_2.c **** 
 343:.\Generated_Source\PSoC4/CapSense_2.c **** /*******************************************************************************
 344:.\Generated_Source\PSoC4/CapSense_2.c **** * Function Name: CapSense_2_Start
 345:.\Generated_Source\PSoC4/CapSense_2.c **** ********************************************************************************
 346:.\Generated_Source\PSoC4/CapSense_2.c **** *
 347:.\Generated_Source\PSoC4/CapSense_2.c **** * Summary:
 348:.\Generated_Source\PSoC4/CapSense_2.c **** *  This is the preferred method to begin the component operation. CapSense_Start()
 349:.\Generated_Source\PSoC4/CapSense_2.c **** *  calls the CapSense_Init() function, and then calls the CapSense_Enable()
 350:.\Generated_Source\PSoC4/CapSense_2.c **** *  function. Initializes the registers and starts the CSD method of the CapSense
 351:.\Generated_Source\PSoC4/CapSense_2.c **** *  component. Resets all the sensors to an inactive state. Enables interrupts for
 352:.\Generated_Source\PSoC4/CapSense_2.c **** *  sensors scanning. When the SmartSense tuning mode is selected, the tuning procedure
 353:.\Generated_Source\PSoC4/CapSense_2.c **** *  is applied for all the sensors. The CapSense_Start() routine must be called before
 354:.\Generated_Source\PSoC4/CapSense_2.c **** *  any other API routines.
 355:.\Generated_Source\PSoC4/CapSense_2.c **** *
 356:.\Generated_Source\PSoC4/CapSense_2.c **** * Parameters:
 357:.\Generated_Source\PSoC4/CapSense_2.c **** *  None
 358:.\Generated_Source\PSoC4/CapSense_2.c **** *
 359:.\Generated_Source\PSoC4/CapSense_2.c **** * Return:
 360:.\Generated_Source\PSoC4/CapSense_2.c **** *  None
 361:.\Generated_Source\PSoC4/CapSense_2.c **** *
 362:.\Generated_Source\PSoC4/CapSense_2.c **** * Global Variables:
 363:.\Generated_Source\PSoC4/CapSense_2.c **** *   CapSense_2_initVar - used to check the initial configuration,
 364:.\Generated_Source\PSoC4/CapSense_2.c **** *   modified on the first function call.
 365:.\Generated_Source\PSoC4/CapSense_2.c **** *  CapSense_2_lowLevelTuningDone - Used to notify the Tuner GUI that
 366:.\Generated_Source\PSoC4/CapSense_2.c **** *   tuning of the scanning parameters is done.
 367:.\Generated_Source\PSoC4/CapSense_2.c **** *
 368:.\Generated_Source\PSoC4/CapSense_2.c **** * Side Effects:
 369:.\Generated_Source\PSoC4/CapSense_2.c **** *  None
 370:.\Generated_Source\PSoC4/CapSense_2.c **** *
 371:.\Generated_Source\PSoC4/CapSense_2.c **** *******************************************************************************/
 372:.\Generated_Source\PSoC4/CapSense_2.c **** void CapSense_2_Start(void)
 373:.\Generated_Source\PSoC4/CapSense_2.c **** {
 374:.\Generated_Source\PSoC4/CapSense_2.c **** 
 375:.\Generated_Source\PSoC4/CapSense_2.c ****     static uint8 CapSense_2_initVar = 0u;
ARM GAS  C:\Users\glenn\AppData\Local\Temp\ccPcZrmN.s 			page 11


 376:.\Generated_Source\PSoC4/CapSense_2.c **** 
 377:.\Generated_Source\PSoC4/CapSense_2.c ****     #if((0u != CapSense_2_AUTOCALIBRATION_ENABLE) && (CapSense_2_TUNING_METHOD != CapSense_2__TUNIN
 378:.\Generated_Source\PSoC4/CapSense_2.c ****         uint32 curSensor;
 379:.\Generated_Source\PSoC4/CapSense_2.c ****         uint32 rawLevel;
 380:.\Generated_Source\PSoC4/CapSense_2.c ****         uint32 widget;
 381:.\Generated_Source\PSoC4/CapSense_2.c ****     #endif /* ((0u != CapSense_2_AUTOCALIBRATION_ENABLE) && (CapSense_2_TUNING_METHOD != CapSense_2
 382:.\Generated_Source\PSoC4/CapSense_2.c **** 
 383:.\Generated_Source\PSoC4/CapSense_2.c ****     if (CapSense_2_initVar == 0u)
 384:.\Generated_Source\PSoC4/CapSense_2.c ****     {
 385:.\Generated_Source\PSoC4/CapSense_2.c ****         CapSense_2_Init();
 386:.\Generated_Source\PSoC4/CapSense_2.c ****         CapSense_2_initVar = 1u;
 387:.\Generated_Source\PSoC4/CapSense_2.c ****     }
 388:.\Generated_Source\PSoC4/CapSense_2.c ****     CapSense_2_Enable();
 389:.\Generated_Source\PSoC4/CapSense_2.c **** 
 390:.\Generated_Source\PSoC4/CapSense_2.c ****     /* AutoTunning start */
 391:.\Generated_Source\PSoC4/CapSense_2.c ****     #if(CapSense_2_TUNING_METHOD == CapSense_2__TUNING_AUTO)
 392:.\Generated_Source\PSoC4/CapSense_2.c ****         #if(0u != CapSense_2_CSHL_API_GENERATE)
 393:.\Generated_Source\PSoC4/CapSense_2.c ****             CapSense_2_AutoTune();
 394:.\Generated_Source\PSoC4/CapSense_2.c ****             CapSense_2_lowLevelTuningDone = 1u;
 395:.\Generated_Source\PSoC4/CapSense_2.c ****         #endif /* (0u != CapSense_2_CSHL_API_GENERATE) */
 396:.\Generated_Source\PSoC4/CapSense_2.c ****     #else
 397:.\Generated_Source\PSoC4/CapSense_2.c ****         #if(0u != CapSense_2_AUTOCALIBRATION_ENABLE)
 398:.\Generated_Source\PSoC4/CapSense_2.c **** 
 399:.\Generated_Source\PSoC4/CapSense_2.c ****             #if(CapSense_2_IDAC_CNT > 1u)
 400:.\Generated_Source\PSoC4/CapSense_2.c ****                 CapSense_2_CSD_IDAC_REG &= ~(CapSense_2_CSD_IDAC2_MODE_MASK);
 401:.\Generated_Source\PSoC4/CapSense_2.c ****             #endif /* (CapSense_2_IDAC_CNT > 1u) */
 402:.\Generated_Source\PSoC4/CapSense_2.c **** 
 403:.\Generated_Source\PSoC4/CapSense_2.c ****             for(curSensor = 0u; curSensor < CapSense_2_TOTAL_SCANSLOT_COUNT; curSensor++)
 404:.\Generated_Source\PSoC4/CapSense_2.c ****             {
 405:.\Generated_Source\PSoC4/CapSense_2.c ****                 widget = CapSense_2_widgetNumber[curSensor];
 406:.\Generated_Source\PSoC4/CapSense_2.c ****                 rawLevel = CapSense_2_widgetResolution[widget] >> CapSense_2_RESOLUTION_OFFSET;
 407:.\Generated_Source\PSoC4/CapSense_2.c **** 
 408:.\Generated_Source\PSoC4/CapSense_2.c ****                 /* Calibration level should be equal to 85% from scanning resolution */
 409:.\Generated_Source\PSoC4/CapSense_2.c ****                 rawLevel = (rawLevel * 85u) / 100u;
 410:.\Generated_Source\PSoC4/CapSense_2.c **** 
 411:.\Generated_Source\PSoC4/CapSense_2.c ****                 CapSense_2_CalibrateSensor(curSensor, rawLevel, CapSense_2_modulationIDAC);
 412:.\Generated_Source\PSoC4/CapSense_2.c ****             }
 413:.\Generated_Source\PSoC4/CapSense_2.c **** 
 414:.\Generated_Source\PSoC4/CapSense_2.c ****             #if(0u != CapSense_2_TOTAL_CENTROIDS_COUNT)
 415:.\Generated_Source\PSoC4/CapSense_2.c ****                 CapSense_2_NormalizeWidgets(CapSense_2_END_OF_WIDGETS_INDEX, CapSense_2_modulationI
 416:.\Generated_Source\PSoC4/CapSense_2.c ****             #endif /* (0u != CapSense_2_TOTAL_CENTROIDS_COUNT)  */
 417:.\Generated_Source\PSoC4/CapSense_2.c **** 
 418:.\Generated_Source\PSoC4/CapSense_2.c ****             #if(CapSense_2_IDAC_CNT > 1u)
 419:.\Generated_Source\PSoC4/CapSense_2.c ****                 for(curSensor = 0u; curSensor < CapSense_2_TOTAL_SCANSLOT_COUNT; curSensor++)
 420:.\Generated_Source\PSoC4/CapSense_2.c ****                 {
 421:.\Generated_Source\PSoC4/CapSense_2.c ****                     CapSense_2_compensationIDAC[curSensor] = CapSense_2_modulationIDAC[curSensor] /
 422:.\Generated_Source\PSoC4/CapSense_2.c ****                     CapSense_2_modulationIDAC[curSensor] = (CapSense_2_modulationIDAC[curSensor] + 
 423:.\Generated_Source\PSoC4/CapSense_2.c ****                 }
 424:.\Generated_Source\PSoC4/CapSense_2.c ****                 CapSense_2_CSD_IDAC_REG |= CapSense_2_CSD_IDAC2_MODE_FIXED;
 425:.\Generated_Source\PSoC4/CapSense_2.c ****             #endif /* (CapSense_2_IDAC_CNT > 1u) */
 426:.\Generated_Source\PSoC4/CapSense_2.c **** 
 427:.\Generated_Source\PSoC4/CapSense_2.c ****         #endif /* (0u != CapSense_2_AUTOCALIBRATION_ENABLE) */
 428:.\Generated_Source\PSoC4/CapSense_2.c **** 
 429:.\Generated_Source\PSoC4/CapSense_2.c ****     #endif /* ((CapSense_2_TUNING_METHOD == CapSense_2__TUNING_AUTO) */
 430:.\Generated_Source\PSoC4/CapSense_2.c **** 
 431:.\Generated_Source\PSoC4/CapSense_2.c ****     /* Initialize Advanced Centroid */
 432:.\Generated_Source\PSoC4/CapSense_2.c ****     #if(CapSense_2_TOTAL_TRACKPAD_GESTURES_COUNT > 0u)
ARM GAS  C:\Users\glenn\AppData\Local\Temp\ccPcZrmN.s 			page 12


 433:.\Generated_Source\PSoC4/CapSense_2.c ****         CapSense_2_AdvancedCentroidInit();
 434:.\Generated_Source\PSoC4/CapSense_2.c ****     #endif /* (CapSense_2_TOTAL_TRACKPAD_GESTURES_COUNT > 0u) */
 435:.\Generated_Source\PSoC4/CapSense_2.c **** 
 436:.\Generated_Source\PSoC4/CapSense_2.c ****     /* Connect sense comparator input to AMUXA */
 437:.\Generated_Source\PSoC4/CapSense_2.c ****     CapSense_2_CSD_CFG_REG |= CapSense_2_CSD_CFG_SENSE_INSEL;
 438:.\Generated_Source\PSoC4/CapSense_2.c **** }
 439:.\Generated_Source\PSoC4/CapSense_2.c **** 
 440:.\Generated_Source\PSoC4/CapSense_2.c **** 
 441:.\Generated_Source\PSoC4/CapSense_2.c **** /*******************************************************************************
 442:.\Generated_Source\PSoC4/CapSense_2.c **** * Function Name: CapSense_2_Stop
 443:.\Generated_Source\PSoC4/CapSense_2.c **** ********************************************************************************
 444:.\Generated_Source\PSoC4/CapSense_2.c **** *
 445:.\Generated_Source\PSoC4/CapSense_2.c **** * Summary:
 446:.\Generated_Source\PSoC4/CapSense_2.c **** *  Stops the sensor scanning, disables component interrupts, and resets all the
 447:.\Generated_Source\PSoC4/CapSense_2.c **** *  sensors to an inactive state. Disables the Active mode power template bits for
 448:.\Generated_Source\PSoC4/CapSense_2.c **** *  the subcomponents used within CapSense.
 449:.\Generated_Source\PSoC4/CapSense_2.c **** *
 450:.\Generated_Source\PSoC4/CapSense_2.c **** * Parameters:
 451:.\Generated_Source\PSoC4/CapSense_2.c **** *  None
 452:.\Generated_Source\PSoC4/CapSense_2.c **** *
 453:.\Generated_Source\PSoC4/CapSense_2.c **** * Return:
 454:.\Generated_Source\PSoC4/CapSense_2.c **** *  None
 455:.\Generated_Source\PSoC4/CapSense_2.c **** *
 456:.\Generated_Source\PSoC4/CapSense_2.c **** * Global Variables:
 457:.\Generated_Source\PSoC4/CapSense_2.c **** *  CapSense_2_csdTrim1 - Contains the IDAC trim register value for the Sourcing Mode.
 458:.\Generated_Source\PSoC4/CapSense_2.c **** *  CapSense_2_csdTrim2 - Contains the IDAC trim register value for vSinking Mode.
 459:.\Generated_Source\PSoC4/CapSense_2.c **** *
 460:.\Generated_Source\PSoC4/CapSense_2.c **** * Side Effects:
 461:.\Generated_Source\PSoC4/CapSense_2.c **** *  This function should be called after scans are completed.
 462:.\Generated_Source\PSoC4/CapSense_2.c **** *
 463:.\Generated_Source\PSoC4/CapSense_2.c **** *******************************************************************************/
 464:.\Generated_Source\PSoC4/CapSense_2.c **** void CapSense_2_Stop(void)
 465:.\Generated_Source\PSoC4/CapSense_2.c **** {
 196              		.loc 1 465 0
 197              		.cfi_startproc
 198 0000 08B5     		push	{r3, lr}
 199              		.cfi_def_cfa_offset 8
 200              		.cfi_offset 3, -8
 201              		.cfi_offset 14, -4
 466:.\Generated_Source\PSoC4/CapSense_2.c ****     /* Disable interrupt */
 467:.\Generated_Source\PSoC4/CapSense_2.c ****     CyIntDisable(CapSense_2_ISR_NUMBER);
 202              		.loc 1 467 0
 203 0002 1120     		mov	r0, #17
 204 0004 FFF7FEFF 		bl	CyIntDisable
 205              	.LVL24:
 468:.\Generated_Source\PSoC4/CapSense_2.c **** 
 469:.\Generated_Source\PSoC4/CapSense_2.c ****     CapSense_2_CSD_CFG_REG &= ~(CapSense_2_CSD_CFG_SENSE_COMP_EN | CapSense_2_CSD_CFG_SENSE_EN);
 206              		.loc 1 469 0
 207 0008 064A     		ldr	r2, .L8
 208 000a 1168     		ldr	r1, [r2]
 209 000c 064B     		ldr	r3, .L8+4
 210 000e 0B40     		and	r3, r1
 211 0010 1360     		str	r3, [r2]
 470:.\Generated_Source\PSoC4/CapSense_2.c **** 
 471:.\Generated_Source\PSoC4/CapSense_2.c ****     #if(CapSense_2_IDAC_CNT == 2u)
 472:.\Generated_Source\PSoC4/CapSense_2.c ****         CapSense_2_CSD_CFG_REG &= ~(CapSense_2_CSD_CFG_ENABLE);
 212              		.loc 1 472 0
ARM GAS  C:\Users\glenn\AppData\Local\Temp\ccPcZrmN.s 			page 13


 213 0012 1368     		ldr	r3, [r2]
 214 0014 5B00     		lsl	r3, r3, #1
 215 0016 5B08     		lsr	r3, r3, #1
 216 0018 1360     		str	r3, [r2]
 473:.\Generated_Source\PSoC4/CapSense_2.c ****     #endif /* (CapSense_2_IDAC_CNT == 2u) */
 474:.\Generated_Source\PSoC4/CapSense_2.c **** 
 475:.\Generated_Source\PSoC4/CapSense_2.c ****     /* Disable the Clocks */
 476:.\Generated_Source\PSoC4/CapSense_2.c ****     CapSense_2_SenseClk_Stop();
 217              		.loc 1 476 0
 218 001a FFF7FEFF 		bl	CapSense_2_SenseClk_Stop
 219              	.LVL25:
 477:.\Generated_Source\PSoC4/CapSense_2.c ****     CapSense_2_SampleClk_Stop();
 220              		.loc 1 477 0
 221 001e FFF7FEFF 		bl	CapSense_2_SampleClk_Stop
 222              	.LVL26:
 478:.\Generated_Source\PSoC4/CapSense_2.c **** }
 223              		.loc 1 478 0
 224              		@ sp needed
 225 0022 08BD     		pop	{r3, pc}
 226              	.L9:
 227              		.align	2
 228              	.L8:
 229 0024 04002840 		.word	1076363268
 230 0028 FFEFF7FF 		.word	-528385
 231              		.cfi_endproc
 232              	.LFE39:
 233              		.size	CapSense_2_Stop, .-CapSense_2_Stop
 234              		.section	.text.CapSense_2_IsBusy,"ax",%progbits
 235              		.align	2
 236              		.global	CapSense_2_IsBusy
 237              		.code	16
 238              		.thumb_func
 239              		.type	CapSense_2_IsBusy, %function
 240              	CapSense_2_IsBusy:
 241              	.LFB43:
 479:.\Generated_Source\PSoC4/CapSense_2.c **** 
 480:.\Generated_Source\PSoC4/CapSense_2.c **** 
 481:.\Generated_Source\PSoC4/CapSense_2.c **** /*******************************************************************************
 482:.\Generated_Source\PSoC4/CapSense_2.c **** * Function Name: CapSense_2_FindNextSensor
 483:.\Generated_Source\PSoC4/CapSense_2.c **** ********************************************************************************
 484:.\Generated_Source\PSoC4/CapSense_2.c **** *
 485:.\Generated_Source\PSoC4/CapSense_2.c **** * Summary:
 486:.\Generated_Source\PSoC4/CapSense_2.c **** *  Finds the next sensor to scan.
 487:.\Generated_Source\PSoC4/CapSense_2.c **** *
 488:.\Generated_Source\PSoC4/CapSense_2.c **** * Parameters:
 489:.\Generated_Source\PSoC4/CapSense_2.c **** *  snsIndex:  Current index of sensor.
 490:.\Generated_Source\PSoC4/CapSense_2.c **** *
 491:.\Generated_Source\PSoC4/CapSense_2.c **** * Return:
 492:.\Generated_Source\PSoC4/CapSense_2.c **** *  Returns the next sensor index to scan.
 493:.\Generated_Source\PSoC4/CapSense_2.c **** *
 494:.\Generated_Source\PSoC4/CapSense_2.c **** * Global Variables:
 495:.\Generated_Source\PSoC4/CapSense_2.c **** *  CapSense_2_sensorEnableMask[] - used to store bit masks of the enabled sensors.
 496:.\Generated_Source\PSoC4/CapSense_2.c **** *
 497:.\Generated_Source\PSoC4/CapSense_2.c **** * Side Effects:
 498:.\Generated_Source\PSoC4/CapSense_2.c **** *  This function affects the  current scanning and should not
 499:.\Generated_Source\PSoC4/CapSense_2.c **** *  be used outside the component.
 500:.\Generated_Source\PSoC4/CapSense_2.c **** *
ARM GAS  C:\Users\glenn\AppData\Local\Temp\ccPcZrmN.s 			page 14


 501:.\Generated_Source\PSoC4/CapSense_2.c **** *******************************************************************************/
 502:.\Generated_Source\PSoC4/CapSense_2.c **** uint8 CapSense_2_FindNextSensor(uint8 snsIndex)
 503:.\Generated_Source\PSoC4/CapSense_2.c **** {
 504:.\Generated_Source\PSoC4/CapSense_2.c ****     uint32 enableFlag;
 505:.\Generated_Source\PSoC4/CapSense_2.c **** 
 506:.\Generated_Source\PSoC4/CapSense_2.c ****     /* Check if sensor enabled */
 507:.\Generated_Source\PSoC4/CapSense_2.c ****     do
 508:.\Generated_Source\PSoC4/CapSense_2.c ****     {
 509:.\Generated_Source\PSoC4/CapSense_2.c ****         /* Proceed with next sensor */
 510:.\Generated_Source\PSoC4/CapSense_2.c ****         snsIndex++;
 511:.\Generated_Source\PSoC4/CapSense_2.c ****         if(snsIndex == CapSense_2_TOTAL_SENSOR_COUNT)
 512:.\Generated_Source\PSoC4/CapSense_2.c ****         {
 513:.\Generated_Source\PSoC4/CapSense_2.c ****             break;
 514:.\Generated_Source\PSoC4/CapSense_2.c ****         }
 515:.\Generated_Source\PSoC4/CapSense_2.c ****         enableFlag = CapSense_2_GetBitValue(CapSense_2_sensorEnableMask, (uint32)snsIndex);
 516:.\Generated_Source\PSoC4/CapSense_2.c ****     }
 517:.\Generated_Source\PSoC4/CapSense_2.c ****     while(enableFlag == 0u);
 518:.\Generated_Source\PSoC4/CapSense_2.c **** 
 519:.\Generated_Source\PSoC4/CapSense_2.c ****     return ((uint8)snsIndex);
 520:.\Generated_Source\PSoC4/CapSense_2.c **** }
 521:.\Generated_Source\PSoC4/CapSense_2.c **** 
 522:.\Generated_Source\PSoC4/CapSense_2.c **** 
 523:.\Generated_Source\PSoC4/CapSense_2.c **** /*******************************************************************************
 524:.\Generated_Source\PSoC4/CapSense_2.c **** * Function Name: CapSense_2_ScanSensor
 525:.\Generated_Source\PSoC4/CapSense_2.c **** ********************************************************************************
 526:.\Generated_Source\PSoC4/CapSense_2.c **** *
 527:.\Generated_Source\PSoC4/CapSense_2.c **** * Summary:
 528:.\Generated_Source\PSoC4/CapSense_2.c **** *  Sets the scan settings and starts scanning a sensor. After scanning is complete,
 529:.\Generated_Source\PSoC4/CapSense_2.c **** *  the ISR copies the measured sensor raw data to the global raw sensor array.
 530:.\Generated_Source\PSoC4/CapSense_2.c **** *  Use of the ISR ensures this function is non-blocking.
 531:.\Generated_Source\PSoC4/CapSense_2.c **** *  Each sensor has a unique number within the sensor array.
 532:.\Generated_Source\PSoC4/CapSense_2.c **** *  This number is assigned by the CapSense customizer in sequence.
 533:.\Generated_Source\PSoC4/CapSense_2.c **** *
 534:.\Generated_Source\PSoC4/CapSense_2.c **** * Parameters:
 535:.\Generated_Source\PSoC4/CapSense_2.c **** *  sensor:  Sensor number.
 536:.\Generated_Source\PSoC4/CapSense_2.c **** *
 537:.\Generated_Source\PSoC4/CapSense_2.c **** * Return:
 538:.\Generated_Source\PSoC4/CapSense_2.c **** *  None
 539:.\Generated_Source\PSoC4/CapSense_2.c **** *
 540:.\Generated_Source\PSoC4/CapSense_2.c **** * Global Variables:
 541:.\Generated_Source\PSoC4/CapSense_2.c **** *  CapSense_2_csdStatusVar - used to provide the status and mode of the scanning process.
 542:.\Generated_Source\PSoC4/CapSense_2.c **** *  Sets the busy status(scan in progress) and mode of scan as single scan.
 543:.\Generated_Source\PSoC4/CapSense_2.c **** *  CapSense_2_sensorIndex - used to store a sensor scanning sensor number.
 544:.\Generated_Source\PSoC4/CapSense_2.c **** *  Sets to the provided sensor argument.
 545:.\Generated_Source\PSoC4/CapSense_2.c **** *
 546:.\Generated_Source\PSoC4/CapSense_2.c **** * Side Effects:
 547:.\Generated_Source\PSoC4/CapSense_2.c **** *  None
 548:.\Generated_Source\PSoC4/CapSense_2.c **** *
 549:.\Generated_Source\PSoC4/CapSense_2.c **** *******************************************************************************/
 550:.\Generated_Source\PSoC4/CapSense_2.c **** void CapSense_2_ScanSensor(uint32 sensor)
 551:.\Generated_Source\PSoC4/CapSense_2.c **** {
 552:.\Generated_Source\PSoC4/CapSense_2.c ****     /* Clears status/control variable and set sensorIndex */
 553:.\Generated_Source\PSoC4/CapSense_2.c ****     CapSense_2_csdStatusVar = 0u;
 554:.\Generated_Source\PSoC4/CapSense_2.c ****     CapSense_2_sensorIndex = (uint8)sensor;
 555:.\Generated_Source\PSoC4/CapSense_2.c **** 
 556:.\Generated_Source\PSoC4/CapSense_2.c ****     /* Start of sensor scan */
 557:.\Generated_Source\PSoC4/CapSense_2.c ****     CapSense_2_csdStatusVar = (CapSense_2_SW_STS_BUSY | CapSense_2_SW_CTRL_SINGLE_SCAN);
ARM GAS  C:\Users\glenn\AppData\Local\Temp\ccPcZrmN.s 			page 15


 558:.\Generated_Source\PSoC4/CapSense_2.c ****     CapSense_2_PreScan(sensor);
 559:.\Generated_Source\PSoC4/CapSense_2.c **** }
 560:.\Generated_Source\PSoC4/CapSense_2.c **** 
 561:.\Generated_Source\PSoC4/CapSense_2.c **** 
 562:.\Generated_Source\PSoC4/CapSense_2.c **** #if(0u != CapSense_2_CSHL_API_GENERATE)
 563:.\Generated_Source\PSoC4/CapSense_2.c **** /*******************************************************************************
 564:.\Generated_Source\PSoC4/CapSense_2.c **** * Function Name: CapSense_2_ScanWidget
 565:.\Generated_Source\PSoC4/CapSense_2.c **** ********************************************************************************
 566:.\Generated_Source\PSoC4/CapSense_2.c **** *
 567:.\Generated_Source\PSoC4/CapSense_2.c **** * Summary:
 568:.\Generated_Source\PSoC4/CapSense_2.c **** *  Sets the scan settings and starts scanning a widget.
 569:.\Generated_Source\PSoC4/CapSense_2.c **** *
 570:.\Generated_Source\PSoC4/CapSense_2.c **** * Parameters:
 571:.\Generated_Source\PSoC4/CapSense_2.c **** *  uint32 widget: Widget number.
 572:.\Generated_Source\PSoC4/CapSense_2.c **** *
 573:.\Generated_Source\PSoC4/CapSense_2.c **** * Return:
 574:.\Generated_Source\PSoC4/CapSense_2.c **** *  None
 575:.\Generated_Source\PSoC4/CapSense_2.c **** *
 576:.\Generated_Source\PSoC4/CapSense_2.c **** * Global Variables:
 577:.\Generated_Source\PSoC4/CapSense_2.c **** *  CapSense_2_csdStatusVar - used to provide the status and mode of the scanning process.
 578:.\Generated_Source\PSoC4/CapSense_2.c **** *  Sets the busy status(scan in progress) and clears the single scan mode.
 579:.\Generated_Source\PSoC4/CapSense_2.c **** *  CapSense_2_sensorIndex - used to store a sensor scanning sensor number.
 580:.\Generated_Source\PSoC4/CapSense_2.c **** *  Sets to 0xFF and provided to function CapSense_2_FindNextSensor or
 581:.\Generated_Source\PSoC4/CapSense_2.c **** *  CapSense_2_sensorEnableMask[] - used to store bit masks of the enabled sensors.
 582:.\Generated_Source\PSoC4/CapSense_2.c **** *  CapSense_2_sensorEnableMaskBackup[] - used to backup bit masks of the enabled
 583:.\Generated_Source\PSoC4/CapSense_2.c **** *   sensors.
 584:.\Generated_Source\PSoC4/CapSense_2.c **** *
 585:.\Generated_Source\PSoC4/CapSense_2.c **** * Side Effects:
 586:.\Generated_Source\PSoC4/CapSense_2.c **** *  None
 587:.\Generated_Source\PSoC4/CapSense_2.c **** *
 588:.\Generated_Source\PSoC4/CapSense_2.c **** *******************************************************************************/
 589:.\Generated_Source\PSoC4/CapSense_2.c **** void CapSense_2_ScanWidget(uint32 widget)
 590:.\Generated_Source\PSoC4/CapSense_2.c **** {
 591:.\Generated_Source\PSoC4/CapSense_2.c ****     uint32 sensorsPerWidget;
 592:.\Generated_Source\PSoC4/CapSense_2.c ****     uint32 lastSensor;
 593:.\Generated_Source\PSoC4/CapSense_2.c ****     uint32 snsIndex;
 594:.\Generated_Source\PSoC4/CapSense_2.c **** 
 595:.\Generated_Source\PSoC4/CapSense_2.c ****     /* Get first sensor in widget */
 596:.\Generated_Source\PSoC4/CapSense_2.c ****     CapSense_2_sensorIndex = CapSense_2_rawDataIndex[widget];
 597:.\Generated_Source\PSoC4/CapSense_2.c **** 
 598:.\Generated_Source\PSoC4/CapSense_2.c ****     /* Get number of sensors in widget */
 599:.\Generated_Source\PSoC4/CapSense_2.c ****     sensorsPerWidget = CapSense_2_numberOfSensors[widget];
 600:.\Generated_Source\PSoC4/CapSense_2.c **** 
 601:.\Generated_Source\PSoC4/CapSense_2.c ****     /* Check if generic Sensor */
 602:.\Generated_Source\PSoC4/CapSense_2.c ****     if(sensorsPerWidget == 0u)
 603:.\Generated_Source\PSoC4/CapSense_2.c ****     {
 604:.\Generated_Source\PSoC4/CapSense_2.c ****         sensorsPerWidget = 1u;
 605:.\Generated_Source\PSoC4/CapSense_2.c ****     }
 606:.\Generated_Source\PSoC4/CapSense_2.c **** 
 607:.\Generated_Source\PSoC4/CapSense_2.c ****     /* Get last sensor in widget */
 608:.\Generated_Source\PSoC4/CapSense_2.c ****     lastSensor = (CapSense_2_rawDataIndex[widget] + sensorsPerWidget) - 1u;
 609:.\Generated_Source\PSoC4/CapSense_2.c **** 
 610:.\Generated_Source\PSoC4/CapSense_2.c ****     /* Backup sensorEnableMask array */
 611:.\Generated_Source\PSoC4/CapSense_2.c ****     for(snsIndex = 0u; snsIndex < CapSense_2_TOTAL_SENSOR_MASK; snsIndex++)
 612:.\Generated_Source\PSoC4/CapSense_2.c ****     {
 613:.\Generated_Source\PSoC4/CapSense_2.c ****         /* Backup sensorEnableMask array */
 614:.\Generated_Source\PSoC4/CapSense_2.c ****         CapSense_2_sensorEnableMaskBackup[snsIndex] = CapSense_2_sensorEnableMask[snsIndex];
ARM GAS  C:\Users\glenn\AppData\Local\Temp\ccPcZrmN.s 			page 16


 615:.\Generated_Source\PSoC4/CapSense_2.c ****     }
 616:.\Generated_Source\PSoC4/CapSense_2.c **** 
 617:.\Generated_Source\PSoC4/CapSense_2.c ****     /* Update sensorEnableMask to scan the sensors that belong to widget */
 618:.\Generated_Source\PSoC4/CapSense_2.c ****     for(snsIndex = 0u; snsIndex < CapSense_2_TOTAL_SENSOR_COUNT; snsIndex++)
 619:.\Generated_Source\PSoC4/CapSense_2.c ****     {
 620:.\Generated_Source\PSoC4/CapSense_2.c ****         /* Update sensorEnableMask array bits to scan the widget only */
 621:.\Generated_Source\PSoC4/CapSense_2.c ****         if((snsIndex >= CapSense_2_sensorIndex) && (snsIndex <= lastSensor))
 622:.\Generated_Source\PSoC4/CapSense_2.c ****         {
 623:.\Generated_Source\PSoC4/CapSense_2.c ****             /* Set sensor bit to scan */
 624:.\Generated_Source\PSoC4/CapSense_2.c ****             CapSense_2_SetBitValue(CapSense_2_sensorEnableMask, snsIndex, 1u);
 625:.\Generated_Source\PSoC4/CapSense_2.c ****         }
 626:.\Generated_Source\PSoC4/CapSense_2.c ****         else
 627:.\Generated_Source\PSoC4/CapSense_2.c ****         {
 628:.\Generated_Source\PSoC4/CapSense_2.c ****             /* Reset sensor bit to do not scan */
 629:.\Generated_Source\PSoC4/CapSense_2.c ****             CapSense_2_SetBitValue(CapSense_2_sensorEnableMask, snsIndex, 0u);
 630:.\Generated_Source\PSoC4/CapSense_2.c ****         }
 631:.\Generated_Source\PSoC4/CapSense_2.c ****     }
 632:.\Generated_Source\PSoC4/CapSense_2.c **** 
 633:.\Generated_Source\PSoC4/CapSense_2.c ****     /* Check end of scan condition */
 634:.\Generated_Source\PSoC4/CapSense_2.c ****     if(CapSense_2_sensorIndex < CapSense_2_TOTAL_SENSOR_COUNT)
 635:.\Generated_Source\PSoC4/CapSense_2.c ****     {
 636:.\Generated_Source\PSoC4/CapSense_2.c ****         /* Set widget busy bit in status/control variable*/
 637:.\Generated_Source\PSoC4/CapSense_2.c ****         CapSense_2_csdStatusVar = (CapSense_2_SW_STS_BUSY | CapSense_2_SW_CTRL_WIDGET_SCAN);
 638:.\Generated_Source\PSoC4/CapSense_2.c ****         /* Scan first sensor of widget*/
 639:.\Generated_Source\PSoC4/CapSense_2.c ****         CapSense_2_PreScan((uint32)CapSense_2_sensorIndex);
 640:.\Generated_Source\PSoC4/CapSense_2.c ****     }
 641:.\Generated_Source\PSoC4/CapSense_2.c **** }
 642:.\Generated_Source\PSoC4/CapSense_2.c **** #endif /* (0u != CapSense_2_CSHL_API_GENERATE) */
 643:.\Generated_Source\PSoC4/CapSense_2.c **** 
 644:.\Generated_Source\PSoC4/CapSense_2.c **** 
 645:.\Generated_Source\PSoC4/CapSense_2.c **** /*******************************************************************************
 646:.\Generated_Source\PSoC4/CapSense_2.c **** * Function Name: CapSense_2_ScanEnableWidgets
 647:.\Generated_Source\PSoC4/CapSense_2.c **** ********************************************************************************
 648:.\Generated_Source\PSoC4/CapSense_2.c **** *
 649:.\Generated_Source\PSoC4/CapSense_2.c **** * Summary:
 650:.\Generated_Source\PSoC4/CapSense_2.c **** *  This is the preferred method to scan all of the enabled widgets.
 651:.\Generated_Source\PSoC4/CapSense_2.c **** *  The API starts scanning a sensor within the enabled widgets.
 652:.\Generated_Source\PSoC4/CapSense_2.c **** *  The ISR continues scanning the sensors until all the enabled widgets are scanned.
 653:.\Generated_Source\PSoC4/CapSense_2.c **** *  Use of the ISR ensures this function is non-blocking.
 654:.\Generated_Source\PSoC4/CapSense_2.c **** *  All the widgets are enabled by default except proximity widgets.
 655:.\Generated_Source\PSoC4/CapSense_2.c **** *  The proximity widgets must be manually enabled as their long scan time
 656:.\Generated_Source\PSoC4/CapSense_2.c **** *  is incompatible with a fast response required of other widget types.
 657:.\Generated_Source\PSoC4/CapSense_2.c **** *
 658:.\Generated_Source\PSoC4/CapSense_2.c **** * Parameters:
 659:.\Generated_Source\PSoC4/CapSense_2.c **** *  None
 660:.\Generated_Source\PSoC4/CapSense_2.c **** *
 661:.\Generated_Source\PSoC4/CapSense_2.c **** * Return:
 662:.\Generated_Source\PSoC4/CapSense_2.c **** *  None
 663:.\Generated_Source\PSoC4/CapSense_2.c **** *
 664:.\Generated_Source\PSoC4/CapSense_2.c **** * Global Variables:
 665:.\Generated_Source\PSoC4/CapSense_2.c **** *  CapSense_2_csdStatusVar - used to provide the status and mode of the scanning process.
 666:.\Generated_Source\PSoC4/CapSense_2.c **** *  Sets the busy status(scan in progress) and clears the single scan mode.
 667:.\Generated_Source\PSoC4/CapSense_2.c **** *  CapSense_2_sensorIndex - used to store a sensor scanning sensor number.
 668:.\Generated_Source\PSoC4/CapSense_2.c **** *  Sets to 0xFF and provided to function CapSense_2_FindNextSensor or
 669:.\Generated_Source\PSoC4/CapSense_2.c **** *
 670:.\Generated_Source\PSoC4/CapSense_2.c **** * Side Effects:
 671:.\Generated_Source\PSoC4/CapSense_2.c **** *  None
ARM GAS  C:\Users\glenn\AppData\Local\Temp\ccPcZrmN.s 			page 17


 672:.\Generated_Source\PSoC4/CapSense_2.c **** *
 673:.\Generated_Source\PSoC4/CapSense_2.c **** *******************************************************************************/
 674:.\Generated_Source\PSoC4/CapSense_2.c **** void CapSense_2_ScanEnabledWidgets(void)
 675:.\Generated_Source\PSoC4/CapSense_2.c **** {
 676:.\Generated_Source\PSoC4/CapSense_2.c ****     /* Clears status/control variable and set sensorIndex */
 677:.\Generated_Source\PSoC4/CapSense_2.c ****     CapSense_2_csdStatusVar = 0u;
 678:.\Generated_Source\PSoC4/CapSense_2.c ****     CapSense_2_sensorIndex = 0xFFu;
 679:.\Generated_Source\PSoC4/CapSense_2.c **** 
 680:.\Generated_Source\PSoC4/CapSense_2.c ****     /* Find next sensor */
 681:.\Generated_Source\PSoC4/CapSense_2.c ****     CapSense_2_sensorIndex = (uint8)CapSense_2_FindNextSensor(CapSense_2_sensorIndex);
 682:.\Generated_Source\PSoC4/CapSense_2.c **** 
 683:.\Generated_Source\PSoC4/CapSense_2.c ****     /* Check end of scan condition */
 684:.\Generated_Source\PSoC4/CapSense_2.c ****     if(CapSense_2_sensorIndex < CapSense_2_TOTAL_SENSOR_COUNT)
 685:.\Generated_Source\PSoC4/CapSense_2.c ****     {
 686:.\Generated_Source\PSoC4/CapSense_2.c ****         CapSense_2_csdStatusVar |= CapSense_2_SW_STS_BUSY;
 687:.\Generated_Source\PSoC4/CapSense_2.c ****         CapSense_2_PreScan((uint32)CapSense_2_sensorIndex);
 688:.\Generated_Source\PSoC4/CapSense_2.c ****     }
 689:.\Generated_Source\PSoC4/CapSense_2.c **** }
 690:.\Generated_Source\PSoC4/CapSense_2.c **** 
 691:.\Generated_Source\PSoC4/CapSense_2.c **** 
 692:.\Generated_Source\PSoC4/CapSense_2.c **** /*******************************************************************************
 693:.\Generated_Source\PSoC4/CapSense_2.c **** * Function Name: CapSense_2_IsBusy
 694:.\Generated_Source\PSoC4/CapSense_2.c **** ********************************************************************************
 695:.\Generated_Source\PSoC4/CapSense_2.c **** *
 696:.\Generated_Source\PSoC4/CapSense_2.c **** * Summary:
 697:.\Generated_Source\PSoC4/CapSense_2.c **** *  Returns the state of the CapSense component. 1 means that scanning in
 698:.\Generated_Source\PSoC4/CapSense_2.c **** *  progress and 0 means that scanning is complete.
 699:.\Generated_Source\PSoC4/CapSense_2.c **** *
 700:.\Generated_Source\PSoC4/CapSense_2.c **** * Parameters:
 701:.\Generated_Source\PSoC4/CapSense_2.c **** *  None
 702:.\Generated_Source\PSoC4/CapSense_2.c **** *
 703:.\Generated_Source\PSoC4/CapSense_2.c **** * Return:
 704:.\Generated_Source\PSoC4/CapSense_2.c **** *  Returns the state of scanning. 1 - scanning in progress, 0 - scanning
 705:.\Generated_Source\PSoC4/CapSense_2.c **** *  completed.
 706:.\Generated_Source\PSoC4/CapSense_2.c **** *
 707:.\Generated_Source\PSoC4/CapSense_2.c **** * Global Variables:
 708:.\Generated_Source\PSoC4/CapSense_2.c **** *  CapSense_2_csdStatusVar - used to provide the status and mode of the scanning process.
 709:.\Generated_Source\PSoC4/CapSense_2.c **** *  Checks the busy status.
 710:.\Generated_Source\PSoC4/CapSense_2.c **** *
 711:.\Generated_Source\PSoC4/CapSense_2.c **** * Side Effects:
 712:.\Generated_Source\PSoC4/CapSense_2.c **** *  None
 713:.\Generated_Source\PSoC4/CapSense_2.c **** *
 714:.\Generated_Source\PSoC4/CapSense_2.c **** *******************************************************************************/
 715:.\Generated_Source\PSoC4/CapSense_2.c **** uint32 CapSense_2_IsBusy(void)
 716:.\Generated_Source\PSoC4/CapSense_2.c **** {
 242              		.loc 1 716 0
 243              		.cfi_startproc
 717:.\Generated_Source\PSoC4/CapSense_2.c ****     return ((uint32)((0u != (CapSense_2_csdStatusVar & CapSense_2_SW_STS_BUSY)) ? 1u : 0u));
 244              		.loc 1 717 0
 245 0000 024B     		ldr	r3, .L11
 246 0002 1878     		ldrb	r0, [r3]
 247 0004 0123     		mov	r3, #1
 248 0006 1840     		and	r0, r3
 718:.\Generated_Source\PSoC4/CapSense_2.c **** }
 249              		.loc 1 718 0
 250              		@ sp needed
 251 0008 7047     		bx	lr
ARM GAS  C:\Users\glenn\AppData\Local\Temp\ccPcZrmN.s 			page 18


 252              	.L12:
 253 000a C046     		.align	2
 254              	.L11:
 255 000c 00000000 		.word	.LANCHOR0
 256              		.cfi_endproc
 257              	.LFE43:
 258              		.size	CapSense_2_IsBusy, .-CapSense_2_IsBusy
 259              		.section	.text.CapSense_2_ReadSensorRaw,"ax",%progbits
 260              		.align	2
 261              		.global	CapSense_2_ReadSensorRaw
 262              		.code	16
 263              		.thumb_func
 264              		.type	CapSense_2_ReadSensorRaw, %function
 265              	CapSense_2_ReadSensorRaw:
 266              	.LFB44:
 719:.\Generated_Source\PSoC4/CapSense_2.c **** 
 720:.\Generated_Source\PSoC4/CapSense_2.c **** 
 721:.\Generated_Source\PSoC4/CapSense_2.c **** /*******************************************************************************
 722:.\Generated_Source\PSoC4/CapSense_2.c **** * Function Name: CapSense_2_ReadSensorRaw
 723:.\Generated_Source\PSoC4/CapSense_2.c **** ********************************************************************************
 724:.\Generated_Source\PSoC4/CapSense_2.c **** *
 725:.\Generated_Source\PSoC4/CapSense_2.c **** * Summary:
 726:.\Generated_Source\PSoC4/CapSense_2.c **** *  Returns sensor raw data from the global CapSense_sensorRaw[ ] array.
 727:.\Generated_Source\PSoC4/CapSense_2.c **** *  Each scan sensor has a unique number within the sensor array.
 728:.\Generated_Source\PSoC4/CapSense_2.c **** *  This number is assigned by the CapSense customizer in sequence.
 729:.\Generated_Source\PSoC4/CapSense_2.c **** *  Raw data can be used to perform calculations outside of the CapSense
 730:.\Generated_Source\PSoC4/CapSense_2.c **** *  provided framework.
 731:.\Generated_Source\PSoC4/CapSense_2.c **** *
 732:.\Generated_Source\PSoC4/CapSense_2.c **** * Parameters:
 733:.\Generated_Source\PSoC4/CapSense_2.c **** *  sensor:  Sensor number.
 734:.\Generated_Source\PSoC4/CapSense_2.c **** *
 735:.\Generated_Source\PSoC4/CapSense_2.c **** * Return:
 736:.\Generated_Source\PSoC4/CapSense_2.c **** *  Returns the current raw data value for a defined sensor number.
 737:.\Generated_Source\PSoC4/CapSense_2.c **** *
 738:.\Generated_Source\PSoC4/CapSense_2.c **** * Global Variables:
 739:.\Generated_Source\PSoC4/CapSense_2.c **** *  CapSense_2_sensorRaw[] - used to store sensors raw data.
 740:.\Generated_Source\PSoC4/CapSense_2.c **** *
 741:.\Generated_Source\PSoC4/CapSense_2.c **** * Side Effects:
 742:.\Generated_Source\PSoC4/CapSense_2.c **** *  None
 743:.\Generated_Source\PSoC4/CapSense_2.c **** *
 744:.\Generated_Source\PSoC4/CapSense_2.c **** *******************************************************************************/
 745:.\Generated_Source\PSoC4/CapSense_2.c **** uint16 CapSense_2_ReadSensorRaw(uint32 sensor)
 746:.\Generated_Source\PSoC4/CapSense_2.c **** {
 267              		.loc 1 746 0
 268              		.cfi_startproc
 269              	.LVL27:
 747:.\Generated_Source\PSoC4/CapSense_2.c ****     return CapSense_2_sensorRaw[sensor];
 270              		.loc 1 747 0
 271 0000 4000     		lsl	r0, r0, #1
 272              	.LVL28:
 273 0002 024B     		ldr	r3, .L14
 274 0004 1818     		add	r0, r3, r0
 275 0006 8088     		ldrh	r0, [r0, #4]
 748:.\Generated_Source\PSoC4/CapSense_2.c **** }
 276              		.loc 1 748 0
 277              		@ sp needed
 278 0008 7047     		bx	lr
ARM GAS  C:\Users\glenn\AppData\Local\Temp\ccPcZrmN.s 			page 19


 279              	.L15:
 280 000a C046     		.align	2
 281              	.L14:
 282 000c 00000000 		.word	.LANCHOR0
 283              		.cfi_endproc
 284              	.LFE44:
 285              		.size	CapSense_2_ReadSensorRaw, .-CapSense_2_ReadSensorRaw
 286              		.section	.text.CapSense_2_WriteSensorRaw,"ax",%progbits
 287              		.align	2
 288              		.global	CapSense_2_WriteSensorRaw
 289              		.code	16
 290              		.thumb_func
 291              		.type	CapSense_2_WriteSensorRaw, %function
 292              	CapSense_2_WriteSensorRaw:
 293              	.LFB45:
 749:.\Generated_Source\PSoC4/CapSense_2.c **** 
 750:.\Generated_Source\PSoC4/CapSense_2.c **** 
 751:.\Generated_Source\PSoC4/CapSense_2.c **** /*******************************************************************************
 752:.\Generated_Source\PSoC4/CapSense_2.c **** * Function Name: CapSense_2_WriteSensorRaw
 753:.\Generated_Source\PSoC4/CapSense_2.c **** ********************************************************************************
 754:.\Generated_Source\PSoC4/CapSense_2.c **** *
 755:.\Generated_Source\PSoC4/CapSense_2.c **** * Summary:
 756:.\Generated_Source\PSoC4/CapSense_2.c **** *  This API writes the raw count value passed as an argument to the sensor Raw count array.
 757:.\Generated_Source\PSoC4/CapSense_2.c **** *
 758:.\Generated_Source\PSoC4/CapSense_2.c **** * Parameters:
 759:.\Generated_Source\PSoC4/CapSense_2.c **** *  sensor:  Sensor number.
 760:.\Generated_Source\PSoC4/CapSense_2.c **** *  value: Raw count value.
 761:.\Generated_Source\PSoC4/CapSense_2.c **** *
 762:.\Generated_Source\PSoC4/CapSense_2.c **** * Global Variables:
 763:.\Generated_Source\PSoC4/CapSense_2.c **** *  CapSense_2_sensorRaw[] - used to store sensors raw data.
 764:.\Generated_Source\PSoC4/CapSense_2.c **** *
 765:.\Generated_Source\PSoC4/CapSense_2.c **** * Return:
 766:.\Generated_Source\PSoC4/CapSense_2.c **** *  None
 767:.\Generated_Source\PSoC4/CapSense_2.c **** *
 768:.\Generated_Source\PSoC4/CapSense_2.c **** * Side Effects:
 769:.\Generated_Source\PSoC4/CapSense_2.c **** *  None
 770:.\Generated_Source\PSoC4/CapSense_2.c **** *
 771:.\Generated_Source\PSoC4/CapSense_2.c **** *******************************************************************************/
 772:.\Generated_Source\PSoC4/CapSense_2.c **** void CapSense_2_WriteSensorRaw(uint32 sensor, uint16 value)
 773:.\Generated_Source\PSoC4/CapSense_2.c **** {
 294              		.loc 1 773 0
 295              		.cfi_startproc
 296              	.LVL29:
 774:.\Generated_Source\PSoC4/CapSense_2.c ****     CapSense_2_sensorRaw[sensor] = value;
 297              		.loc 1 774 0
 298 0000 4000     		lsl	r0, r0, #1
 299              	.LVL30:
 300 0002 024B     		ldr	r3, .L17
 301 0004 1818     		add	r0, r3, r0
 302 0006 8180     		strh	r1, [r0, #4]
 775:.\Generated_Source\PSoC4/CapSense_2.c **** }
 303              		.loc 1 775 0
 304              		@ sp needed
 305 0008 7047     		bx	lr
 306              	.L18:
 307 000a C046     		.align	2
 308              	.L17:
ARM GAS  C:\Users\glenn\AppData\Local\Temp\ccPcZrmN.s 			page 20


 309 000c 00000000 		.word	.LANCHOR0
 310              		.cfi_endproc
 311              	.LFE45:
 312              		.size	CapSense_2_WriteSensorRaw, .-CapSense_2_WriteSensorRaw
 313              		.section	.text.CapSense_2_GetScanResolution,"ax",%progbits
 314              		.align	2
 315              		.global	CapSense_2_GetScanResolution
 316              		.code	16
 317              		.thumb_func
 318              		.type	CapSense_2_GetScanResolution, %function
 319              	CapSense_2_GetScanResolution:
 320              	.LFB46:
 776:.\Generated_Source\PSoC4/CapSense_2.c **** 
 777:.\Generated_Source\PSoC4/CapSense_2.c **** 
 778:.\Generated_Source\PSoC4/CapSense_2.c **** #if (CapSense_2_TUNING_METHOD != CapSense_2__TUNING_NONE)
 779:.\Generated_Source\PSoC4/CapSense_2.c ****     /*******************************************************************************
 780:.\Generated_Source\PSoC4/CapSense_2.c ****     * Function Name: CapSense_2_SetScanResolution
 781:.\Generated_Source\PSoC4/CapSense_2.c ****     ********************************************************************************
 782:.\Generated_Source\PSoC4/CapSense_2.c ****     *
 783:.\Generated_Source\PSoC4/CapSense_2.c ****     * Summary:
 784:.\Generated_Source\PSoC4/CapSense_2.c ****     *  Sets a value of the sensor scan resolution for a widget.
 785:.\Generated_Source\PSoC4/CapSense_2.c ****     *  The MIN resolution can be set 8-bit. The MAX Resolution can be set 16 bit.
 786:.\Generated_Source\PSoC4/CapSense_2.c ****     *  This function is not available for the tuning mode "None".
 787:.\Generated_Source\PSoC4/CapSense_2.c ****     *
 788:.\Generated_Source\PSoC4/CapSense_2.c ****     * Parameters:
 789:.\Generated_Source\PSoC4/CapSense_2.c ****     *  widget:     Widget index.
 790:.\Generated_Source\PSoC4/CapSense_2.c ****     *  resolution: Represents the resolution value. The following defines which are available in th
 791:.\Generated_Source\PSoC4/CapSense_2.c ****     *              CapSense_2.h file should be used:
 792:.\Generated_Source\PSoC4/CapSense_2.c ****     *              CapSense_2_RESOLUTION_6_BITS
 793:.\Generated_Source\PSoC4/CapSense_2.c ****     *              CapSense_2_RESOLUTION_7_BITS
 794:.\Generated_Source\PSoC4/CapSense_2.c ****     *              CapSense_2_RESOLUTION_8_BITS
 795:.\Generated_Source\PSoC4/CapSense_2.c ****     *              CapSense_2_RESOLUTION_9_BITS
 796:.\Generated_Source\PSoC4/CapSense_2.c ****     *              CapSense_2_RESOLUTION_10_BITS
 797:.\Generated_Source\PSoC4/CapSense_2.c ****     *              CapSense_2_RESOLUTION_11_BITS
 798:.\Generated_Source\PSoC4/CapSense_2.c ****     *              CapSense_2_RESOLUTION_12_BITS
 799:.\Generated_Source\PSoC4/CapSense_2.c ****     *              CapSense_2_RESOLUTION_13_BITS
 800:.\Generated_Source\PSoC4/CapSense_2.c ****     *              CapSense_2_RESOLUTION_14_BITS
 801:.\Generated_Source\PSoC4/CapSense_2.c ****     *              CapSense_2_RESOLUTION_15_BITS
 802:.\Generated_Source\PSoC4/CapSense_2.c ****     *              CapSense_2_RESOLUTION_16_BITS
 803:.\Generated_Source\PSoC4/CapSense_2.c ****     *
 804:.\Generated_Source\PSoC4/CapSense_2.c ****     * Return:
 805:.\Generated_Source\PSoC4/CapSense_2.c ****     *  None
 806:.\Generated_Source\PSoC4/CapSense_2.c ****     *
 807:.\Generated_Source\PSoC4/CapSense_2.c ****     * Global Variables:
 808:.\Generated_Source\PSoC4/CapSense_2.c ****     *  CapSense_2_widgetResolution[] - used to store scan resolution of each widget.
 809:.\Generated_Source\PSoC4/CapSense_2.c ****     *
 810:.\Generated_Source\PSoC4/CapSense_2.c ****     * Side Effects:
 811:.\Generated_Source\PSoC4/CapSense_2.c ****     *  None
 812:.\Generated_Source\PSoC4/CapSense_2.c ****     *
 813:.\Generated_Source\PSoC4/CapSense_2.c ****     *******************************************************************************/
 814:.\Generated_Source\PSoC4/CapSense_2.c ****     void CapSense_2_SetScanResolution(uint32 widget, uint32 resolution)
 815:.\Generated_Source\PSoC4/CapSense_2.c ****     {
 816:.\Generated_Source\PSoC4/CapSense_2.c ****         CapSense_2_widgetResolution[widget] = resolution;
 817:.\Generated_Source\PSoC4/CapSense_2.c ****     }
 818:.\Generated_Source\PSoC4/CapSense_2.c **** #endif /* (CapSense_2_TUNING_METHOD != CapSense_2__TUNING_NONE) */
 819:.\Generated_Source\PSoC4/CapSense_2.c **** 
 820:.\Generated_Source\PSoC4/CapSense_2.c **** 
ARM GAS  C:\Users\glenn\AppData\Local\Temp\ccPcZrmN.s 			page 21


 821:.\Generated_Source\PSoC4/CapSense_2.c **** /*******************************************************************************
 822:.\Generated_Source\PSoC4/CapSense_2.c **** * Function Name: CapSense_2_GetScanResolution
 823:.\Generated_Source\PSoC4/CapSense_2.c **** ********************************************************************************
 824:.\Generated_Source\PSoC4/CapSense_2.c **** *
 825:.\Generated_Source\PSoC4/CapSense_2.c **** * Summary:
 826:.\Generated_Source\PSoC4/CapSense_2.c **** *  Returns the resolution value for the appropriate sensor.
 827:.\Generated_Source\PSoC4/CapSense_2.c **** *  This function is not available for tuning mode "None".
 828:.\Generated_Source\PSoC4/CapSense_2.c **** *
 829:.\Generated_Source\PSoC4/CapSense_2.c **** * Parameters:
 830:.\Generated_Source\PSoC4/CapSense_2.c **** *  widget:     Widget index.
 831:.\Generated_Source\PSoC4/CapSense_2.c **** *
 832:.\Generated_Source\PSoC4/CapSense_2.c **** * Return:
 833:.\Generated_Source\PSoC4/CapSense_2.c **** *  resolution: Returns the resolution value for the appropriate sensor.
 834:.\Generated_Source\PSoC4/CapSense_2.c **** *              The resolution values are defined in the CapSense_2.h file
 835:.\Generated_Source\PSoC4/CapSense_2.c **** *              The defines are encountered below:
 836:.\Generated_Source\PSoC4/CapSense_2.c **** *              CapSense_2_RESOLUTION_6_BITS
 837:.\Generated_Source\PSoC4/CapSense_2.c **** *              CapSense_2_RESOLUTION_7_BITS
 838:.\Generated_Source\PSoC4/CapSense_2.c **** *              CapSense_2_RESOLUTION_8_BITS
 839:.\Generated_Source\PSoC4/CapSense_2.c **** *              CapSense_2_RESOLUTION_9_BITS
 840:.\Generated_Source\PSoC4/CapSense_2.c **** *              CapSense_2_RESOLUTION_10_BITS
 841:.\Generated_Source\PSoC4/CapSense_2.c **** *              CapSense_2_RESOLUTION_11_BITS
 842:.\Generated_Source\PSoC4/CapSense_2.c **** *              CapSense_2_RESOLUTION_12_BITS
 843:.\Generated_Source\PSoC4/CapSense_2.c **** *              CapSense_2_RESOLUTION_13_BITS
 844:.\Generated_Source\PSoC4/CapSense_2.c **** *              CapSense_2_RESOLUTION_14_BITS
 845:.\Generated_Source\PSoC4/CapSense_2.c **** *              CapSense_2_RESOLUTION_15_BITS
 846:.\Generated_Source\PSoC4/CapSense_2.c **** *              CapSense_2_RESOLUTION_16_BITS
 847:.\Generated_Source\PSoC4/CapSense_2.c **** *
 848:.\Generated_Source\PSoC4/CapSense_2.c **** * Global Variables:
 849:.\Generated_Source\PSoC4/CapSense_2.c **** *  CapSense_2_widgetResolution[] - used to store scan resolution of every widget.
 850:.\Generated_Source\PSoC4/CapSense_2.c **** *
 851:.\Generated_Source\PSoC4/CapSense_2.c **** * Side Effects:
 852:.\Generated_Source\PSoC4/CapSense_2.c **** *  None
 853:.\Generated_Source\PSoC4/CapSense_2.c **** *
 854:.\Generated_Source\PSoC4/CapSense_2.c **** *******************************************************************************/
 855:.\Generated_Source\PSoC4/CapSense_2.c **** uint32 CapSense_2_GetScanResolution(uint32 widget)
 856:.\Generated_Source\PSoC4/CapSense_2.c **** {
 321              		.loc 1 856 0
 322              		.cfi_startproc
 323              	.LVL31:
 857:.\Generated_Source\PSoC4/CapSense_2.c ****     return(CapSense_2_widgetResolution[widget]);
 858:.\Generated_Source\PSoC4/CapSense_2.c **** }
 324              		.loc 1 858 0
 325 0000 0048     		ldr	r0, .L20
 326              	.LVL32:
 327              		@ sp needed
 328 0002 7047     		bx	lr
 329              	.L21:
 330              		.align	2
 331              	.L20:
 332 0004 0000FFFF 		.word	-65536
 333              		.cfi_endproc
 334              	.LFE46:
 335              		.size	CapSense_2_GetScanResolution, .-CapSense_2_GetScanResolution
 336              		.section	.text.CapSense_2_EnableSensor,"ax",%progbits
 337              		.align	2
 338              		.global	CapSense_2_EnableSensor
 339              		.code	16
ARM GAS  C:\Users\glenn\AppData\Local\Temp\ccPcZrmN.s 			page 22


 340              		.thumb_func
 341              		.type	CapSense_2_EnableSensor, %function
 342              	CapSense_2_EnableSensor:
 343              	.LFB48:
 859:.\Generated_Source\PSoC4/CapSense_2.c **** 
 860:.\Generated_Source\PSoC4/CapSense_2.c **** 
 861:.\Generated_Source\PSoC4/CapSense_2.c **** /*******************************************************************************
 862:.\Generated_Source\PSoC4/CapSense_2.c **** * Function Name: CapSense_2_ClearSensors
 863:.\Generated_Source\PSoC4/CapSense_2.c **** ********************************************************************************
 864:.\Generated_Source\PSoC4/CapSense_2.c **** *
 865:.\Generated_Source\PSoC4/CapSense_2.c **** * Summary:
 866:.\Generated_Source\PSoC4/CapSense_2.c **** *  Resets all the sensors to the non-sampling state by sequentially disconnecting
 867:.\Generated_Source\PSoC4/CapSense_2.c **** *  all the sensors from Analog MUX Bus and putting them to an inactive state.
 868:.\Generated_Source\PSoC4/CapSense_2.c **** *
 869:.\Generated_Source\PSoC4/CapSense_2.c **** * Parameters:
 870:.\Generated_Source\PSoC4/CapSense_2.c **** *  None
 871:.\Generated_Source\PSoC4/CapSense_2.c **** *
 872:.\Generated_Source\PSoC4/CapSense_2.c **** * Return:
 873:.\Generated_Source\PSoC4/CapSense_2.c **** *  None
 874:.\Generated_Source\PSoC4/CapSense_2.c **** *
 875:.\Generated_Source\PSoC4/CapSense_2.c **** * Global Variables:
 876:.\Generated_Source\PSoC4/CapSense_2.c **** *  None
 877:.\Generated_Source\PSoC4/CapSense_2.c **** *
 878:.\Generated_Source\PSoC4/CapSense_2.c **** * Side Effects:
 879:.\Generated_Source\PSoC4/CapSense_2.c **** *  None
 880:.\Generated_Source\PSoC4/CapSense_2.c **** *
 881:.\Generated_Source\PSoC4/CapSense_2.c **** *******************************************************************************/
 882:.\Generated_Source\PSoC4/CapSense_2.c **** void CapSense_2_ClearSensors(void)
 883:.\Generated_Source\PSoC4/CapSense_2.c **** {
 884:.\Generated_Source\PSoC4/CapSense_2.c ****     uint32 snsIndex;
 885:.\Generated_Source\PSoC4/CapSense_2.c **** 
 886:.\Generated_Source\PSoC4/CapSense_2.c ****     for (snsIndex = 0u; snsIndex < CapSense_2_TOTAL_SENSOR_COUNT; snsIndex++)
 887:.\Generated_Source\PSoC4/CapSense_2.c ****     {
 888:.\Generated_Source\PSoC4/CapSense_2.c ****         CapSense_2_DisableScanSlot(snsIndex);
 889:.\Generated_Source\PSoC4/CapSense_2.c ****     }
 890:.\Generated_Source\PSoC4/CapSense_2.c **** }
 891:.\Generated_Source\PSoC4/CapSense_2.c **** 
 892:.\Generated_Source\PSoC4/CapSense_2.c **** 
 893:.\Generated_Source\PSoC4/CapSense_2.c **** #if (CapSense_2_IS_COMPLEX_SCANSLOTS)
 894:.\Generated_Source\PSoC4/CapSense_2.c ****     /*******************************************************************************
 895:.\Generated_Source\PSoC4/CapSense_2.c ****     * Function Name: CapSense_2_EnableScanSlot
 896:.\Generated_Source\PSoC4/CapSense_2.c ****     ********************************************************************************
 897:.\Generated_Source\PSoC4/CapSense_2.c ****     *
 898:.\Generated_Source\PSoC4/CapSense_2.c ****     * Summary:
 899:.\Generated_Source\PSoC4/CapSense_2.c ****     *  Configures the selected slot to measure during the next measurement
 900:.\Generated_Source\PSoC4/CapSense_2.c ****     *  cycle. The corresponding pin/pins are set to Analog High-Z mode and
 901:.\Generated_Source\PSoC4/CapSense_2.c ****     *  connected to the Analog Mux Bus. This also enables the comparator function.
 902:.\Generated_Source\PSoC4/CapSense_2.c ****     *
 903:.\Generated_Source\PSoC4/CapSense_2.c ****     * Parameters:
 904:.\Generated_Source\PSoC4/CapSense_2.c ****     *  slot:  Slot number.
 905:.\Generated_Source\PSoC4/CapSense_2.c ****     *
 906:.\Generated_Source\PSoC4/CapSense_2.c ****     * Return:
 907:.\Generated_Source\PSoC4/CapSense_2.c ****     *  None
 908:.\Generated_Source\PSoC4/CapSense_2.c ****     *
 909:.\Generated_Source\PSoC4/CapSense_2.c ****     * Global Constants:
 910:.\Generated_Source\PSoC4/CapSense_2.c ****     *  CapSense_2_portTable[]  - used to store the port number that pin
 911:.\Generated_Source\PSoC4/CapSense_2.c ****     *  belongs to for each sensor.
ARM GAS  C:\Users\glenn\AppData\Local\Temp\ccPcZrmN.s 			page 23


 912:.\Generated_Source\PSoC4/CapSense_2.c ****     *  CapSense_2_maskTable[]  - used to store the pin within the port for
 913:.\Generated_Source\PSoC4/CapSense_2.c ****     *  each sensor.
 914:.\Generated_Source\PSoC4/CapSense_2.c ****     *  CapSense_2_indexTable[] - used to store indexes of complex sensors.
 915:.\Generated_Source\PSoC4/CapSense_2.c ****     *  The offset and position in this array are stored in a port and mask table for
 916:.\Generated_Source\PSoC4/CapSense_2.c ****     *  complex sensors.
 917:.\Generated_Source\PSoC4/CapSense_2.c ****     *  Bit 7 (msb) is used to define the sensor type: single or complex.
 918:.\Generated_Source\PSoC4/CapSense_2.c ****     *
 919:.\Generated_Source\PSoC4/CapSense_2.c ****     * Side Effects:
 920:.\Generated_Source\PSoC4/CapSense_2.c ****     *  None
 921:.\Generated_Source\PSoC4/CapSense_2.c ****     *
 922:.\Generated_Source\PSoC4/CapSense_2.c ****     *******************************************************************************/
 923:.\Generated_Source\PSoC4/CapSense_2.c ****     void CapSense_2_EnableScanSlot(uint32 slot)
 924:.\Generated_Source\PSoC4/CapSense_2.c ****     {
 925:.\Generated_Source\PSoC4/CapSense_2.c ****         uint8 j;
 926:.\Generated_Source\PSoC4/CapSense_2.c ****         uint8 snsNumber;
 927:.\Generated_Source\PSoC4/CapSense_2.c ****         const uint8 *index;
 928:.\Generated_Source\PSoC4/CapSense_2.c ****         /* Read sensor type: single or complex */
 929:.\Generated_Source\PSoC4/CapSense_2.c ****         uint8 snsType = CapSense_2_portTable[slot];
 930:.\Generated_Source\PSoC4/CapSense_2.c **** 
 931:.\Generated_Source\PSoC4/CapSense_2.c ****         /* Check if sensor is complex */
 932:.\Generated_Source\PSoC4/CapSense_2.c ****         if ((snsType & CapSense_2_COMPLEX_SS_FLAG) == 0u)
 933:.\Generated_Source\PSoC4/CapSense_2.c ****         {
 934:.\Generated_Source\PSoC4/CapSense_2.c ****             /* Enable sensor (single) */
 935:.\Generated_Source\PSoC4/CapSense_2.c ****             CapSense_2_EnableSensor(slot);
 936:.\Generated_Source\PSoC4/CapSense_2.c ****         }
 937:.\Generated_Source\PSoC4/CapSense_2.c ****         else
 938:.\Generated_Source\PSoC4/CapSense_2.c ****         {
 939:.\Generated_Source\PSoC4/CapSense_2.c ****             /* Enable complex sensor */
 940:.\Generated_Source\PSoC4/CapSense_2.c ****             snsType &= ~CapSense_2_COMPLEX_SS_FLAG;
 941:.\Generated_Source\PSoC4/CapSense_2.c ****             index = &CapSense_2_indexTable[snsType];
 942:.\Generated_Source\PSoC4/CapSense_2.c ****             snsNumber = CapSense_2_maskTable[slot];
 943:.\Generated_Source\PSoC4/CapSense_2.c **** 
 944:.\Generated_Source\PSoC4/CapSense_2.c ****             for (j = 0u; j < snsNumber; j++)
 945:.\Generated_Source\PSoC4/CapSense_2.c ****             {
 946:.\Generated_Source\PSoC4/CapSense_2.c ****                 CapSense_2_EnableSensor(index[j]);
 947:.\Generated_Source\PSoC4/CapSense_2.c ****             }
 948:.\Generated_Source\PSoC4/CapSense_2.c ****         }
 949:.\Generated_Source\PSoC4/CapSense_2.c ****     }
 950:.\Generated_Source\PSoC4/CapSense_2.c **** 
 951:.\Generated_Source\PSoC4/CapSense_2.c **** 
 952:.\Generated_Source\PSoC4/CapSense_2.c ****     /*******************************************************************************
 953:.\Generated_Source\PSoC4/CapSense_2.c ****     * Function Name: CapSense_2_DisableScanSlot
 954:.\Generated_Source\PSoC4/CapSense_2.c ****     ********************************************************************************
 955:.\Generated_Source\PSoC4/CapSense_2.c ****     *
 956:.\Generated_Source\PSoC4/CapSense_2.c ****     * Summary:
 957:.\Generated_Source\PSoC4/CapSense_2.c ****     *  Disables the selected slot. The corresponding pin/pins is/are disconnected
 958:.\Generated_Source\PSoC4/CapSense_2.c ****     *  from the Analog Mux Bus and connected to GND, High_Z or Shield electrode.
 959:.\Generated_Source\PSoC4/CapSense_2.c ****     *
 960:.\Generated_Source\PSoC4/CapSense_2.c ****     * Parameters:
 961:.\Generated_Source\PSoC4/CapSense_2.c ****     *  slot:  Slot number.
 962:.\Generated_Source\PSoC4/CapSense_2.c ****     *
 963:.\Generated_Source\PSoC4/CapSense_2.c ****     * Return:
 964:.\Generated_Source\PSoC4/CapSense_2.c ****     *  None
 965:.\Generated_Source\PSoC4/CapSense_2.c ****     *
 966:.\Generated_Source\PSoC4/CapSense_2.c ****     * Global Variables:
 967:.\Generated_Source\PSoC4/CapSense_2.c ****     *  CapSense_2_portTable[]  - used to store the port number that pin
 968:.\Generated_Source\PSoC4/CapSense_2.c ****     *  belongs to for each sensor.
ARM GAS  C:\Users\glenn\AppData\Local\Temp\ccPcZrmN.s 			page 24


 969:.\Generated_Source\PSoC4/CapSense_2.c ****     *  CapSense_2_maskTable[]  - used to store the pin within the port for
 970:.\Generated_Source\PSoC4/CapSense_2.c ****     *  each sensor.
 971:.\Generated_Source\PSoC4/CapSense_2.c ****     *  CapSense_2_indexTable[] - used to store indexes of complex sensors.
 972:.\Generated_Source\PSoC4/CapSense_2.c ****     *  The offset and position in this array are stored in a port and mask table for
 973:.\Generated_Source\PSoC4/CapSense_2.c ****     *  complex sensors.
 974:.\Generated_Source\PSoC4/CapSense_2.c ****     *  7bit(msb) is used to define the sensor type: single or complex.
 975:.\Generated_Source\PSoC4/CapSense_2.c ****     *
 976:.\Generated_Source\PSoC4/CapSense_2.c ****     * Side Effects:
 977:.\Generated_Source\PSoC4/CapSense_2.c ****     *  None
 978:.\Generated_Source\PSoC4/CapSense_2.c ****     *
 979:.\Generated_Source\PSoC4/CapSense_2.c ****     *******************************************************************************/
 980:.\Generated_Source\PSoC4/CapSense_2.c ****     void CapSense_2_DisableScanSlot(uint32 slot)
 981:.\Generated_Source\PSoC4/CapSense_2.c ****     {
 982:.\Generated_Source\PSoC4/CapSense_2.c ****         uint8 j;
 983:.\Generated_Source\PSoC4/CapSense_2.c ****         uint8 snsNumber;
 984:.\Generated_Source\PSoC4/CapSense_2.c ****         const uint8 *index;
 985:.\Generated_Source\PSoC4/CapSense_2.c **** 
 986:.\Generated_Source\PSoC4/CapSense_2.c ****         /* Read sensor type: single or complex */
 987:.\Generated_Source\PSoC4/CapSense_2.c ****         uint8 snsType = CapSense_2_portTable[slot];
 988:.\Generated_Source\PSoC4/CapSense_2.c **** 
 989:.\Generated_Source\PSoC4/CapSense_2.c ****         /* Check if sensor is complex */
 990:.\Generated_Source\PSoC4/CapSense_2.c ****         if ((snsType & CapSense_2_COMPLEX_SS_FLAG) == 0u)
 991:.\Generated_Source\PSoC4/CapSense_2.c ****         {
 992:.\Generated_Source\PSoC4/CapSense_2.c ****             /* Disable sensor (single) */
 993:.\Generated_Source\PSoC4/CapSense_2.c ****             CapSense_2_DisableSensor(slot);
 994:.\Generated_Source\PSoC4/CapSense_2.c ****         }
 995:.\Generated_Source\PSoC4/CapSense_2.c ****         else
 996:.\Generated_Source\PSoC4/CapSense_2.c ****         {
 997:.\Generated_Source\PSoC4/CapSense_2.c ****             /* Disable complex sensor */
 998:.\Generated_Source\PSoC4/CapSense_2.c ****             snsType &= ~CapSense_2_COMPLEX_SS_FLAG;
 999:.\Generated_Source\PSoC4/CapSense_2.c ****             index = &CapSense_2_indexTable[snsType];
1000:.\Generated_Source\PSoC4/CapSense_2.c ****             snsNumber = CapSense_2_maskTable[slot];
1001:.\Generated_Source\PSoC4/CapSense_2.c **** 
1002:.\Generated_Source\PSoC4/CapSense_2.c ****             for (j=0; j < snsNumber; j++)
1003:.\Generated_Source\PSoC4/CapSense_2.c ****             {
1004:.\Generated_Source\PSoC4/CapSense_2.c ****                 CapSense_2_DisableSensor(index[j]);
1005:.\Generated_Source\PSoC4/CapSense_2.c ****             }
1006:.\Generated_Source\PSoC4/CapSense_2.c ****         }
1007:.\Generated_Source\PSoC4/CapSense_2.c ****     }
1008:.\Generated_Source\PSoC4/CapSense_2.c **** #endif  /* CapSense_2_IS_COMPLEX_SCANSLOTS */
1009:.\Generated_Source\PSoC4/CapSense_2.c **** 
1010:.\Generated_Source\PSoC4/CapSense_2.c **** 
1011:.\Generated_Source\PSoC4/CapSense_2.c **** /*******************************************************************************
1012:.\Generated_Source\PSoC4/CapSense_2.c **** * Function Name: CapSense_2_EnableSensor
1013:.\Generated_Source\PSoC4/CapSense_2.c **** ********************************************************************************
1014:.\Generated_Source\PSoC4/CapSense_2.c **** *
1015:.\Generated_Source\PSoC4/CapSense_2.c **** * Summary:
1016:.\Generated_Source\PSoC4/CapSense_2.c **** *  Configures the selected sensor to measure during the next measurement cycle.
1017:.\Generated_Source\PSoC4/CapSense_2.c **** *  The corresponding pins are set to Analog High-Z mode and connected to the
1018:.\Generated_Source\PSoC4/CapSense_2.c **** *  Analog Mux Bus. This also enables the comparator function.
1019:.\Generated_Source\PSoC4/CapSense_2.c **** *
1020:.\Generated_Source\PSoC4/CapSense_2.c **** * Parameters:
1021:.\Generated_Source\PSoC4/CapSense_2.c **** *  sensor:  Sensor number.
1022:.\Generated_Source\PSoC4/CapSense_2.c **** *
1023:.\Generated_Source\PSoC4/CapSense_2.c **** * Return:
1024:.\Generated_Source\PSoC4/CapSense_2.c **** *  None
1025:.\Generated_Source\PSoC4/CapSense_2.c **** *
ARM GAS  C:\Users\glenn\AppData\Local\Temp\ccPcZrmN.s 			page 25


1026:.\Generated_Source\PSoC4/CapSense_2.c **** * Global Variables:
1027:.\Generated_Source\PSoC4/CapSense_2.c **** *  CapSense_2_portTable[] - used to store the port number that pin
1028:.\Generated_Source\PSoC4/CapSense_2.c **** *  belongs to for each sensor.
1029:.\Generated_Source\PSoC4/CapSense_2.c **** *  CapSense_2_pinShiftTbl[] - used to store position of pin that
1030:.\Generated_Source\PSoC4/CapSense_2.c **** *  configured as sensor in port.
1031:.\Generated_Source\PSoC4/CapSense_2.c **** *  CapSense_2_prtSelTbl[] - Contains pointers to the HSIOM
1032:.\Generated_Source\PSoC4/CapSense_2.c **** *  registers for each port.
1033:.\Generated_Source\PSoC4/CapSense_2.c **** *  CapSense_2_PrtCfgTb[] - Contains pointers to the port config
1034:.\Generated_Source\PSoC4/CapSense_2.c **** *  registers for each port.
1035:.\Generated_Source\PSoC4/CapSense_2.c **** *
1036:.\Generated_Source\PSoC4/CapSense_2.c **** * Side Effects:
1037:.\Generated_Source\PSoC4/CapSense_2.c **** *  None
1038:.\Generated_Source\PSoC4/CapSense_2.c **** *
1039:.\Generated_Source\PSoC4/CapSense_2.c **** *******************************************************************************/
1040:.\Generated_Source\PSoC4/CapSense_2.c **** void CapSense_2_EnableSensor(uint32 sensor)
1041:.\Generated_Source\PSoC4/CapSense_2.c **** {
 344              		.loc 1 1041 0
 345              		.cfi_startproc
 346              	.LVL33:
 347 0000 38B5     		push	{r3, r4, r5, lr}
 348              		.cfi_def_cfa_offset 16
 349              		.cfi_offset 3, -16
 350              		.cfi_offset 4, -12
 351              		.cfi_offset 5, -8
 352              		.cfi_offset 14, -4
 353              	.LVL34:
1042:.\Generated_Source\PSoC4/CapSense_2.c ****     uint8  pinModeShift;
1043:.\Generated_Source\PSoC4/CapSense_2.c ****     uint8  pinHSIOMShift;
1044:.\Generated_Source\PSoC4/CapSense_2.c ****     uint8 interruptState;
1045:.\Generated_Source\PSoC4/CapSense_2.c ****     uint32 newRegisterValue;
1046:.\Generated_Source\PSoC4/CapSense_2.c ****     uint32 port;
1047:.\Generated_Source\PSoC4/CapSense_2.c **** 
1048:.\Generated_Source\PSoC4/CapSense_2.c ****     port = (uint32) CapSense_2_portTable[sensor];
1049:.\Generated_Source\PSoC4/CapSense_2.c ****     pinModeShift = CapSense_2_pinShiftTbl[sensor]  * CapSense_2_PC_PIN_CFG_SIZE;
1050:.\Generated_Source\PSoC4/CapSense_2.c ****     pinHSIOMShift = CapSense_2_pinShiftTbl[sensor] * CapSense_2_HSIOM_PIN_CFG_SIZE;
1051:.\Generated_Source\PSoC4/CapSense_2.c **** 
1052:.\Generated_Source\PSoC4/CapSense_2.c ****     interruptState = CyEnterCriticalSection();
 354              		.loc 1 1052 0
 355 0002 FFF7FEFF 		bl	CyEnterCriticalSection
 356              	.LVL35:
1053:.\Generated_Source\PSoC4/CapSense_2.c **** 
1054:.\Generated_Source\PSoC4/CapSense_2.c ****     newRegisterValue = *CapSense_2_prtSelTbl[port];
 357              		.loc 1 1054 0
 358 0006 0749     		ldr	r1, .L23
 359 0008 0B68     		ldr	r3, [r1]
 360              	.LVL36:
1055:.\Generated_Source\PSoC4/CapSense_2.c ****     newRegisterValue &= ~(CapSense_2_CSD_HSIOM_MASK << pinHSIOMShift);
 361              		.loc 1 1055 0
 362 000a F022     		mov	r2, #240
 363 000c 9343     		bic	r3, r2
 364              	.LVL37:
1056:.\Generated_Source\PSoC4/CapSense_2.c ****     newRegisterValue |= (uint32)((uint32)CapSense_2_CSD_SENSE_PORT_MODE << pinHSIOMShift);
 365              		.loc 1 1056 0
 366 000e B03A     		sub	r2, r2, #176
 367 0010 1343     		orr	r3, r2
 368              	.LVL38:
1057:.\Generated_Source\PSoC4/CapSense_2.c **** 
ARM GAS  C:\Users\glenn\AppData\Local\Temp\ccPcZrmN.s 			page 26


1058:.\Generated_Source\PSoC4/CapSense_2.c ****     *CapSense_2_prtCfgTbl[port] &= (uint32)~((uint32)CapSense_2_CSD_PIN_MODE_MASK << pinModeShift);
 369              		.loc 1 1058 0
 370 0012 054C     		ldr	r4, .L23+4
 371 0014 2268     		ldr	r2, [r4]
 372 0016 3825     		mov	r5, #56
 373 0018 AA43     		bic	r2, r5
 374 001a 2260     		str	r2, [r4]
1059:.\Generated_Source\PSoC4/CapSense_2.c ****     *CapSense_2_prtSelTbl[port] = newRegisterValue;
 375              		.loc 1 1059 0
 376 001c 0B60     		str	r3, [r1]
1060:.\Generated_Source\PSoC4/CapSense_2.c **** 
1061:.\Generated_Source\PSoC4/CapSense_2.c ****     CyExitCriticalSection(interruptState);
 377              		.loc 1 1061 0
 378 001e FFF7FEFF 		bl	CyExitCriticalSection
 379              	.LVL39:
1062:.\Generated_Source\PSoC4/CapSense_2.c **** }
 380              		.loc 1 1062 0
 381              		@ sp needed
 382 0022 38BD     		pop	{r3, r4, r5, pc}
 383              	.L24:
 384              		.align	2
 385              	.L23:
 386 0024 00040240 		.word	1073873920
 387 0028 08040440 		.word	1074005000
 388              		.cfi_endproc
 389              	.LFE48:
 390              		.size	CapSense_2_EnableSensor, .-CapSense_2_EnableSensor
 391              		.section	.text.CapSense_2_DisableSensor,"ax",%progbits
 392              		.align	2
 393              		.global	CapSense_2_DisableSensor
 394              		.code	16
 395              		.thumb_func
 396              		.type	CapSense_2_DisableSensor, %function
 397              	CapSense_2_DisableSensor:
 398              	.LFB49:
1063:.\Generated_Source\PSoC4/CapSense_2.c **** 
1064:.\Generated_Source\PSoC4/CapSense_2.c **** 
1065:.\Generated_Source\PSoC4/CapSense_2.c **** /*******************************************************************************
1066:.\Generated_Source\PSoC4/CapSense_2.c **** * Function Name: CapSense_2_DisableSensor
1067:.\Generated_Source\PSoC4/CapSense_2.c **** ********************************************************************************
1068:.\Generated_Source\PSoC4/CapSense_2.c **** *
1069:.\Generated_Source\PSoC4/CapSense_2.c **** * Summary:
1070:.\Generated_Source\PSoC4/CapSense_2.c **** *  Disables the selected sensor. The corresponding pin is disconnected from the
1071:.\Generated_Source\PSoC4/CapSense_2.c **** *  Analog Mux Bus and connected to GND, High_Z or Shield electrode.
1072:.\Generated_Source\PSoC4/CapSense_2.c **** *
1073:.\Generated_Source\PSoC4/CapSense_2.c **** * Parameters:
1074:.\Generated_Source\PSoC4/CapSense_2.c **** *  sensor:  Sensor number
1075:.\Generated_Source\PSoC4/CapSense_2.c **** *
1076:.\Generated_Source\PSoC4/CapSense_2.c **** * Return:
1077:.\Generated_Source\PSoC4/CapSense_2.c **** *  None
1078:.\Generated_Source\PSoC4/CapSense_2.c **** *
1079:.\Generated_Source\PSoC4/CapSense_2.c **** * Global Variables:
1080:.\Generated_Source\PSoC4/CapSense_2.c **** *  CapSense_2_portTable[] - used to store the port number that pin
1081:.\Generated_Source\PSoC4/CapSense_2.c **** *  belongs to for each sensor.
1082:.\Generated_Source\PSoC4/CapSense_2.c **** *  CapSense_2_pinShiftTbl[] - used to store position of pin that
1083:.\Generated_Source\PSoC4/CapSense_2.c **** *  configured as a sensor in the port.
1084:.\Generated_Source\PSoC4/CapSense_2.c **** *  CapSense_2_prtSelTbl[] - Contains pointers to the HSIOM
ARM GAS  C:\Users\glenn\AppData\Local\Temp\ccPcZrmN.s 			page 27


1085:.\Generated_Source\PSoC4/CapSense_2.c **** *  registers for each port.
1086:.\Generated_Source\PSoC4/CapSense_2.c **** *  CapSense_2_PrtCfgTb[] - Contains pointers to the port config
1087:.\Generated_Source\PSoC4/CapSense_2.c **** *  registers for each port.
1088:.\Generated_Source\PSoC4/CapSense_2.c **** *
1089:.\Generated_Source\PSoC4/CapSense_2.c **** * Side Effects:
1090:.\Generated_Source\PSoC4/CapSense_2.c **** *  None
1091:.\Generated_Source\PSoC4/CapSense_2.c **** *
1092:.\Generated_Source\PSoC4/CapSense_2.c **** *******************************************************************************/
1093:.\Generated_Source\PSoC4/CapSense_2.c **** void CapSense_2_DisableSensor(uint32 sensor)
1094:.\Generated_Source\PSoC4/CapSense_2.c **** {
 399              		.loc 1 1094 0
 400              		.cfi_startproc
 401              	.LVL40:
 402 0000 10B5     		push	{r4, lr}
 403              		.cfi_def_cfa_offset 8
 404              		.cfi_offset 4, -8
 405              		.cfi_offset 14, -4
 406              	.LVL41:
1095:.\Generated_Source\PSoC4/CapSense_2.c ****     uint8 interruptState;
1096:.\Generated_Source\PSoC4/CapSense_2.c ****     uint32 newRegisterValue;
1097:.\Generated_Source\PSoC4/CapSense_2.c **** 
1098:.\Generated_Source\PSoC4/CapSense_2.c ****     uint32 port = (uint32) CapSense_2_portTable[sensor];
1099:.\Generated_Source\PSoC4/CapSense_2.c ****     uint8  pinHSIOMShift = CapSense_2_pinShiftTbl[sensor] * CapSense_2_HSIOM_PIN_CFG_SIZE;
1100:.\Generated_Source\PSoC4/CapSense_2.c ****     uint8  pinModeShift = CapSense_2_pinShiftTbl[sensor]  * CapSense_2_PC_PIN_CFG_SIZE;
1101:.\Generated_Source\PSoC4/CapSense_2.c **** 
1102:.\Generated_Source\PSoC4/CapSense_2.c ****     uint32 inactiveConnect = CapSense_2_SNS_HIZANALOG_CONNECT;
1103:.\Generated_Source\PSoC4/CapSense_2.c ****     uint32 sensorState = CapSense_2_unscannedSnsDriveMode[sensor];
 407              		.loc 1 1103 0
 408 0002 104B     		ldr	r3, .L30
 409 0004 1A5C     		ldrb	r2, [r3, r0]
 410              	.LVL42:
1104:.\Generated_Source\PSoC4/CapSense_2.c **** 
1105:.\Generated_Source\PSoC4/CapSense_2.c ****     *CapSense_2_prtSelTbl[port] &= ~(CapSense_2_CSD_HSIOM_MASK << pinHSIOMShift);
 411              		.loc 1 1105 0
 412 0006 1049     		ldr	r1, .L30+4
 413 0008 0B68     		ldr	r3, [r1]
 414 000a F020     		mov	r0, #240
 415              	.LVL43:
 416 000c 8343     		bic	r3, r0
 417 000e 0B60     		str	r3, [r1]
1106:.\Generated_Source\PSoC4/CapSense_2.c **** 
1107:.\Generated_Source\PSoC4/CapSense_2.c ****     #if(CapSense_2_IS_SHIELD_ENABLE != 0)
1108:.\Generated_Source\PSoC4/CapSense_2.c ****     if(sensorState != (uint32)CapSense_2__SHIELD)
1109:.\Generated_Source\PSoC4/CapSense_2.c ****     {
1110:.\Generated_Source\PSoC4/CapSense_2.c ****     #else
1111:.\Generated_Source\PSoC4/CapSense_2.c ****         /* Connected to Ground if shield is disabled */
1112:.\Generated_Source\PSoC4/CapSense_2.c ****         if(sensorState == (uint32)CapSense_2__SHIELD)
 418              		.loc 1 1112 0
 419 0010 022A     		cmp	r2, #2
 420 0012 00D1     		bne	.L26
1113:.\Generated_Source\PSoC4/CapSense_2.c ****         {
1114:.\Generated_Source\PSoC4/CapSense_2.c ****             sensorState = (uint32)CapSense_2__GROUND;
 421              		.loc 1 1114 0
 422 0014 0022     		mov	r2, #0
 423              	.LVL44:
 424              	.L26:
1115:.\Generated_Source\PSoC4/CapSense_2.c ****         }
ARM GAS  C:\Users\glenn\AppData\Local\Temp\ccPcZrmN.s 			page 28


1116:.\Generated_Source\PSoC4/CapSense_2.c ****     #endif /* (CapSense_2_IS_SHIELD_ENABLE) */
1117:.\Generated_Source\PSoC4/CapSense_2.c ****         if(sensorState != (uint32)CapSense_2__HIZ_ANALOG)
 425              		.loc 1 1117 0
 426 0016 012A     		cmp	r2, #1
 427 0018 01D1     		bne	.L29
1102:.\Generated_Source\PSoC4/CapSense_2.c ****     uint32 sensorState = CapSense_2_unscannedSnsDriveMode[sensor];
 428              		.loc 1 1102 0
 429 001a 0024     		mov	r4, #0
 430 001c 00E0     		b	.L27
 431              	.L29:
1118:.\Generated_Source\PSoC4/CapSense_2.c ****         {
1119:.\Generated_Source\PSoC4/CapSense_2.c ****             /* Connected to Ground */
1120:.\Generated_Source\PSoC4/CapSense_2.c ****             inactiveConnect = (uint32)CapSense_2_SNS_GROUND_CONNECT;
 432              		.loc 1 1120 0
 433 001e 0624     		mov	r4, #6
 434              	.L27:
 435              	.LVL45:
1121:.\Generated_Source\PSoC4/CapSense_2.c ****         }
1122:.\Generated_Source\PSoC4/CapSense_2.c **** 
1123:.\Generated_Source\PSoC4/CapSense_2.c ****         interruptState = CyEnterCriticalSection();
 436              		.loc 1 1123 0
 437 0020 FFF7FEFF 		bl	CyEnterCriticalSection
 438              	.LVL46:
1124:.\Generated_Source\PSoC4/CapSense_2.c **** 
1125:.\Generated_Source\PSoC4/CapSense_2.c ****         /* Set drive mode */
1126:.\Generated_Source\PSoC4/CapSense_2.c ****         newRegisterValue = *CapSense_2_prtCfgTbl[port];
 439              		.loc 1 1126 0
 440 0024 0949     		ldr	r1, .L30+8
 441 0026 0B68     		ldr	r3, [r1]
 442              	.LVL47:
1127:.\Generated_Source\PSoC4/CapSense_2.c ****         newRegisterValue &= ~(CapSense_2_CSD_PIN_MODE_MASK << pinModeShift);
 443              		.loc 1 1127 0
 444 0028 3822     		mov	r2, #56
 445 002a 9343     		bic	r3, r2
 446              	.LVL48:
 447 002c 1A1C     		mov	r2, r3
 448              	.LVL49:
1128:.\Generated_Source\PSoC4/CapSense_2.c ****         newRegisterValue |=  (uint32)(inactiveConnect << pinModeShift);
 449              		.loc 1 1128 0
 450 002e E300     		lsl	r3, r4, #3
 451 0030 1343     		orr	r3, r2
 452              	.LVL50:
1129:.\Generated_Source\PSoC4/CapSense_2.c ****         *CapSense_2_prtCfgTbl[port] =  newRegisterValue;
 453              		.loc 1 1129 0
 454 0032 0B60     		str	r3, [r1]
1130:.\Generated_Source\PSoC4/CapSense_2.c **** 
1131:.\Generated_Source\PSoC4/CapSense_2.c ****         CyExitCriticalSection(interruptState);
 455              		.loc 1 1131 0
 456 0034 FFF7FEFF 		bl	CyExitCriticalSection
 457              	.LVL51:
1132:.\Generated_Source\PSoC4/CapSense_2.c **** 
1133:.\Generated_Source\PSoC4/CapSense_2.c ****         *CapSense_2_prtDRTbl[port]  &=  (uint32)~(uint32)((uint32)1u << CapSense_2_pinShiftTbl[sens
 458              		.loc 1 1133 0
 459 0038 054A     		ldr	r2, .L30+12
 460 003a 1368     		ldr	r3, [r2]
 461 003c 0221     		mov	r1, #2
 462 003e 8B43     		bic	r3, r1
ARM GAS  C:\Users\glenn\AppData\Local\Temp\ccPcZrmN.s 			page 29


 463 0040 1360     		str	r3, [r2]
1134:.\Generated_Source\PSoC4/CapSense_2.c ****     #if(CapSense_2_IS_SHIELD_ENABLE != 0)
1135:.\Generated_Source\PSoC4/CapSense_2.c ****     }
1136:.\Generated_Source\PSoC4/CapSense_2.c ****     else
1137:.\Generated_Source\PSoC4/CapSense_2.c ****     {
1138:.\Generated_Source\PSoC4/CapSense_2.c ****         /* Connect to Shield */
1139:.\Generated_Source\PSoC4/CapSense_2.c ****         *CapSense_2_prtSelTbl[port] |= (CapSense_2_CSD_SHIELD_PORT_MODE << pinHSIOMShift);
1140:.\Generated_Source\PSoC4/CapSense_2.c ****     }
1141:.\Generated_Source\PSoC4/CapSense_2.c ****     #endif /* (CapSense_2_IS_SHIELD_ENABLE) */
1142:.\Generated_Source\PSoC4/CapSense_2.c **** }
 464              		.loc 1 1142 0
 465              		@ sp needed
 466              	.LVL52:
 467 0042 10BD     		pop	{r4, pc}
 468              	.L31:
 469              		.align	2
 470              	.L30:
 471 0044 00000000 		.word	CapSense_2_unscannedSnsDriveMode
 472 0048 00040240 		.word	1073873920
 473 004c 08040440 		.word	1074005000
 474 0050 00040440 		.word	1074004992
 475              		.cfi_endproc
 476              	.LFE49:
 477              		.size	CapSense_2_DisableSensor, .-CapSense_2_DisableSensor
 478              		.section	.text.CapSense_2_ClearSensors,"ax",%progbits
 479              		.align	2
 480              		.global	CapSense_2_ClearSensors
 481              		.code	16
 482              		.thumb_func
 483              		.type	CapSense_2_ClearSensors, %function
 484              	CapSense_2_ClearSensors:
 485              	.LFB47:
 883:.\Generated_Source\PSoC4/CapSense_2.c ****     uint32 snsIndex;
 486              		.loc 1 883 0
 487              		.cfi_startproc
 488 0000 10B5     		push	{r4, lr}
 489              		.cfi_def_cfa_offset 8
 490              		.cfi_offset 4, -8
 491              		.cfi_offset 14, -4
 492              	.LVL53:
 886:.\Generated_Source\PSoC4/CapSense_2.c ****     {
 493              		.loc 1 886 0
 494 0002 0024     		mov	r4, #0
 495 0004 03E0     		b	.L33
 496              	.LVL54:
 497              	.L34:
 888:.\Generated_Source\PSoC4/CapSense_2.c ****     }
 498              		.loc 1 888 0 discriminator 3
 499 0006 201C     		mov	r0, r4
 500 0008 FFF7FEFF 		bl	CapSense_2_DisableSensor
 501              	.LVL55:
 886:.\Generated_Source\PSoC4/CapSense_2.c ****     {
 502              		.loc 1 886 0 discriminator 3
 503 000c 0134     		add	r4, r4, #1
 504              	.LVL56:
 505              	.L33:
 886:.\Generated_Source\PSoC4/CapSense_2.c ****     {
ARM GAS  C:\Users\glenn\AppData\Local\Temp\ccPcZrmN.s 			page 30


 506              		.loc 1 886 0 is_stmt 0 discriminator 1
 507 000e 002C     		cmp	r4, #0
 508 0010 F9D0     		beq	.L34
 890:.\Generated_Source\PSoC4/CapSense_2.c **** 
 509              		.loc 1 890 0 is_stmt 1
 510              		@ sp needed
 511              	.LVL57:
 512 0012 10BD     		pop	{r4, pc}
 513              		.cfi_endproc
 514              	.LFE47:
 515              		.size	CapSense_2_ClearSensors, .-CapSense_2_ClearSensors
 516              		.section	.text.CapSense_2_SetPinDriveMode,"ax",%progbits
 517              		.align	2
 518              		.global	CapSense_2_SetPinDriveMode
 519              		.code	16
 520              		.thumb_func
 521              		.type	CapSense_2_SetPinDriveMode, %function
 522              	CapSense_2_SetPinDriveMode:
 523              	.LFB52:
1143:.\Generated_Source\PSoC4/CapSense_2.c **** 
1144:.\Generated_Source\PSoC4/CapSense_2.c **** 
1145:.\Generated_Source\PSoC4/CapSense_2.c **** /*******************************************************************************
1146:.\Generated_Source\PSoC4/CapSense_2.c **** * Function Name: CapSense_2_SetDriveModeAllPins
1147:.\Generated_Source\PSoC4/CapSense_2.c **** ********************************************************************************
1148:.\Generated_Source\PSoC4/CapSense_2.c **** *
1149:.\Generated_Source\PSoC4/CapSense_2.c **** * Summary:
1150:.\Generated_Source\PSoC4/CapSense_2.c **** * This API sets the drive mode of port pins used by the CapSense
1151:.\Generated_Source\PSoC4/CapSense_2.c **** * component (sensors, guard, shield, shield tank and Cmod) to drive the
1152:.\Generated_Source\PSoC4/CapSense_2.c **** * mode specified by the argument.
1153:.\Generated_Source\PSoC4/CapSense_2.c **** *
1154:.\Generated_Source\PSoC4/CapSense_2.c **** * Parameters:
1155:.\Generated_Source\PSoC4/CapSense_2.c **** *  driveMode:  Drive mode definition.
1156:.\Generated_Source\PSoC4/CapSense_2.c **** *
1157:.\Generated_Source\PSoC4/CapSense_2.c **** * Return:
1158:.\Generated_Source\PSoC4/CapSense_2.c **** *  None
1159:.\Generated_Source\PSoC4/CapSense_2.c **** *
1160:.\Generated_Source\PSoC4/CapSense_2.c **** * Global Variables:
1161:.\Generated_Source\PSoC4/CapSense_2.c **** *  CapSense_2_portTable[] - used to store the port number that pin
1162:.\Generated_Source\PSoC4/CapSense_2.c **** *  belongs to for each sensor.
1163:.\Generated_Source\PSoC4/CapSense_2.c **** *  CapSense_2_pinShiftTbl[] - used to store position of pin that
1164:.\Generated_Source\PSoC4/CapSense_2.c **** *  configured as a sensor in the port.
1165:.\Generated_Source\PSoC4/CapSense_2.c **** *
1166:.\Generated_Source\PSoC4/CapSense_2.c **** * Side Effects:
1167:.\Generated_Source\PSoC4/CapSense_2.c **** *  This API shall be called only after CapSense component is stopped.
1168:.\Generated_Source\PSoC4/CapSense_2.c **** *
1169:.\Generated_Source\PSoC4/CapSense_2.c **** *******************************************************************************/
1170:.\Generated_Source\PSoC4/CapSense_2.c **** void CapSense_2_SetDriveModeAllPins(uint32 driveMode)
1171:.\Generated_Source\PSoC4/CapSense_2.c **** {
1172:.\Generated_Source\PSoC4/CapSense_2.c ****     uint8 curSensor;
1173:.\Generated_Source\PSoC4/CapSense_2.c ****     #if (CapSense_2_IS_COMPLEX_SCANSLOTS)
1174:.\Generated_Source\PSoC4/CapSense_2.c ****         uint8 snsNumber;
1175:.\Generated_Source\PSoC4/CapSense_2.c ****         uint8 snsType;
1176:.\Generated_Source\PSoC4/CapSense_2.c ****     #endif  /* CapSense_2_IS_COMPLEX_SCANSLOTS */
1177:.\Generated_Source\PSoC4/CapSense_2.c ****     uint32 prtNumberTmp;
1178:.\Generated_Source\PSoC4/CapSense_2.c ****     uint32 pinNumberTmp;
1179:.\Generated_Source\PSoC4/CapSense_2.c **** 
1180:.\Generated_Source\PSoC4/CapSense_2.c ****     for(curSensor = 0u; curSensor < CapSense_2_TOTAL_SENSOR_COUNT; curSensor++)
ARM GAS  C:\Users\glenn\AppData\Local\Temp\ccPcZrmN.s 			page 31


1181:.\Generated_Source\PSoC4/CapSense_2.c ****     {
1182:.\Generated_Source\PSoC4/CapSense_2.c ****         #if (CapSense_2_IS_COMPLEX_SCANSLOTS)
1183:.\Generated_Source\PSoC4/CapSense_2.c ****             /* Read sensor type: single or complex */
1184:.\Generated_Source\PSoC4/CapSense_2.c ****             snsType = CapSense_2_portTable[curSensor];
1185:.\Generated_Source\PSoC4/CapSense_2.c **** 
1186:.\Generated_Source\PSoC4/CapSense_2.c ****             /* Check if sensor is complex */
1187:.\Generated_Source\PSoC4/CapSense_2.c ****             if ((snsType & CapSense_2_COMPLEX_SS_FLAG) == 0u)
1188:.\Generated_Source\PSoC4/CapSense_2.c ****             {
1189:.\Generated_Source\PSoC4/CapSense_2.c ****                 /* The sensor is not complex */
1190:.\Generated_Source\PSoC4/CapSense_2.c ****                 snsNumber = curSensor;
1191:.\Generated_Source\PSoC4/CapSense_2.c ****             }
1192:.\Generated_Source\PSoC4/CapSense_2.c ****             else
1193:.\Generated_Source\PSoC4/CapSense_2.c ****             {
1194:.\Generated_Source\PSoC4/CapSense_2.c ****                 /* Get dedicated sensor ID of the complex sensor */
1195:.\Generated_Source\PSoC4/CapSense_2.c ****                 snsType &= ~CapSense_2_COMPLEX_SS_FLAG;
1196:.\Generated_Source\PSoC4/CapSense_2.c ****                 snsNumber = CapSense_2_indexTable[snsType];
1197:.\Generated_Source\PSoC4/CapSense_2.c ****             }
1198:.\Generated_Source\PSoC4/CapSense_2.c **** 
1199:.\Generated_Source\PSoC4/CapSense_2.c ****             prtNumberTmp = CapSense_2_portTable[snsNumber];
1200:.\Generated_Source\PSoC4/CapSense_2.c ****             pinNumberTmp = CapSense_2_pinShiftTbl[snsNumber];
1201:.\Generated_Source\PSoC4/CapSense_2.c ****         #else
1202:.\Generated_Source\PSoC4/CapSense_2.c ****             prtNumberTmp = CapSense_2_portTable[curSensor];
1203:.\Generated_Source\PSoC4/CapSense_2.c ****             pinNumberTmp = CapSense_2_pinShiftTbl[curSensor];
1204:.\Generated_Source\PSoC4/CapSense_2.c ****         #endif  /* CapSense_2_IS_COMPLEX_SCANSLOTS */
1205:.\Generated_Source\PSoC4/CapSense_2.c **** 
1206:.\Generated_Source\PSoC4/CapSense_2.c ****         CapSense_2_SetPinDriveMode(driveMode, pinNumberTmp, prtNumberTmp);
1207:.\Generated_Source\PSoC4/CapSense_2.c ****     }
1208:.\Generated_Source\PSoC4/CapSense_2.c **** 
1209:.\Generated_Source\PSoC4/CapSense_2.c ****     CapSense_2_SetPinDriveMode(driveMode, (uint32)CapSense_2_CMOD_PIN_NUMBER, (uint32)CapSense_2_CM
1210:.\Generated_Source\PSoC4/CapSense_2.c **** 
1211:.\Generated_Source\PSoC4/CapSense_2.c ****     #if(0u != CapSense_2_CSH_TANK_ENABLE)
1212:.\Generated_Source\PSoC4/CapSense_2.c ****         CapSense_2_SetPinDriveMode(driveMode, (uint32)CapSense_2_CTANK_PIN_NUMBER, (uint32)CapSense
1213:.\Generated_Source\PSoC4/CapSense_2.c ****     #endif /* (0u != CapSense_2_CSH_TANK_ENABLE) */
1214:.\Generated_Source\PSoC4/CapSense_2.c **** 
1215:.\Generated_Source\PSoC4/CapSense_2.c ****     #if(0u != CapSense_2_IS_SHIELD_ENABLE)
1216:.\Generated_Source\PSoC4/CapSense_2.c ****         CapSense_2_SetPinDriveMode(driveMode, (uint32)CapSense_2_SHIELD_PIN_NUMBER, (uint32)CapSens
1217:.\Generated_Source\PSoC4/CapSense_2.c ****     #endif /* (0u != CapSense_2_IS_SHIELD_ENABLE) */
1218:.\Generated_Source\PSoC4/CapSense_2.c **** }
1219:.\Generated_Source\PSoC4/CapSense_2.c **** 
1220:.\Generated_Source\PSoC4/CapSense_2.c **** 
1221:.\Generated_Source\PSoC4/CapSense_2.c **** /*******************************************************************************
1222:.\Generated_Source\PSoC4/CapSense_2.c **** * Function Name: CapSense_2_RestoreDriveModeAllPins
1223:.\Generated_Source\PSoC4/CapSense_2.c **** ********************************************************************************
1224:.\Generated_Source\PSoC4/CapSense_2.c **** *
1225:.\Generated_Source\PSoC4/CapSense_2.c **** * Summary:
1226:.\Generated_Source\PSoC4/CapSense_2.c **** *  This API restores the drive for all the CapSense port pins to the original
1227:.\Generated_Source\PSoC4/CapSense_2.c **** *  state.
1228:.\Generated_Source\PSoC4/CapSense_2.c **** *
1229:.\Generated_Source\PSoC4/CapSense_2.c **** * Parameters:
1230:.\Generated_Source\PSoC4/CapSense_2.c **** *  None
1231:.\Generated_Source\PSoC4/CapSense_2.c **** *
1232:.\Generated_Source\PSoC4/CapSense_2.c **** * Return:
1233:.\Generated_Source\PSoC4/CapSense_2.c **** *  None
1234:.\Generated_Source\PSoC4/CapSense_2.c **** *
1235:.\Generated_Source\PSoC4/CapSense_2.c **** * Global Variables:
1236:.\Generated_Source\PSoC4/CapSense_2.c **** *  CapSense_2_prtSelTbl[] - Contains pointers to the HSIOM
1237:.\Generated_Source\PSoC4/CapSense_2.c **** *  registers for each port.
ARM GAS  C:\Users\glenn\AppData\Local\Temp\ccPcZrmN.s 			page 32


1238:.\Generated_Source\PSoC4/CapSense_2.c **** *
1239:.\Generated_Source\PSoC4/CapSense_2.c **** * Side Effects:
1240:.\Generated_Source\PSoC4/CapSense_2.c **** *  This API is called only after the CapSense component is stopped.
1241:.\Generated_Source\PSoC4/CapSense_2.c **** *
1242:.\Generated_Source\PSoC4/CapSense_2.c **** *******************************************************************************/
1243:.\Generated_Source\PSoC4/CapSense_2.c **** void CapSense_2_RestoreDriveModeAllPins(void)
1244:.\Generated_Source\PSoC4/CapSense_2.c **** {
1245:.\Generated_Source\PSoC4/CapSense_2.c ****     uint32 newRegisterValue;
1246:.\Generated_Source\PSoC4/CapSense_2.c **** 
1247:.\Generated_Source\PSoC4/CapSense_2.c ****     CapSense_2_SetDriveModeAllPins(CY_SYS_PINS_DM_ALG_HIZ);
1248:.\Generated_Source\PSoC4/CapSense_2.c **** 
1249:.\Generated_Source\PSoC4/CapSense_2.c ****     newRegisterValue = CapSense_2_CMOD_CONNECTION_REG;
1250:.\Generated_Source\PSoC4/CapSense_2.c ****     newRegisterValue &= ~(CapSense_2_CSD_CMOD_CONNECTION_MASK);
1251:.\Generated_Source\PSoC4/CapSense_2.c ****     newRegisterValue |= CapSense_2_CSD_CMOD_TO_AMUXBUS_A;
1252:.\Generated_Source\PSoC4/CapSense_2.c ****     CapSense_2_CMOD_CONNECTION_REG = newRegisterValue;
1253:.\Generated_Source\PSoC4/CapSense_2.c **** 
1254:.\Generated_Source\PSoC4/CapSense_2.c ****     #if(0u != CapSense_2_CSH_TANK_ENABLE)
1255:.\Generated_Source\PSoC4/CapSense_2.c ****         newRegisterValue = CapSense_2_CTANK_CONNECTION_REG;
1256:.\Generated_Source\PSoC4/CapSense_2.c ****         newRegisterValue &= ~(CapSense_2_CSD_CTANK_CONNECTION_MASK);
1257:.\Generated_Source\PSoC4/CapSense_2.c ****         newRegisterValue |= CapSense_2_CSD_CTANK_TO_AMUXBUS_B;
1258:.\Generated_Source\PSoC4/CapSense_2.c ****         CapSense_2_CTANK_CONNECTION_REG = newRegisterValue;
1259:.\Generated_Source\PSoC4/CapSense_2.c ****     #endif/* (0u != CapSense_2_CSH_TANK_ENABLE) */
1260:.\Generated_Source\PSoC4/CapSense_2.c **** 
1261:.\Generated_Source\PSoC4/CapSense_2.c ****     #if(0u != CapSense_2_IS_SHIELD_ENABLE)
1262:.\Generated_Source\PSoC4/CapSense_2.c ****         newRegisterValue = *CapSense_2_prtSelTbl[CapSense_2_SHIELD_PORT_NUMBER];
1263:.\Generated_Source\PSoC4/CapSense_2.c ****         newRegisterValue &= ~(CapSense_2_CSD_HSIOM_MASK << ((uint32)CapSense_2_SHIELD_PIN_NUMBER * 
1264:.\Generated_Source\PSoC4/CapSense_2.c ****         newRegisterValue |= (CapSense_2_CSD_SHIELD_PORT_MODE << ((uint32)CapSense_2_SHIELD_PIN_NUMB
1265:.\Generated_Source\PSoC4/CapSense_2.c ****         *CapSense_2_prtSelTbl[CapSense_2_SHIELD_PORT_NUMBER] = newRegisterValue;
1266:.\Generated_Source\PSoC4/CapSense_2.c ****     #endif /* (0u != CapSense_2_IS_SHIELD_ENABLE) */
1267:.\Generated_Source\PSoC4/CapSense_2.c **** }
1268:.\Generated_Source\PSoC4/CapSense_2.c **** 
1269:.\Generated_Source\PSoC4/CapSense_2.c **** 
1270:.\Generated_Source\PSoC4/CapSense_2.c **** /*******************************************************************************
1271:.\Generated_Source\PSoC4/CapSense_2.c **** * Function Name: CapSense_2_SetPinDriveMode
1272:.\Generated_Source\PSoC4/CapSense_2.c **** ********************************************************************************
1273:.\Generated_Source\PSoC4/CapSense_2.c **** *
1274:.\Generated_Source\PSoC4/CapSense_2.c **** * Summary:
1275:.\Generated_Source\PSoC4/CapSense_2.c **** * This API sets the drive mode for the appropriate port/pin.
1276:.\Generated_Source\PSoC4/CapSense_2.c **** *
1277:.\Generated_Source\PSoC4/CapSense_2.c **** * Parameters:
1278:.\Generated_Source\PSoC4/CapSense_2.c **** *  driveMode:  Drive mode definition.
1279:.\Generated_Source\PSoC4/CapSense_2.c **** *  portNumber: contains port number (0, 1, 2).
1280:.\Generated_Source\PSoC4/CapSense_2.c **** *  pinNumber: contains pin number (0, 1, 2, ... , 7).
1281:.\Generated_Source\PSoC4/CapSense_2.c **** *
1282:.\Generated_Source\PSoC4/CapSense_2.c **** * Return:
1283:.\Generated_Source\PSoC4/CapSense_2.c **** *  None
1284:.\Generated_Source\PSoC4/CapSense_2.c **** *
1285:.\Generated_Source\PSoC4/CapSense_2.c **** * Global Variables:
1286:.\Generated_Source\PSoC4/CapSense_2.c **** *  CapSense_2_prtSelTbl[] - Contains pointers to the HSIOM
1287:.\Generated_Source\PSoC4/CapSense_2.c **** *  registers for each port.
1288:.\Generated_Source\PSoC4/CapSense_2.c **** *  CapSense_2_prtCfgTb[] - Contains pointers to the port config
1289:.\Generated_Source\PSoC4/CapSense_2.c **** *  registers for each port.
1290:.\Generated_Source\PSoC4/CapSense_2.c **** *
1291:.\Generated_Source\PSoC4/CapSense_2.c **** * Side Effects:
1292:.\Generated_Source\PSoC4/CapSense_2.c **** *  This API is called only after CapSense component is stopped.
1293:.\Generated_Source\PSoC4/CapSense_2.c **** *
1294:.\Generated_Source\PSoC4/CapSense_2.c **** *******************************************************************************/
ARM GAS  C:\Users\glenn\AppData\Local\Temp\ccPcZrmN.s 			page 33


1295:.\Generated_Source\PSoC4/CapSense_2.c **** void CapSense_2_SetPinDriveMode(uint32 driveMode, uint32 pinNumber, uint32 portNumber)
1296:.\Generated_Source\PSoC4/CapSense_2.c **** {
 524              		.loc 1 1296 0
 525              		.cfi_startproc
 526              	.LVL58:
 527 0000 10B5     		push	{r4, lr}
 528              		.cfi_def_cfa_offset 8
 529              		.cfi_offset 4, -8
 530              		.cfi_offset 14, -4
1297:.\Generated_Source\PSoC4/CapSense_2.c ****     uint32  pinModeShift;
1298:.\Generated_Source\PSoC4/CapSense_2.c ****     uint32 newRegisterValue;
1299:.\Generated_Source\PSoC4/CapSense_2.c **** 
1300:.\Generated_Source\PSoC4/CapSense_2.c ****     pinModeShift  = pinNumber * CapSense_2_PC_PIN_CFG_SIZE;
 531              		.loc 1 1300 0
 532 0002 4B00     		lsl	r3, r1, #1
 533 0004 5918     		add	r1, r3, r1
 534              	.LVL59:
1301:.\Generated_Source\PSoC4/CapSense_2.c **** 
1302:.\Generated_Source\PSoC4/CapSense_2.c ****     newRegisterValue = *CapSense_2_prtCfgTbl[portNumber];
 535              		.loc 1 1302 0
 536 0006 9200     		lsl	r2, r2, #2
 537              	.LVL60:
 538 0008 044B     		ldr	r3, .L36
 539 000a D458     		ldr	r4, [r2, r3]
 540 000c 2368     		ldr	r3, [r4]
 541              	.LVL61:
1303:.\Generated_Source\PSoC4/CapSense_2.c ****     newRegisterValue &= ~(CapSense_2_CSD_PIN_MODE_MASK << pinModeShift);
 542              		.loc 1 1303 0
 543 000e 0722     		mov	r2, #7
 544 0010 8A40     		lsl	r2, r2, r1
 545 0012 9343     		bic	r3, r2
 546              	.LVL62:
1304:.\Generated_Source\PSoC4/CapSense_2.c ****     newRegisterValue |=  (uint32)((uint32)driveMode << pinModeShift);
 547              		.loc 1 1304 0
 548 0014 8840     		lsl	r0, r0, r1
 549              	.LVL63:
 550 0016 1843     		orr	r0, r3
 551              	.LVL64:
1305:.\Generated_Source\PSoC4/CapSense_2.c ****     *CapSense_2_prtCfgTbl[portNumber] =  newRegisterValue;
 552              		.loc 1 1305 0
 553 0018 2060     		str	r0, [r4]
1306:.\Generated_Source\PSoC4/CapSense_2.c **** }
 554              		.loc 1 1306 0
 555              		@ sp needed
 556 001a 10BD     		pop	{r4, pc}
 557              	.L37:
 558              		.align	2
 559              	.L36:
 560 001c 00000000 		.word	.LANCHOR1
 561              		.cfi_endproc
 562              	.LFE52:
 563              		.size	CapSense_2_SetPinDriveMode, .-CapSense_2_SetPinDriveMode
 564              		.section	.text.CapSense_2_SetDriveModeAllPins,"ax",%progbits
 565              		.align	2
 566              		.global	CapSense_2_SetDriveModeAllPins
 567              		.code	16
 568              		.thumb_func
ARM GAS  C:\Users\glenn\AppData\Local\Temp\ccPcZrmN.s 			page 34


 569              		.type	CapSense_2_SetDriveModeAllPins, %function
 570              	CapSense_2_SetDriveModeAllPins:
 571              	.LFB50:
1171:.\Generated_Source\PSoC4/CapSense_2.c ****     uint8 curSensor;
 572              		.loc 1 1171 0
 573              		.cfi_startproc
 574              	.LVL65:
 575 0000 38B5     		push	{r3, r4, r5, lr}
 576              		.cfi_def_cfa_offset 16
 577              		.cfi_offset 3, -16
 578              		.cfi_offset 4, -12
 579              		.cfi_offset 5, -8
 580              		.cfi_offset 14, -4
 581 0002 051C     		mov	r5, r0
 582              	.LVL66:
1180:.\Generated_Source\PSoC4/CapSense_2.c ****     {
 583              		.loc 1 1180 0
 584 0004 0024     		mov	r4, #0
 585 0006 06E0     		b	.L39
 586              	.LVL67:
 587              	.L40:
1206:.\Generated_Source\PSoC4/CapSense_2.c ****     }
 588              		.loc 1 1206 0 discriminator 3
 589 0008 281C     		mov	r0, r5
 590 000a 0121     		mov	r1, #1
 591 000c 0422     		mov	r2, #4
 592 000e FFF7FEFF 		bl	CapSense_2_SetPinDriveMode
 593              	.LVL68:
1180:.\Generated_Source\PSoC4/CapSense_2.c ****     {
 594              		.loc 1 1180 0 discriminator 3
 595 0012 0134     		add	r4, r4, #1
 596              	.LVL69:
 597 0014 E4B2     		uxtb	r4, r4
 598              	.LVL70:
 599              	.L39:
1180:.\Generated_Source\PSoC4/CapSense_2.c ****     {
 600              		.loc 1 1180 0 is_stmt 0 discriminator 1
 601 0016 002C     		cmp	r4, #0
 602 0018 F6D0     		beq	.L40
1209:.\Generated_Source\PSoC4/CapSense_2.c **** 
 603              		.loc 1 1209 0 is_stmt 1
 604 001a 281C     		mov	r0, r5
 605 001c 0221     		mov	r1, #2
 606 001e 0422     		mov	r2, #4
 607 0020 FFF7FEFF 		bl	CapSense_2_SetPinDriveMode
 608              	.LVL71:
1218:.\Generated_Source\PSoC4/CapSense_2.c **** 
 609              		.loc 1 1218 0
 610              		@ sp needed
 611              	.LVL72:
 612              	.LVL73:
 613 0024 38BD     		pop	{r3, r4, r5, pc}
 614              		.cfi_endproc
 615              	.LFE50:
 616              		.size	CapSense_2_SetDriveModeAllPins, .-CapSense_2_SetDriveModeAllPins
 617 0026 C046     		.section	.text.CapSense_2_RestoreDriveModeAllPins,"ax",%progbits
 618              		.align	2
ARM GAS  C:\Users\glenn\AppData\Local\Temp\ccPcZrmN.s 			page 35


 619              		.global	CapSense_2_RestoreDriveModeAllPins
 620              		.code	16
 621              		.thumb_func
 622              		.type	CapSense_2_RestoreDriveModeAllPins, %function
 623              	CapSense_2_RestoreDriveModeAllPins:
 624              	.LFB51:
1244:.\Generated_Source\PSoC4/CapSense_2.c ****     uint32 newRegisterValue;
 625              		.loc 1 1244 0
 626              		.cfi_startproc
 627 0000 08B5     		push	{r3, lr}
 628              		.cfi_def_cfa_offset 8
 629              		.cfi_offset 3, -8
 630              		.cfi_offset 14, -4
1247:.\Generated_Source\PSoC4/CapSense_2.c **** 
 631              		.loc 1 1247 0
 632 0002 0020     		mov	r0, #0
 633 0004 FFF7FEFF 		bl	CapSense_2_SetDriveModeAllPins
 634              	.LVL74:
1249:.\Generated_Source\PSoC4/CapSense_2.c ****     newRegisterValue &= ~(CapSense_2_CSD_CMOD_CONNECTION_MASK);
 635              		.loc 1 1249 0
 636 0008 044A     		ldr	r2, .L42
 637 000a 1168     		ldr	r1, [r2]
 638              	.LVL75:
1250:.\Generated_Source\PSoC4/CapSense_2.c ****     newRegisterValue |= CapSense_2_CSD_CMOD_TO_AMUXBUS_A;
 639              		.loc 1 1250 0
 640 000c 044B     		ldr	r3, .L42+4
 641 000e 0B40     		and	r3, r1
 642              	.LVL76:
1251:.\Generated_Source\PSoC4/CapSense_2.c ****     CapSense_2_CMOD_CONNECTION_REG = newRegisterValue;
 643              		.loc 1 1251 0
 644 0010 C021     		mov	r1, #192
 645 0012 C900     		lsl	r1, r1, #3
 646 0014 0B43     		orr	r3, r1
 647              	.LVL77:
1252:.\Generated_Source\PSoC4/CapSense_2.c **** 
 648              		.loc 1 1252 0
 649 0016 1360     		str	r3, [r2]
1267:.\Generated_Source\PSoC4/CapSense_2.c **** 
 650              		.loc 1 1267 0
 651              		@ sp needed
 652 0018 08BD     		pop	{r3, pc}
 653              	.L43:
 654 001a C046     		.align	2
 655              	.L42:
 656 001c 00040240 		.word	1073873920
 657 0020 FFF0FFFF 		.word	-3841
 658              		.cfi_endproc
 659              	.LFE51:
 660              		.size	CapSense_2_RestoreDriveModeAllPins, .-CapSense_2_RestoreDriveModeAllPins
 661              		.section	.text.CapSense_2_PreScan,"ax",%progbits
 662              		.align	2
 663              		.global	CapSense_2_PreScan
 664              		.code	16
 665              		.thumb_func
 666              		.type	CapSense_2_PreScan, %function
 667              	CapSense_2_PreScan:
 668              	.LFB53:
ARM GAS  C:\Users\glenn\AppData\Local\Temp\ccPcZrmN.s 			page 36


1307:.\Generated_Source\PSoC4/CapSense_2.c **** 
1308:.\Generated_Source\PSoC4/CapSense_2.c **** 
1309:.\Generated_Source\PSoC4/CapSense_2.c **** /*******************************************************************************
1310:.\Generated_Source\PSoC4/CapSense_2.c **** * Function Name: CapSense_2_PreScan
1311:.\Generated_Source\PSoC4/CapSense_2.c **** ********************************************************************************
1312:.\Generated_Source\PSoC4/CapSense_2.c **** *
1313:.\Generated_Source\PSoC4/CapSense_2.c **** * Summary:
1314:.\Generated_Source\PSoC4/CapSense_2.c **** *  Sets required settings, enables a sensor, removes Vref from AMUX and starts the
1315:.\Generated_Source\PSoC4/CapSense_2.c **** *  scanning process of the sensor.
1316:.\Generated_Source\PSoC4/CapSense_2.c **** *
1317:.\Generated_Source\PSoC4/CapSense_2.c **** * Parameters:
1318:.\Generated_Source\PSoC4/CapSense_2.c **** *  sensor:  Sensor number.
1319:.\Generated_Source\PSoC4/CapSense_2.c **** *
1320:.\Generated_Source\PSoC4/CapSense_2.c **** * Return:
1321:.\Generated_Source\PSoC4/CapSense_2.c **** *  None
1322:.\Generated_Source\PSoC4/CapSense_2.c **** *
1323:.\Generated_Source\PSoC4/CapSense_2.c **** * Global Variables:
1324:.\Generated_Source\PSoC4/CapSense_2.c **** * CapSense_2_widgetNumber[] - This array contains numbers of widgets for each sensor.
1325:.\Generated_Source\PSoC4/CapSense_2.c **** * CapSense_2_widgetResolution[] - Contains the widget resolution.
1326:.\Generated_Source\PSoC4/CapSense_2.c **** *
1327:.\Generated_Source\PSoC4/CapSense_2.c **** * Side Effects:
1328:.\Generated_Source\PSoC4/CapSense_2.c **** *  None
1329:.\Generated_Source\PSoC4/CapSense_2.c **** *
1330:.\Generated_Source\PSoC4/CapSense_2.c **** *******************************************************************************/
1331:.\Generated_Source\PSoC4/CapSense_2.c **** void CapSense_2_PreScan(uint32 sensor)
1332:.\Generated_Source\PSoC4/CapSense_2.c **** {
 669              		.loc 1 1332 0
 670              		.cfi_startproc
 671              	.LVL78:
 672 0000 70B5     		push	{r4, r5, r6, lr}
 673              		.cfi_def_cfa_offset 16
 674              		.cfi_offset 4, -16
 675              		.cfi_offset 5, -12
 676              		.cfi_offset 6, -8
 677              		.cfi_offset 14, -4
 678 0002 041C     		mov	r4, r0
 679              	.LVL79:
1333:.\Generated_Source\PSoC4/CapSense_2.c ****     uint8 widget;
1334:.\Generated_Source\PSoC4/CapSense_2.c ****     uint8 interruptState;
1335:.\Generated_Source\PSoC4/CapSense_2.c ****     uint32 newRegValue;
1336:.\Generated_Source\PSoC4/CapSense_2.c ****     uint32 counterResolution;
1337:.\Generated_Source\PSoC4/CapSense_2.c **** 
1338:.\Generated_Source\PSoC4/CapSense_2.c ****     #if(CapSense_2_PRS_OPTIONS == CapSense_2__PRS_AUTO)
1339:.\Generated_Source\PSoC4/CapSense_2.c ****         uint8 senseClkDivMath;
1340:.\Generated_Source\PSoC4/CapSense_2.c ****         uint8 sampleClkDivMath;
1341:.\Generated_Source\PSoC4/CapSense_2.c ****     #endif /* (CapSense_2_PRS_OPTIONS == CapSense_2__PRS_AUTO) */
1342:.\Generated_Source\PSoC4/CapSense_2.c **** 
1343:.\Generated_Source\PSoC4/CapSense_2.c ****     #if ((CapSense_2_TUNING_METHOD == CapSense_2__TUNING_AUTO) &&\
1344:.\Generated_Source\PSoC4/CapSense_2.c ****          (0 != CapSense_2_IS_OVERSAMPLING_EN))
1345:.\Generated_Source\PSoC4/CapSense_2.c ****         uint32 oversamplingFactor;
1346:.\Generated_Source\PSoC4/CapSense_2.c ****     #endif /* ((CapSense_2_TUNING_METHOD == CapSense_2__TUNING_AUTO) &&\
1347:.\Generated_Source\PSoC4/CapSense_2.c ****                (0 != CapSense_2_IS_OVERSAMPLING_EN)) */
1348:.\Generated_Source\PSoC4/CapSense_2.c **** 
1349:.\Generated_Source\PSoC4/CapSense_2.c ****     /* Define widget sensor belongs to */
1350:.\Generated_Source\PSoC4/CapSense_2.c ****     widget = CapSense_2_widgetNumber[sensor];
1351:.\Generated_Source\PSoC4/CapSense_2.c **** 
1352:.\Generated_Source\PSoC4/CapSense_2.c ****     /* Recalculate Counter Resolution to MSB 16 bits */
ARM GAS  C:\Users\glenn\AppData\Local\Temp\ccPcZrmN.s 			page 37


1353:.\Generated_Source\PSoC4/CapSense_2.c ****     counterResolution = CapSense_2_widgetResolution[widget];
1354:.\Generated_Source\PSoC4/CapSense_2.c **** 
1355:.\Generated_Source\PSoC4/CapSense_2.c ****     #if ((CapSense_2_TUNING_METHOD == CapSense_2__TUNING_AUTO) &&\
1356:.\Generated_Source\PSoC4/CapSense_2.c ****          (0 != CapSense_2_IS_OVERSAMPLING_EN))
1357:.\Generated_Source\PSoC4/CapSense_2.c ****         oversamplingFactor = CapSense_2_GetBitValue(CapSense_2_scanSpeedTbl, sensor);
1358:.\Generated_Source\PSoC4/CapSense_2.c **** 
1359:.\Generated_Source\PSoC4/CapSense_2.c ****         if(counterResolution < CapSense_2_RESOLUTION_16_BITS)
1360:.\Generated_Source\PSoC4/CapSense_2.c ****         {
1361:.\Generated_Source\PSoC4/CapSense_2.c ****             counterResolution <<= oversamplingFactor;
1362:.\Generated_Source\PSoC4/CapSense_2.c ****             counterResolution |= (uint32)(CapSense_2_RESOLUTION_8_BITS);
1363:.\Generated_Source\PSoC4/CapSense_2.c ****         }
1364:.\Generated_Source\PSoC4/CapSense_2.c ****     #endif /* ((CapSense_2_TUNING_METHOD == CapSense_2__TUNING_AUTO) &&\
1365:.\Generated_Source\PSoC4/CapSense_2.c ****                (0 != CapSense_2_IS_OVERSAMPLING_EN)) */
1366:.\Generated_Source\PSoC4/CapSense_2.c **** 
1367:.\Generated_Source\PSoC4/CapSense_2.c ****     #if (0u != CapSense_2_IS_M0S8PERI_BLOCK)
1368:.\Generated_Source\PSoC4/CapSense_2.c ****         CapSense_2_SenseClk_Stop();
 680              		.loc 1 1368 0
 681 0004 FFF7FEFF 		bl	CapSense_2_SenseClk_Stop
 682              	.LVL80:
1369:.\Generated_Source\PSoC4/CapSense_2.c ****         CapSense_2_SampleClk_Stop();
 683              		.loc 1 1369 0
 684 0008 FFF7FEFF 		bl	CapSense_2_SampleClk_Stop
 685              	.LVL81:
1370:.\Generated_Source\PSoC4/CapSense_2.c ****     #endif /* (0u != CapSense_2_IS_M0S8PERI_BLOCK) */
1371:.\Generated_Source\PSoC4/CapSense_2.c **** 
1372:.\Generated_Source\PSoC4/CapSense_2.c ****     #if (0u != CapSense_2_MULTIPLE_FREQUENCY_SET)
1373:.\Generated_Source\PSoC4/CapSense_2.c ****         CapSense_2_SampleClk_SetDividerValue((uint16)CapSense_2_sampleClkDividerVal[sensor]);
 686              		.loc 1 1373 0
 687 000c 0120     		mov	r0, #1
 688 000e 0021     		mov	r1, #0
 689 0010 FFF7FEFF 		bl	CapSense_2_SampleClk_SetFractionalDividerRegister
 690              	.LVL82:
1374:.\Generated_Source\PSoC4/CapSense_2.c ****         CapSense_2_SenseClk_SetDividerValue((uint16)CapSense_2_senseClkDividerVal[sensor]);
 691              		.loc 1 1374 0
 692 0014 0120     		mov	r0, #1
 693 0016 0021     		mov	r1, #0
 694 0018 FFF7FEFF 		bl	CapSense_2_SenseClk_SetFractionalDividerRegister
 695              	.LVL83:
1375:.\Generated_Source\PSoC4/CapSense_2.c ****     #else
1376:.\Generated_Source\PSoC4/CapSense_2.c ****         CapSense_2_SampleClk_SetDividerValue((uint16)CapSense_2_sampleClkDividerVal);
1377:.\Generated_Source\PSoC4/CapSense_2.c ****         CapSense_2_SenseClk_SetDividerValue((uint16)CapSense_2_senseClkDividerVal);
1378:.\Generated_Source\PSoC4/CapSense_2.c ****     #endif /* (0u != CapSense_2_MULTIPLE_FREQUENCY_SET) */
1379:.\Generated_Source\PSoC4/CapSense_2.c **** 
1380:.\Generated_Source\PSoC4/CapSense_2.c ****     #if (0u != CapSense_2_IS_M0S8PERI_BLOCK)
1381:.\Generated_Source\PSoC4/CapSense_2.c ****         CapSense_2_SampleClk_Start();
 696              		.loc 1 1381 0
 697 001c FF20     		mov	r0, #255
 698 001e FFF7FEFF 		bl	CapSense_2_SampleClk_StartEx
 699              	.LVL84:
1382:.\Generated_Source\PSoC4/CapSense_2.c ****         CapSense_2_SenseClk_StartEx(CapSense_2_SampleClk__DIV_ID);
 700              		.loc 1 1382 0
 701 0022 4020     		mov	r0, #64
 702 0024 FFF7FEFF 		bl	CapSense_2_SenseClk_StartEx
 703              	.LVL85:
1383:.\Generated_Source\PSoC4/CapSense_2.c **** 
1384:.\Generated_Source\PSoC4/CapSense_2.c ****         #if(CapSense_2_PRS_OPTIONS == CapSense_2__PRS_NONE)
1385:.\Generated_Source\PSoC4/CapSense_2.c ****             CyIntDisable(CapSense_2_ISR_NUMBER);
ARM GAS  C:\Users\glenn\AppData\Local\Temp\ccPcZrmN.s 			page 38


 704              		.loc 1 1385 0
 705 0028 1120     		mov	r0, #17
 706 002a FFF7FEFF 		bl	CyIntDisable
 707              	.LVL86:
1386:.\Generated_Source\PSoC4/CapSense_2.c ****             CapSense_2_CSD_CNT_REG = CapSense_2_ONE_CYCLE;
 708              		.loc 1 1386 0
 709 002e 8022     		mov	r2, #128
 710 0030 5202     		lsl	r2, r2, #9
 711 0032 194B     		ldr	r3, .L46
 712 0034 1A60     		str	r2, [r3]
 713              	.L45:
1387:.\Generated_Source\PSoC4/CapSense_2.c ****             while(0u != (CapSense_2_CSD_CNT_REG & CapSense_2_RESOLUTION_16_BITS))
 714              		.loc 1 1387 0 discriminator 1
 715 0036 184B     		ldr	r3, .L46
 716 0038 1B68     		ldr	r3, [r3]
 717 003a 1B0C     		lsr	r3, r3, #16
 718 003c FBD1     		bne	.L45
1388:.\Generated_Source\PSoC4/CapSense_2.c ****             {
1389:.\Generated_Source\PSoC4/CapSense_2.c ****             /* Wait until scanning is complete */
1390:.\Generated_Source\PSoC4/CapSense_2.c ****             }
1391:.\Generated_Source\PSoC4/CapSense_2.c ****             CapSense_2_CSD_INTR_REG = 1u;
 719              		.loc 1 1391 0
 720 003e 0122     		mov	r2, #1
 721 0040 164B     		ldr	r3, .L46+4
 722 0042 1A60     		str	r2, [r3]
1392:.\Generated_Source\PSoC4/CapSense_2.c ****             CyIntClearPending(CapSense_2_ISR_NUMBER);
 723              		.loc 1 1392 0
 724 0044 1120     		mov	r0, #17
 725 0046 FFF7FEFF 		bl	CyIntClearPending
 726              	.LVL87:
1393:.\Generated_Source\PSoC4/CapSense_2.c ****             CyIntEnable(CapSense_2_ISR_NUMBER);
 727              		.loc 1 1393 0
 728 004a 1120     		mov	r0, #17
 729 004c FFF7FEFF 		bl	CyIntEnable
 730              	.LVL88:
1394:.\Generated_Source\PSoC4/CapSense_2.c ****         #endif /* CapSense_2_PRS_OPTIONS == CapSense_2__PRS_NONE */
1395:.\Generated_Source\PSoC4/CapSense_2.c ****     #endif /* (0u != CapSense_2_IS_M0S8PERI_BLOCK) */
1396:.\Generated_Source\PSoC4/CapSense_2.c **** 
1397:.\Generated_Source\PSoC4/CapSense_2.c **** #if(CapSense_2_PRS_OPTIONS != CapSense_2__PRS_NONE)
1398:.\Generated_Source\PSoC4/CapSense_2.c **** 
1399:.\Generated_Source\PSoC4/CapSense_2.c ****     #if(CapSense_2_TUNING_METHOD == CapSense_2__TUNING_AUTO)
1400:.\Generated_Source\PSoC4/CapSense_2.c ****         if(CapSense_2_prescalersTuningDone != 0u)
1401:.\Generated_Source\PSoC4/CapSense_2.c ****         {
1402:.\Generated_Source\PSoC4/CapSense_2.c ****     #endif /* (CapSense_2_TUNING_METHOD == CapSense_2__TUNING_AUTO) */
1403:.\Generated_Source\PSoC4/CapSense_2.c **** 
1404:.\Generated_Source\PSoC4/CapSense_2.c ****             CyIntDisable(CapSense_2_ISR_NUMBER);
1405:.\Generated_Source\PSoC4/CapSense_2.c **** 
1406:.\Generated_Source\PSoC4/CapSense_2.c ****             newRegValue = CapSense_2_CSD_CFG_REG;
1407:.\Generated_Source\PSoC4/CapSense_2.c ****             newRegValue |= CapSense_2_CSD_CFG_PRS_SELECT;
1408:.\Generated_Source\PSoC4/CapSense_2.c **** 
1409:.\Generated_Source\PSoC4/CapSense_2.c ****             #if(CapSense_2_PRS_OPTIONS == CapSense_2__PRS_AUTO)
1410:.\Generated_Source\PSoC4/CapSense_2.c **** 
1411:.\Generated_Source\PSoC4/CapSense_2.c ****                 newRegValue &= ~(CapSense_2_PRS_MODE_MASK);
1412:.\Generated_Source\PSoC4/CapSense_2.c **** 
1413:.\Generated_Source\PSoC4/CapSense_2.c ****                 #if (0u != CapSense_2_MULTIPLE_FREQUENCY_SET)
1414:.\Generated_Source\PSoC4/CapSense_2.c ****                     senseClkDivMath = CapSense_2_senseClkDividerVal[sensor];
1415:.\Generated_Source\PSoC4/CapSense_2.c ****                     sampleClkDivMath = CapSense_2_sampleClkDividerVal[sensor];
ARM GAS  C:\Users\glenn\AppData\Local\Temp\ccPcZrmN.s 			page 39


1416:.\Generated_Source\PSoC4/CapSense_2.c ****                 #else
1417:.\Generated_Source\PSoC4/CapSense_2.c ****                     senseClkDivMath = CapSense_2_senseClkDividerVal;
1418:.\Generated_Source\PSoC4/CapSense_2.c ****                     sampleClkDivMath = CapSense_2_sampleClkDividerVal;
1419:.\Generated_Source\PSoC4/CapSense_2.c ****                 #endif /* ( CapSense_2_MULTIPLE_FREQUENCY_SET) */
1420:.\Generated_Source\PSoC4/CapSense_2.c **** 
1421:.\Generated_Source\PSoC4/CapSense_2.c ****                 #if(0u == CapSense_2_IS_M0S8PERI_BLOCK)
1422:.\Generated_Source\PSoC4/CapSense_2.c ****                     senseClkDivMath *= sampleClkDivMath;
1423:.\Generated_Source\PSoC4/CapSense_2.c ****                 #endif /* (0u == CapSense_2_IS_M0S8PERI_BLOCK) */
1424:.\Generated_Source\PSoC4/CapSense_2.c **** 
1425:.\Generated_Source\PSoC4/CapSense_2.c ****                 if((senseClkDivMath * CapSense_2_RESOLUTION_12_BITS) <
1426:.\Generated_Source\PSoC4/CapSense_2.c ****                    (sampleClkDivMath * CapSense_2_widgetResolution[widget]))
1427:.\Generated_Source\PSoC4/CapSense_2.c ****                 {
1428:.\Generated_Source\PSoC4/CapSense_2.c ****                     newRegValue |= CapSense_2_CSD_PRS_12_BIT;
1429:.\Generated_Source\PSoC4/CapSense_2.c ****                 }
1430:.\Generated_Source\PSoC4/CapSense_2.c ****             #endif /* (CapSense_2_PRS_OPTIONS == CapSense_2__PRS_AUTO) */
1431:.\Generated_Source\PSoC4/CapSense_2.c **** 
1432:.\Generated_Source\PSoC4/CapSense_2.c ****             CapSense_2_CSD_CFG_REG = newRegValue;
1433:.\Generated_Source\PSoC4/CapSense_2.c **** 
1434:.\Generated_Source\PSoC4/CapSense_2.c ****             CyIntEnable(CapSense_2_ISR_NUMBER);
1435:.\Generated_Source\PSoC4/CapSense_2.c **** 
1436:.\Generated_Source\PSoC4/CapSense_2.c ****     #if(CapSense_2_TUNING_METHOD == CapSense_2__TUNING_AUTO)
1437:.\Generated_Source\PSoC4/CapSense_2.c ****         }
1438:.\Generated_Source\PSoC4/CapSense_2.c ****     #endif /* (CapSense_2_PRS_OPTIONS != CapSense_2__PRS_NONE) */
1439:.\Generated_Source\PSoC4/CapSense_2.c **** 
1440:.\Generated_Source\PSoC4/CapSense_2.c **** #endif /* (CapSense_2_PRS_OPTIONS == CapSense_2__PRS_NONE) */
1441:.\Generated_Source\PSoC4/CapSense_2.c **** 
1442:.\Generated_Source\PSoC4/CapSense_2.c ****     /* Set Idac Value */
1443:.\Generated_Source\PSoC4/CapSense_2.c ****     CyIntDisable(CapSense_2_ISR_NUMBER);
 731              		.loc 1 1443 0
 732 0050 1120     		mov	r0, #17
 733 0052 FFF7FEFF 		bl	CyIntDisable
 734              	.LVL89:
1444:.\Generated_Source\PSoC4/CapSense_2.c ****     newRegValue = CapSense_2_CSD_IDAC_REG;
 735              		.loc 1 1444 0
 736 0056 124A     		ldr	r2, .L46+8
 737 0058 1168     		ldr	r1, [r2]
 738              	.LVL90:
1445:.\Generated_Source\PSoC4/CapSense_2.c **** 
1446:.\Generated_Source\PSoC4/CapSense_2.c **** #if (CapSense_2_IDAC_CNT == 1u)
1447:.\Generated_Source\PSoC4/CapSense_2.c ****     newRegValue &= ~(CapSense_2_CSD_IDAC1_DATA_MASK);
1448:.\Generated_Source\PSoC4/CapSense_2.c ****     newRegValue |= CapSense_2_modulationIDAC[sensor];
1449:.\Generated_Source\PSoC4/CapSense_2.c **** #else
1450:.\Generated_Source\PSoC4/CapSense_2.c ****     newRegValue &= ~(CapSense_2_CSD_IDAC1_DATA_MASK | CapSense_2_CSD_IDAC2_DATA_MASK);
 739              		.loc 1 1450 0
 740 005a 124B     		ldr	r3, .L46+12
 741 005c 0B40     		and	r3, r1
 742              	.LVL91:
1451:.\Generated_Source\PSoC4/CapSense_2.c ****     newRegValue |= (CapSense_2_modulationIDAC[sensor] |
 743              		.loc 1 1451 0
 744 005e 1249     		ldr	r1, .L46+16
 745 0060 0B43     		orr	r3, r1
 746              	.LVL92:
1452:.\Generated_Source\PSoC4/CapSense_2.c ****                             (uint32)((uint32)CapSense_2_compensationIDAC[sensor] <<
1453:.\Generated_Source\PSoC4/CapSense_2.c ****                             CapSense_2_CSD_IDAC2_DATA_OFFSET));
1454:.\Generated_Source\PSoC4/CapSense_2.c **** #endif /* (CapSense_2_IDAC_CNT == 1u) */
1455:.\Generated_Source\PSoC4/CapSense_2.c **** 
1456:.\Generated_Source\PSoC4/CapSense_2.c ****     CapSense_2_CSD_IDAC_REG = newRegValue;
ARM GAS  C:\Users\glenn\AppData\Local\Temp\ccPcZrmN.s 			page 40


 747              		.loc 1 1456 0
 748 0062 1360     		str	r3, [r2]
1457:.\Generated_Source\PSoC4/CapSense_2.c **** 
1458:.\Generated_Source\PSoC4/CapSense_2.c **** #if(CapSense_2_CMOD_PREGARGE_OPTION == CapSense_2__CAPPRIOBUF)
1459:.\Generated_Source\PSoC4/CapSense_2.c ****     newRegValue = CapSense_2_CMOD_CONNECTION_REG;
1460:.\Generated_Source\PSoC4/CapSense_2.c ****     newRegValue &= ~(CapSense_2_CSD_CMOD_CONNECTION_MASK);
1461:.\Generated_Source\PSoC4/CapSense_2.c ****     newRegValue |= CapSense_2_CSD_CMOD_TO_AMUXBUS_A;
1462:.\Generated_Source\PSoC4/CapSense_2.c ****     CapSense_2_CMOD_CONNECTION_REG = newRegValue;
1463:.\Generated_Source\PSoC4/CapSense_2.c **** 
1464:.\Generated_Source\PSoC4/CapSense_2.c ****     newRegValue = CapSense_2_CMOD_PORT_PC_REG;
1465:.\Generated_Source\PSoC4/CapSense_2.c ****     newRegValue &= ~(CapSense_2_CSD_CMOD_PC_MASK);
1466:.\Generated_Source\PSoC4/CapSense_2.c ****     newRegValue |= CapSense_2_CMOD_PC_HIGH_Z_MODE;
1467:.\Generated_Source\PSoC4/CapSense_2.c ****     CapSense_2_CMOD_PORT_PC_REG = newRegValue;
1468:.\Generated_Source\PSoC4/CapSense_2.c **** #endif /* (CapSense_2_CMOD_PREGARGE_OPTION == CapSense_2__CAPPRIOBUF) */
1469:.\Generated_Source\PSoC4/CapSense_2.c **** 
1470:.\Generated_Source\PSoC4/CapSense_2.c ****     /* Disconnect Vref Buffer from AMUX */
1471:.\Generated_Source\PSoC4/CapSense_2.c ****     newRegValue = CapSense_2_CSD_CFG_REG;
 749              		.loc 1 1471 0
 750 0064 114E     		ldr	r6, .L46+20
 751 0066 3568     		ldr	r5, [r6]
 752              	.LVL93:
1472:.\Generated_Source\PSoC4/CapSense_2.c ****     newRegValue &= ~(CapSense_2_PRECHARGE_CONFIG_MASK);
 753              		.loc 1 1472 0
 754 0068 114B     		ldr	r3, .L46+24
 755 006a 1D40     		and	r5, r3
 756              	.LVL94:
1473:.\Generated_Source\PSoC4/CapSense_2.c ****     newRegValue |= CapSense_2_CTANK_PRECHARGE_CONFIG;
 757              		.loc 1 1473 0
 758 006c 114B     		ldr	r3, .L46+28
 759 006e 1D43     		orr	r5, r3
 760              	.LVL95:
1474:.\Generated_Source\PSoC4/CapSense_2.c **** 
1475:.\Generated_Source\PSoC4/CapSense_2.c ****     CyIntEnable(CapSense_2_ISR_NUMBER);
 761              		.loc 1 1475 0
 762 0070 1120     		mov	r0, #17
 763 0072 FFF7FEFF 		bl	CyIntEnable
 764              	.LVL96:
1476:.\Generated_Source\PSoC4/CapSense_2.c **** 
1477:.\Generated_Source\PSoC4/CapSense_2.c ****     /* Enable Sensor */
1478:.\Generated_Source\PSoC4/CapSense_2.c ****     CapSense_2_EnableScanSlot(sensor);
 765              		.loc 1 1478 0
 766 0076 201C     		mov	r0, r4
 767 0078 FFF7FEFF 		bl	CapSense_2_EnableSensor
 768              	.LVL97:
1479:.\Generated_Source\PSoC4/CapSense_2.c **** 
1480:.\Generated_Source\PSoC4/CapSense_2.c ****     interruptState = CyEnterCriticalSection();
 769              		.loc 1 1480 0
 770 007c FFF7FEFF 		bl	CyEnterCriticalSection
 771              	.LVL98:
 772 0080 041C     		mov	r4, r0
 773              	.LVL99:
1481:.\Generated_Source\PSoC4/CapSense_2.c ****     CapSense_2_CSD_CFG_REG = newRegValue;
 774              		.loc 1 1481 0
 775 0082 3560     		str	r5, [r6]
1482:.\Generated_Source\PSoC4/CapSense_2.c **** 
1483:.\Generated_Source\PSoC4/CapSense_2.c ****     /* `#START CapSense_2_PreSettlingDelay_Debug` */
1484:.\Generated_Source\PSoC4/CapSense_2.c **** 
ARM GAS  C:\Users\glenn\AppData\Local\Temp\ccPcZrmN.s 			page 41


1485:.\Generated_Source\PSoC4/CapSense_2.c ****     /* `#END` */
1486:.\Generated_Source\PSoC4/CapSense_2.c **** 
1487:.\Generated_Source\PSoC4/CapSense_2.c **** #ifdef CapSense_2_PRE_SCAN_PRE_SETTLING_DELAY_DEBUG_CALLBACK
1488:.\Generated_Source\PSoC4/CapSense_2.c ****     CapSense_2_PreScan_Pre_SettlingDelay_Debug_Callback();
1489:.\Generated_Source\PSoC4/CapSense_2.c **** #endif /* CapSense_2_PRE_SCAN_PRE_SETTLING_DELAY_DEBUG_CALLBACK */
1490:.\Generated_Source\PSoC4/CapSense_2.c **** 
1491:.\Generated_Source\PSoC4/CapSense_2.c ****     CyDelayCycles(CapSense_2_GLITCH_ELIMINATION_CYCLES);
 776              		.loc 1 1491 0
 777 0084 0020     		mov	r0, #0
 778 0086 FFF7FEFF 		bl	CyDelayCycles
 779              	.LVL100:
1492:.\Generated_Source\PSoC4/CapSense_2.c **** 
1493:.\Generated_Source\PSoC4/CapSense_2.c ****     /* `#START CapSense_2_PreScan_Debug` */
1494:.\Generated_Source\PSoC4/CapSense_2.c **** 
1495:.\Generated_Source\PSoC4/CapSense_2.c ****     /* `#END` */
1496:.\Generated_Source\PSoC4/CapSense_2.c **** 
1497:.\Generated_Source\PSoC4/CapSense_2.c **** #ifdef CapSense_2_PRE_SCAN_DEBUG_CALLBACK
1498:.\Generated_Source\PSoC4/CapSense_2.c ****     CapSense_2_PreScan_Debug_Callback();
1499:.\Generated_Source\PSoC4/CapSense_2.c **** #endif /* CapSense_2_PRE_SCAN_DEBUG_CALLBACK */
1500:.\Generated_Source\PSoC4/CapSense_2.c **** 
1501:.\Generated_Source\PSoC4/CapSense_2.c ****     CapSense_2_CSD_CNT_REG = counterResolution;
 780              		.loc 1 1501 0
 781 008a 0B4A     		ldr	r2, .L46+32
 782 008c 024B     		ldr	r3, .L46
 783 008e 1A60     		str	r2, [r3]
1502:.\Generated_Source\PSoC4/CapSense_2.c ****     CyExitCriticalSection(interruptState);
 784              		.loc 1 1502 0
 785 0090 201C     		mov	r0, r4
 786 0092 FFF7FEFF 		bl	CyExitCriticalSection
 787              	.LVL101:
1503:.\Generated_Source\PSoC4/CapSense_2.c **** }
 788              		.loc 1 1503 0
 789              		@ sp needed
 790              	.LVL102:
 791              	.LVL103:
 792 0096 70BD     		pop	{r4, r5, r6, pc}
 793              	.L47:
 794              		.align	2
 795              	.L46:
 796 0098 0C002840 		.word	1076363276
 797 009c 14002840 		.word	1076363284
 798 00a0 08002840 		.word	1076363272
 799 00a4 00FF80FF 		.word	-8323328
 800 00a8 50005000 		.word	5242960
 801 00ac 04002840 		.word	1076363268
 802 00b0 FF1FDFFF 		.word	-2154497
 803 00b4 20002000 		.word	2097184
 804 00b8 0000FFFF 		.word	-65536
 805              		.cfi_endproc
 806              	.LFE53:
 807              		.size	CapSense_2_PreScan, .-CapSense_2_PreScan
 808              		.section	.text.CapSense_2_ScanSensor,"ax",%progbits
 809              		.align	2
 810              		.global	CapSense_2_ScanSensor
 811              		.code	16
 812              		.thumb_func
 813              		.type	CapSense_2_ScanSensor, %function
ARM GAS  C:\Users\glenn\AppData\Local\Temp\ccPcZrmN.s 			page 42


 814              	CapSense_2_ScanSensor:
 815              	.LFB41:
 551:.\Generated_Source\PSoC4/CapSense_2.c ****     /* Clears status/control variable and set sensorIndex */
 816              		.loc 1 551 0
 817              		.cfi_startproc
 818              	.LVL104:
 819 0000 08B5     		push	{r3, lr}
 820              		.cfi_def_cfa_offset 8
 821              		.cfi_offset 3, -8
 822              		.cfi_offset 14, -4
 553:.\Generated_Source\PSoC4/CapSense_2.c ****     CapSense_2_sensorIndex = (uint8)sensor;
 823              		.loc 1 553 0
 824 0002 054B     		ldr	r3, .L49
 825 0004 0022     		mov	r2, #0
 826 0006 1A70     		strb	r2, [r3]
 554:.\Generated_Source\PSoC4/CapSense_2.c **** 
 827              		.loc 1 554 0
 828 0008 C2B2     		uxtb	r2, r0
 829 000a 9A71     		strb	r2, [r3, #6]
 557:.\Generated_Source\PSoC4/CapSense_2.c ****     CapSense_2_PreScan(sensor);
 830              		.loc 1 557 0
 831 000c 8122     		mov	r2, #129
 832 000e 1A70     		strb	r2, [r3]
 558:.\Generated_Source\PSoC4/CapSense_2.c **** }
 833              		.loc 1 558 0
 834 0010 FFF7FEFF 		bl	CapSense_2_PreScan
 835              	.LVL105:
 559:.\Generated_Source\PSoC4/CapSense_2.c **** 
 836              		.loc 1 559 0
 837              		@ sp needed
 838 0014 08BD     		pop	{r3, pc}
 839              	.L50:
 840 0016 C046     		.align	2
 841              	.L49:
 842 0018 00000000 		.word	.LANCHOR0
 843              		.cfi_endproc
 844              	.LFE41:
 845              		.size	CapSense_2_ScanSensor, .-CapSense_2_ScanSensor
 846              		.section	.text.CapSense_2_PostScan,"ax",%progbits
 847              		.align	2
 848              		.global	CapSense_2_PostScan
 849              		.code	16
 850              		.thumb_func
 851              		.type	CapSense_2_PostScan, %function
 852              	CapSense_2_PostScan:
 853              	.LFB54:
1504:.\Generated_Source\PSoC4/CapSense_2.c **** 
1505:.\Generated_Source\PSoC4/CapSense_2.c **** 
1506:.\Generated_Source\PSoC4/CapSense_2.c **** /*******************************************************************************
1507:.\Generated_Source\PSoC4/CapSense_2.c **** * Function Name: CapSense_2_PostScan
1508:.\Generated_Source\PSoC4/CapSense_2.c **** ********************************************************************************
1509:.\Generated_Source\PSoC4/CapSense_2.c **** *
1510:.\Generated_Source\PSoC4/CapSense_2.c **** * Summary:
1511:.\Generated_Source\PSoC4/CapSense_2.c **** *  Stores the results of measurement in the CapSense_2_sensorRaw[] array,
1512:.\Generated_Source\PSoC4/CapSense_2.c **** *  sets the scanning sensor in the non-sampling state, turns off Idac(Current Source IDAC),
1513:.\Generated_Source\PSoC4/CapSense_2.c **** *  disconnects the IDAC(Sink mode), and applies Vref on AMUX.
1514:.\Generated_Source\PSoC4/CapSense_2.c **** *
ARM GAS  C:\Users\glenn\AppData\Local\Temp\ccPcZrmN.s 			page 43


1515:.\Generated_Source\PSoC4/CapSense_2.c **** * Parameters:
1516:.\Generated_Source\PSoC4/CapSense_2.c **** *  sensor:  Sensor number.
1517:.\Generated_Source\PSoC4/CapSense_2.c **** *
1518:.\Generated_Source\PSoC4/CapSense_2.c **** * Return:
1519:.\Generated_Source\PSoC4/CapSense_2.c **** *  None
1520:.\Generated_Source\PSoC4/CapSense_2.c **** *
1521:.\Generated_Source\PSoC4/CapSense_2.c **** * Global Variables:
1522:.\Generated_Source\PSoC4/CapSense_2.c **** *  CapSense_2_sensorRaw[] - used to store sensors raw data.
1523:.\Generated_Source\PSoC4/CapSense_2.c **** *
1524:.\Generated_Source\PSoC4/CapSense_2.c **** * Side Effects:
1525:.\Generated_Source\PSoC4/CapSense_2.c **** *  None
1526:.\Generated_Source\PSoC4/CapSense_2.c **** *
1527:.\Generated_Source\PSoC4/CapSense_2.c **** *******************************************************************************/
1528:.\Generated_Source\PSoC4/CapSense_2.c **** void CapSense_2_PostScan(uint32 sensor)
1529:.\Generated_Source\PSoC4/CapSense_2.c **** {
 854              		.loc 1 1529 0
 855              		.cfi_startproc
 856              	.LVL106:
 857 0000 08B5     		push	{r3, lr}
 858              		.cfi_def_cfa_offset 8
 859              		.cfi_offset 3, -8
 860              		.cfi_offset 14, -4
1530:.\Generated_Source\PSoC4/CapSense_2.c ****     uint32 newRegValue;
1531:.\Generated_Source\PSoC4/CapSense_2.c **** #if ((CapSense_2_TUNING_METHOD == CapSense_2__TUNING_AUTO) &&\
1532:.\Generated_Source\PSoC4/CapSense_2.c ****      (0 != CapSense_2_IS_OVERSAMPLING_EN))
1533:.\Generated_Source\PSoC4/CapSense_2.c ****     uint32 oversamplingFactor;
1534:.\Generated_Source\PSoC4/CapSense_2.c ****     uint32 widget;
1535:.\Generated_Source\PSoC4/CapSense_2.c **** #endif /* ((CapSense_2_TUNING_METHOD == CapSense_2__TUNING_AUTO) &&\
1536:.\Generated_Source\PSoC4/CapSense_2.c ****            (0 != CapSense_2_IS_OVERSAMPLING_EN)) */
1537:.\Generated_Source\PSoC4/CapSense_2.c **** 
1538:.\Generated_Source\PSoC4/CapSense_2.c ****     /* `#START CapSense_2_PostScan_Debug` */
1539:.\Generated_Source\PSoC4/CapSense_2.c **** 
1540:.\Generated_Source\PSoC4/CapSense_2.c ****     /* `#END` */
1541:.\Generated_Source\PSoC4/CapSense_2.c **** 
1542:.\Generated_Source\PSoC4/CapSense_2.c **** #ifdef CapSense_2_POST_SCAN_DEBUG_CALLBACK
1543:.\Generated_Source\PSoC4/CapSense_2.c ****     CapSense_2_PostScan_Debug_Callback();
1544:.\Generated_Source\PSoC4/CapSense_2.c **** #endif /* CapSense_2_POST_SCAN_DEBUG_Callback */
1545:.\Generated_Source\PSoC4/CapSense_2.c **** 
1546:.\Generated_Source\PSoC4/CapSense_2.c ****     /* Read SlotResult from Raw Counter */
1547:.\Generated_Source\PSoC4/CapSense_2.c ****     CapSense_2_sensorRaw[sensor]  = (uint16)CapSense_2_CSD_CNT_REG;
 861              		.loc 1 1547 0
 862 0002 0E4B     		ldr	r3, .L52
 863 0004 1A68     		ldr	r2, [r3]
 864 0006 4300     		lsl	r3, r0, #1
 865 0008 0D49     		ldr	r1, .L52+4
 866 000a CB18     		add	r3, r1, r3
 867 000c 9A80     		strh	r2, [r3, #4]
1548:.\Generated_Source\PSoC4/CapSense_2.c **** 
1549:.\Generated_Source\PSoC4/CapSense_2.c **** #if ((CapSense_2_TUNING_METHOD == CapSense_2__TUNING_AUTO) &&\
1550:.\Generated_Source\PSoC4/CapSense_2.c ****      (0 != CapSense_2_IS_OVERSAMPLING_EN))
1551:.\Generated_Source\PSoC4/CapSense_2.c ****     widget = CapSense_2_widgetNumber[sensor];
1552:.\Generated_Source\PSoC4/CapSense_2.c ****     if(CapSense_2_widgetResolution[widget] < CapSense_2_RESOLUTION_16_BITS)
1553:.\Generated_Source\PSoC4/CapSense_2.c ****     {
1554:.\Generated_Source\PSoC4/CapSense_2.c ****         oversamplingFactor = CapSense_2_GetBitValue(CapSense_2_scanSpeedTbl, sensor);
1555:.\Generated_Source\PSoC4/CapSense_2.c ****         CapSense_2_sensorRaw[sensor] >>= oversamplingFactor;
1556:.\Generated_Source\PSoC4/CapSense_2.c ****     }
1557:.\Generated_Source\PSoC4/CapSense_2.c **** #endif /* ((CapSense_2_TUNING_METHOD == CapSense_2__TUNING_AUTO) &&\
ARM GAS  C:\Users\glenn\AppData\Local\Temp\ccPcZrmN.s 			page 44


1558:.\Generated_Source\PSoC4/CapSense_2.c ****            (0 != CapSense_2_IS_OVERSAMPLING_EN)) */
1559:.\Generated_Source\PSoC4/CapSense_2.c **** 
1560:.\Generated_Source\PSoC4/CapSense_2.c ****     /* Disable Sensor */
1561:.\Generated_Source\PSoC4/CapSense_2.c ****     CapSense_2_DisableScanSlot(sensor);
 868              		.loc 1 1561 0
 869 000e FFF7FEFF 		bl	CapSense_2_DisableSensor
 870              	.LVL107:
1562:.\Generated_Source\PSoC4/CapSense_2.c **** 
1563:.\Generated_Source\PSoC4/CapSense_2.c ****     CyIntDisable(CapSense_2_ISR_NUMBER);
 871              		.loc 1 1563 0
 872 0012 1120     		mov	r0, #17
 873 0014 FFF7FEFF 		bl	CyIntDisable
 874              	.LVL108:
1564:.\Generated_Source\PSoC4/CapSense_2.c **** 
1565:.\Generated_Source\PSoC4/CapSense_2.c **** #if(CapSense_2_CMOD_PREGARGE_OPTION == CapSense_2__CAPPRIOBUF)
1566:.\Generated_Source\PSoC4/CapSense_2.c ****     newRegValue = CapSense_2_CMOD_CONNECTION_REG;
1567:.\Generated_Source\PSoC4/CapSense_2.c ****     newRegValue &= ~(CapSense_2_CSD_CMOD_CONNECTION_MASK);
1568:.\Generated_Source\PSoC4/CapSense_2.c ****     newRegValue |= CapSense_2_CSD_CMOD_TO_AMUXBUS_B;
1569:.\Generated_Source\PSoC4/CapSense_2.c ****     CapSense_2_CMOD_CONNECTION_REG = newRegValue;
1570:.\Generated_Source\PSoC4/CapSense_2.c **** 
1571:.\Generated_Source\PSoC4/CapSense_2.c ****     newRegValue = CapSense_2_CMOD_PORT_PC_REG;
1572:.\Generated_Source\PSoC4/CapSense_2.c ****     newRegValue &= ~(CapSense_2_CSD_CMOD_PC_MASK);
1573:.\Generated_Source\PSoC4/CapSense_2.c ****     newRegValue |= CapSense_2_CMOD_PC_STRONG_MODE;
1574:.\Generated_Source\PSoC4/CapSense_2.c ****     CapSense_2_CMOD_PORT_PC_REG = newRegValue;
1575:.\Generated_Source\PSoC4/CapSense_2.c **** 
1576:.\Generated_Source\PSoC4/CapSense_2.c ****     newRegValue = CapSense_2_CMOD_PORT_DR_REG;
1577:.\Generated_Source\PSoC4/CapSense_2.c ****     newRegValue &= ~(CapSense_2_CMOD_DR_MASK);
1578:.\Generated_Source\PSoC4/CapSense_2.c ****     newRegValue |= CapSense_2_CMOD_DR_CONFIG;
1579:.\Generated_Source\PSoC4/CapSense_2.c ****     CapSense_2_CMOD_PORT_DR_REG = newRegValue;
1580:.\Generated_Source\PSoC4/CapSense_2.c **** #endif /* (CapSense_2_CMOD_PREGARGE_OPTION == CapSense_2__CAPPRIOBUF) */
1581:.\Generated_Source\PSoC4/CapSense_2.c **** 
1582:.\Generated_Source\PSoC4/CapSense_2.c ****     /* Connect Vref Buffer to AMUX bus  */
1583:.\Generated_Source\PSoC4/CapSense_2.c ****     newRegValue = CapSense_2_CSD_CFG_REG;
 875              		.loc 1 1583 0
 876 0018 0A4A     		ldr	r2, .L52+8
 877 001a 1168     		ldr	r1, [r2]
 878              	.LVL109:
1584:.\Generated_Source\PSoC4/CapSense_2.c ****     newRegValue &= ~(CapSense_2_PRECHARGE_CONFIG_MASK);
 879              		.loc 1 1584 0
 880 001c 0A4B     		ldr	r3, .L52+12
 881 001e 0B40     		and	r3, r1
 882              	.LVL110:
1585:.\Generated_Source\PSoC4/CapSense_2.c ****     newRegValue |= CapSense_2_CMOD_PRECHARGE_CONFIG;
 883              		.loc 1 1585 0
 884 0020 A021     		mov	r1, #160
 885 0022 0902     		lsl	r1, r1, #8
 886 0024 0B43     		orr	r3, r1
 887              	.LVL111:
1586:.\Generated_Source\PSoC4/CapSense_2.c ****     CapSense_2_CSD_CFG_REG = newRegValue;
 888              		.loc 1 1586 0
 889 0026 1360     		str	r3, [r2]
1587:.\Generated_Source\PSoC4/CapSense_2.c **** 
1588:.\Generated_Source\PSoC4/CapSense_2.c ****     /* Set Idac Value = 0 */
1589:.\Generated_Source\PSoC4/CapSense_2.c **** #if (CapSense_2_IDAC_CNT == 1u)
1590:.\Generated_Source\PSoC4/CapSense_2.c ****     CapSense_2_CSD_IDAC_REG &= ~(CapSense_2_CSD_IDAC1_DATA_MASK);
1591:.\Generated_Source\PSoC4/CapSense_2.c **** #else
1592:.\Generated_Source\PSoC4/CapSense_2.c ****     CapSense_2_CSD_IDAC_REG &= ~(CapSense_2_CSD_IDAC1_DATA_MASK | CapSense_2_CSD_IDAC2_DATA_MASK);
ARM GAS  C:\Users\glenn\AppData\Local\Temp\ccPcZrmN.s 			page 45


 890              		.loc 1 1592 0
 891 0028 084A     		ldr	r2, .L52+16
 892 002a 1168     		ldr	r1, [r2]
 893 002c 084B     		ldr	r3, .L52+20
 894              	.LVL112:
 895 002e 0B40     		and	r3, r1
 896 0030 1360     		str	r3, [r2]
 897              	.LVL113:
1593:.\Generated_Source\PSoC4/CapSense_2.c **** #endif /* (CapSense_2_IDAC_CNT == 1u) */
1594:.\Generated_Source\PSoC4/CapSense_2.c **** 
1595:.\Generated_Source\PSoC4/CapSense_2.c ****     CyIntEnable(CapSense_2_ISR_NUMBER);
 898              		.loc 1 1595 0
 899 0032 1120     		mov	r0, #17
 900 0034 FFF7FEFF 		bl	CyIntEnable
 901              	.LVL114:
1596:.\Generated_Source\PSoC4/CapSense_2.c **** }
 902              		.loc 1 1596 0
 903              		@ sp needed
 904 0038 08BD     		pop	{r3, pc}
 905              	.L53:
 906 003a C046     		.align	2
 907              	.L52:
 908 003c 0C002840 		.word	1076363276
 909 0040 00000000 		.word	.LANCHOR0
 910 0044 04002840 		.word	1076363268
 911 0048 FF1FDFFF 		.word	-2154497
 912 004c 08002840 		.word	1076363272
 913 0050 00FF80FF 		.word	-8323328
 914              		.cfi_endproc
 915              	.LFE54:
 916              		.size	CapSense_2_PostScan, .-CapSense_2_PostScan
 917              		.section	.text.CapSense_2_EnableShieldElectrode,"ax",%progbits
 918              		.align	2
 919              		.global	CapSense_2_EnableShieldElectrode
 920              		.code	16
 921              		.thumb_func
 922              		.type	CapSense_2_EnableShieldElectrode, %function
 923              	CapSense_2_EnableShieldElectrode:
 924              	.LFB55:
1597:.\Generated_Source\PSoC4/CapSense_2.c **** 
1598:.\Generated_Source\PSoC4/CapSense_2.c **** 
1599:.\Generated_Source\PSoC4/CapSense_2.c **** /*******************************************************************************
1600:.\Generated_Source\PSoC4/CapSense_2.c **** * Function Name: CapSense_2_EnableShieldElectrode
1601:.\Generated_Source\PSoC4/CapSense_2.c **** ********************************************************************************
1602:.\Generated_Source\PSoC4/CapSense_2.c **** *
1603:.\Generated_Source\PSoC4/CapSense_2.c **** * Summary:
1604:.\Generated_Source\PSoC4/CapSense_2.c **** *  This API enables or disables the shield electrode on a specified port pin.
1605:.\Generated_Source\PSoC4/CapSense_2.c **** *
1606:.\Generated_Source\PSoC4/CapSense_2.c **** * Parameters:
1607:.\Generated_Source\PSoC4/CapSense_2.c **** *  portNumber: contains the shield electrode port number (0, 1, 2).
1608:.\Generated_Source\PSoC4/CapSense_2.c **** *  pinNumber: contains the shield electrode pin number (0, 1, 2, ... , 7).
1609:.\Generated_Source\PSoC4/CapSense_2.c **** *
1610:.\Generated_Source\PSoC4/CapSense_2.c **** * Return:
1611:.\Generated_Source\PSoC4/CapSense_2.c **** *  None
1612:.\Generated_Source\PSoC4/CapSense_2.c **** *
1613:.\Generated_Source\PSoC4/CapSense_2.c **** * Global Variables:
1614:.\Generated_Source\PSoC4/CapSense_2.c **** *  CapSense_2_prtCfgTbl[] - Contains pointers to the port config registers for each port.
ARM GAS  C:\Users\glenn\AppData\Local\Temp\ccPcZrmN.s 			page 46


1615:.\Generated_Source\PSoC4/CapSense_2.c **** *  CapSense_2_prtSelTbl[] - Contains pointers to the HSIOM registers for each port.
1616:.\Generated_Source\PSoC4/CapSense_2.c **** *
1617:.\Generated_Source\PSoC4/CapSense_2.c **** * Side Effects:
1618:.\Generated_Source\PSoC4/CapSense_2.c **** *  None
1619:.\Generated_Source\PSoC4/CapSense_2.c **** *
1620:.\Generated_Source\PSoC4/CapSense_2.c **** *******************************************************************************/
1621:.\Generated_Source\PSoC4/CapSense_2.c **** void CapSense_2_EnableShieldElectrode(uint32 pinNumber, uint32 portNumber)
1622:.\Generated_Source\PSoC4/CapSense_2.c **** {
 925              		.loc 1 1622 0
 926              		.cfi_startproc
 927              	.LVL115:
 928 0000 70B5     		push	{r4, r5, r6, lr}
 929              		.cfi_def_cfa_offset 16
 930              		.cfi_offset 4, -16
 931              		.cfi_offset 5, -12
 932              		.cfi_offset 6, -8
 933              		.cfi_offset 14, -4
1623:.\Generated_Source\PSoC4/CapSense_2.c ****     uint32 newRegValue;
1624:.\Generated_Source\PSoC4/CapSense_2.c **** 
1625:.\Generated_Source\PSoC4/CapSense_2.c ****     *CapSense_2_prtCfgTbl[portNumber] &= ~(CapSense_2_CSD_PIN_MODE_MASK << (pinNumber * CapSense_2_
 934              		.loc 1 1625 0
 935 0002 0B4D     		ldr	r5, .L55
 936 0004 8900     		lsl	r1, r1, #2
 937              	.LVL116:
 938 0006 4E59     		ldr	r6, [r1, r5]
 939 0008 3368     		ldr	r3, [r6]
 940 000a 4200     		lsl	r2, r0, #1
 941 000c 1218     		add	r2, r2, r0
 942 000e 0724     		mov	r4, #7
 943 0010 9440     		lsl	r4, r4, r2
 944 0012 A343     		bic	r3, r4
 945 0014 3360     		str	r3, [r6]
1626:.\Generated_Source\PSoC4/CapSense_2.c ****     newRegValue = *CapSense_2_prtSelTbl[portNumber];
 946              		.loc 1 1626 0
 947 0016 6918     		add	r1, r5, r1
 948 0018 096A     		ldr	r1, [r1, #32]
 949 001a 0B68     		ldr	r3, [r1]
 950              	.LVL117:
1627:.\Generated_Source\PSoC4/CapSense_2.c ****     newRegValue &= ~(CapSense_2_CSD_HSIOM_MASK << (pinNumber * CapSense_2_HSIOM_PIN_CFG_SIZE));
 951              		.loc 1 1627 0
 952 001c 8000     		lsl	r0, r0, #2
 953              	.LVL118:
 954 001e 0F22     		mov	r2, #15
 955 0020 8240     		lsl	r2, r2, r0
 956 0022 9343     		bic	r3, r2
 957              	.LVL119:
1628:.\Generated_Source\PSoC4/CapSense_2.c ****     newRegValue |= (CapSense_2_CSD_SHIELD_PORT_MODE << (pinNumber * CapSense_2_HSIOM_PIN_CFG_SIZE))
 958              		.loc 1 1628 0
 959 0024 0522     		mov	r2, #5
 960 0026 8240     		lsl	r2, r2, r0
 961 0028 101C     		mov	r0, r2
 962 002a 1843     		orr	r0, r3
 963              	.LVL120:
1629:.\Generated_Source\PSoC4/CapSense_2.c ****     *CapSense_2_prtSelTbl[portNumber] = newRegValue;
 964              		.loc 1 1629 0
 965 002c 0860     		str	r0, [r1]
1630:.\Generated_Source\PSoC4/CapSense_2.c **** }
ARM GAS  C:\Users\glenn\AppData\Local\Temp\ccPcZrmN.s 			page 47


 966              		.loc 1 1630 0
 967              		@ sp needed
 968 002e 70BD     		pop	{r4, r5, r6, pc}
 969              	.L56:
 970              		.align	2
 971              	.L55:
 972 0030 00000000 		.word	.LANCHOR1
 973              		.cfi_endproc
 974              	.LFE55:
 975              		.size	CapSense_2_EnableShieldElectrode, .-CapSense_2_EnableShieldElectrode
 976              		.section	.text.CapSense_2_SetShieldDelay,"ax",%progbits
 977              		.align	2
 978              		.global	CapSense_2_SetShieldDelay
 979              		.code	16
 980              		.thumb_func
 981              		.type	CapSense_2_SetShieldDelay, %function
 982              	CapSense_2_SetShieldDelay:
 983              	.LFB56:
1631:.\Generated_Source\PSoC4/CapSense_2.c **** 
1632:.\Generated_Source\PSoC4/CapSense_2.c **** 
1633:.\Generated_Source\PSoC4/CapSense_2.c **** /*******************************************************************************
1634:.\Generated_Source\PSoC4/CapSense_2.c **** * Function Name: CapSense_2_SetShieldDelay
1635:.\Generated_Source\PSoC4/CapSense_2.c **** ********************************************************************************
1636:.\Generated_Source\PSoC4/CapSense_2.c **** *
1637:.\Generated_Source\PSoC4/CapSense_2.c **** * Summary:
1638:.\Generated_Source\PSoC4/CapSense_2.c **** *  This API sets a shield delay.
1639:.\Generated_Source\PSoC4/CapSense_2.c **** *
1640:.\Generated_Source\PSoC4/CapSense_2.c **** * Parameters:
1641:.\Generated_Source\PSoC4/CapSense_2.c **** *  delay:  shield delay value:
1642:.\Generated_Source\PSoC4/CapSense_2.c **** *                               0 - no delay
1643:.\Generated_Source\PSoC4/CapSense_2.c **** *                               1 - 1 cycle delay
1644:.\Generated_Source\PSoC4/CapSense_2.c **** *                               2 - 2 cycles delay
1645:.\Generated_Source\PSoC4/CapSense_2.c **** *
1646:.\Generated_Source\PSoC4/CapSense_2.c **** * Return:
1647:.\Generated_Source\PSoC4/CapSense_2.c **** *  None
1648:.\Generated_Source\PSoC4/CapSense_2.c **** *
1649:.\Generated_Source\PSoC4/CapSense_2.c **** * Global Variables:
1650:.\Generated_Source\PSoC4/CapSense_2.c **** *  None
1651:.\Generated_Source\PSoC4/CapSense_2.c **** *
1652:.\Generated_Source\PSoC4/CapSense_2.c **** * Side Effects:
1653:.\Generated_Source\PSoC4/CapSense_2.c **** *  None
1654:.\Generated_Source\PSoC4/CapSense_2.c **** *
1655:.\Generated_Source\PSoC4/CapSense_2.c **** *******************************************************************************/
1656:.\Generated_Source\PSoC4/CapSense_2.c **** void CapSense_2_SetShieldDelay(uint32 delay)
1657:.\Generated_Source\PSoC4/CapSense_2.c **** {
 984              		.loc 1 1657 0
 985              		.cfi_startproc
 986              	.LVL121:
1658:.\Generated_Source\PSoC4/CapSense_2.c ****     uint32 newRegValue;
1659:.\Generated_Source\PSoC4/CapSense_2.c **** 
1660:.\Generated_Source\PSoC4/CapSense_2.c ****     delay &= 0x03u;
 987              		.loc 1 1660 0
 988 0000 0323     		mov	r3, #3
 989 0002 1840     		and	r0, r3
 990              	.LVL122:
1661:.\Generated_Source\PSoC4/CapSense_2.c **** 
1662:.\Generated_Source\PSoC4/CapSense_2.c ****     newRegValue = CapSense_2_CSD_CFG_REG;
ARM GAS  C:\Users\glenn\AppData\Local\Temp\ccPcZrmN.s 			page 48


 991              		.loc 1 1662 0
 992 0004 024B     		ldr	r3, .L58
 993 0006 1A68     		ldr	r2, [r3]
 994              	.LVL123:
1663:.\Generated_Source\PSoC4/CapSense_2.c ****     newRegValue &= (uint32)(~(uint32)CapSense_2_SHIELD_DELAY);
1664:.\Generated_Source\PSoC4/CapSense_2.c ****     newRegValue |= (delay << CapSense_2_CSD_CFG_SHIELD_DELAY_POS);
 995              		.loc 1 1664 0
 996 0008 4002     		lsl	r0, r0, #9
 997              	.LVL124:
 998 000a 1043     		orr	r0, r2
 999              	.LVL125:
1665:.\Generated_Source\PSoC4/CapSense_2.c ****     CapSense_2_CSD_CFG_REG = newRegValue;
 1000              		.loc 1 1665 0
 1001 000c 1860     		str	r0, [r3]
1666:.\Generated_Source\PSoC4/CapSense_2.c **** }
 1002              		.loc 1 1666 0
 1003              		@ sp needed
 1004 000e 7047     		bx	lr
 1005              	.L59:
 1006              		.align	2
 1007              	.L58:
 1008 0010 04002840 		.word	1076363268
 1009              		.cfi_endproc
 1010              	.LFE56:
 1011              		.size	CapSense_2_SetShieldDelay, .-CapSense_2_SetShieldDelay
 1012              		.section	.text.CapSense_2_ReadCurrentScanningSensor,"ax",%progbits
 1013              		.align	2
 1014              		.global	CapSense_2_ReadCurrentScanningSensor
 1015              		.code	16
 1016              		.thumb_func
 1017              		.type	CapSense_2_ReadCurrentScanningSensor, %function
 1018              	CapSense_2_ReadCurrentScanningSensor:
 1019              	.LFB57:
1667:.\Generated_Source\PSoC4/CapSense_2.c **** 
1668:.\Generated_Source\PSoC4/CapSense_2.c **** 
1669:.\Generated_Source\PSoC4/CapSense_2.c **** /*******************************************************************************
1670:.\Generated_Source\PSoC4/CapSense_2.c **** * Function Name: CapSense_2_ReadCurrentScanningSensor
1671:.\Generated_Source\PSoC4/CapSense_2.c **** ********************************************************************************
1672:.\Generated_Source\PSoC4/CapSense_2.c **** *
1673:.\Generated_Source\PSoC4/CapSense_2.c **** * Summary:
1674:.\Generated_Source\PSoC4/CapSense_2.c **** *  This API returns scanning sensor number when sensor scan is in progress.
1675:.\Generated_Source\PSoC4/CapSense_2.c **** *  When sensor scan is completed the API returns
1676:.\Generated_Source\PSoC4/CapSense_2.c **** *  $INSTANCE_NAME`_NOT_SENSOR (0xFFFFFFFF) (when no sensor is scanned).
1677:.\Generated_Source\PSoC4/CapSense_2.c **** *
1678:.\Generated_Source\PSoC4/CapSense_2.c **** * Parameters:
1679:.\Generated_Source\PSoC4/CapSense_2.c **** *   None.
1680:.\Generated_Source\PSoC4/CapSense_2.c **** *
1681:.\Generated_Source\PSoC4/CapSense_2.c **** * Return:
1682:.\Generated_Source\PSoC4/CapSense_2.c **** *  Returns Sensor number if sensor is being scanned and
1683:.\Generated_Source\PSoC4/CapSense_2.c **** *  $INSTANCE_NAME`_NOT_SENSOR (0xFFFFFFFF) if scanning is complete.
1684:.\Generated_Source\PSoC4/CapSense_2.c **** *
1685:.\Generated_Source\PSoC4/CapSense_2.c **** * Global Variables:
1686:.\Generated_Source\PSoC4/CapSense_2.c **** *  CapSense_2_sensorIndex - the sensor number is being scanned.
1687:.\Generated_Source\PSoC4/CapSense_2.c **** *
1688:.\Generated_Source\PSoC4/CapSense_2.c **** * Side Effects:
1689:.\Generated_Source\PSoC4/CapSense_2.c **** *  None
1690:.\Generated_Source\PSoC4/CapSense_2.c **** *
ARM GAS  C:\Users\glenn\AppData\Local\Temp\ccPcZrmN.s 			page 49


1691:.\Generated_Source\PSoC4/CapSense_2.c **** *******************************************************************************/
1692:.\Generated_Source\PSoC4/CapSense_2.c **** uint32 CapSense_2_ReadCurrentScanningSensor(void)
1693:.\Generated_Source\PSoC4/CapSense_2.c **** {
 1020              		.loc 1 1693 0
 1021              		.cfi_startproc
1694:.\Generated_Source\PSoC4/CapSense_2.c ****     return ((uint32)(( 0u != (CapSense_2_csdStatusVar & CapSense_2_SW_STS_BUSY)) ?
 1022              		.loc 1 1694 0
 1023 0000 054B     		ldr	r3, .L63
 1024 0002 1B78     		ldrb	r3, [r3]
 1025 0004 DB07     		lsl	r3, r3, #31
 1026 0006 03D5     		bpl	.L62
 1027              		.loc 1 1694 0 is_stmt 0 discriminator 1
 1028 0008 034B     		ldr	r3, .L63
 1029 000a 9879     		ldrb	r0, [r3, #6]
 1030 000c C0B2     		uxtb	r0, r0
 1031 000e 01E0     		b	.L61
 1032              	.L62:
 1033              		.loc 1 1694 0
 1034 0010 0120     		mov	r0, #1
 1035 0012 4042     		neg	r0, r0
 1036              	.L61:
1695:.\Generated_Source\PSoC4/CapSense_2.c ****                      CapSense_2_sensorIndex : CapSense_2_NOT_SENSOR));
1696:.\Generated_Source\PSoC4/CapSense_2.c **** }
 1037              		.loc 1 1696 0 is_stmt 1 discriminator 4
 1038              		@ sp needed
 1039 0014 7047     		bx	lr
 1040              	.L64:
 1041 0016 C046     		.align	2
 1042              	.L63:
 1043 0018 00000000 		.word	.LANCHOR0
 1044              		.cfi_endproc
 1045              	.LFE57:
 1046              		.size	CapSense_2_ReadCurrentScanningSensor, .-CapSense_2_ReadCurrentScanningSensor
 1047              		.section	.text.CapSense_2_GetBitValue,"ax",%progbits
 1048              		.align	2
 1049              		.global	CapSense_2_GetBitValue
 1050              		.code	16
 1051              		.thumb_func
 1052              		.type	CapSense_2_GetBitValue, %function
 1053              	CapSense_2_GetBitValue:
 1054              	.LFB58:
1697:.\Generated_Source\PSoC4/CapSense_2.c **** 
1698:.\Generated_Source\PSoC4/CapSense_2.c **** 
1699:.\Generated_Source\PSoC4/CapSense_2.c **** /*******************************************************************************
1700:.\Generated_Source\PSoC4/CapSense_2.c **** * Function Name: CapSense_2_GetBitValue
1701:.\Generated_Source\PSoC4/CapSense_2.c **** ********************************************************************************
1702:.\Generated_Source\PSoC4/CapSense_2.c **** *
1703:.\Generated_Source\PSoC4/CapSense_2.c **** * Summary:
1704:.\Generated_Source\PSoC4/CapSense_2.c **** *  The API returns a bit status of the bit in the table array which contains the masks.
1705:.\Generated_Source\PSoC4/CapSense_2.c **** *
1706:.\Generated_Source\PSoC4/CapSense_2.c **** * Parameters:
1707:.\Generated_Source\PSoC4/CapSense_2.c **** *  table[] - array with bit masks.
1708:.\Generated_Source\PSoC4/CapSense_2.c **** *  position - position of bit in the table[] array.
1709:.\Generated_Source\PSoC4/CapSense_2.c **** *
1710:.\Generated_Source\PSoC4/CapSense_2.c **** * Return:
1711:.\Generated_Source\PSoC4/CapSense_2.c **** *  0 - bit is not set; 1 - bit is set.
1712:.\Generated_Source\PSoC4/CapSense_2.c **** *
ARM GAS  C:\Users\glenn\AppData\Local\Temp\ccPcZrmN.s 			page 50


1713:.\Generated_Source\PSoC4/CapSense_2.c **** * Global Variables:
1714:.\Generated_Source\PSoC4/CapSense_2.c **** *  None
1715:.\Generated_Source\PSoC4/CapSense_2.c **** *
1716:.\Generated_Source\PSoC4/CapSense_2.c **** * Side Effects:
1717:.\Generated_Source\PSoC4/CapSense_2.c **** *  None
1718:.\Generated_Source\PSoC4/CapSense_2.c **** *
1719:.\Generated_Source\PSoC4/CapSense_2.c **** *******************************************************************************/
1720:.\Generated_Source\PSoC4/CapSense_2.c **** uint32 CapSense_2_GetBitValue(const uint8 table[], uint32 position)
1721:.\Generated_Source\PSoC4/CapSense_2.c **** {
 1055              		.loc 1 1721 0
 1056              		.cfi_startproc
 1057              	.LVL126:
1722:.\Generated_Source\PSoC4/CapSense_2.c ****     uint32 offset;
1723:.\Generated_Source\PSoC4/CapSense_2.c ****     uint8 enMask;
1724:.\Generated_Source\PSoC4/CapSense_2.c **** 
1725:.\Generated_Source\PSoC4/CapSense_2.c ****     /* position is divided by 8 to calculate the element of the
1726:.\Generated_Source\PSoC4/CapSense_2.c ****        table[] array that contains the enable bit
1727:.\Generated_Source\PSoC4/CapSense_2.c ****        for an appropriate sensor.
1728:.\Generated_Source\PSoC4/CapSense_2.c ****     */
1729:.\Generated_Source\PSoC4/CapSense_2.c ****     offset = (position >> 3u);
 1058              		.loc 1 1729 0
 1059 0000 CA08     		lsr	r2, r1, #3
 1060              	.LVL127:
1730:.\Generated_Source\PSoC4/CapSense_2.c **** 
1731:.\Generated_Source\PSoC4/CapSense_2.c ****     /* The enMask calculation for the appropriate sensor. Operation (position & 0x07u)
1732:.\Generated_Source\PSoC4/CapSense_2.c ****        intends to calculate the enable bit offset for the 8-bit element of the
1733:.\Generated_Source\PSoC4/CapSense_2.c ****        table[] array.
1734:.\Generated_Source\PSoC4/CapSense_2.c ****     */
1735:.\Generated_Source\PSoC4/CapSense_2.c ****     enMask = 0x01u << (position & 0x07u);
 1061              		.loc 1 1735 0
 1062 0002 0723     		mov	r3, #7
 1063 0004 1940     		and	r1, r3
 1064              	.LVL128:
 1065 0006 063B     		sub	r3, r3, #6
 1066 0008 8B40     		lsl	r3, r3, r1
 1067 000a 191C     		mov	r1, r3
 1068              	.LVL129:
1736:.\Generated_Source\PSoC4/CapSense_2.c **** 
1737:.\Generated_Source\PSoC4/CapSense_2.c ****     return ((0u !=(table[offset] & enMask)) ? 1Lu : 0Lu);
 1069              		.loc 1 1737 0
 1070 000c 835C     		ldrb	r3, [r0, r2]
 1071 000e 1942     		tst	r1, r3
 1072 0010 01D0     		beq	.L67
 1073 0012 0120     		mov	r0, #1
 1074              	.LVL130:
 1075 0014 00E0     		b	.L66
 1076              	.LVL131:
 1077              	.L67:
 1078 0016 0020     		mov	r0, #0
 1079              	.LVL132:
 1080              	.L66:
1738:.\Generated_Source\PSoC4/CapSense_2.c **** }
 1081              		.loc 1 1738 0 discriminator 4
 1082              		@ sp needed
 1083 0018 7047     		bx	lr
 1084              		.cfi_endproc
 1085              	.LFE58:
ARM GAS  C:\Users\glenn\AppData\Local\Temp\ccPcZrmN.s 			page 51


 1086              		.size	CapSense_2_GetBitValue, .-CapSense_2_GetBitValue
 1087 001a C046     		.section	.text.CapSense_2_FindNextSensor,"ax",%progbits
 1088              		.align	2
 1089              		.global	CapSense_2_FindNextSensor
 1090              		.code	16
 1091              		.thumb_func
 1092              		.type	CapSense_2_FindNextSensor, %function
 1093              	CapSense_2_FindNextSensor:
 1094              	.LFB40:
 503:.\Generated_Source\PSoC4/CapSense_2.c ****     uint32 enableFlag;
 1095              		.loc 1 503 0
 1096              		.cfi_startproc
 1097              	.LVL133:
 1098 0000 10B5     		push	{r4, lr}
 1099              		.cfi_def_cfa_offset 8
 1100              		.cfi_offset 4, -8
 1101              		.cfi_offset 14, -4
 1102 0002 041C     		mov	r4, r0
 1103              	.LVL134:
 1104              	.L70:
 510:.\Generated_Source\PSoC4/CapSense_2.c ****         if(snsIndex == CapSense_2_TOTAL_SENSOR_COUNT)
 1105              		.loc 1 510 0
 1106 0004 0134     		add	r4, r4, #1
 1107              	.LVL135:
 1108 0006 E4B2     		uxtb	r4, r4
 1109              	.LVL136:
 511:.\Generated_Source\PSoC4/CapSense_2.c ****         {
 1110              		.loc 1 511 0
 1111 0008 012C     		cmp	r4, #1
 1112 000a 05D0     		beq	.L69
 515:.\Generated_Source\PSoC4/CapSense_2.c ****     }
 1113              		.loc 1 515 0
 1114 000c 0348     		ldr	r0, .L71
 1115 000e 211C     		mov	r1, r4
 1116 0010 FFF7FEFF 		bl	CapSense_2_GetBitValue
 1117              	.LVL137:
 517:.\Generated_Source\PSoC4/CapSense_2.c **** 
 1118              		.loc 1 517 0
 1119 0014 0028     		cmp	r0, #0
 1120 0016 F5D0     		beq	.L70
 1121              	.LVL138:
 1122              	.L69:
 520:.\Generated_Source\PSoC4/CapSense_2.c **** 
 1123              		.loc 1 520 0
 1124 0018 201C     		mov	r0, r4
 1125              		@ sp needed
 1126              	.LVL139:
 1127 001a 10BD     		pop	{r4, pc}
 1128              	.L72:
 1129              		.align	2
 1130              	.L71:
 1131 001c 00000000 		.word	.LANCHOR2
 1132              		.cfi_endproc
 1133              	.LFE40:
 1134              		.size	CapSense_2_FindNextSensor, .-CapSense_2_FindNextSensor
 1135              		.section	.text.CapSense_2_ScanEnabledWidgets,"ax",%progbits
 1136              		.align	2
ARM GAS  C:\Users\glenn\AppData\Local\Temp\ccPcZrmN.s 			page 52


 1137              		.global	CapSense_2_ScanEnabledWidgets
 1138              		.code	16
 1139              		.thumb_func
 1140              		.type	CapSense_2_ScanEnabledWidgets, %function
 1141              	CapSense_2_ScanEnabledWidgets:
 1142              	.LFB42:
 675:.\Generated_Source\PSoC4/CapSense_2.c ****     /* Clears status/control variable and set sensorIndex */
 1143              		.loc 1 675 0
 1144              		.cfi_startproc
 1145 0000 10B5     		push	{r4, lr}
 1146              		.cfi_def_cfa_offset 8
 1147              		.cfi_offset 4, -8
 1148              		.cfi_offset 14, -4
 677:.\Generated_Source\PSoC4/CapSense_2.c ****     CapSense_2_sensorIndex = 0xFFu;
 1149              		.loc 1 677 0
 1150 0002 0B4C     		ldr	r4, .L75
 1151 0004 0023     		mov	r3, #0
 1152 0006 2370     		strb	r3, [r4]
 678:.\Generated_Source\PSoC4/CapSense_2.c **** 
 1153              		.loc 1 678 0
 1154 0008 FF33     		add	r3, r3, #255
 1155 000a A371     		strb	r3, [r4, #6]
 681:.\Generated_Source\PSoC4/CapSense_2.c **** 
 1156              		.loc 1 681 0
 1157 000c A079     		ldrb	r0, [r4, #6]
 1158 000e C0B2     		uxtb	r0, r0
 1159 0010 FFF7FEFF 		bl	CapSense_2_FindNextSensor
 1160              	.LVL140:
 1161 0014 A071     		strb	r0, [r4, #6]
 684:.\Generated_Source\PSoC4/CapSense_2.c ****     {
 1162              		.loc 1 684 0
 1163 0016 A379     		ldrb	r3, [r4, #6]
 1164 0018 002B     		cmp	r3, #0
 1165 001a 07D1     		bne	.L73
 686:.\Generated_Source\PSoC4/CapSense_2.c ****         CapSense_2_PreScan((uint32)CapSense_2_sensorIndex);
 1166              		.loc 1 686 0
 1167 001c 2178     		ldrb	r1, [r4]
 1168 001e 0122     		mov	r2, #1
 1169 0020 0A43     		orr	r2, r1
 1170 0022 2270     		strb	r2, [r4]
 687:.\Generated_Source\PSoC4/CapSense_2.c ****     }
 1171              		.loc 1 687 0
 1172 0024 A079     		ldrb	r0, [r4, #6]
 1173 0026 C0B2     		uxtb	r0, r0
 1174 0028 FFF7FEFF 		bl	CapSense_2_PreScan
 1175              	.LVL141:
 1176              	.L73:
 689:.\Generated_Source\PSoC4/CapSense_2.c **** 
 1177              		.loc 1 689 0
 1178              		@ sp needed
 1179 002c 10BD     		pop	{r4, pc}
 1180              	.L76:
 1181 002e C046     		.align	2
 1182              	.L75:
 1183 0030 00000000 		.word	.LANCHOR0
 1184              		.cfi_endproc
 1185              	.LFE42:
ARM GAS  C:\Users\glenn\AppData\Local\Temp\ccPcZrmN.s 			page 53


 1186              		.size	CapSense_2_ScanEnabledWidgets, .-CapSense_2_ScanEnabledWidgets
 1187              		.section	.text.CapSense_2_SetBitValue,"ax",%progbits
 1188              		.align	2
 1189              		.global	CapSense_2_SetBitValue
 1190              		.code	16
 1191              		.thumb_func
 1192              		.type	CapSense_2_SetBitValue, %function
 1193              	CapSense_2_SetBitValue:
 1194              	.LFB59:
1739:.\Generated_Source\PSoC4/CapSense_2.c **** 
1740:.\Generated_Source\PSoC4/CapSense_2.c **** 
1741:.\Generated_Source\PSoC4/CapSense_2.c **** /*******************************************************************************
1742:.\Generated_Source\PSoC4/CapSense_2.c **** * Function Name: CapSense_2_SetBitValue
1743:.\Generated_Source\PSoC4/CapSense_2.c **** ********************************************************************************
1744:.\Generated_Source\PSoC4/CapSense_2.c **** *
1745:.\Generated_Source\PSoC4/CapSense_2.c **** * Summary:
1746:.\Generated_Source\PSoC4/CapSense_2.c **** *  The API sets a bit status of the bit in the table array which contains masks.
1747:.\Generated_Source\PSoC4/CapSense_2.c **** *
1748:.\Generated_Source\PSoC4/CapSense_2.c **** * Parameters:
1749:.\Generated_Source\PSoC4/CapSense_2.c **** *  table[] - array with bit masks.
1750:.\Generated_Source\PSoC4/CapSense_2.c **** *  position - position of bit in the table[] array.
1751:.\Generated_Source\PSoC4/CapSense_2.c **** *  value: 0 - bit is not set; 1 - bit is set.
1752:.\Generated_Source\PSoC4/CapSense_2.c **** *
1753:.\Generated_Source\PSoC4/CapSense_2.c **** * Return:
1754:.\Generated_Source\PSoC4/CapSense_2.c **** *  None
1755:.\Generated_Source\PSoC4/CapSense_2.c **** *
1756:.\Generated_Source\PSoC4/CapSense_2.c **** * Global Variables:
1757:.\Generated_Source\PSoC4/CapSense_2.c **** *  None
1758:.\Generated_Source\PSoC4/CapSense_2.c **** *
1759:.\Generated_Source\PSoC4/CapSense_2.c **** * Side Effects:
1760:.\Generated_Source\PSoC4/CapSense_2.c **** *  None
1761:.\Generated_Source\PSoC4/CapSense_2.c **** *
1762:.\Generated_Source\PSoC4/CapSense_2.c **** *******************************************************************************/
1763:.\Generated_Source\PSoC4/CapSense_2.c **** void CapSense_2_SetBitValue(uint8 table[], uint32 position, uint32 value)
1764:.\Generated_Source\PSoC4/CapSense_2.c **** {
 1195              		.loc 1 1764 0
 1196              		.cfi_startproc
 1197              	.LVL142:
 1198 0000 10B5     		push	{r4, lr}
 1199              		.cfi_def_cfa_offset 8
 1200              		.cfi_offset 4, -8
 1201              		.cfi_offset 14, -4
1765:.\Generated_Source\PSoC4/CapSense_2.c ****     uint32 offset;
1766:.\Generated_Source\PSoC4/CapSense_2.c ****     uint8 enMask;
1767:.\Generated_Source\PSoC4/CapSense_2.c **** 
1768:.\Generated_Source\PSoC4/CapSense_2.c ****     /* position is divided by 8 to calculate the element of the
1769:.\Generated_Source\PSoC4/CapSense_2.c ****        table[] array that contains the enable bit
1770:.\Generated_Source\PSoC4/CapSense_2.c ****        for an appropriate sensor.
1771:.\Generated_Source\PSoC4/CapSense_2.c ****     */
1772:.\Generated_Source\PSoC4/CapSense_2.c ****     offset = (position >> 3u);
 1202              		.loc 1 1772 0
 1203 0002 CC08     		lsr	r4, r1, #3
 1204              	.LVL143:
1773:.\Generated_Source\PSoC4/CapSense_2.c **** 
1774:.\Generated_Source\PSoC4/CapSense_2.c ****     /* The enMask calculation for the appropriate sensor. Operation (position & 0x07u)
1775:.\Generated_Source\PSoC4/CapSense_2.c ****        intends to calculate the enable bit offset for the 8-bit element of the
1776:.\Generated_Source\PSoC4/CapSense_2.c ****        table[] array.
ARM GAS  C:\Users\glenn\AppData\Local\Temp\ccPcZrmN.s 			page 54


1777:.\Generated_Source\PSoC4/CapSense_2.c ****     */
1778:.\Generated_Source\PSoC4/CapSense_2.c ****     enMask = 0x01u << (position & 0x07u);
 1205              		.loc 1 1778 0
 1206 0004 0723     		mov	r3, #7
 1207 0006 1940     		and	r1, r3
 1208              	.LVL144:
 1209 0008 063B     		sub	r3, r3, #6
 1210 000a 8B40     		lsl	r3, r3, r1
 1211 000c D9B2     		uxtb	r1, r3
 1212              	.LVL145:
1779:.\Generated_Source\PSoC4/CapSense_2.c **** 
1780:.\Generated_Source\PSoC4/CapSense_2.c ****     if(0u != value)
 1213              		.loc 1 1780 0
 1214 000e 002A     		cmp	r2, #0
 1215 0010 04D0     		beq	.L78
1781:.\Generated_Source\PSoC4/CapSense_2.c ****     {
1782:.\Generated_Source\PSoC4/CapSense_2.c ****         table[offset] |= enMask;
 1216              		.loc 1 1782 0
 1217 0012 0419     		add	r4, r0, r4
 1218              	.LVL146:
 1219 0014 2378     		ldrb	r3, [r4]
 1220 0016 1943     		orr	r1, r3
 1221              	.LVL147:
 1222 0018 2170     		strb	r1, [r4]
 1223 001a 03E0     		b	.L77
 1224              	.LVL148:
 1225              	.L78:
1783:.\Generated_Source\PSoC4/CapSense_2.c ****     }
1784:.\Generated_Source\PSoC4/CapSense_2.c ****     else
1785:.\Generated_Source\PSoC4/CapSense_2.c ****     {
1786:.\Generated_Source\PSoC4/CapSense_2.c ****         table[offset] &= (uint8)~(enMask);
 1226              		.loc 1 1786 0
 1227 001c 0419     		add	r4, r0, r4
 1228              	.LVL149:
 1229 001e 2378     		ldrb	r3, [r4]
 1230 0020 8B43     		bic	r3, r1
 1231 0022 2370     		strb	r3, [r4]
 1232              	.LVL150:
 1233              	.L77:
1787:.\Generated_Source\PSoC4/CapSense_2.c ****     }
1788:.\Generated_Source\PSoC4/CapSense_2.c **** }
 1234              		.loc 1 1788 0
 1235              		@ sp needed
 1236 0024 10BD     		pop	{r4, pc}
 1237              		.cfi_endproc
 1238              	.LFE59:
 1239              		.size	CapSense_2_SetBitValue, .-CapSense_2_SetBitValue
 1240 0026 C046     		.section	.text.CapSense_2_GetSenseClkDivider,"ax",%progbits
 1241              		.align	2
 1242              		.global	CapSense_2_GetSenseClkDivider
 1243              		.code	16
 1244              		.thumb_func
 1245              		.type	CapSense_2_GetSenseClkDivider, %function
 1246              	CapSense_2_GetSenseClkDivider:
 1247              	.LFB60:
1789:.\Generated_Source\PSoC4/CapSense_2.c **** 
1790:.\Generated_Source\PSoC4/CapSense_2.c **** 
ARM GAS  C:\Users\glenn\AppData\Local\Temp\ccPcZrmN.s 			page 55


1791:.\Generated_Source\PSoC4/CapSense_2.c **** 
1792:.\Generated_Source\PSoC4/CapSense_2.c **** /*******************************************************************************
1793:.\Generated_Source\PSoC4/CapSense_2.c **** * Function Name: CapSense_2_GetSenseClkDivider
1794:.\Generated_Source\PSoC4/CapSense_2.c **** ********************************************************************************
1795:.\Generated_Source\PSoC4/CapSense_2.c **** *
1796:.\Generated_Source\PSoC4/CapSense_2.c **** * Summary:
1797:.\Generated_Source\PSoC4/CapSense_2.c **** *  This API returns a value of the sense clock divider for the  sensor.
1798:.\Generated_Source\PSoC4/CapSense_2.c **** *
1799:.\Generated_Source\PSoC4/CapSense_2.c **** * Parameters:
1800:.\Generated_Source\PSoC4/CapSense_2.c **** *  sensor: sensor index. The index value can be
1801:.\Generated_Source\PSoC4/CapSense_2.c **** *  from 0 to (CapSense_2_TOTAL_SENSOR_COUNT-1).
1802:.\Generated_Source\PSoC4/CapSense_2.c **** *
1803:.\Generated_Source\PSoC4/CapSense_2.c **** * Return:
1804:.\Generated_Source\PSoC4/CapSense_2.c **** *  This API returns the sense clock divider of the sensor.
1805:.\Generated_Source\PSoC4/CapSense_2.c **** *
1806:.\Generated_Source\PSoC4/CapSense_2.c **** * Global Variables:
1807:.\Generated_Source\PSoC4/CapSense_2.c **** *  CapSense_2_senseClkDividerVal[] - stores the sense clock divider values.
1808:.\Generated_Source\PSoC4/CapSense_2.c **** *
1809:.\Generated_Source\PSoC4/CapSense_2.c **** * Side Effects:
1810:.\Generated_Source\PSoC4/CapSense_2.c **** *  None
1811:.\Generated_Source\PSoC4/CapSense_2.c **** *
1812:.\Generated_Source\PSoC4/CapSense_2.c **** *******************************************************************************/
1813:.\Generated_Source\PSoC4/CapSense_2.c **** uint32 CapSense_2_GetSenseClkDivider(uint32 sensor)
1814:.\Generated_Source\PSoC4/CapSense_2.c **** {
 1248              		.loc 1 1814 0
 1249              		.cfi_startproc
 1250              	.LVL151:
1815:.\Generated_Source\PSoC4/CapSense_2.c ****     #if(0u != CapSense_2_MULTIPLE_FREQUENCY_SET)
1816:.\Generated_Source\PSoC4/CapSense_2.c ****         return((uint32)CapSense_2_senseClkDividerVal[sensor]);
1817:.\Generated_Source\PSoC4/CapSense_2.c ****     #else
1818:.\Generated_Source\PSoC4/CapSense_2.c ****         return((uint32)CapSense_2_senseClkDividerVal);
1819:.\Generated_Source\PSoC4/CapSense_2.c ****     #endif /* (0u != CapSense_2_MULTIPLE_FREQUENCY_SET) */
1820:.\Generated_Source\PSoC4/CapSense_2.c **** }
 1251              		.loc 1 1820 0
 1252 0000 0220     		mov	r0, #2
 1253              	.LVL152:
 1254              		@ sp needed
 1255 0002 7047     		bx	lr
 1256              		.cfi_endproc
 1257              	.LFE60:
 1258              		.size	CapSense_2_GetSenseClkDivider, .-CapSense_2_GetSenseClkDivider
 1259              		.section	.text.CapSense_2_GetModulatorClkDivider,"ax",%progbits
 1260              		.align	2
 1261              		.global	CapSense_2_GetModulatorClkDivider
 1262              		.code	16
 1263              		.thumb_func
 1264              		.type	CapSense_2_GetModulatorClkDivider, %function
 1265              	CapSense_2_GetModulatorClkDivider:
 1266              	.LFB61:
1821:.\Generated_Source\PSoC4/CapSense_2.c **** 
1822:.\Generated_Source\PSoC4/CapSense_2.c **** #if (CapSense_2_TUNING_METHOD != CapSense_2__TUNING_NONE)
1823:.\Generated_Source\PSoC4/CapSense_2.c ****     /*******************************************************************************
1824:.\Generated_Source\PSoC4/CapSense_2.c ****     * Function Name: CapSense_2_SetSenseClkDivider
1825:.\Generated_Source\PSoC4/CapSense_2.c ****     ********************************************************************************
1826:.\Generated_Source\PSoC4/CapSense_2.c ****     *
1827:.\Generated_Source\PSoC4/CapSense_2.c ****     * Summary:
1828:.\Generated_Source\PSoC4/CapSense_2.c ****     *  This API sets a value of the sense clock divider for the  sensor.
ARM GAS  C:\Users\glenn\AppData\Local\Temp\ccPcZrmN.s 			page 56


1829:.\Generated_Source\PSoC4/CapSense_2.c ****     *
1830:.\Generated_Source\PSoC4/CapSense_2.c ****     * Parameters:
1831:.\Generated_Source\PSoC4/CapSense_2.c ****     *  sensor:  Sensor index.
1832:.\Generated_Source\PSoC4/CapSense_2.c ****     *  senseClk: represents the sense clock value.
1833:.\Generated_Source\PSoC4/CapSense_2.c ****     *
1834:.\Generated_Source\PSoC4/CapSense_2.c ****     * Return:
1835:.\Generated_Source\PSoC4/CapSense_2.c ****     *  None.
1836:.\Generated_Source\PSoC4/CapSense_2.c ****     *
1837:.\Generated_Source\PSoC4/CapSense_2.c ****     * Global Variables:
1838:.\Generated_Source\PSoC4/CapSense_2.c ****     *  CapSense_2_senseClkDividerVal[] - stores the sense clock divider values.
1839:.\Generated_Source\PSoC4/CapSense_2.c ****     *
1840:.\Generated_Source\PSoC4/CapSense_2.c ****     * Side Effects:
1841:.\Generated_Source\PSoC4/CapSense_2.c ****     *  None
1842:.\Generated_Source\PSoC4/CapSense_2.c ****     *
1843:.\Generated_Source\PSoC4/CapSense_2.c ****     *******************************************************************************/
1844:.\Generated_Source\PSoC4/CapSense_2.c ****     void CapSense_2_SetSenseClkDivider(uint32 sensor, uint32 senseClk)
1845:.\Generated_Source\PSoC4/CapSense_2.c ****     {
1846:.\Generated_Source\PSoC4/CapSense_2.c ****         #if(0u != CapSense_2_MULTIPLE_FREQUENCY_SET)
1847:.\Generated_Source\PSoC4/CapSense_2.c ****             CapSense_2_senseClkDividerVal[sensor] = (uint8)senseClk;
1848:.\Generated_Source\PSoC4/CapSense_2.c ****         #else
1849:.\Generated_Source\PSoC4/CapSense_2.c ****             CapSense_2_senseClkDividerVal = (uint8)senseClk;
1850:.\Generated_Source\PSoC4/CapSense_2.c ****         #endif /* (0u != CapSense_2_MULTIPLE_FREQUENCY_SET) */
1851:.\Generated_Source\PSoC4/CapSense_2.c ****     }
1852:.\Generated_Source\PSoC4/CapSense_2.c **** #endif /* (CapSense_2_TUNING_METHOD != CapSense_2__TUNING_NONE) */
1853:.\Generated_Source\PSoC4/CapSense_2.c **** 
1854:.\Generated_Source\PSoC4/CapSense_2.c **** 
1855:.\Generated_Source\PSoC4/CapSense_2.c **** /*******************************************************************************
1856:.\Generated_Source\PSoC4/CapSense_2.c **** * Function Name: CapSense_2_GetModulatorClkDivider
1857:.\Generated_Source\PSoC4/CapSense_2.c **** ********************************************************************************
1858:.\Generated_Source\PSoC4/CapSense_2.c **** *
1859:.\Generated_Source\PSoC4/CapSense_2.c **** * Summary:
1860:.\Generated_Source\PSoC4/CapSense_2.c **** *  This API returns a value of the modulator sample clock divider for the  sensor.
1861:.\Generated_Source\PSoC4/CapSense_2.c **** *
1862:.\Generated_Source\PSoC4/CapSense_2.c **** * Parameters:
1863:.\Generated_Source\PSoC4/CapSense_2.c **** *  sensor: sensor index. The value of index can be
1864:.\Generated_Source\PSoC4/CapSense_2.c **** *  from 0 to (CapSense_2_TOTAL_SENSOR_COUNT-1).
1865:.\Generated_Source\PSoC4/CapSense_2.c **** *
1866:.\Generated_Source\PSoC4/CapSense_2.c **** * Return:
1867:.\Generated_Source\PSoC4/CapSense_2.c **** *  This API returns the modulator sample clock divider for the  sensor.
1868:.\Generated_Source\PSoC4/CapSense_2.c **** *
1869:.\Generated_Source\PSoC4/CapSense_2.c **** * Global Variables:
1870:.\Generated_Source\PSoC4/CapSense_2.c **** *  CapSense_2_sampleClkDividerVal[] - stores the modulator sample divider values.
1871:.\Generated_Source\PSoC4/CapSense_2.c **** *
1872:.\Generated_Source\PSoC4/CapSense_2.c **** * Side Effects:
1873:.\Generated_Source\PSoC4/CapSense_2.c **** *  None
1874:.\Generated_Source\PSoC4/CapSense_2.c **** *
1875:.\Generated_Source\PSoC4/CapSense_2.c **** *******************************************************************************/
1876:.\Generated_Source\PSoC4/CapSense_2.c **** uint32 CapSense_2_GetModulatorClkDivider(uint32 sensor)
1877:.\Generated_Source\PSoC4/CapSense_2.c **** {
 1267              		.loc 1 1877 0
 1268              		.cfi_startproc
 1269              	.LVL153:
1878:.\Generated_Source\PSoC4/CapSense_2.c ****     #if(0u != CapSense_2_MULTIPLE_FREQUENCY_SET)
1879:.\Generated_Source\PSoC4/CapSense_2.c ****         return((uint32)CapSense_2_sampleClkDividerVal[sensor]);
1880:.\Generated_Source\PSoC4/CapSense_2.c ****     #else
1881:.\Generated_Source\PSoC4/CapSense_2.c ****         return((uint32)CapSense_2_sampleClkDividerVal);
1882:.\Generated_Source\PSoC4/CapSense_2.c ****     #endif /* (0u != CapSense_2_MULTIPLE_FREQUENCY_SET) */
ARM GAS  C:\Users\glenn\AppData\Local\Temp\ccPcZrmN.s 			page 57


1883:.\Generated_Source\PSoC4/CapSense_2.c **** }
 1270              		.loc 1 1883 0
 1271 0000 0220     		mov	r0, #2
 1272              	.LVL154:
 1273              		@ sp needed
 1274 0002 7047     		bx	lr
 1275              		.cfi_endproc
 1276              	.LFE61:
 1277              		.size	CapSense_2_GetModulatorClkDivider, .-CapSense_2_GetModulatorClkDivider
 1278              		.section	.text.CapSense_2_GetModulationIDAC,"ax",%progbits
 1279              		.align	2
 1280              		.global	CapSense_2_GetModulationIDAC
 1281              		.code	16
 1282              		.thumb_func
 1283              		.type	CapSense_2_GetModulationIDAC, %function
 1284              	CapSense_2_GetModulationIDAC:
 1285              	.LFB62:
1884:.\Generated_Source\PSoC4/CapSense_2.c **** 
1885:.\Generated_Source\PSoC4/CapSense_2.c **** #if (CapSense_2_TUNING_METHOD != CapSense_2__TUNING_NONE)
1886:.\Generated_Source\PSoC4/CapSense_2.c ****     /*******************************************************************************
1887:.\Generated_Source\PSoC4/CapSense_2.c ****     * Function Name: CapSense_2_SetModulatorClkDivider
1888:.\Generated_Source\PSoC4/CapSense_2.c ****     ********************************************************************************
1889:.\Generated_Source\PSoC4/CapSense_2.c ****     *
1890:.\Generated_Source\PSoC4/CapSense_2.c ****     * Summary:
1891:.\Generated_Source\PSoC4/CapSense_2.c ****     *  This API sets a value of the modulator sample clock divider for the  sensor.
1892:.\Generated_Source\PSoC4/CapSense_2.c ****     *
1893:.\Generated_Source\PSoC4/CapSense_2.c ****     * Parameters:
1894:.\Generated_Source\PSoC4/CapSense_2.c ****     *  sensor:  Sensor index.
1895:.\Generated_Source\PSoC4/CapSense_2.c ****     *  modulatorClk: represents the modulator sample clock value.
1896:.\Generated_Source\PSoC4/CapSense_2.c ****     *
1897:.\Generated_Source\PSoC4/CapSense_2.c ****     * Return:
1898:.\Generated_Source\PSoC4/CapSense_2.c ****     *  None.
1899:.\Generated_Source\PSoC4/CapSense_2.c ****     *
1900:.\Generated_Source\PSoC4/CapSense_2.c ****     * Global Variables:
1901:.\Generated_Source\PSoC4/CapSense_2.c ****     *  CapSense_2_sampleClkDividerVal[] - stores the modulator sample divider values.
1902:.\Generated_Source\PSoC4/CapSense_2.c ****     *
1903:.\Generated_Source\PSoC4/CapSense_2.c ****     * Side Effects:
1904:.\Generated_Source\PSoC4/CapSense_2.c ****     *  None
1905:.\Generated_Source\PSoC4/CapSense_2.c ****     *
1906:.\Generated_Source\PSoC4/CapSense_2.c ****     *******************************************************************************/
1907:.\Generated_Source\PSoC4/CapSense_2.c ****     void CapSense_2_SetModulatorClkDivider(uint32 sensor, uint32 modulatorClk)
1908:.\Generated_Source\PSoC4/CapSense_2.c ****     {
1909:.\Generated_Source\PSoC4/CapSense_2.c ****         #if(0u != CapSense_2_MULTIPLE_FREQUENCY_SET)
1910:.\Generated_Source\PSoC4/CapSense_2.c ****             CapSense_2_sampleClkDividerVal[sensor] = (uint8)modulatorClk;
1911:.\Generated_Source\PSoC4/CapSense_2.c ****         #else
1912:.\Generated_Source\PSoC4/CapSense_2.c ****             CapSense_2_sampleClkDividerVal = (uint8)modulatorClk;
1913:.\Generated_Source\PSoC4/CapSense_2.c ****         #endif /* (0u != CapSense_2_MULTIPLE_FREQUENCY_SET) */
1914:.\Generated_Source\PSoC4/CapSense_2.c ****     }
1915:.\Generated_Source\PSoC4/CapSense_2.c **** #endif /* (CapSense_2_TUNING_METHOD != CapSense_2__TUNING_NONE) */
1916:.\Generated_Source\PSoC4/CapSense_2.c **** 
1917:.\Generated_Source\PSoC4/CapSense_2.c **** /*******************************************************************************
1918:.\Generated_Source\PSoC4/CapSense_2.c **** * Function Name: CapSense_2_GetModulationIDAC
1919:.\Generated_Source\PSoC4/CapSense_2.c **** ********************************************************************************
1920:.\Generated_Source\PSoC4/CapSense_2.c **** *
1921:.\Generated_Source\PSoC4/CapSense_2.c **** * Summary:
1922:.\Generated_Source\PSoC4/CapSense_2.c **** *  This API returns a value of the modulation IDAC for the  sensor.
1923:.\Generated_Source\PSoC4/CapSense_2.c **** *
ARM GAS  C:\Users\glenn\AppData\Local\Temp\ccPcZrmN.s 			page 58


1924:.\Generated_Source\PSoC4/CapSense_2.c **** * Parameters:
1925:.\Generated_Source\PSoC4/CapSense_2.c **** *  sensor: sensor index. The index value can be
1926:.\Generated_Source\PSoC4/CapSense_2.c **** *  from 0 to (CapSense_2_TOTAL_SENSOR_COUNT-1).
1927:.\Generated_Source\PSoC4/CapSense_2.c **** *
1928:.\Generated_Source\PSoC4/CapSense_2.c **** * Return:
1929:.\Generated_Source\PSoC4/CapSense_2.c **** *  This API returns the modulation IDAC of the sensor.
1930:.\Generated_Source\PSoC4/CapSense_2.c **** *
1931:.\Generated_Source\PSoC4/CapSense_2.c **** * Global Variables:
1932:.\Generated_Source\PSoC4/CapSense_2.c **** *  CapSense_2_modulationIDAC[] - stores modulation IDAC values.
1933:.\Generated_Source\PSoC4/CapSense_2.c **** *
1934:.\Generated_Source\PSoC4/CapSense_2.c **** * Side Effects:
1935:.\Generated_Source\PSoC4/CapSense_2.c **** *  None
1936:.\Generated_Source\PSoC4/CapSense_2.c **** *
1937:.\Generated_Source\PSoC4/CapSense_2.c **** *******************************************************************************/
1938:.\Generated_Source\PSoC4/CapSense_2.c **** uint32 CapSense_2_GetModulationIDAC(uint32 sensor)
1939:.\Generated_Source\PSoC4/CapSense_2.c **** {
 1286              		.loc 1 1939 0
 1287              		.cfi_startproc
 1288              	.LVL155:
1940:.\Generated_Source\PSoC4/CapSense_2.c ****         return((uint32)CapSense_2_modulationIDAC[sensor]);
1941:.\Generated_Source\PSoC4/CapSense_2.c **** }
 1289              		.loc 1 1941 0
 1290 0000 5020     		mov	r0, #80
 1291              	.LVL156:
 1292              		@ sp needed
 1293 0002 7047     		bx	lr
 1294              		.cfi_endproc
 1295              	.LFE62:
 1296              		.size	CapSense_2_GetModulationIDAC, .-CapSense_2_GetModulationIDAC
 1297              		.section	.text.CapSense_2_GetCompensationIDAC,"ax",%progbits
 1298              		.align	2
 1299              		.global	CapSense_2_GetCompensationIDAC
 1300              		.code	16
 1301              		.thumb_func
 1302              		.type	CapSense_2_GetCompensationIDAC, %function
 1303              	CapSense_2_GetCompensationIDAC:
 1304              	.LFB63:
1942:.\Generated_Source\PSoC4/CapSense_2.c **** 
1943:.\Generated_Source\PSoC4/CapSense_2.c **** #if (CapSense_2_TUNING_METHOD != CapSense_2__TUNING_NONE)
1944:.\Generated_Source\PSoC4/CapSense_2.c ****     /*******************************************************************************
1945:.\Generated_Source\PSoC4/CapSense_2.c ****     * Function Name: CapSense_2_SetModulationIDAC
1946:.\Generated_Source\PSoC4/CapSense_2.c ****     ********************************************************************************
1947:.\Generated_Source\PSoC4/CapSense_2.c ****     *
1948:.\Generated_Source\PSoC4/CapSense_2.c ****     * Summary:
1949:.\Generated_Source\PSoC4/CapSense_2.c ****     *  This API sets a value of the modulation IDAC for the  sensor.
1950:.\Generated_Source\PSoC4/CapSense_2.c ****     *
1951:.\Generated_Source\PSoC4/CapSense_2.c ****     * Parameters:
1952:.\Generated_Source\PSoC4/CapSense_2.c ****     *  sensor:  Sensor index.
1953:.\Generated_Source\PSoC4/CapSense_2.c ****     *  compIdacValue: represents the modulation IDAC data register value.
1954:.\Generated_Source\PSoC4/CapSense_2.c ****     *
1955:.\Generated_Source\PSoC4/CapSense_2.c ****     * Return:
1956:.\Generated_Source\PSoC4/CapSense_2.c ****     *  None.
1957:.\Generated_Source\PSoC4/CapSense_2.c ****     *
1958:.\Generated_Source\PSoC4/CapSense_2.c ****     * Global Variables:
1959:.\Generated_Source\PSoC4/CapSense_2.c ****     *  CapSense_2_modulationIDAC[] - array with modulation IDAC values
1960:.\Generated_Source\PSoC4/CapSense_2.c ****     *
1961:.\Generated_Source\PSoC4/CapSense_2.c ****     * Side Effects:
ARM GAS  C:\Users\glenn\AppData\Local\Temp\ccPcZrmN.s 			page 59


1962:.\Generated_Source\PSoC4/CapSense_2.c ****     *  None
1963:.\Generated_Source\PSoC4/CapSense_2.c ****     *
1964:.\Generated_Source\PSoC4/CapSense_2.c ****     *******************************************************************************/
1965:.\Generated_Source\PSoC4/CapSense_2.c ****     void CapSense_2_SetModulationIDAC(uint32 sensor, uint32 modIdacValue)
1966:.\Generated_Source\PSoC4/CapSense_2.c ****     {
1967:.\Generated_Source\PSoC4/CapSense_2.c ****         CapSense_2_modulationIDAC[sensor] = (uint8)modIdacValue;
1968:.\Generated_Source\PSoC4/CapSense_2.c ****     }
1969:.\Generated_Source\PSoC4/CapSense_2.c **** #endif /* (CapSense_2_TUNING_METHOD != CapSense_2__TUNING_NONE) */
1970:.\Generated_Source\PSoC4/CapSense_2.c **** 
1971:.\Generated_Source\PSoC4/CapSense_2.c **** 
1972:.\Generated_Source\PSoC4/CapSense_2.c **** #if(CapSense_2_IDAC_CNT > 1u)
1973:.\Generated_Source\PSoC4/CapSense_2.c ****     /*******************************************************************************
1974:.\Generated_Source\PSoC4/CapSense_2.c ****     * Function Name: CapSense_2_GetCompensationIDAC
1975:.\Generated_Source\PSoC4/CapSense_2.c ****     ********************************************************************************
1976:.\Generated_Source\PSoC4/CapSense_2.c ****     *
1977:.\Generated_Source\PSoC4/CapSense_2.c ****     * Summary:
1978:.\Generated_Source\PSoC4/CapSense_2.c ****     *  This API returns a value of the compensation IDAC for the  sensor.
1979:.\Generated_Source\PSoC4/CapSense_2.c ****     *
1980:.\Generated_Source\PSoC4/CapSense_2.c ****     * Parameters:
1981:.\Generated_Source\PSoC4/CapSense_2.c ****     *  sensor: sensor index. The index value can be
1982:.\Generated_Source\PSoC4/CapSense_2.c ****     *  from 0 to (CapSense_2_TOTAL_SENSOR_COUNT-1).
1983:.\Generated_Source\PSoC4/CapSense_2.c ****     *
1984:.\Generated_Source\PSoC4/CapSense_2.c ****     * Return:
1985:.\Generated_Source\PSoC4/CapSense_2.c ****     *  This API returns the compensation IDAC of the sensor.
1986:.\Generated_Source\PSoC4/CapSense_2.c ****     *
1987:.\Generated_Source\PSoC4/CapSense_2.c ****     * Global Variables:
1988:.\Generated_Source\PSoC4/CapSense_2.c ****     *  CapSense_2_compensationIDAC[] - stores the compensation IDAC values.
1989:.\Generated_Source\PSoC4/CapSense_2.c ****     *
1990:.\Generated_Source\PSoC4/CapSense_2.c ****     * Side Effects:
1991:.\Generated_Source\PSoC4/CapSense_2.c ****     *  None
1992:.\Generated_Source\PSoC4/CapSense_2.c ****     *
1993:.\Generated_Source\PSoC4/CapSense_2.c ****     *******************************************************************************/
1994:.\Generated_Source\PSoC4/CapSense_2.c ****     uint32 CapSense_2_GetCompensationIDAC(uint32 sensor)
1995:.\Generated_Source\PSoC4/CapSense_2.c ****     {
 1305              		.loc 1 1995 0
 1306              		.cfi_startproc
 1307              	.LVL157:
1996:.\Generated_Source\PSoC4/CapSense_2.c ****         return((uint32)CapSense_2_compensationIDAC[sensor]);
1997:.\Generated_Source\PSoC4/CapSense_2.c ****     }
 1308              		.loc 1 1997 0
 1309 0000 5020     		mov	r0, #80
 1310              	.LVL158:
 1311              		@ sp needed
 1312 0002 7047     		bx	lr
 1313              		.cfi_endproc
 1314              	.LFE63:
 1315              		.size	CapSense_2_GetCompensationIDAC, .-CapSense_2_GetCompensationIDAC
 1316              		.section	.text.CapSense_2_GetIDACRange,"ax",%progbits
 1317              		.align	2
 1318              		.global	CapSense_2_GetIDACRange
 1319              		.code	16
 1320              		.thumb_func
 1321              		.type	CapSense_2_GetIDACRange, %function
 1322              	CapSense_2_GetIDACRange:
 1323              	.LFB64:
1998:.\Generated_Source\PSoC4/CapSense_2.c **** #endif /* (CapSense_2_IDAC_CNT > 1u) */
1999:.\Generated_Source\PSoC4/CapSense_2.c **** 
ARM GAS  C:\Users\glenn\AppData\Local\Temp\ccPcZrmN.s 			page 60


2000:.\Generated_Source\PSoC4/CapSense_2.c **** 
2001:.\Generated_Source\PSoC4/CapSense_2.c **** #if((CapSense_2_TUNING_METHOD != CapSense_2__TUNING_NONE) && (CapSense_2_IDAC_CNT > 1u))
2002:.\Generated_Source\PSoC4/CapSense_2.c ****     /*******************************************************************************
2003:.\Generated_Source\PSoC4/CapSense_2.c ****     * Function Name: CapSense_2_SetCompensationIDAC
2004:.\Generated_Source\PSoC4/CapSense_2.c ****     ********************************************************************************
2005:.\Generated_Source\PSoC4/CapSense_2.c ****     *
2006:.\Generated_Source\PSoC4/CapSense_2.c ****     * Summary:
2007:.\Generated_Source\PSoC4/CapSense_2.c ****     *  This API sets a value of compensation IDAC for the  sensor.
2008:.\Generated_Source\PSoC4/CapSense_2.c ****     *
2009:.\Generated_Source\PSoC4/CapSense_2.c ****     * Parameters:
2010:.\Generated_Source\PSoC4/CapSense_2.c ****     *  sensor:  Sensor index.
2011:.\Generated_Source\PSoC4/CapSense_2.c ****     *  compIdacValue: represents the compensation IDAC data register value.
2012:.\Generated_Source\PSoC4/CapSense_2.c ****     *
2013:.\Generated_Source\PSoC4/CapSense_2.c ****     * Return:
2014:.\Generated_Source\PSoC4/CapSense_2.c ****     *  None.
2015:.\Generated_Source\PSoC4/CapSense_2.c ****     *
2016:.\Generated_Source\PSoC4/CapSense_2.c ****     * Global Variables:
2017:.\Generated_Source\PSoC4/CapSense_2.c ****     *  CapSense_2_compensationIDAC[] - an array with compensation IDAC values
2018:.\Generated_Source\PSoC4/CapSense_2.c ****     *
2019:.\Generated_Source\PSoC4/CapSense_2.c ****     * Side Effects:
2020:.\Generated_Source\PSoC4/CapSense_2.c ****     *  None
2021:.\Generated_Source\PSoC4/CapSense_2.c ****     *
2022:.\Generated_Source\PSoC4/CapSense_2.c ****     *******************************************************************************/
2023:.\Generated_Source\PSoC4/CapSense_2.c ****     void CapSense_2_SetCompensationIDAC(uint32 sensor, uint32 compIdacValue)
2024:.\Generated_Source\PSoC4/CapSense_2.c ****     {
2025:.\Generated_Source\PSoC4/CapSense_2.c ****         CapSense_2_compensationIDAC[sensor] = (uint8)compIdacValue;
2026:.\Generated_Source\PSoC4/CapSense_2.c ****     }
2027:.\Generated_Source\PSoC4/CapSense_2.c **** #endif /* ((CapSense_2_TUNING_METHOD != CapSense_2__TUNING_NONE) && (CapSense_2_IDAC_CNT > 1u)) */
2028:.\Generated_Source\PSoC4/CapSense_2.c **** 
2029:.\Generated_Source\PSoC4/CapSense_2.c **** /*******************************************************************************
2030:.\Generated_Source\PSoC4/CapSense_2.c **** * Function Name: CapSense_2_GetIDACRange
2031:.\Generated_Source\PSoC4/CapSense_2.c **** ********************************************************************************
2032:.\Generated_Source\PSoC4/CapSense_2.c **** *
2033:.\Generated_Source\PSoC4/CapSense_2.c **** * Summary:
2034:.\Generated_Source\PSoC4/CapSense_2.c **** *  This API returns a value that indicates the IDAC range used by the
2035:.\Generated_Source\PSoC4/CapSense_2.c **** *  component to scan sensors. The IDAC range is common for all the sensors.
2036:.\Generated_Source\PSoC4/CapSense_2.c **** *
2037:.\Generated_Source\PSoC4/CapSense_2.c **** * Parameters:
2038:.\Generated_Source\PSoC4/CapSense_2.c **** *  None
2039:.\Generated_Source\PSoC4/CapSense_2.c **** *
2040:.\Generated_Source\PSoC4/CapSense_2.c **** * Return:
2041:.\Generated_Source\PSoC4/CapSense_2.c **** *  This API Returns a value that indicates the IDAC range:
2042:.\Generated_Source\PSoC4/CapSense_2.c **** *      0 - IDAC range set to 4x
2043:.\Generated_Source\PSoC4/CapSense_2.c **** *      1 - IDAC range set to 8x
2044:.\Generated_Source\PSoC4/CapSense_2.c **** *
2045:.\Generated_Source\PSoC4/CapSense_2.c **** * Global Variables:
2046:.\Generated_Source\PSoC4/CapSense_2.c **** *  None
2047:.\Generated_Source\PSoC4/CapSense_2.c **** *
2048:.\Generated_Source\PSoC4/CapSense_2.c **** * Side Effects:
2049:.\Generated_Source\PSoC4/CapSense_2.c **** *  None
2050:.\Generated_Source\PSoC4/CapSense_2.c **** *
2051:.\Generated_Source\PSoC4/CapSense_2.c **** *******************************************************************************/
2052:.\Generated_Source\PSoC4/CapSense_2.c **** uint32 CapSense_2_GetIDACRange(void)
2053:.\Generated_Source\PSoC4/CapSense_2.c **** {
 1324              		.loc 1 2053 0
 1325              		.cfi_startproc
2054:.\Generated_Source\PSoC4/CapSense_2.c ****     return((0u != (CapSense_2_CSD_IDAC_REG & CapSense_2_CSD_IDAC1_RANGE_8X)) ? 1uL : 0uL);
ARM GAS  C:\Users\glenn\AppData\Local\Temp\ccPcZrmN.s 			page 61


 1326              		.loc 1 2054 0
 1327 0000 034B     		ldr	r3, .L86
 1328 0002 1868     		ldr	r0, [r3]
 1329 0004 8023     		mov	r3, #128
 1330 0006 DB00     		lsl	r3, r3, #3
 1331 0008 1840     		and	r0, r3
 1332 000a 00D0     		beq	.L85
 1333 000c 0120     		mov	r0, #1
 1334              	.L85:
2055:.\Generated_Source\PSoC4/CapSense_2.c **** }
 1335              		.loc 1 2055 0 discriminator 4
 1336              		@ sp needed
 1337 000e 7047     		bx	lr
 1338              	.L87:
 1339              		.align	2
 1340              	.L86:
 1341 0010 08002840 		.word	1076363272
 1342              		.cfi_endproc
 1343              	.LFE64:
 1344              		.size	CapSense_2_GetIDACRange, .-CapSense_2_GetIDACRange
 1345              		.section	.text.CapSense_2_SetUnscannedSensorState,"ax",%progbits
 1346              		.align	2
 1347              		.global	CapSense_2_SetUnscannedSensorState
 1348              		.code	16
 1349              		.thumb_func
 1350              		.type	CapSense_2_SetUnscannedSensorState, %function
 1351              	CapSense_2_SetUnscannedSensorState:
 1352              	.LFB65:
2056:.\Generated_Source\PSoC4/CapSense_2.c **** 
2057:.\Generated_Source\PSoC4/CapSense_2.c **** #if (CapSense_2_TUNING_METHOD != CapSense_2__TUNING_NONE)
2058:.\Generated_Source\PSoC4/CapSense_2.c ****     /*******************************************************************************
2059:.\Generated_Source\PSoC4/CapSense_2.c ****     * Function Name: CapSense_2_SetIDACRange
2060:.\Generated_Source\PSoC4/CapSense_2.c ****     ********************************************************************************
2061:.\Generated_Source\PSoC4/CapSense_2.c ****     *
2062:.\Generated_Source\PSoC4/CapSense_2.c ****     * Summary:
2063:.\Generated_Source\PSoC4/CapSense_2.c ****     *  This API sets the IDAC range to the 4x (1.2uA/bit) or 8x (2.4uA/bit) mode.
2064:.\Generated_Source\PSoC4/CapSense_2.c ****     *  The IDAC range is common for all the sensors and common for the modulation and
2065:.\Generated_Source\PSoC4/CapSense_2.c ****     *  compensation IDACs.
2066:.\Generated_Source\PSoC4/CapSense_2.c ****     *
2067:.\Generated_Source\PSoC4/CapSense_2.c ****     * Parameters:
2068:.\Generated_Source\PSoC4/CapSense_2.c ****     *  iDacRange:  represents value for IDAC range
2069:.\Generated_Source\PSoC4/CapSense_2.c ****     *  0 -  IDAC range set to 4x (1.2uA/bit)
2070:.\Generated_Source\PSoC4/CapSense_2.c ****     *  1 or >1 - IDAC range set to 8x (2.4uA/bit)
2071:.\Generated_Source\PSoC4/CapSense_2.c ****     *
2072:.\Generated_Source\PSoC4/CapSense_2.c ****     * Return:
2073:.\Generated_Source\PSoC4/CapSense_2.c ****     *  None.
2074:.\Generated_Source\PSoC4/CapSense_2.c ****     *
2075:.\Generated_Source\PSoC4/CapSense_2.c ****     * Global Variables:
2076:.\Generated_Source\PSoC4/CapSense_2.c ****     *  None
2077:.\Generated_Source\PSoC4/CapSense_2.c ****     *
2078:.\Generated_Source\PSoC4/CapSense_2.c ****     * Side Effects:
2079:.\Generated_Source\PSoC4/CapSense_2.c ****     *  None
2080:.\Generated_Source\PSoC4/CapSense_2.c ****     *
2081:.\Generated_Source\PSoC4/CapSense_2.c ****     *******************************************************************************/
2082:.\Generated_Source\PSoC4/CapSense_2.c ****     void CapSense_2_SetIDACRange(uint32 iDacRange)
2083:.\Generated_Source\PSoC4/CapSense_2.c ****     {
2084:.\Generated_Source\PSoC4/CapSense_2.c ****         if(iDacRange != 0u)
ARM GAS  C:\Users\glenn\AppData\Local\Temp\ccPcZrmN.s 			page 62


2085:.\Generated_Source\PSoC4/CapSense_2.c ****         {
2086:.\Generated_Source\PSoC4/CapSense_2.c ****             /*  IDAC range = 8x (2.4uA/bit) */
2087:.\Generated_Source\PSoC4/CapSense_2.c ****             CapSense_2_CSD_IDAC_REG |= (CapSense_2_CSD_IDAC1_RANGE_8X |\
2088:.\Generated_Source\PSoC4/CapSense_2.c ****                                               CapSense_2_CSD_IDAC2_RANGE_8X);
2089:.\Generated_Source\PSoC4/CapSense_2.c ****         }
2090:.\Generated_Source\PSoC4/CapSense_2.c ****         else
2091:.\Generated_Source\PSoC4/CapSense_2.c ****         {
2092:.\Generated_Source\PSoC4/CapSense_2.c ****             /*  IDAC range = 4x (1.2uA/bit) */
2093:.\Generated_Source\PSoC4/CapSense_2.c ****             /*  IDAC range = 8x (2.4uA/bit) */
2094:.\Generated_Source\PSoC4/CapSense_2.c ****             CapSense_2_CSD_IDAC_REG &= ~(CapSense_2_CSD_IDAC1_RANGE_8X |\
2095:.\Generated_Source\PSoC4/CapSense_2.c ****                                                CapSense_2_CSD_IDAC2_RANGE_8X);
2096:.\Generated_Source\PSoC4/CapSense_2.c ****         }
2097:.\Generated_Source\PSoC4/CapSense_2.c ****     }
2098:.\Generated_Source\PSoC4/CapSense_2.c **** #endif /* (CapSense_2_TUNING_METHOD != CapSense_2__TUNING_NONE) */
2099:.\Generated_Source\PSoC4/CapSense_2.c **** 
2100:.\Generated_Source\PSoC4/CapSense_2.c **** 
2101:.\Generated_Source\PSoC4/CapSense_2.c **** #if((0u != CapSense_2_AUTOCALIBRATION_ENABLE) || (CapSense_2_TUNING_METHOD == CapSense_2__TUNING_AU
2102:.\Generated_Source\PSoC4/CapSense_2.c ****     /*******************************************************************************
2103:.\Generated_Source\PSoC4/CapSense_2.c ****     * Function Name: CapSense_2_GetSensorRaw
2104:.\Generated_Source\PSoC4/CapSense_2.c ****     ********************************************************************************
2105:.\Generated_Source\PSoC4/CapSense_2.c ****     *
2106:.\Generated_Source\PSoC4/CapSense_2.c ****     * Summary:
2107:.\Generated_Source\PSoC4/CapSense_2.c ****     *  The API updates and gets uprated raw data from the sensor.
2108:.\Generated_Source\PSoC4/CapSense_2.c ****     *
2109:.\Generated_Source\PSoC4/CapSense_2.c ****     * Parameters:
2110:.\Generated_Source\PSoC4/CapSense_2.c ****     *  sensor - Sensor number.
2111:.\Generated_Source\PSoC4/CapSense_2.c ****     *
2112:.\Generated_Source\PSoC4/CapSense_2.c ****     * Return:
2113:.\Generated_Source\PSoC4/CapSense_2.c ****     *  Returns the current raw data value for a defined sensor number.
2114:.\Generated_Source\PSoC4/CapSense_2.c ****     *
2115:.\Generated_Source\PSoC4/CapSense_2.c ****     * Global Variables:
2116:.\Generated_Source\PSoC4/CapSense_2.c ****     *  None
2117:.\Generated_Source\PSoC4/CapSense_2.c ****     *
2118:.\Generated_Source\PSoC4/CapSense_2.c ****     * Side Effects:
2119:.\Generated_Source\PSoC4/CapSense_2.c ****     *  None
2120:.\Generated_Source\PSoC4/CapSense_2.c ****     *
2121:.\Generated_Source\PSoC4/CapSense_2.c ****     *******************************************************************************/
2122:.\Generated_Source\PSoC4/CapSense_2.c ****     uint16  CapSense_2_GetSensorRaw(uint32 sensor)
2123:.\Generated_Source\PSoC4/CapSense_2.c ****     {
2124:.\Generated_Source\PSoC4/CapSense_2.c ****         uint32 curSample;
2125:.\Generated_Source\PSoC4/CapSense_2.c ****         uint32 avgVal = 0u;
2126:.\Generated_Source\PSoC4/CapSense_2.c **** 
2127:.\Generated_Source\PSoC4/CapSense_2.c ****         for(curSample = 0u; curSample < CapSense_2_AVG_SAMPLES_NUM; curSample++)
2128:.\Generated_Source\PSoC4/CapSense_2.c ****         {
2129:.\Generated_Source\PSoC4/CapSense_2.c **** 
2130:.\Generated_Source\PSoC4/CapSense_2.c ****             CapSense_2_ScanSensor((uint32)sensor);
2131:.\Generated_Source\PSoC4/CapSense_2.c ****             while(CapSense_2_IsBusy() == 1u)
2132:.\Generated_Source\PSoC4/CapSense_2.c ****             {
2133:.\Generated_Source\PSoC4/CapSense_2.c ****                 /* Wait while sensor is busy */
2134:.\Generated_Source\PSoC4/CapSense_2.c ****             }
2135:.\Generated_Source\PSoC4/CapSense_2.c ****             avgVal += CapSense_2_ReadSensorRaw((uint32)sensor);
2136:.\Generated_Source\PSoC4/CapSense_2.c ****         }
2137:.\Generated_Source\PSoC4/CapSense_2.c **** 
2138:.\Generated_Source\PSoC4/CapSense_2.c ****         return((uint16)(avgVal / CapSense_2_AVG_SAMPLES_NUM));
2139:.\Generated_Source\PSoC4/CapSense_2.c ****     }
2140:.\Generated_Source\PSoC4/CapSense_2.c **** #endif /* ((0u != CapSense_2_AUTOCALIBRATION_ENABLE) && (CapSense_2_TUNING_METHOD == CapSense_2__TU
2141:.\Generated_Source\PSoC4/CapSense_2.c **** 
ARM GAS  C:\Users\glenn\AppData\Local\Temp\ccPcZrmN.s 			page 63


2142:.\Generated_Source\PSoC4/CapSense_2.c **** 
2143:.\Generated_Source\PSoC4/CapSense_2.c **** #if((0u != CapSense_2_AUTOCALIBRATION_ENABLE) && (CapSense_2_TUNING_METHOD != CapSense_2__TUNING_AU
2144:.\Generated_Source\PSoC4/CapSense_2.c ****     /*******************************************************************************
2145:.\Generated_Source\PSoC4/CapSense_2.c ****     * Function Name: CapSense_2_CalibrateSensor
2146:.\Generated_Source\PSoC4/CapSense_2.c ****     ********************************************************************************
2147:.\Generated_Source\PSoC4/CapSense_2.c ****     *
2148:.\Generated_Source\PSoC4/CapSense_2.c ****     * Summary:
2149:.\Generated_Source\PSoC4/CapSense_2.c ****     *  Computes the one sensor IDAC value, which provides the raw signal on
2150:.\Generated_Source\PSoC4/CapSense_2.c ****     *  a specified level, with a specified prescaler, speed, and resolution.
2151:.\Generated_Source\PSoC4/CapSense_2.c ****     *
2152:.\Generated_Source\PSoC4/CapSense_2.c ****     * Parameters:
2153:.\Generated_Source\PSoC4/CapSense_2.c ****     *  sensor - Sensor Number.
2154:.\Generated_Source\PSoC4/CapSense_2.c ****     *
2155:.\Generated_Source\PSoC4/CapSense_2.c ****     *  rawLevel -  Raw data level which should be reached during the calibration
2156:.\Generated_Source\PSoC4/CapSense_2.c ****     *              procedure.
2157:.\Generated_Source\PSoC4/CapSense_2.c ****     *
2158:.\Generated_Source\PSoC4/CapSense_2.c ****     *  idacLevelsTbl - Pointer to the modulatorIdac data register configuration table.
2159:.\Generated_Source\PSoC4/CapSense_2.c ****     *
2160:.\Generated_Source\PSoC4/CapSense_2.c ****     * Return:
2161:.\Generated_Source\PSoC4/CapSense_2.c ****     *  None
2162:.\Generated_Source\PSoC4/CapSense_2.c ****     *
2163:.\Generated_Source\PSoC4/CapSense_2.c ****     *******************************************************************************/
2164:.\Generated_Source\PSoC4/CapSense_2.c ****     void CapSense_2_CalibrateSensor(uint32 sensor, uint32 rawLevel, uint8 idacLevelsTbl[])
2165:.\Generated_Source\PSoC4/CapSense_2.c ****     {
2166:.\Generated_Source\PSoC4/CapSense_2.c ****         uint8 mask;
2167:.\Generated_Source\PSoC4/CapSense_2.c ****         uint16 rawData;
2168:.\Generated_Source\PSoC4/CapSense_2.c **** 
2169:.\Generated_Source\PSoC4/CapSense_2.c ****         rawData = 0u;
2170:.\Generated_Source\PSoC4/CapSense_2.c **** 
2171:.\Generated_Source\PSoC4/CapSense_2.c ****         mask = 0x80u;
2172:.\Generated_Source\PSoC4/CapSense_2.c ****         /* Init IDAC for null Channel */
2173:.\Generated_Source\PSoC4/CapSense_2.c ****         idacLevelsTbl[sensor] = 0x00u;
2174:.\Generated_Source\PSoC4/CapSense_2.c **** 
2175:.\Generated_Source\PSoC4/CapSense_2.c ****         do
2176:.\Generated_Source\PSoC4/CapSense_2.c ****         {
2177:.\Generated_Source\PSoC4/CapSense_2.c ****             /* Set bit for null Channel */
2178:.\Generated_Source\PSoC4/CapSense_2.c ****             idacLevelsTbl[sensor] |= mask;
2179:.\Generated_Source\PSoC4/CapSense_2.c **** 
2180:.\Generated_Source\PSoC4/CapSense_2.c ****             /* Scan null Channel and get Rawdata */
2181:.\Generated_Source\PSoC4/CapSense_2.c ****             rawData = CapSense_2_GetSensorRaw(sensor);
2182:.\Generated_Source\PSoC4/CapSense_2.c **** 
2183:.\Generated_Source\PSoC4/CapSense_2.c ****             /* Decrease IDAC until Rawdata reaches rawLevel */
2184:.\Generated_Source\PSoC4/CapSense_2.c ****             if(rawData < rawLevel)
2185:.\Generated_Source\PSoC4/CapSense_2.c ****             {
2186:.\Generated_Source\PSoC4/CapSense_2.c ****                 /* Reset bit for null Channel  */
2187:.\Generated_Source\PSoC4/CapSense_2.c ****                 idacLevelsTbl[sensor] &= (uint8)~mask;
2188:.\Generated_Source\PSoC4/CapSense_2.c ****             }
2189:.\Generated_Source\PSoC4/CapSense_2.c **** 
2190:.\Generated_Source\PSoC4/CapSense_2.c ****             mask >>= 1u;
2191:.\Generated_Source\PSoC4/CapSense_2.c ****         }
2192:.\Generated_Source\PSoC4/CapSense_2.c ****         while(mask > 0u);
2193:.\Generated_Source\PSoC4/CapSense_2.c **** 
2194:.\Generated_Source\PSoC4/CapSense_2.c ****     }
2195:.\Generated_Source\PSoC4/CapSense_2.c **** #endif /* ((0u != CapSense_2_AUTOCALIBRATION_ENABLE) && (CapSense_2_TUNING_METHOD != CapSense_2__TU
2196:.\Generated_Source\PSoC4/CapSense_2.c **** 
2197:.\Generated_Source\PSoC4/CapSense_2.c **** 
2198:.\Generated_Source\PSoC4/CapSense_2.c **** /*******************************************************************************
ARM GAS  C:\Users\glenn\AppData\Local\Temp\ccPcZrmN.s 			page 64


2199:.\Generated_Source\PSoC4/CapSense_2.c **** * Function Name: CapSense_2_SetUnscannedSensorState
2200:.\Generated_Source\PSoC4/CapSense_2.c **** ********************************************************************************
2201:.\Generated_Source\PSoC4/CapSense_2.c **** *
2202:.\Generated_Source\PSoC4/CapSense_2.c **** * Summary:
2203:.\Generated_Source\PSoC4/CapSense_2.c **** *  This API sets a state for un-scanned sensors.
2204:.\Generated_Source\PSoC4/CapSense_2.c **** *  It is possible to set the state to Ground, High-Z, or the shield electrode.
2205:.\Generated_Source\PSoC4/CapSense_2.c **** *  The un-scanned sensor can be connected to a shield electrode only if the shield is
2206:.\Generated_Source\PSoC4/CapSense_2.c **** *  enabled. If the shield is disabled and this API is called with the parameter which
2207:.\Generated_Source\PSoC4/CapSense_2.c **** *  indicates the shield state, the un-scanned sensor will be connected to Ground.
2208:.\Generated_Source\PSoC4/CapSense_2.c **** *
2209:.\Generated_Source\PSoC4/CapSense_2.c **** * Parameters:
2210:.\Generated_Source\PSoC4/CapSense_2.c **** *  sensor - Sensor Number.
2211:.\Generated_Source\PSoC4/CapSense_2.c **** *  sensorState: This parameter indicates un-scanned sensor state:
2212:.\Generated_Source\PSoC4/CapSense_2.c **** *
2213:.\Generated_Source\PSoC4/CapSense_2.c **** *     CapSense_2__GROUND 0
2214:.\Generated_Source\PSoC4/CapSense_2.c **** *     CapSense_2__HIZ_ANALOG 1
2215:.\Generated_Source\PSoC4/CapSense_2.c **** *     CapSense_2__SHIELD 2
2216:.\Generated_Source\PSoC4/CapSense_2.c **** *
2217:.\Generated_Source\PSoC4/CapSense_2.c **** * Return:
2218:.\Generated_Source\PSoC4/CapSense_2.c **** *  None.
2219:.\Generated_Source\PSoC4/CapSense_2.c **** *
2220:.\Generated_Source\PSoC4/CapSense_2.c **** * Global Variables:
2221:.\Generated_Source\PSoC4/CapSense_2.c **** *  CapSense_2_unscannedSnsDriveMode[] - used to store the state for
2222:.\Generated_Source\PSoC4/CapSense_2.c **** *  un-scanned sensors.
2223:.\Generated_Source\PSoC4/CapSense_2.c **** *
2224:.\Generated_Source\PSoC4/CapSense_2.c **** * Side Effects:
2225:.\Generated_Source\PSoC4/CapSense_2.c **** *  None
2226:.\Generated_Source\PSoC4/CapSense_2.c **** *
2227:.\Generated_Source\PSoC4/CapSense_2.c **** *******************************************************************************/
2228:.\Generated_Source\PSoC4/CapSense_2.c **** void CapSense_2_SetUnscannedSensorState(uint32 sensor, uint32 sensorState)
2229:.\Generated_Source\PSoC4/CapSense_2.c **** {
 1353              		.loc 1 2229 0
 1354              		.cfi_startproc
 1355              	.LVL159:
2230:.\Generated_Source\PSoC4/CapSense_2.c ****     #if(CapSense_2_IS_COMPLEX_SCANSLOTS)
2231:.\Generated_Source\PSoC4/CapSense_2.c ****         uint8 snsType;
2232:.\Generated_Source\PSoC4/CapSense_2.c ****         uint8 curSensor;
2233:.\Generated_Source\PSoC4/CapSense_2.c ****         uint16 snsNumber;
2234:.\Generated_Source\PSoC4/CapSense_2.c **** 
2235:.\Generated_Source\PSoC4/CapSense_2.c ****         /* Read sensor type: single or complex */
2236:.\Generated_Source\PSoC4/CapSense_2.c ****         snsType = CapSense_2_portTable[sensor];
2237:.\Generated_Source\PSoC4/CapSense_2.c **** 
2238:.\Generated_Source\PSoC4/CapSense_2.c ****         /* Check if sensor is complex */
2239:.\Generated_Source\PSoC4/CapSense_2.c ****         if(0u != (snsType & CapSense_2_COMPLEX_SS_FLAG))
2240:.\Generated_Source\PSoC4/CapSense_2.c ****         {
2241:.\Generated_Source\PSoC4/CapSense_2.c ****             snsType &= (uint8)~CapSense_2_COMPLEX_SS_FLAG;
2242:.\Generated_Source\PSoC4/CapSense_2.c ****             snsNumber = (uint16)CapSense_2_maskTable[sensor];
2243:.\Generated_Source\PSoC4/CapSense_2.c **** 
2244:.\Generated_Source\PSoC4/CapSense_2.c ****             for (curSensor=0u; curSensor < snsNumber; curSensor++)
2245:.\Generated_Source\PSoC4/CapSense_2.c ****             {
2246:.\Generated_Source\PSoC4/CapSense_2.c ****                 sensor = CapSense_2_indexTable[snsType + curSensor];
2247:.\Generated_Source\PSoC4/CapSense_2.c ****                 CapSense_2_unscannedSnsDriveMode[sensor] = (uint8)sensorState;
2248:.\Generated_Source\PSoC4/CapSense_2.c ****             }
2249:.\Generated_Source\PSoC4/CapSense_2.c ****         }
2250:.\Generated_Source\PSoC4/CapSense_2.c ****         else
2251:.\Generated_Source\PSoC4/CapSense_2.c ****         {
2252:.\Generated_Source\PSoC4/CapSense_2.c ****             CapSense_2_unscannedSnsDriveMode[sensor] = (uint8)sensorState;
ARM GAS  C:\Users\glenn\AppData\Local\Temp\ccPcZrmN.s 			page 65


2253:.\Generated_Source\PSoC4/CapSense_2.c ****         }
2254:.\Generated_Source\PSoC4/CapSense_2.c ****     #else
2255:.\Generated_Source\PSoC4/CapSense_2.c ****         CapSense_2_unscannedSnsDriveMode[sensor] = (uint8)sensorState;
 1356              		.loc 1 2255 0
 1357 0000 014B     		ldr	r3, .L89
 1358 0002 1954     		strb	r1, [r3, r0]
2256:.\Generated_Source\PSoC4/CapSense_2.c ****     #endif /* (CapSense_2_IS_COMPLEX_SCANSLOTS) */
2257:.\Generated_Source\PSoC4/CapSense_2.c **** }
 1359              		.loc 1 2257 0
 1360              		@ sp needed
 1361 0004 7047     		bx	lr
 1362              	.L90:
 1363 0006 C046     		.align	2
 1364              	.L89:
 1365 0008 00000000 		.word	CapSense_2_unscannedSnsDriveMode
 1366              		.cfi_endproc
 1367              	.LFE65:
 1368              		.size	CapSense_2_SetUnscannedSensorState, .-CapSense_2_SetUnscannedSensorState
 1369              		.section	.text.CapSense_2_Init,"ax",%progbits
 1370              		.align	2
 1371              		.global	CapSense_2_Init
 1372              		.code	16
 1373              		.thumb_func
 1374              		.type	CapSense_2_Init, %function
 1375              	CapSense_2_Init:
 1376              	.LFB35:
 164:.\Generated_Source\PSoC4/CapSense_2.c ****     uint32 curSensor;
 1377              		.loc 1 164 0
 1378              		.cfi_startproc
 1379 0000 10B5     		push	{r4, lr}
 1380              		.cfi_def_cfa_offset 8
 1381              		.cfi_offset 4, -8
 1382              		.cfi_offset 14, -4
 1383              	.LVL160:
 195:.\Generated_Source\PSoC4/CapSense_2.c ****     {
 1384              		.loc 1 195 0
 1385 0002 0024     		mov	r4, #0
 1386 0004 04E0     		b	.L92
 1387              	.LVL161:
 1388              	.L93:
 197:.\Generated_Source\PSoC4/CapSense_2.c ****     }
 1389              		.loc 1 197 0 discriminator 3
 1390 0006 201C     		mov	r0, r4
 1391 0008 0021     		mov	r1, #0
 1392 000a FFF7FEFF 		bl	CapSense_2_SetUnscannedSensorState
 1393              	.LVL162:
 195:.\Generated_Source\PSoC4/CapSense_2.c ****     {
 1394              		.loc 1 195 0 discriminator 3
 1395 000e 0134     		add	r4, r4, #1
 1396              	.LVL163:
 1397              	.L92:
 195:.\Generated_Source\PSoC4/CapSense_2.c ****     {
 1398              		.loc 1 195 0 is_stmt 0 discriminator 1
 1399 0010 002C     		cmp	r4, #0
 1400 0012 F8D0     		beq	.L93
 200:.\Generated_Source\PSoC4/CapSense_2.c ****     CapSense_2_SetShieldDelay(CapSense_2_SHIELD_DELAY );
 1401              		.loc 1 200 0 is_stmt 1
ARM GAS  C:\Users\glenn\AppData\Local\Temp\ccPcZrmN.s 			page 66


 1402 0014 FFF7FEFF 		bl	CapSense_2_CsdHwBlockInit
 1403              	.LVL164:
 201:.\Generated_Source\PSoC4/CapSense_2.c **** 
 1404              		.loc 1 201 0
 1405 0018 0020     		mov	r0, #0
 1406 001a FFF7FEFF 		bl	CapSense_2_SetShieldDelay
 1407              	.LVL165:
 204:.\Generated_Source\PSoC4/CapSense_2.c **** }
 1408              		.loc 1 204 0
 1409 001e FFF7FEFF 		bl	CapSense_2_ClearSensors
 1410              	.LVL166:
 205:.\Generated_Source\PSoC4/CapSense_2.c **** 
 1411              		.loc 1 205 0
 1412              		@ sp needed
 1413              	.LVL167:
 1414 0022 10BD     		pop	{r4, pc}
 1415              		.cfi_endproc
 1416              	.LFE35:
 1417              		.size	CapSense_2_Init, .-CapSense_2_Init
 1418              		.section	.text.CapSense_2_Start,"ax",%progbits
 1419              		.align	2
 1420              		.global	CapSense_2_Start
 1421              		.code	16
 1422              		.thumb_func
 1423              		.type	CapSense_2_Start, %function
 1424              	CapSense_2_Start:
 1425              	.LFB38:
 373:.\Generated_Source\PSoC4/CapSense_2.c **** 
 1426              		.loc 1 373 0
 1427              		.cfi_startproc
 1428 0000 08B5     		push	{r3, lr}
 1429              		.cfi_def_cfa_offset 8
 1430              		.cfi_offset 3, -8
 1431              		.cfi_offset 14, -4
 383:.\Generated_Source\PSoC4/CapSense_2.c ****     {
 1432              		.loc 1 383 0
 1433 0002 094B     		ldr	r3, .L96
 1434 0004 DB79     		ldrb	r3, [r3, #7]
 1435 0006 002B     		cmp	r3, #0
 1436 0008 04D1     		bne	.L95
 385:.\Generated_Source\PSoC4/CapSense_2.c ****         CapSense_2_initVar = 1u;
 1437              		.loc 1 385 0
 1438 000a FFF7FEFF 		bl	CapSense_2_Init
 1439              	.LVL168:
 386:.\Generated_Source\PSoC4/CapSense_2.c ****     }
 1440              		.loc 1 386 0
 1441 000e 0122     		mov	r2, #1
 1442 0010 054B     		ldr	r3, .L96
 1443 0012 DA71     		strb	r2, [r3, #7]
 1444              	.L95:
 388:.\Generated_Source\PSoC4/CapSense_2.c **** 
 1445              		.loc 1 388 0
 1446 0014 FFF7FEFF 		bl	CapSense_2_Enable
 1447              	.LVL169:
 437:.\Generated_Source\PSoC4/CapSense_2.c **** }
 1448              		.loc 1 437 0
 1449 0018 044A     		ldr	r2, .L96+4
ARM GAS  C:\Users\glenn\AppData\Local\Temp\ccPcZrmN.s 			page 67


 1450 001a 1368     		ldr	r3, [r2]
 1451 001c 8021     		mov	r1, #128
 1452 001e C903     		lsl	r1, r1, #15
 1453 0020 0B43     		orr	r3, r1
 1454 0022 1360     		str	r3, [r2]
 438:.\Generated_Source\PSoC4/CapSense_2.c **** 
 1455              		.loc 1 438 0
 1456              		@ sp needed
 1457 0024 08BD     		pop	{r3, pc}
 1458              	.L97:
 1459 0026 C046     		.align	2
 1460              	.L96:
 1461 0028 00000000 		.word	.LANCHOR0
 1462 002c 04002840 		.word	1076363268
 1463              		.cfi_endproc
 1464              	.LFE38:
 1465              		.size	CapSense_2_Start, .-CapSense_2_Start
 1466              		.global	CapSense_2_prtDRTbl
 1467              		.global	CapSense_2_prtCfgTbl
 1468              		.global	CapSense_2_prtSelTbl
 1469              		.global	CapSense_2_widgetNumber
 1470              		.global	CapSense_2_sampleClkDividerVal
 1471              		.global	CapSense_2_senseClkDividerVal
 1472              		.global	CapSense_2_widgetResolution
 1473              		.global	CapSense_2_compensationIDAC
 1474              		.global	CapSense_2_modulationIDAC
 1475              		.global	CapSense_2_pinShiftTbl
 1476              		.global	CapSense_2_maskTable
 1477              		.global	CapSense_2_portTable
 1478              		.global	CapSense_2_pcTable
 1479              		.global	CapSense_2_sensorEnableMask
 1480              		.comm	CapSense_2_sensorEnableMaskBackup,1,4
 1481              		.comm	CapSense_2_unscannedSnsDriveMode,1,4
 1482              		.comm	CapSense_2_csdTrim1,1,1
 1483              		.global	CapSense_2_sensorRaw
 1484              		.global	CapSense_2_sensorIndex
 1485              		.global	CapSense_2_csdStatusVar
 1486              		.section	.rodata
 1487              		.align	2
 1488              		.set	.LANCHOR1,. + 0
 1489              		.type	CapSense_2_prtCfgTbl, %object
 1490              		.size	CapSense_2_prtCfgTbl, 32
 1491              	CapSense_2_prtCfgTbl:
 1492 0000 08000440 		.word	1074003976
 1493 0004 08010440 		.word	1074004232
 1494 0008 08020440 		.word	1074004488
 1495 000c 08030440 		.word	1074004744
 1496 0010 08040440 		.word	1074005000
 1497 0014 08050440 		.word	1074005256
 1498 0018 08060440 		.word	1074005512
 1499 001c 08070440 		.word	1074005768
 1500              		.type	CapSense_2_prtSelTbl, %object
 1501              		.size	CapSense_2_prtSelTbl, 32
 1502              	CapSense_2_prtSelTbl:
 1503 0020 00000240 		.word	1073872896
 1504 0024 00010240 		.word	1073873152
 1505 0028 00020240 		.word	1073873408
ARM GAS  C:\Users\glenn\AppData\Local\Temp\ccPcZrmN.s 			page 68


 1506 002c 00030240 		.word	1073873664
 1507 0030 00040240 		.word	1073873920
 1508 0034 00050240 		.word	1073874176
 1509 0038 00060240 		.word	1073874432
 1510 003c 00070240 		.word	1073874688
 1511              		.type	CapSense_2_prtDRTbl, %object
 1512              		.size	CapSense_2_prtDRTbl, 32
 1513              	CapSense_2_prtDRTbl:
 1514 0040 00000440 		.word	1074003968
 1515 0044 00010440 		.word	1074004224
 1516 0048 00020440 		.word	1074004480
 1517 004c 00030440 		.word	1074004736
 1518 0050 00040440 		.word	1074004992
 1519 0054 00050440 		.word	1074005248
 1520 0058 00060440 		.word	1074005504
 1521 005c 00070440 		.word	1074005760
 1522              		.type	CapSense_2_widgetNumber, %object
 1523              		.size	CapSense_2_widgetNumber, 1
 1524              	CapSense_2_widgetNumber:
 1525 0060 00       		.space	1
 1526 0061 000000   		.space	3
 1527              		.type	CapSense_2_sampleClkDividerVal, %object
 1528              		.size	CapSense_2_sampleClkDividerVal, 1
 1529              	CapSense_2_sampleClkDividerVal:
 1530 0064 02       		.byte	2
 1531 0065 000000   		.space	3
