ARM GAS  C:\Users\glenn\AppData\Local\Temp\cc8ystec.s 			page 1


   1              		.cpu cortex-m0
   2              		.fpu softvfp
   3              		.eabi_attribute 20, 1
   4              		.eabi_attribute 21, 1
   5              		.eabi_attribute 23, 3
   6              		.eabi_attribute 24, 1
   7              		.eabi_attribute 25, 1
   8              		.eabi_attribute 26, 1
   9              		.eabi_attribute 30, 6
  10              		.eabi_attribute 34, 0
  11              		.eabi_attribute 18, 4
  12              		.code	16
  13              		.file	"CapSense_1.c"
  14              		.text
  15              	.Ltext0:
  16              		.cfi_sections	.debug_frame
  17              		.global	CapSense_1_csdStatusVar
  18              		.bss
  19              		.type	CapSense_1_csdStatusVar, %object
  20              		.size	CapSense_1_csdStatusVar, 1
  21              	CapSense_1_csdStatusVar:
  22 0000 00       		.space	1
  23              		.global	CapSense_1_sensorIndex
  24              		.type	CapSense_1_sensorIndex, %object
  25              		.size	CapSense_1_sensorIndex, 1
  26              	CapSense_1_sensorIndex:
  27 0001 00       		.space	1
  28              		.global	CapSense_1_sensorRaw
  29 0002 0000     		.align	2
  30              		.type	CapSense_1_sensorRaw, %object
  31              		.size	CapSense_1_sensorRaw, 16
  32              	CapSense_1_sensorRaw:
  33 0004 00000000 		.space	16
  33      00000000 
  33      00000000 
  33      00000000 
  34              		.comm	CapSense_1_csdTrim1,1,1
  35              		.comm	CapSense_1_unscannedSnsDriveMode,8,4
  36              		.comm	CapSense_1_sensorEnableMaskBackup,1,4
  37              		.global	CapSense_1_sensorEnableMask
  38              		.data
  39              		.align	2
  40              		.type	CapSense_1_sensorEnableMask, %object
  41              		.size	CapSense_1_sensorEnableMask, 1
  42              	CapSense_1_sensorEnableMask:
  43 0000 FF       		.byte	-1
  44              		.global	CapSense_1_pcTable
  45 0001 000000   		.align	2
  46              		.type	CapSense_1_pcTable, %object
  47              		.size	CapSense_1_pcTable, 32
  48              	CapSense_1_pcTable:
  49 0004 08020440 		.word	1074004488
  50 0008 08020440 		.word	1074004488
  51 000c 08020440 		.word	1074004488
  52 0010 08060440 		.word	1074005512
  53 0014 08060440 		.word	1074005512
  54 0018 08060440 		.word	1074005512
ARM GAS  C:\Users\glenn\AppData\Local\Temp\cc8ystec.s 			page 2


  55 001c 08060440 		.word	1074005512
  56 0020 08060440 		.word	1074005512
  57              		.global	CapSense_1_portTable
  58              		.section	.rodata
  59              		.align	2
  60              		.type	CapSense_1_portTable, %object
  61              		.size	CapSense_1_portTable, 8
  62              	CapSense_1_portTable:
  63 0000 02       		.byte	2
  64 0001 02       		.byte	2
  65 0002 02       		.byte	2
  66 0003 06       		.byte	6
  67 0004 06       		.byte	6
  68 0005 06       		.byte	6
  69 0006 06       		.byte	6
  70 0007 06       		.byte	6
  71              		.global	CapSense_1_maskTable
  72              		.align	2
  73              		.type	CapSense_1_maskTable, %object
  74              		.size	CapSense_1_maskTable, 32
  75              	CapSense_1_maskTable:
  76 0008 20000000 		.word	32
  77 000c 40000000 		.word	64
  78 0010 80000000 		.word	128
  79 0014 01000000 		.word	1
  80 0018 02000000 		.word	2
  81 001c 04000000 		.word	4
  82 0020 10000000 		.word	16
  83 0024 20000000 		.word	32
  84              		.global	CapSense_1_pinShiftTbl
  85              		.align	2
  86              		.type	CapSense_1_pinShiftTbl, %object
  87              		.size	CapSense_1_pinShiftTbl, 8
  88              	CapSense_1_pinShiftTbl:
  89 0028 05       		.byte	5
  90 0029 06       		.byte	6
  91 002a 07       		.byte	7
  92 002b 00       		.byte	0
  93 002c 01       		.byte	1
  94 002d 02       		.byte	2
  95 002e 04       		.byte	4
  96 002f 05       		.byte	5
  97              		.global	CapSense_1_modulationIDAC
  98              		.align	2
  99              		.type	CapSense_1_modulationIDAC, %object
 100              		.size	CapSense_1_modulationIDAC, 8
 101              	CapSense_1_modulationIDAC:
 102 0030 50       		.byte	80
 103 0031 50       		.byte	80
 104 0032 50       		.byte	80
 105 0033 50       		.byte	80
 106 0034 50       		.byte	80
 107 0035 50       		.byte	80
 108 0036 50       		.byte	80
 109 0037 50       		.byte	80
 110              		.global	CapSense_1_compensationIDAC
 111              		.align	2
ARM GAS  C:\Users\glenn\AppData\Local\Temp\cc8ystec.s 			page 3


 112              		.type	CapSense_1_compensationIDAC, %object
 113              		.size	CapSense_1_compensationIDAC, 8
 114              	CapSense_1_compensationIDAC:
 115 0038 50       		.byte	80
 116 0039 50       		.byte	80
 117 003a 50       		.byte	80
 118 003b 50       		.byte	80
 119 003c 50       		.byte	80
 120 003d 50       		.byte	80
 121 003e 50       		.byte	80
 122 003f 50       		.byte	80
 123              		.global	CapSense_1_widgetResolution
 124              		.align	2
 125              		.type	CapSense_1_widgetResolution, %object
 126              		.size	CapSense_1_widgetResolution, 32
 127              	CapSense_1_widgetResolution:
 128 0040 0000FFFF 		.word	-65536
 129 0044 0000FFFF 		.word	-65536
 130 0048 0000FFFF 		.word	-65536
 131 004c 0000FFFF 		.word	-65536
 132 0050 0000FFFF 		.word	-65536
 133 0054 0000FFFF 		.word	-65536
 134 0058 0000FFFF 		.word	-65536
 135 005c 0000FFFF 		.word	-65536
 136              		.global	CapSense_1_senseClkDividerVal
 137              		.align	2
 138              		.type	CapSense_1_senseClkDividerVal, %object
 139              		.size	CapSense_1_senseClkDividerVal, 8
 140              	CapSense_1_senseClkDividerVal:
 141 0060 0A       		.byte	10
 142 0061 0A       		.byte	10
 143 0062 0A       		.byte	10
 144 0063 0A       		.byte	10
 145 0064 0A       		.byte	10
 146 0065 0A       		.byte	10
 147 0066 0A       		.byte	10
 148 0067 0A       		.byte	10
 149              		.global	CapSense_1_sampleClkDividerVal
 150              		.align	2
 151              		.type	CapSense_1_sampleClkDividerVal, %object
 152              		.size	CapSense_1_sampleClkDividerVal, 8
 153              	CapSense_1_sampleClkDividerVal:
 154 0068 0A       		.byte	10
 155 0069 0A       		.byte	10
 156 006a 0A       		.byte	10
 157 006b 0A       		.byte	10
 158 006c 0A       		.byte	10
 159 006d 0A       		.byte	10
 160 006e 0A       		.byte	10
 161 006f 0A       		.byte	10
 162              		.global	CapSense_1_widgetNumber
 163              		.align	2
 164              		.type	CapSense_1_widgetNumber, %object
 165              		.size	CapSense_1_widgetNumber, 8
 166              	CapSense_1_widgetNumber:
 167 0070 00       		.byte	0
 168 0071 01       		.byte	1
ARM GAS  C:\Users\glenn\AppData\Local\Temp\cc8ystec.s 			page 4


 169 0072 02       		.byte	2
 170 0073 03       		.byte	3
 171 0074 04       		.byte	4
 172 0075 05       		.byte	5
 173 0076 06       		.byte	6
 174 0077 07       		.byte	7
 175              		.global	CapSense_1_prtSelTbl
 176              		.align	2
 177              		.type	CapSense_1_prtSelTbl, %object
 178              		.size	CapSense_1_prtSelTbl, 32
 179              	CapSense_1_prtSelTbl:
 180 0078 00000240 		.word	1073872896
 181 007c 00010240 		.word	1073873152
 182 0080 00020240 		.word	1073873408
 183 0084 00030240 		.word	1073873664
 184 0088 00040240 		.word	1073873920
 185 008c 00050240 		.word	1073874176
 186 0090 00060240 		.word	1073874432
 187 0094 00070240 		.word	1073874688
 188              		.global	CapSense_1_prtCfgTbl
 189              		.align	2
 190              		.type	CapSense_1_prtCfgTbl, %object
 191              		.size	CapSense_1_prtCfgTbl, 32
 192              	CapSense_1_prtCfgTbl:
 193 0098 08000440 		.word	1074003976
 194 009c 08010440 		.word	1074004232
 195 00a0 08020440 		.word	1074004488
 196 00a4 08030440 		.word	1074004744
 197 00a8 08040440 		.word	1074005000
 198 00ac 08050440 		.word	1074005256
 199 00b0 08060440 		.word	1074005512
 200 00b4 08070440 		.word	1074005768
 201              		.global	CapSense_1_prtDRTbl
 202              		.align	2
 203              		.type	CapSense_1_prtDRTbl, %object
 204              		.size	CapSense_1_prtDRTbl, 32
 205              	CapSense_1_prtDRTbl:
 206 00b8 00000440 		.word	1074003968
 207 00bc 00010440 		.word	1074004224
 208 00c0 00020440 		.word	1074004480
 209 00c4 00030440 		.word	1074004736
 210 00c8 00040440 		.word	1074004992
 211 00cc 00050440 		.word	1074005248
 212 00d0 00060440 		.word	1074005504
 213 00d4 00070440 		.word	1074005760
 214              		.section	.text.CapSense_1_Init,"ax",%progbits
 215              		.align	2
 216              		.global	CapSense_1_Init
 217              		.code	16
 218              		.thumb_func
 219              		.type	CapSense_1_Init, %function
 220              	CapSense_1_Init:
 221              	.LFB35:
 222              		.file 1 "Generated_Source\\PSoC4\\CapSense_1.c"
   1:Generated_Source\PSoC4/CapSense_1.c **** /*******************************************************************************
   2:Generated_Source\PSoC4/CapSense_1.c **** * File Name: CapSense_1.c
   3:Generated_Source\PSoC4/CapSense_1.c **** * Version 2.50
ARM GAS  C:\Users\glenn\AppData\Local\Temp\cc8ystec.s 			page 5


   4:Generated_Source\PSoC4/CapSense_1.c **** *
   5:Generated_Source\PSoC4/CapSense_1.c **** * Description:
   6:Generated_Source\PSoC4/CapSense_1.c **** *  This file provides the source code for scanning APIs for the CapSense CSD
   7:Generated_Source\PSoC4/CapSense_1.c **** *  component.
   8:Generated_Source\PSoC4/CapSense_1.c **** *
   9:Generated_Source\PSoC4/CapSense_1.c **** * Note:
  10:Generated_Source\PSoC4/CapSense_1.c **** *
  11:Generated_Source\PSoC4/CapSense_1.c **** ********************************************************************************
  12:Generated_Source\PSoC4/CapSense_1.c **** * Copyright 2013-2016, Cypress Semiconductor Corporation.  All rights reserved.
  13:Generated_Source\PSoC4/CapSense_1.c **** * You may use this file only in accordance with the license, terms, conditions,
  14:Generated_Source\PSoC4/CapSense_1.c **** * disclaimers, and limitations in the end user license agreement accompanying
  15:Generated_Source\PSoC4/CapSense_1.c **** * the software package with which this file was provided.
  16:Generated_Source\PSoC4/CapSense_1.c **** *******************************************************************************/
  17:Generated_Source\PSoC4/CapSense_1.c **** 
  18:Generated_Source\PSoC4/CapSense_1.c **** #include "CapSense_1.h"
  19:Generated_Source\PSoC4/CapSense_1.c **** #include "CapSense_1_PVT.h"
  20:Generated_Source\PSoC4/CapSense_1.c **** #include "cypins.h"
  21:Generated_Source\PSoC4/CapSense_1.c **** #include "cyapicallbacks.h"
  22:Generated_Source\PSoC4/CapSense_1.c **** 
  23:Generated_Source\PSoC4/CapSense_1.c **** #if(0u != CapSense_1_CSHL_API_GENERATE)
  24:Generated_Source\PSoC4/CapSense_1.c ****     #include "CapSense_1_CSHL.h"
  25:Generated_Source\PSoC4/CapSense_1.c **** #endif /* (0u != CapSense_1_CSHL_API_GENERATE) */
  26:Generated_Source\PSoC4/CapSense_1.c **** 
  27:Generated_Source\PSoC4/CapSense_1.c **** /* This definition is intended to prevent unexpected linker error.
  28:Generated_Source\PSoC4/CapSense_1.c ****    For more details please see the IAR Technical Note 49981 */
  29:Generated_Source\PSoC4/CapSense_1.c **** #if defined(__ICCARM__)
  30:Generated_Source\PSoC4/CapSense_1.c ****     extern void CapSense_1_EnableSensor(uint32 sensor);
  31:Generated_Source\PSoC4/CapSense_1.c ****     extern void CapSense_1_DisableSensor(uint32 sensor);
  32:Generated_Source\PSoC4/CapSense_1.c **** #endif /* (__ICCARM__) */
  33:Generated_Source\PSoC4/CapSense_1.c **** 
  34:Generated_Source\PSoC4/CapSense_1.c **** /* SmartSense functions */
  35:Generated_Source\PSoC4/CapSense_1.c **** #if (CapSense_1_TUNING_METHOD == CapSense_1__TUNING_AUTO)
  36:Generated_Source\PSoC4/CapSense_1.c ****     uint8 CapSense_1_lowLevelTuningDone = 0u;
  37:Generated_Source\PSoC4/CapSense_1.c ****     uint8 CapSense_1_scanSpeedTbl[((CapSense_1_TOTAL_SENSOR_COUNT - 1u) / 8u) + 1u];
  38:Generated_Source\PSoC4/CapSense_1.c **** #endif /* (CapSense_1_TUNING_METHOD == CapSense_1__TUNING_AUTO) */
  39:Generated_Source\PSoC4/CapSense_1.c **** 
  40:Generated_Source\PSoC4/CapSense_1.c **** #if(CapSense_1_PRS_OPTIONS != CapSense_1__PRS_NONE)
  41:Generated_Source\PSoC4/CapSense_1.c ****     uint8 CapSense_1_prescalersTuningDone = 0u;
  42:Generated_Source\PSoC4/CapSense_1.c **** #endif /* (CapSense_1_PRS_OPTIONS == CapSense_1__PRS_NONE) */
  43:Generated_Source\PSoC4/CapSense_1.c **** 
  44:Generated_Source\PSoC4/CapSense_1.c **** /* Global software variables */
  45:Generated_Source\PSoC4/CapSense_1.c **** volatile uint8 CapSense_1_csdStatusVar = 0u;   /* CapSense CSD status, variable */
  46:Generated_Source\PSoC4/CapSense_1.c **** volatile uint8 CapSense_1_sensorIndex = 0u;    /* Index of scannig sensor */
  47:Generated_Source\PSoC4/CapSense_1.c **** 
  48:Generated_Source\PSoC4/CapSense_1.c **** /* Global array of Raw Counts */
  49:Generated_Source\PSoC4/CapSense_1.c **** uint16 CapSense_1_sensorRaw[CapSense_1_TOTAL_SENSOR_COUNT] = {0u};
  50:Generated_Source\PSoC4/CapSense_1.c **** 
  51:Generated_Source\PSoC4/CapSense_1.c **** /* Backup variables for trim registers*/
  52:Generated_Source\PSoC4/CapSense_1.c **** #if (CapSense_1_IDAC1_POLARITY == CapSense_1__IDAC_SINK)
  53:Generated_Source\PSoC4/CapSense_1.c ****     uint8 CapSense_1_csdTrim2;
  54:Generated_Source\PSoC4/CapSense_1.c **** #else
  55:Generated_Source\PSoC4/CapSense_1.c ****     uint8 CapSense_1_csdTrim1;
  56:Generated_Source\PSoC4/CapSense_1.c **** #endif /* (CapSense_1_IDAC1_POLARITY == CapSense_1__IDAC_SINK) */
  57:Generated_Source\PSoC4/CapSense_1.c **** 
  58:Generated_Source\PSoC4/CapSense_1.c **** /* Global array of un-scanned sensors state */
  59:Generated_Source\PSoC4/CapSense_1.c **** uint8 CapSense_1_unscannedSnsDriveMode[CapSense_1_PORT_PIN_CONFIG_TBL_ZISE];
  60:Generated_Source\PSoC4/CapSense_1.c **** 
ARM GAS  C:\Users\glenn\AppData\Local\Temp\cc8ystec.s 			page 6


  61:Generated_Source\PSoC4/CapSense_1.c **** /* Backup array for CapSense_1_sensorEnableMask */
  62:Generated_Source\PSoC4/CapSense_1.c **** uint8 CapSense_1_sensorEnableMaskBackup[(((CapSense_1_TOTAL_SENSOR_COUNT - 1u) / 8u) + 1u)];
  63:Generated_Source\PSoC4/CapSense_1.c **** 
  64:Generated_Source\PSoC4/CapSense_1.c **** /* Configured constants and arrays by Customizer */
  65:Generated_Source\PSoC4/CapSense_1.c **** uint8 CapSense_1_sensorEnableMask[(((CapSense_1_TOTAL_SENSOR_COUNT - 1u) / 8u) + 1u)] = {
  66:Generated_Source\PSoC4/CapSense_1.c **** 0xFFu, };
  67:Generated_Source\PSoC4/CapSense_1.c **** 
  68:Generated_Source\PSoC4/CapSense_1.c **** reg32 * CapSense_1_pcTable[] = {
  69:Generated_Source\PSoC4/CapSense_1.c ****     (reg32 *)CapSense_1_Sns__Generic0_0__GEN__PC, 
  70:Generated_Source\PSoC4/CapSense_1.c ****     (reg32 *)CapSense_1_Sns__Generic1_0__GEN__PC, 
  71:Generated_Source\PSoC4/CapSense_1.c ****     (reg32 *)CapSense_1_Sns__Generic2_0__GEN__PC, 
  72:Generated_Source\PSoC4/CapSense_1.c ****     (reg32 *)CapSense_1_Sns__Generic3_0__GEN__PC, 
  73:Generated_Source\PSoC4/CapSense_1.c ****     (reg32 *)CapSense_1_Sns__Generic4_0__GEN__PC, 
  74:Generated_Source\PSoC4/CapSense_1.c ****     (reg32 *)CapSense_1_Sns__Generic5_0__GEN__PC, 
  75:Generated_Source\PSoC4/CapSense_1.c ****     (reg32 *)CapSense_1_Sns__Generic6_0__GEN__PC, 
  76:Generated_Source\PSoC4/CapSense_1.c ****     (reg32 *)CapSense_1_Sns__Generic7_0__GEN__PC, 
  77:Generated_Source\PSoC4/CapSense_1.c **** };
  78:Generated_Source\PSoC4/CapSense_1.c **** 
  79:Generated_Source\PSoC4/CapSense_1.c **** const uint8 CapSense_1_portTable[] = {
  80:Generated_Source\PSoC4/CapSense_1.c ****     CapSense_1_Sns__Generic0_0__GEN__PORT, 
  81:Generated_Source\PSoC4/CapSense_1.c ****     CapSense_1_Sns__Generic1_0__GEN__PORT, 
  82:Generated_Source\PSoC4/CapSense_1.c ****     CapSense_1_Sns__Generic2_0__GEN__PORT, 
  83:Generated_Source\PSoC4/CapSense_1.c ****     CapSense_1_Sns__Generic3_0__GEN__PORT, 
  84:Generated_Source\PSoC4/CapSense_1.c ****     CapSense_1_Sns__Generic4_0__GEN__PORT, 
  85:Generated_Source\PSoC4/CapSense_1.c ****     CapSense_1_Sns__Generic5_0__GEN__PORT, 
  86:Generated_Source\PSoC4/CapSense_1.c ****     CapSense_1_Sns__Generic6_0__GEN__PORT, 
  87:Generated_Source\PSoC4/CapSense_1.c ****     CapSense_1_Sns__Generic7_0__GEN__PORT, 
  88:Generated_Source\PSoC4/CapSense_1.c **** };
  89:Generated_Source\PSoC4/CapSense_1.c **** 
  90:Generated_Source\PSoC4/CapSense_1.c **** const uint32 CapSense_1_maskTable[] = {
  91:Generated_Source\PSoC4/CapSense_1.c ****     CapSense_1_Sns__Generic0_0__GEN__MASK, 
  92:Generated_Source\PSoC4/CapSense_1.c ****     CapSense_1_Sns__Generic1_0__GEN__MASK, 
  93:Generated_Source\PSoC4/CapSense_1.c ****     CapSense_1_Sns__Generic2_0__GEN__MASK, 
  94:Generated_Source\PSoC4/CapSense_1.c ****     CapSense_1_Sns__Generic3_0__GEN__MASK, 
  95:Generated_Source\PSoC4/CapSense_1.c ****     CapSense_1_Sns__Generic4_0__GEN__MASK, 
  96:Generated_Source\PSoC4/CapSense_1.c ****     CapSense_1_Sns__Generic5_0__GEN__MASK, 
  97:Generated_Source\PSoC4/CapSense_1.c ****     CapSense_1_Sns__Generic6_0__GEN__MASK, 
  98:Generated_Source\PSoC4/CapSense_1.c ****     CapSense_1_Sns__Generic7_0__GEN__MASK, 
  99:Generated_Source\PSoC4/CapSense_1.c **** };
 100:Generated_Source\PSoC4/CapSense_1.c **** 
 101:Generated_Source\PSoC4/CapSense_1.c **** const uint8 CapSense_1_pinShiftTbl[] = {
 102:Generated_Source\PSoC4/CapSense_1.c ****     (uint8) CapSense_1_Sns__Generic0_0__GEN__SHIFT, 
 103:Generated_Source\PSoC4/CapSense_1.c ****     (uint8) CapSense_1_Sns__Generic1_0__GEN__SHIFT, 
 104:Generated_Source\PSoC4/CapSense_1.c ****     (uint8) CapSense_1_Sns__Generic2_0__GEN__SHIFT, 
 105:Generated_Source\PSoC4/CapSense_1.c ****     (uint8) CapSense_1_Sns__Generic3_0__GEN__SHIFT, 
 106:Generated_Source\PSoC4/CapSense_1.c ****     (uint8) CapSense_1_Sns__Generic4_0__GEN__SHIFT, 
 107:Generated_Source\PSoC4/CapSense_1.c ****     (uint8) CapSense_1_Sns__Generic5_0__GEN__SHIFT, 
 108:Generated_Source\PSoC4/CapSense_1.c ****     (uint8) CapSense_1_Sns__Generic6_0__GEN__SHIFT, 
 109:Generated_Source\PSoC4/CapSense_1.c ****     (uint8) CapSense_1_Sns__Generic7_0__GEN__SHIFT, 
 110:Generated_Source\PSoC4/CapSense_1.c **** };
 111:Generated_Source\PSoC4/CapSense_1.c **** 
 112:Generated_Source\PSoC4/CapSense_1.c **** const uint8 CapSense_1_modulationIDAC[CapSense_1_TOTAL_SENSOR_COUNT] = {
 113:Generated_Source\PSoC4/CapSense_1.c ****     80u, 80u, 80u, 80u, 80u, 80u, 80u, 80u, 
 114:Generated_Source\PSoC4/CapSense_1.c **** };
 115:Generated_Source\PSoC4/CapSense_1.c **** const uint8 CapSense_1_compensationIDAC[CapSense_1_TOTAL_SENSOR_COUNT] = {
 116:Generated_Source\PSoC4/CapSense_1.c ****     80u, 80u, 80u, 80u, 80u, 80u, 80u, 80u, 
 117:Generated_Source\PSoC4/CapSense_1.c **** };
ARM GAS  C:\Users\glenn\AppData\Local\Temp\cc8ystec.s 			page 7


 118:Generated_Source\PSoC4/CapSense_1.c **** 
 119:Generated_Source\PSoC4/CapSense_1.c **** const uint32 CapSense_1_widgetResolution[CapSense_1_RESOLUTIONS_TBL_SIZE] = {
 120:Generated_Source\PSoC4/CapSense_1.c ****     CapSense_1_RESOLUTION_16_BITS,
 121:Generated_Source\PSoC4/CapSense_1.c ****     CapSense_1_RESOLUTION_16_BITS,
 122:Generated_Source\PSoC4/CapSense_1.c ****     CapSense_1_RESOLUTION_16_BITS,
 123:Generated_Source\PSoC4/CapSense_1.c ****     CapSense_1_RESOLUTION_16_BITS,
 124:Generated_Source\PSoC4/CapSense_1.c ****     CapSense_1_RESOLUTION_16_BITS,
 125:Generated_Source\PSoC4/CapSense_1.c ****     CapSense_1_RESOLUTION_16_BITS,
 126:Generated_Source\PSoC4/CapSense_1.c ****     CapSense_1_RESOLUTION_16_BITS,
 127:Generated_Source\PSoC4/CapSense_1.c ****     CapSense_1_RESOLUTION_16_BITS,
 128:Generated_Source\PSoC4/CapSense_1.c **** };
 129:Generated_Source\PSoC4/CapSense_1.c **** 
 130:Generated_Source\PSoC4/CapSense_1.c **** const uint8 CapSense_1_senseClkDividerVal[CapSense_1_TOTAL_SCANSLOT_COUNT] = {
 131:Generated_Source\PSoC4/CapSense_1.c ****     10u, 10u, 10u, 10u, 10u, 10u, 10u, 10u, 
 132:Generated_Source\PSoC4/CapSense_1.c **** };
 133:Generated_Source\PSoC4/CapSense_1.c **** const uint8 CapSense_1_sampleClkDividerVal[CapSense_1_TOTAL_SCANSLOT_COUNT] = {
 134:Generated_Source\PSoC4/CapSense_1.c ****     10u, 10u, 10u, 10u, 10u, 10u, 10u, 10u, 
 135:Generated_Source\PSoC4/CapSense_1.c **** };
 136:Generated_Source\PSoC4/CapSense_1.c **** 
 137:Generated_Source\PSoC4/CapSense_1.c **** 
 138:Generated_Source\PSoC4/CapSense_1.c **** const uint8 CapSense_1_widgetNumber[CapSense_1_TOTAL_SENSOR_COUNT] = {
 139:Generated_Source\PSoC4/CapSense_1.c ****     0u, /* Generic0__GEN */
 140:Generated_Source\PSoC4/CapSense_1.c ****     1u, /* Generic1__GEN */
 141:Generated_Source\PSoC4/CapSense_1.c ****     2u, /* Generic2__GEN */
 142:Generated_Source\PSoC4/CapSense_1.c ****     3u, /* Generic3__GEN */
 143:Generated_Source\PSoC4/CapSense_1.c ****     4u, /* Generic4__GEN */
 144:Generated_Source\PSoC4/CapSense_1.c ****     5u, /* Generic5__GEN */
 145:Generated_Source\PSoC4/CapSense_1.c ****     6u, /* Generic6__GEN */
 146:Generated_Source\PSoC4/CapSense_1.c ****     7u, /* Generic7__GEN */
 147:Generated_Source\PSoC4/CapSense_1.c **** };
 148:Generated_Source\PSoC4/CapSense_1.c **** 
 149:Generated_Source\PSoC4/CapSense_1.c **** reg32* const CapSense_1_prtSelTbl[CapSense_1_CFG_REG_TBL_SIZE] = {
 150:Generated_Source\PSoC4/CapSense_1.c ****     ((reg32 *) CYREG_HSIOM_PORT_SEL0),
 151:Generated_Source\PSoC4/CapSense_1.c ****     ((reg32 *) CYREG_HSIOM_PORT_SEL1),
 152:Generated_Source\PSoC4/CapSense_1.c ****     ((reg32 *) CYREG_HSIOM_PORT_SEL2),
 153:Generated_Source\PSoC4/CapSense_1.c ****     ((reg32 *) CYREG_HSIOM_PORT_SEL3),
 154:Generated_Source\PSoC4/CapSense_1.c ****     ((reg32 *) CYREG_HSIOM_PORT_SEL4),
 155:Generated_Source\PSoC4/CapSense_1.c ****     ((reg32 *) CYREG_HSIOM_PORT_SEL5),
 156:Generated_Source\PSoC4/CapSense_1.c ****     ((reg32 *) CYREG_HSIOM_PORT_SEL6),
 157:Generated_Source\PSoC4/CapSense_1.c ****     ((reg32 *) CYREG_HSIOM_PORT_SEL7),
 158:Generated_Source\PSoC4/CapSense_1.c **** };
 159:Generated_Source\PSoC4/CapSense_1.c **** 
 160:Generated_Source\PSoC4/CapSense_1.c **** reg32* const CapSense_1_prtCfgTbl[CapSense_1_CFG_REG_TBL_SIZE] = {
 161:Generated_Source\PSoC4/CapSense_1.c ****     ((reg32 *) CYREG_GPIO_PRT0_PC),
 162:Generated_Source\PSoC4/CapSense_1.c ****     ((reg32 *) CYREG_GPIO_PRT1_PC),
 163:Generated_Source\PSoC4/CapSense_1.c ****     ((reg32 *) CYREG_GPIO_PRT2_PC),
 164:Generated_Source\PSoC4/CapSense_1.c ****     ((reg32 *) CYREG_GPIO_PRT3_PC),
 165:Generated_Source\PSoC4/CapSense_1.c ****     ((reg32 *) CYREG_GPIO_PRT4_PC),
 166:Generated_Source\PSoC4/CapSense_1.c ****     ((reg32 *) CYREG_GPIO_PRT5_PC),
 167:Generated_Source\PSoC4/CapSense_1.c ****     ((reg32 *) CYREG_GPIO_PRT6_PC),
 168:Generated_Source\PSoC4/CapSense_1.c ****     ((reg32 *) CYREG_GPIO_PRT7_PC),
 169:Generated_Source\PSoC4/CapSense_1.c **** };
 170:Generated_Source\PSoC4/CapSense_1.c **** 
 171:Generated_Source\PSoC4/CapSense_1.c **** reg32* const CapSense_1_prtDRTbl[CapSense_1_CFG_REG_TBL_SIZE] = {
 172:Generated_Source\PSoC4/CapSense_1.c ****     ((reg32 *) CYREG_GPIO_PRT0_DR),
 173:Generated_Source\PSoC4/CapSense_1.c ****     ((reg32 *) CYREG_GPIO_PRT1_DR),
 174:Generated_Source\PSoC4/CapSense_1.c ****     ((reg32 *) CYREG_GPIO_PRT2_DR),
ARM GAS  C:\Users\glenn\AppData\Local\Temp\cc8ystec.s 			page 8


 175:Generated_Source\PSoC4/CapSense_1.c ****     ((reg32 *) CYREG_GPIO_PRT3_DR),
 176:Generated_Source\PSoC4/CapSense_1.c ****     ((reg32 *) CYREG_GPIO_PRT4_DR),
 177:Generated_Source\PSoC4/CapSense_1.c ****     ((reg32 *) CYREG_GPIO_PRT5_DR),
 178:Generated_Source\PSoC4/CapSense_1.c ****     ((reg32 *) CYREG_GPIO_PRT6_DR),
 179:Generated_Source\PSoC4/CapSense_1.c ****     ((reg32 *) CYREG_GPIO_PRT7_DR),
 180:Generated_Source\PSoC4/CapSense_1.c **** };
 181:Generated_Source\PSoC4/CapSense_1.c **** 
 182:Generated_Source\PSoC4/CapSense_1.c **** 
 183:Generated_Source\PSoC4/CapSense_1.c **** 
 184:Generated_Source\PSoC4/CapSense_1.c **** /*******************************************************************************
 185:Generated_Source\PSoC4/CapSense_1.c **** * Function Name: CapSense_1_Init
 186:Generated_Source\PSoC4/CapSense_1.c **** ********************************************************************************
 187:Generated_Source\PSoC4/CapSense_1.c **** *
 188:Generated_Source\PSoC4/CapSense_1.c **** * Summary:
 189:Generated_Source\PSoC4/CapSense_1.c **** *  API initializes default CapSense configuration provided by the customizer that defines
 190:Generated_Source\PSoC4/CapSense_1.c **** *  the mode of component operations and resets all the sensors to an inactive state.
 191:Generated_Source\PSoC4/CapSense_1.c **** *
 192:Generated_Source\PSoC4/CapSense_1.c **** * Parameters:
 193:Generated_Source\PSoC4/CapSense_1.c **** *  None
 194:Generated_Source\PSoC4/CapSense_1.c **** *
 195:Generated_Source\PSoC4/CapSense_1.c **** * Return:
 196:Generated_Source\PSoC4/CapSense_1.c **** *  None
 197:Generated_Source\PSoC4/CapSense_1.c **** *
 198:Generated_Source\PSoC4/CapSense_1.c **** * Global Variables:
 199:Generated_Source\PSoC4/CapSense_1.c **** *  CapSense_1_immunityIndex - defines immunity level.
 200:Generated_Source\PSoC4/CapSense_1.c **** *
 201:Generated_Source\PSoC4/CapSense_1.c **** * Side Effects:
 202:Generated_Source\PSoC4/CapSense_1.c **** *  None
 203:Generated_Source\PSoC4/CapSense_1.c **** *
 204:Generated_Source\PSoC4/CapSense_1.c **** *******************************************************************************/
 205:Generated_Source\PSoC4/CapSense_1.c **** void CapSense_1_Init(void)
 206:Generated_Source\PSoC4/CapSense_1.c **** {
 223              		.loc 1 206 0
 224              		.cfi_startproc
 225 0000 80B5     		push	{r7, lr}
 226              		.cfi_def_cfa_offset 8
 227              		.cfi_offset 7, -8
 228              		.cfi_offset 14, -4
 229 0002 82B0     		sub	sp, sp, #8
 230              		.cfi_def_cfa_offset 16
 231 0004 00AF     		add	r7, sp, #0
 232              		.cfi_def_cfa_register 7
 207:Generated_Source\PSoC4/CapSense_1.c ****     uint32 curSensor;
 208:Generated_Source\PSoC4/CapSense_1.c **** 
 209:Generated_Source\PSoC4/CapSense_1.c ****     #if(CapSense_1_IS_SHIELD_ENABLE)
 210:Generated_Source\PSoC4/CapSense_1.c **** 
 211:Generated_Source\PSoC4/CapSense_1.c ****         #if((CapSense_1_CSH_TANK_PREGARGE_OPTION == CapSense_1__CAPPRIOBUF) || (0u != CapSense_1_CS
 212:Generated_Source\PSoC4/CapSense_1.c ****             uint32 newRegValue;
 213:Generated_Source\PSoC4/CapSense_1.c **** 
 214:Generated_Source\PSoC4/CapSense_1.c ****             newRegValue = CapSense_1_CTANK_CONNECTION_REG;
 215:Generated_Source\PSoC4/CapSense_1.c ****             newRegValue &= ~(CapSense_1_CSD_CTANK_CONNECTION_MASK);
 216:Generated_Source\PSoC4/CapSense_1.c ****             newRegValue |= CapSense_1_CSD_CTANK_TO_AMUXBUS_B;
 217:Generated_Source\PSoC4/CapSense_1.c ****             CapSense_1_CTANK_CONNECTION_REG = newRegValue;
 218:Generated_Source\PSoC4/CapSense_1.c **** 
 219:Generated_Source\PSoC4/CapSense_1.c ****             #if(CapSense_1_CSH_TANK_PREGARGE_OPTION == CapSense_1__CAPPRIOBUF)
 220:Generated_Source\PSoC4/CapSense_1.c ****                 newRegValue = CapSense_1_CTANK_PORT_PC_REG;
 221:Generated_Source\PSoC4/CapSense_1.c ****                 newRegValue &= ~(CapSense_1_CSD_CTANK_PC_MASK);
ARM GAS  C:\Users\glenn\AppData\Local\Temp\cc8ystec.s 			page 9


 222:Generated_Source\PSoC4/CapSense_1.c ****                 newRegValue |= CapSense_1_CTANK_PC_STRONG_MODE;
 223:Generated_Source\PSoC4/CapSense_1.c ****                 CapSense_1_CTANK_PORT_PC_REG = newRegValue;
 224:Generated_Source\PSoC4/CapSense_1.c **** 
 225:Generated_Source\PSoC4/CapSense_1.c ****                 newRegValue = CapSense_1_CTANK_PORT_DR_REG;
 226:Generated_Source\PSoC4/CapSense_1.c ****                 newRegValue &= ~(CapSense_1_CTANK_DR_MASK);
 227:Generated_Source\PSoC4/CapSense_1.c ****                 newRegValue |= CapSense_1_CTANK_DR_CONFIG;
 228:Generated_Source\PSoC4/CapSense_1.c ****                 CapSense_1_CTANK_PORT_DR_REG = newRegValue;
 229:Generated_Source\PSoC4/CapSense_1.c ****             #endif /* (CapSense_1_CSH_TANK_PREGARGE_OPTION == CapSense_1__CAPPRIOBUF) */
 230:Generated_Source\PSoC4/CapSense_1.c **** 
 231:Generated_Source\PSoC4/CapSense_1.c ****         #endif /* ((CapSense_1_CSH_TANK_PREGARGE_OPTION == CapSense_1__CAPPRIOBUF) || (CapSense_1_C
 232:Generated_Source\PSoC4/CapSense_1.c **** 
 233:Generated_Source\PSoC4/CapSense_1.c ****         CapSense_1_EnableShieldElectrode((uint32)CapSense_1_SHIELD_PIN_NUMBER, (uint32)CapSense_1_S
 234:Generated_Source\PSoC4/CapSense_1.c **** 
 235:Generated_Source\PSoC4/CapSense_1.c ****     #endif /* (CapSense_1_IS_SHIELD_ENABLE) */
 236:Generated_Source\PSoC4/CapSense_1.c **** 
 237:Generated_Source\PSoC4/CapSense_1.c ****     for(curSensor = 0u; curSensor < CapSense_1_TOTAL_SENSOR_COUNT; curSensor++)
 233              		.loc 1 237 0
 234 0006 0023     		mov	r3, #0
 235 0008 7B60     		str	r3, [r7, #4]
 236 000a 07E0     		b	.L2
 237              	.L3:
 238:Generated_Source\PSoC4/CapSense_1.c ****     {
 239:Generated_Source\PSoC4/CapSense_1.c ****         CapSense_1_SetUnscannedSensorState(curSensor, CapSense_1_CONNECT_INACTIVE_SNS);
 238              		.loc 1 239 0 discriminator 3
 239 000c 7B68     		ldr	r3, [r7, #4]
 240 000e 181C     		mov	r0, r3
 241 0010 0021     		mov	r1, #0
 242 0012 FFF7FEFF 		bl	CapSense_1_SetUnscannedSensorState
 237:Generated_Source\PSoC4/CapSense_1.c ****     {
 243              		.loc 1 237 0 discriminator 3
 244 0016 7B68     		ldr	r3, [r7, #4]
 245 0018 0133     		add	r3, r3, #1
 246 001a 7B60     		str	r3, [r7, #4]
 247              	.L2:
 237:Generated_Source\PSoC4/CapSense_1.c ****     {
 248              		.loc 1 237 0 is_stmt 0 discriminator 1
 249 001c 7B68     		ldr	r3, [r7, #4]
 250 001e 072B     		cmp	r3, #7
 251 0020 F4D9     		bls	.L3
 240:Generated_Source\PSoC4/CapSense_1.c ****     }
 241:Generated_Source\PSoC4/CapSense_1.c **** 
 242:Generated_Source\PSoC4/CapSense_1.c ****     CapSense_1_CsdHwBlockInit();
 252              		.loc 1 242 0 is_stmt 1
 253 0022 FFF7FEFF 		bl	CapSense_1_CsdHwBlockInit
 243:Generated_Source\PSoC4/CapSense_1.c ****     CapSense_1_SetShieldDelay(CapSense_1_SHIELD_DELAY );
 254              		.loc 1 243 0
 255 0026 0020     		mov	r0, #0
 256 0028 FFF7FEFF 		bl	CapSense_1_SetShieldDelay
 244:Generated_Source\PSoC4/CapSense_1.c **** 
 245:Generated_Source\PSoC4/CapSense_1.c ****     /* Clear all sensors */
 246:Generated_Source\PSoC4/CapSense_1.c ****     CapSense_1_ClearSensors();
 257              		.loc 1 246 0
 258 002c FFF7FEFF 		bl	CapSense_1_ClearSensors
 247:Generated_Source\PSoC4/CapSense_1.c **** }
 259              		.loc 1 247 0
 260 0030 BD46     		mov	sp, r7
 261 0032 02B0     		add	sp, sp, #8
ARM GAS  C:\Users\glenn\AppData\Local\Temp\cc8ystec.s 			page 10


 262              		@ sp needed
 263 0034 80BD     		pop	{r7, pc}
 264              		.cfi_endproc
 265              	.LFE35:
 266              		.size	CapSense_1_Init, .-CapSense_1_Init
 267 0036 C046     		.section	.text.CapSense_1_CsdHwBlockInit,"ax",%progbits
 268              		.align	2
 269              		.global	CapSense_1_CsdHwBlockInit
 270              		.code	16
 271              		.thumb_func
 272              		.type	CapSense_1_CsdHwBlockInit, %function
 273              	CapSense_1_CsdHwBlockInit:
 274              	.LFB36:
 248:Generated_Source\PSoC4/CapSense_1.c **** 
 249:Generated_Source\PSoC4/CapSense_1.c **** /*******************************************************************************
 250:Generated_Source\PSoC4/CapSense_1.c **** * Function Name: CapSense_1_CsdHwBlockInit
 251:Generated_Source\PSoC4/CapSense_1.c **** ********************************************************************************
 252:Generated_Source\PSoC4/CapSense_1.c **** *
 253:Generated_Source\PSoC4/CapSense_1.c **** * Summary:
 254:Generated_Source\PSoC4/CapSense_1.c **** *  Initialises the hardware parameters of the CSD block
 255:Generated_Source\PSoC4/CapSense_1.c **** *
 256:Generated_Source\PSoC4/CapSense_1.c **** * Parameters:
 257:Generated_Source\PSoC4/CapSense_1.c **** *  None
 258:Generated_Source\PSoC4/CapSense_1.c **** *
 259:Generated_Source\PSoC4/CapSense_1.c **** * Return:
 260:Generated_Source\PSoC4/CapSense_1.c **** *  None
 261:Generated_Source\PSoC4/CapSense_1.c **** *
 262:Generated_Source\PSoC4/CapSense_1.c **** * Global Variables:
 263:Generated_Source\PSoC4/CapSense_1.c **** *  CapSense_1_csdTrim1 - Contains IDAC trim register value for Sourcing Mode.
 264:Generated_Source\PSoC4/CapSense_1.c **** *  CapSense_1_csdTrim2 - Contains IDAC trim register value for Sinking Mode.
 265:Generated_Source\PSoC4/CapSense_1.c **** *
 266:Generated_Source\PSoC4/CapSense_1.c **** * Side Effects:
 267:Generated_Source\PSoC4/CapSense_1.c **** *  None
 268:Generated_Source\PSoC4/CapSense_1.c **** *
 269:Generated_Source\PSoC4/CapSense_1.c **** *******************************************************************************/
 270:Generated_Source\PSoC4/CapSense_1.c **** void CapSense_1_CsdHwBlockInit(void)
 271:Generated_Source\PSoC4/CapSense_1.c **** {
 275              		.loc 1 271 0
 276              		.cfi_startproc
 277 0000 80B5     		push	{r7, lr}
 278              		.cfi_def_cfa_offset 8
 279              		.cfi_offset 7, -8
 280              		.cfi_offset 14, -4
 281 0002 82B0     		sub	sp, sp, #8
 282              		.cfi_def_cfa_offset 16
 283 0004 00AF     		add	r7, sp, #0
 284              		.cfi_def_cfa_register 7
 272:Generated_Source\PSoC4/CapSense_1.c ****     uint32 newRegValue;
 273:Generated_Source\PSoC4/CapSense_1.c **** 
 274:Generated_Source\PSoC4/CapSense_1.c ****         /* Set trim registers for CSD Mode */
 275:Generated_Source\PSoC4/CapSense_1.c ****     #if (CapSense_1_IDAC1_POLARITY == CapSense_1__IDAC_SINK)
 276:Generated_Source\PSoC4/CapSense_1.c ****         /* iDAC1 Sinking Mode */
 277:Generated_Source\PSoC4/CapSense_1.c ****         CapSense_1_csdTrim2 = (uint8)CapSense_1_CSD_TRIM2_REG;
 278:Generated_Source\PSoC4/CapSense_1.c ****         newRegValue = CapSense_1_csdTrim2;
 279:Generated_Source\PSoC4/CapSense_1.c ****         newRegValue &= CapSense_1_CSD_IDAC1_TRIM_MASK;
 280:Generated_Source\PSoC4/CapSense_1.c ****         newRegValue |= (uint32)((uint32)CapSense_1_SFLASH_CSD_TRIM2_REG & (uint32)CapSense_1_CSFLAS
 281:Generated_Source\PSoC4/CapSense_1.c **** 
ARM GAS  C:\Users\glenn\AppData\Local\Temp\cc8ystec.s 			page 11


 282:Generated_Source\PSoC4/CapSense_1.c ****         #if (CapSense_1_IDAC_CNT == 2u)
 283:Generated_Source\PSoC4/CapSense_1.c ****             /* iDAC2 Sinking Mode */
 284:Generated_Source\PSoC4/CapSense_1.c ****             newRegValue &= CapSense_1_CSD_IDAC2_TRIM_MASK;
 285:Generated_Source\PSoC4/CapSense_1.c ****             newRegValue |= (uint32)((uint32)CapSense_1_SFLASH_CSD_TRIM2_REG & (uint32)CapSense_1_CS
 286:Generated_Source\PSoC4/CapSense_1.c ****         #endif /* (CapSense_1_IDAC_CNT == 2u) */
 287:Generated_Source\PSoC4/CapSense_1.c ****         CapSense_1_CSD_TRIM2_REG = newRegValue;
 288:Generated_Source\PSoC4/CapSense_1.c ****     #else
 289:Generated_Source\PSoC4/CapSense_1.c ****         /* iDAC1 Sourcing Mode */
 290:Generated_Source\PSoC4/CapSense_1.c ****         CapSense_1_csdTrim1 = (uint8)CapSense_1_CSD_TRIM1_REG;
 285              		.loc 1 290 0
 286 0006 244B     		ldr	r3, .L5
 287 0008 1B68     		ldr	r3, [r3]
 288 000a DAB2     		uxtb	r2, r3
 289 000c 234B     		ldr	r3, .L5+4
 290 000e 1A70     		strb	r2, [r3]
 291:Generated_Source\PSoC4/CapSense_1.c ****         newRegValue = CapSense_1_csdTrim1;
 291              		.loc 1 291 0
 292 0010 224B     		ldr	r3, .L5+4
 293 0012 1B78     		ldrb	r3, [r3]
 294 0014 7B60     		str	r3, [r7, #4]
 292:Generated_Source\PSoC4/CapSense_1.c ****         newRegValue &= CapSense_1_CSD_IDAC1_TRIM_MASK;
 295              		.loc 1 292 0
 296 0016 7B68     		ldr	r3, [r7, #4]
 297 0018 0F22     		mov	r2, #15
 298 001a 9343     		bic	r3, r2
 299 001c 7B60     		str	r3, [r7, #4]
 293:Generated_Source\PSoC4/CapSense_1.c ****         newRegValue |= (uint32)((uint32)CapSense_1_SFLASH_CSD_TRIM1_REG & (uint32)CapSense_1_CSFLAS
 300              		.loc 1 293 0
 301 001e 204B     		ldr	r3, .L5+8
 302 0020 1B78     		ldrb	r3, [r3]
 303 0022 DBB2     		uxtb	r3, r3
 304 0024 1A1C     		mov	r2, r3
 305 0026 0F23     		mov	r3, #15
 306 0028 1340     		and	r3, r2
 307 002a 7A68     		ldr	r2, [r7, #4]
 308 002c 1343     		orr	r3, r2
 309 002e 7B60     		str	r3, [r7, #4]
 294:Generated_Source\PSoC4/CapSense_1.c ****         #if (CapSense_1_IDAC_CNT == 2u)
 295:Generated_Source\PSoC4/CapSense_1.c ****              /* iDAC2 Sourcing Mode */
 296:Generated_Source\PSoC4/CapSense_1.c ****             newRegValue &= CapSense_1_CSD_IDAC2_TRIM_MASK;
 310              		.loc 1 296 0
 311 0030 7B68     		ldr	r3, [r7, #4]
 312 0032 F022     		mov	r2, #240
 313 0034 9343     		bic	r3, r2
 314 0036 7B60     		str	r3, [r7, #4]
 297:Generated_Source\PSoC4/CapSense_1.c ****             newRegValue |= (uint32)((uint32)CapSense_1_SFLASH_CSD_TRIM1_REG & (uint32)CapSense_1_CS
 315              		.loc 1 297 0
 316 0038 194B     		ldr	r3, .L5+8
 317 003a 1B78     		ldrb	r3, [r3]
 318 003c DBB2     		uxtb	r3, r3
 319 003e 1A1C     		mov	r2, r3
 320 0040 F023     		mov	r3, #240
 321 0042 1340     		and	r3, r2
 322 0044 7A68     		ldr	r2, [r7, #4]
 323 0046 1343     		orr	r3, r2
 324 0048 7B60     		str	r3, [r7, #4]
 298:Generated_Source\PSoC4/CapSense_1.c ****         #endif
ARM GAS  C:\Users\glenn\AppData\Local\Temp\cc8ystec.s 			page 12


 299:Generated_Source\PSoC4/CapSense_1.c ****         CapSense_1_CSD_TRIM1_REG = newRegValue;
 325              		.loc 1 299 0
 326 004a 134B     		ldr	r3, .L5
 327 004c 7A68     		ldr	r2, [r7, #4]
 328 004e 1A60     		str	r2, [r3]
 300:Generated_Source\PSoC4/CapSense_1.c ****     #endif /* (CapSense_1_IDAC1_POLARITY == CapSense_1__IDAC_SINK) */
 301:Generated_Source\PSoC4/CapSense_1.c **** 
 302:Generated_Source\PSoC4/CapSense_1.c ****     /* Configure CSD and IDAC */
 303:Generated_Source\PSoC4/CapSense_1.c ****     #if (CapSense_1_IDAC_CNT > 1u)
 304:Generated_Source\PSoC4/CapSense_1.c ****         CapSense_1_CSD_IDAC_REG = CapSense_1_DEFAULT_CSD_IDAC_CONFIG;
 329              		.loc 1 304 0
 330 0050 144B     		ldr	r3, .L5+12
 331 0052 154A     		ldr	r2, .L5+16
 332 0054 1A60     		str	r2, [r3]
 305:Generated_Source\PSoC4/CapSense_1.c ****         CapSense_1_CSD_CFG_REG = CapSense_1_DEFAULT_CSD_CONFIG;
 333              		.loc 1 305 0
 334 0056 154B     		ldr	r3, .L5+20
 335 0058 154A     		ldr	r2, .L5+24
 336 005a 1A60     		str	r2, [r3]
 306:Generated_Source\PSoC4/CapSense_1.c ****     #else
 307:Generated_Source\PSoC4/CapSense_1.c ****         CapSense_1_CSD_IDAC_REG &= ~(CapSense_1_CSD_IDAC1_MODE_MASK  | CapSense_1_CSD_IDAC1_DATA_MA
 308:Generated_Source\PSoC4/CapSense_1.c ****         CapSense_1_CSD_IDAC_REG |= CapSense_1_DEFAULT_CSD_IDAC_CONFIG;
 309:Generated_Source\PSoC4/CapSense_1.c **** 
 310:Generated_Source\PSoC4/CapSense_1.c ****         CapSense_1_CSD_CFG_REG &= ~(CapSense_1_CSD_CONFIG_MASK);
 311:Generated_Source\PSoC4/CapSense_1.c ****         CapSense_1_CSD_CFG_REG |= (CapSense_1_DEFAULT_CSD_CONFIG);
 312:Generated_Source\PSoC4/CapSense_1.c ****     #endif /* (CapSense_1_IDAC_CNT > 1u) */
 313:Generated_Source\PSoC4/CapSense_1.c **** 
 314:Generated_Source\PSoC4/CapSense_1.c **** 
 315:Generated_Source\PSoC4/CapSense_1.c ****     /* Connect Cmod to AMUX bus */
 316:Generated_Source\PSoC4/CapSense_1.c ****     newRegValue = CapSense_1_CMOD_CONNECTION_REG;
 337              		.loc 1 316 0
 338 005c 154B     		ldr	r3, .L5+28
 339 005e 1B68     		ldr	r3, [r3]
 340 0060 7B60     		str	r3, [r7, #4]
 317:Generated_Source\PSoC4/CapSense_1.c ****     newRegValue &= ~(CapSense_1_CSD_CMOD_CONNECTION_MASK);
 341              		.loc 1 317 0
 342 0062 7B68     		ldr	r3, [r7, #4]
 343 0064 144A     		ldr	r2, .L5+32
 344 0066 1340     		and	r3, r2
 345 0068 7B60     		str	r3, [r7, #4]
 318:Generated_Source\PSoC4/CapSense_1.c ****     newRegValue |= CapSense_1_CSD_CMOD_TO_AMUXBUS_A;
 346              		.loc 1 318 0
 347 006a 7B68     		ldr	r3, [r7, #4]
 348 006c C022     		mov	r2, #192
 349 006e D200     		lsl	r2, r2, #3
 350 0070 1343     		orr	r3, r2
 351 0072 7B60     		str	r3, [r7, #4]
 319:Generated_Source\PSoC4/CapSense_1.c ****     CapSense_1_CMOD_CONNECTION_REG = newRegValue;
 352              		.loc 1 319 0
 353 0074 0F4B     		ldr	r3, .L5+28
 354 0076 7A68     		ldr	r2, [r7, #4]
 355 0078 1A60     		str	r2, [r3]
 320:Generated_Source\PSoC4/CapSense_1.c **** 
 321:Generated_Source\PSoC4/CapSense_1.c ****     /* Configure Dead Band PWM if it is enabled */
 322:Generated_Source\PSoC4/CapSense_1.c ****     #if(CapSense_1_CSD_4B_PWM_MODE != CapSense_1__PWM_OFF)
 323:Generated_Source\PSoC4/CapSense_1.c ****         CapSense_1_CSD_4B_PWM_REG = CapSense_1_DEFAULT_CSD_4B_PWM_CONFIG;
 324:Generated_Source\PSoC4/CapSense_1.c ****     #endif /* (CapSense_1_CSD_4B_PWM_MODE != CapSense_1__PWM_OFF) */
ARM GAS  C:\Users\glenn\AppData\Local\Temp\cc8ystec.s 			page 13


 325:Generated_Source\PSoC4/CapSense_1.c **** 
 326:Generated_Source\PSoC4/CapSense_1.c ****     /* Setup ISR */
 327:Generated_Source\PSoC4/CapSense_1.c ****     CyIntDisable(CapSense_1_ISR_NUMBER);
 356              		.loc 1 327 0
 357 007a 1120     		mov	r0, #17
 358 007c FFF7FEFF 		bl	CyIntDisable
 328:Generated_Source\PSoC4/CapSense_1.c ****     #if !defined(CY_EXTERNAL_INTERRUPT_CONFIG)
 329:Generated_Source\PSoC4/CapSense_1.c ****         (void)CyIntSetVector(CapSense_1_ISR_NUMBER, &CapSense_1_ISR);
 359              		.loc 1 329 0
 360 0080 0E4B     		ldr	r3, .L5+36
 361 0082 1120     		mov	r0, #17
 362 0084 191C     		mov	r1, r3
 363 0086 FFF7FEFF 		bl	CyIntSetVector
 330:Generated_Source\PSoC4/CapSense_1.c ****         CyIntSetPriority(CapSense_1_ISR_NUMBER, CapSense_1_ISR_PRIORITY);
 364              		.loc 1 330 0
 365 008a 1120     		mov	r0, #17
 366 008c 0321     		mov	r1, #3
 367 008e FFF7FEFF 		bl	CyIntSetPriority
 331:Generated_Source\PSoC4/CapSense_1.c ****     #endif /* (CY_EXTERNAL_INTERRUPT_CONFIG) */
 332:Generated_Source\PSoC4/CapSense_1.c **** }
 368              		.loc 1 332 0
 369 0092 BD46     		mov	sp, r7
 370 0094 02B0     		add	sp, sp, #8
 371              		@ sp needed
 372 0096 80BD     		pop	{r7, pc}
 373              	.L6:
 374              		.align	2
 375              	.L5:
 376 0098 00FF2840 		.word	1076428544
 377 009c 00000000 		.word	CapSense_1_csdTrim1
 378 00a0 62F1FF0F 		.word	268431714
 379 00a4 08002840 		.word	1076363272
 380 00a8 00060005 		.word	83887616
 381 00ac 04002840 		.word	1076363268
 382 00b0 0008A001 		.word	27265024
 383 00b4 00040240 		.word	1073873920
 384 00b8 FFF0FFFF 		.word	-3841
 385 00bc 00000000 		.word	CapSense_1_ISR
 386              		.cfi_endproc
 387              	.LFE36:
 388              		.size	CapSense_1_CsdHwBlockInit, .-CapSense_1_CsdHwBlockInit
 389              		.section	.text.CapSense_1_Enable,"ax",%progbits
 390              		.align	2
 391              		.global	CapSense_1_Enable
 392              		.code	16
 393              		.thumb_func
 394              		.type	CapSense_1_Enable, %function
 395              	CapSense_1_Enable:
 396              	.LFB37:
 333:Generated_Source\PSoC4/CapSense_1.c **** 
 334:Generated_Source\PSoC4/CapSense_1.c **** 
 335:Generated_Source\PSoC4/CapSense_1.c **** /*******************************************************************************
 336:Generated_Source\PSoC4/CapSense_1.c **** * Function Name: CapSense_1_Enable
 337:Generated_Source\PSoC4/CapSense_1.c **** ********************************************************************************
 338:Generated_Source\PSoC4/CapSense_1.c **** *
 339:Generated_Source\PSoC4/CapSense_1.c **** * Summary:
 340:Generated_Source\PSoC4/CapSense_1.c **** *  Enables the CSD block and related resources to an active mode.
ARM GAS  C:\Users\glenn\AppData\Local\Temp\cc8ystec.s 			page 14


 341:Generated_Source\PSoC4/CapSense_1.c **** *
 342:Generated_Source\PSoC4/CapSense_1.c **** * Parameters:
 343:Generated_Source\PSoC4/CapSense_1.c **** *  None
 344:Generated_Source\PSoC4/CapSense_1.c **** *
 345:Generated_Source\PSoC4/CapSense_1.c **** * Return:
 346:Generated_Source\PSoC4/CapSense_1.c **** *  None
 347:Generated_Source\PSoC4/CapSense_1.c **** *
 348:Generated_Source\PSoC4/CapSense_1.c **** * Global Variables:
 349:Generated_Source\PSoC4/CapSense_1.c **** *  None.
 350:Generated_Source\PSoC4/CapSense_1.c **** *
 351:Generated_Source\PSoC4/CapSense_1.c **** * Side Effects:
 352:Generated_Source\PSoC4/CapSense_1.c **** *  None
 353:Generated_Source\PSoC4/CapSense_1.c **** *
 354:Generated_Source\PSoC4/CapSense_1.c **** *******************************************************************************/
 355:Generated_Source\PSoC4/CapSense_1.c **** void CapSense_1_Enable(void)
 356:Generated_Source\PSoC4/CapSense_1.c **** {
 397              		.loc 1 356 0
 398              		.cfi_startproc
 399 0000 80B5     		push	{r7, lr}
 400              		.cfi_def_cfa_offset 8
 401              		.cfi_offset 7, -8
 402              		.cfi_offset 14, -4
 403 0002 82B0     		sub	sp, sp, #8
 404              		.cfi_def_cfa_offset 16
 405 0004 00AF     		add	r7, sp, #0
 406              		.cfi_def_cfa_register 7
 357:Generated_Source\PSoC4/CapSense_1.c ****     uint32 newRegValue;
 358:Generated_Source\PSoC4/CapSense_1.c **** 
 359:Generated_Source\PSoC4/CapSense_1.c ****     /* Enable Clocks */
 360:Generated_Source\PSoC4/CapSense_1.c ****     CapSense_1_SenseClk_Stop();
 407              		.loc 1 360 0
 408 0006 FFF7FEFF 		bl	CapSense_1_SenseClk_Stop
 361:Generated_Source\PSoC4/CapSense_1.c ****     CapSense_1_SampleClk_Stop();
 409              		.loc 1 361 0
 410 000a FFF7FEFF 		bl	CapSense_1_SampleClk_Stop
 362:Generated_Source\PSoC4/CapSense_1.c **** 
 363:Generated_Source\PSoC4/CapSense_1.c ****     CapSense_1_SampleClk_SetDividerValue((uint16)CapSense_1_INITIAL_CLK_DIVIDER);
 411              		.loc 1 363 0
 412 000e 0020     		mov	r0, #0
 413 0010 0021     		mov	r1, #0
 414 0012 FFF7FEFF 		bl	CapSense_1_SampleClk_SetFractionalDividerRegister
 364:Generated_Source\PSoC4/CapSense_1.c ****     CapSense_1_SenseClk_SetDividerValue((uint16)CapSense_1_INITIAL_CLK_DIVIDER);
 415              		.loc 1 364 0
 416 0016 0020     		mov	r0, #0
 417 0018 0021     		mov	r1, #0
 418 001a FFF7FEFF 		bl	CapSense_1_SenseClk_SetFractionalDividerRegister
 365:Generated_Source\PSoC4/CapSense_1.c **** 
 366:Generated_Source\PSoC4/CapSense_1.c ****     #if (0u == CapSense_1_IS_M0S8PERI_BLOCK)
 367:Generated_Source\PSoC4/CapSense_1.c ****         CapSense_1_SenseClk_Start();
 368:Generated_Source\PSoC4/CapSense_1.c ****         CapSense_1_SampleClk_Start();
 369:Generated_Source\PSoC4/CapSense_1.c ****     #else
 370:Generated_Source\PSoC4/CapSense_1.c ****         CapSense_1_SampleClk_Start();
 419              		.loc 1 370 0
 420 001e FF20     		mov	r0, #255
 421 0020 FFF7FEFF 		bl	CapSense_1_SampleClk_StartEx
 371:Generated_Source\PSoC4/CapSense_1.c ****         CapSense_1_SenseClk_StartEx(CapSense_1_SampleClk__DIV_ID);
 422              		.loc 1 371 0
ARM GAS  C:\Users\glenn\AppData\Local\Temp\cc8ystec.s 			page 15


 423 0024 4020     		mov	r0, #64
 424 0026 FFF7FEFF 		bl	CapSense_1_SenseClk_StartEx
 372:Generated_Source\PSoC4/CapSense_1.c ****     #endif /* (0u == CapSense_1_IS_M0S8PERI_BLOCK) */
 373:Generated_Source\PSoC4/CapSense_1.c **** 
 374:Generated_Source\PSoC4/CapSense_1.c ****     /* Enable the CSD block */
 375:Generated_Source\PSoC4/CapSense_1.c ****     newRegValue = CapSense_1_CSD_CFG_REG;
 425              		.loc 1 375 0
 426 002a 084B     		ldr	r3, .L8
 427 002c 1B68     		ldr	r3, [r3]
 428 002e 7B60     		str	r3, [r7, #4]
 376:Generated_Source\PSoC4/CapSense_1.c ****     newRegValue |= (CapSense_1_CSD_CFG_ENABLE | CapSense_1_CSD_CFG_SENSE_COMP_EN
 429              		.loc 1 376 0
 430 0030 7B68     		ldr	r3, [r7, #4]
 431 0032 074A     		ldr	r2, .L8+4
 432 0034 1343     		orr	r3, r2
 433 0036 7B60     		str	r3, [r7, #4]
 377:Generated_Source\PSoC4/CapSense_1.c ****                                                    | CapSense_1_CSD_CFG_SENSE_EN);
 378:Generated_Source\PSoC4/CapSense_1.c ****     CapSense_1_CSD_CFG_REG = newRegValue;
 434              		.loc 1 378 0
 435 0038 044B     		ldr	r3, .L8
 436 003a 7A68     		ldr	r2, [r7, #4]
 437 003c 1A60     		str	r2, [r3]
 379:Generated_Source\PSoC4/CapSense_1.c **** 
 380:Generated_Source\PSoC4/CapSense_1.c ****     /* Enable interrupt */
 381:Generated_Source\PSoC4/CapSense_1.c ****     CyIntEnable(CapSense_1_ISR_NUMBER);
 438              		.loc 1 381 0
 439 003e 1120     		mov	r0, #17
 440 0040 FFF7FEFF 		bl	CyIntEnable
 382:Generated_Source\PSoC4/CapSense_1.c **** }
 441              		.loc 1 382 0
 442 0044 BD46     		mov	sp, r7
 443 0046 02B0     		add	sp, sp, #8
 444              		@ sp needed
 445 0048 80BD     		pop	{r7, pc}
 446              	.L9:
 447 004a C046     		.align	2
 448              	.L8:
 449 004c 04002840 		.word	1076363268
 450 0050 00100880 		.word	-2146955264
 451              		.cfi_endproc
 452              	.LFE37:
 453              		.size	CapSense_1_Enable, .-CapSense_1_Enable
 454              		.section	.text.CapSense_1_Start,"ax",%progbits
 455              		.align	2
 456              		.global	CapSense_1_Start
 457              		.code	16
 458              		.thumb_func
 459              		.type	CapSense_1_Start, %function
 460              	CapSense_1_Start:
 461              	.LFB38:
 383:Generated_Source\PSoC4/CapSense_1.c **** 
 384:Generated_Source\PSoC4/CapSense_1.c **** 
 385:Generated_Source\PSoC4/CapSense_1.c **** /*******************************************************************************
 386:Generated_Source\PSoC4/CapSense_1.c **** * Function Name: CapSense_1_Start
 387:Generated_Source\PSoC4/CapSense_1.c **** ********************************************************************************
 388:Generated_Source\PSoC4/CapSense_1.c **** *
 389:Generated_Source\PSoC4/CapSense_1.c **** * Summary:
ARM GAS  C:\Users\glenn\AppData\Local\Temp\cc8ystec.s 			page 16


 390:Generated_Source\PSoC4/CapSense_1.c **** *  This is the preferred method to begin the component operation. CapSense_Start()
 391:Generated_Source\PSoC4/CapSense_1.c **** *  calls the CapSense_Init() function, and then calls the CapSense_Enable()
 392:Generated_Source\PSoC4/CapSense_1.c **** *  function. Initializes the registers and starts the CSD method of the CapSense
 393:Generated_Source\PSoC4/CapSense_1.c **** *  component. Resets all the sensors to an inactive state. Enables interrupts for
 394:Generated_Source\PSoC4/CapSense_1.c **** *  sensors scanning. When the SmartSense tuning mode is selected, the tuning procedure
 395:Generated_Source\PSoC4/CapSense_1.c **** *  is applied for all the sensors. The CapSense_Start() routine must be called before
 396:Generated_Source\PSoC4/CapSense_1.c **** *  any other API routines.
 397:Generated_Source\PSoC4/CapSense_1.c **** *
 398:Generated_Source\PSoC4/CapSense_1.c **** * Parameters:
 399:Generated_Source\PSoC4/CapSense_1.c **** *  None
 400:Generated_Source\PSoC4/CapSense_1.c **** *
 401:Generated_Source\PSoC4/CapSense_1.c **** * Return:
 402:Generated_Source\PSoC4/CapSense_1.c **** *  None
 403:Generated_Source\PSoC4/CapSense_1.c **** *
 404:Generated_Source\PSoC4/CapSense_1.c **** * Global Variables:
 405:Generated_Source\PSoC4/CapSense_1.c **** *   CapSense_1_initVar - used to check the initial configuration,
 406:Generated_Source\PSoC4/CapSense_1.c **** *   modified on the first function call.
 407:Generated_Source\PSoC4/CapSense_1.c **** *  CapSense_1_lowLevelTuningDone - Used to notify the Tuner GUI that
 408:Generated_Source\PSoC4/CapSense_1.c **** *   tuning of the scanning parameters is done.
 409:Generated_Source\PSoC4/CapSense_1.c **** *
 410:Generated_Source\PSoC4/CapSense_1.c **** * Side Effects:
 411:Generated_Source\PSoC4/CapSense_1.c **** *  None
 412:Generated_Source\PSoC4/CapSense_1.c **** *
 413:Generated_Source\PSoC4/CapSense_1.c **** *******************************************************************************/
 414:Generated_Source\PSoC4/CapSense_1.c **** void CapSense_1_Start(void)
 415:Generated_Source\PSoC4/CapSense_1.c **** {
 462              		.loc 1 415 0
 463              		.cfi_startproc
 464 0000 80B5     		push	{r7, lr}
 465              		.cfi_def_cfa_offset 8
 466              		.cfi_offset 7, -8
 467              		.cfi_offset 14, -4
 468 0002 00AF     		add	r7, sp, #0
 469              		.cfi_def_cfa_register 7
 416:Generated_Source\PSoC4/CapSense_1.c **** 
 417:Generated_Source\PSoC4/CapSense_1.c ****     static uint8 CapSense_1_initVar = 0u;
 418:Generated_Source\PSoC4/CapSense_1.c **** 
 419:Generated_Source\PSoC4/CapSense_1.c ****     #if((0u != CapSense_1_AUTOCALIBRATION_ENABLE) && (CapSense_1_TUNING_METHOD != CapSense_1__TUNIN
 420:Generated_Source\PSoC4/CapSense_1.c ****         uint32 curSensor;
 421:Generated_Source\PSoC4/CapSense_1.c ****         uint32 rawLevel;
 422:Generated_Source\PSoC4/CapSense_1.c ****         uint32 widget;
 423:Generated_Source\PSoC4/CapSense_1.c ****     #endif /* ((0u != CapSense_1_AUTOCALIBRATION_ENABLE) && (CapSense_1_TUNING_METHOD != CapSense_1
 424:Generated_Source\PSoC4/CapSense_1.c **** 
 425:Generated_Source\PSoC4/CapSense_1.c ****     if (CapSense_1_initVar == 0u)
 470              		.loc 1 425 0
 471 0004 094B     		ldr	r3, .L12
 472 0006 1B78     		ldrb	r3, [r3]
 473 0008 002B     		cmp	r3, #0
 474 000a 04D1     		bne	.L11
 426:Generated_Source\PSoC4/CapSense_1.c ****     {
 427:Generated_Source\PSoC4/CapSense_1.c ****         CapSense_1_Init();
 475              		.loc 1 427 0
 476 000c FFF7FEFF 		bl	CapSense_1_Init
 428:Generated_Source\PSoC4/CapSense_1.c ****         CapSense_1_initVar = 1u;
 477              		.loc 1 428 0
 478 0010 064B     		ldr	r3, .L12
 479 0012 0122     		mov	r2, #1
ARM GAS  C:\Users\glenn\AppData\Local\Temp\cc8ystec.s 			page 17


 480 0014 1A70     		strb	r2, [r3]
 481              	.L11:
 429:Generated_Source\PSoC4/CapSense_1.c ****     }
 430:Generated_Source\PSoC4/CapSense_1.c ****     CapSense_1_Enable();
 482              		.loc 1 430 0
 483 0016 FFF7FEFF 		bl	CapSense_1_Enable
 431:Generated_Source\PSoC4/CapSense_1.c **** 
 432:Generated_Source\PSoC4/CapSense_1.c ****     /* AutoTunning start */
 433:Generated_Source\PSoC4/CapSense_1.c ****     #if(CapSense_1_TUNING_METHOD == CapSense_1__TUNING_AUTO)
 434:Generated_Source\PSoC4/CapSense_1.c ****         #if(0u != CapSense_1_CSHL_API_GENERATE)
 435:Generated_Source\PSoC4/CapSense_1.c ****             CapSense_1_AutoTune();
 436:Generated_Source\PSoC4/CapSense_1.c ****             CapSense_1_lowLevelTuningDone = 1u;
 437:Generated_Source\PSoC4/CapSense_1.c ****         #endif /* (0u != CapSense_1_CSHL_API_GENERATE) */
 438:Generated_Source\PSoC4/CapSense_1.c ****     #else
 439:Generated_Source\PSoC4/CapSense_1.c ****         #if(0u != CapSense_1_AUTOCALIBRATION_ENABLE)
 440:Generated_Source\PSoC4/CapSense_1.c **** 
 441:Generated_Source\PSoC4/CapSense_1.c ****             #if(CapSense_1_IDAC_CNT > 1u)
 442:Generated_Source\PSoC4/CapSense_1.c ****                 CapSense_1_CSD_IDAC_REG &= ~(CapSense_1_CSD_IDAC2_MODE_MASK);
 443:Generated_Source\PSoC4/CapSense_1.c ****             #endif /* (CapSense_1_IDAC_CNT > 1u) */
 444:Generated_Source\PSoC4/CapSense_1.c **** 
 445:Generated_Source\PSoC4/CapSense_1.c ****             for(curSensor = 0u; curSensor < CapSense_1_TOTAL_SCANSLOT_COUNT; curSensor++)
 446:Generated_Source\PSoC4/CapSense_1.c ****             {
 447:Generated_Source\PSoC4/CapSense_1.c ****                 widget = CapSense_1_widgetNumber[curSensor];
 448:Generated_Source\PSoC4/CapSense_1.c ****                 rawLevel = CapSense_1_widgetResolution[widget] >> CapSense_1_RESOLUTION_OFFSET;
 449:Generated_Source\PSoC4/CapSense_1.c **** 
 450:Generated_Source\PSoC4/CapSense_1.c ****                 /* Calibration level should be equal to 85% from scanning resolution */
 451:Generated_Source\PSoC4/CapSense_1.c ****                 rawLevel = (rawLevel * 85u) / 100u;
 452:Generated_Source\PSoC4/CapSense_1.c **** 
 453:Generated_Source\PSoC4/CapSense_1.c ****                 CapSense_1_CalibrateSensor(curSensor, rawLevel, CapSense_1_modulationIDAC);
 454:Generated_Source\PSoC4/CapSense_1.c ****             }
 455:Generated_Source\PSoC4/CapSense_1.c **** 
 456:Generated_Source\PSoC4/CapSense_1.c ****             #if(0u != CapSense_1_TOTAL_CENTROIDS_COUNT)
 457:Generated_Source\PSoC4/CapSense_1.c ****                 CapSense_1_NormalizeWidgets(CapSense_1_END_OF_WIDGETS_INDEX, CapSense_1_modulationI
 458:Generated_Source\PSoC4/CapSense_1.c ****             #endif /* (0u != CapSense_1_TOTAL_CENTROIDS_COUNT)  */
 459:Generated_Source\PSoC4/CapSense_1.c **** 
 460:Generated_Source\PSoC4/CapSense_1.c ****             #if(CapSense_1_IDAC_CNT > 1u)
 461:Generated_Source\PSoC4/CapSense_1.c ****                 for(curSensor = 0u; curSensor < CapSense_1_TOTAL_SCANSLOT_COUNT; curSensor++)
 462:Generated_Source\PSoC4/CapSense_1.c ****                 {
 463:Generated_Source\PSoC4/CapSense_1.c ****                     CapSense_1_compensationIDAC[curSensor] = CapSense_1_modulationIDAC[curSensor] /
 464:Generated_Source\PSoC4/CapSense_1.c ****                     CapSense_1_modulationIDAC[curSensor] = (CapSense_1_modulationIDAC[curSensor] + 
 465:Generated_Source\PSoC4/CapSense_1.c ****                 }
 466:Generated_Source\PSoC4/CapSense_1.c ****                 CapSense_1_CSD_IDAC_REG |= CapSense_1_CSD_IDAC2_MODE_FIXED;
 467:Generated_Source\PSoC4/CapSense_1.c ****             #endif /* (CapSense_1_IDAC_CNT > 1u) */
 468:Generated_Source\PSoC4/CapSense_1.c **** 
 469:Generated_Source\PSoC4/CapSense_1.c ****         #endif /* (0u != CapSense_1_AUTOCALIBRATION_ENABLE) */
 470:Generated_Source\PSoC4/CapSense_1.c **** 
 471:Generated_Source\PSoC4/CapSense_1.c ****     #endif /* ((CapSense_1_TUNING_METHOD == CapSense_1__TUNING_AUTO) */
 472:Generated_Source\PSoC4/CapSense_1.c **** 
 473:Generated_Source\PSoC4/CapSense_1.c ****     /* Initialize Advanced Centroid */
 474:Generated_Source\PSoC4/CapSense_1.c ****     #if(CapSense_1_TOTAL_TRACKPAD_GESTURES_COUNT > 0u)
 475:Generated_Source\PSoC4/CapSense_1.c ****         CapSense_1_AdvancedCentroidInit();
 476:Generated_Source\PSoC4/CapSense_1.c ****     #endif /* (CapSense_1_TOTAL_TRACKPAD_GESTURES_COUNT > 0u) */
 477:Generated_Source\PSoC4/CapSense_1.c **** 
 478:Generated_Source\PSoC4/CapSense_1.c ****     /* Connect sense comparator input to AMUXA */
 479:Generated_Source\PSoC4/CapSense_1.c ****     CapSense_1_CSD_CFG_REG |= CapSense_1_CSD_CFG_SENSE_INSEL;
 484              		.loc 1 479 0
 485 001a 054B     		ldr	r3, .L12+4
ARM GAS  C:\Users\glenn\AppData\Local\Temp\cc8ystec.s 			page 18


 486 001c 044A     		ldr	r2, .L12+4
 487 001e 1268     		ldr	r2, [r2]
 488 0020 8021     		mov	r1, #128
 489 0022 C903     		lsl	r1, r1, #15
 490 0024 0A43     		orr	r2, r1
 491 0026 1A60     		str	r2, [r3]
 480:Generated_Source\PSoC4/CapSense_1.c **** }
 492              		.loc 1 480 0
 493 0028 BD46     		mov	sp, r7
 494              		@ sp needed
 495 002a 80BD     		pop	{r7, pc}
 496              	.L13:
 497              		.align	2
 498              	.L12:
 499 002c 14000000 		.word	CapSense_1_initVar.5178
 500 0030 04002840 		.word	1076363268
 501              		.cfi_endproc
 502              	.LFE38:
 503              		.size	CapSense_1_Start, .-CapSense_1_Start
 504              		.section	.text.CapSense_1_Stop,"ax",%progbits
 505              		.align	2
 506              		.global	CapSense_1_Stop
 507              		.code	16
 508              		.thumb_func
 509              		.type	CapSense_1_Stop, %function
 510              	CapSense_1_Stop:
 511              	.LFB39:
 481:Generated_Source\PSoC4/CapSense_1.c **** 
 482:Generated_Source\PSoC4/CapSense_1.c **** 
 483:Generated_Source\PSoC4/CapSense_1.c **** /*******************************************************************************
 484:Generated_Source\PSoC4/CapSense_1.c **** * Function Name: CapSense_1_Stop
 485:Generated_Source\PSoC4/CapSense_1.c **** ********************************************************************************
 486:Generated_Source\PSoC4/CapSense_1.c **** *
 487:Generated_Source\PSoC4/CapSense_1.c **** * Summary:
 488:Generated_Source\PSoC4/CapSense_1.c **** *  Stops the sensor scanning, disables component interrupts, and resets all the
 489:Generated_Source\PSoC4/CapSense_1.c **** *  sensors to an inactive state. Disables the Active mode power template bits for
 490:Generated_Source\PSoC4/CapSense_1.c **** *  the subcomponents used within CapSense.
 491:Generated_Source\PSoC4/CapSense_1.c **** *
 492:Generated_Source\PSoC4/CapSense_1.c **** * Parameters:
 493:Generated_Source\PSoC4/CapSense_1.c **** *  None
 494:Generated_Source\PSoC4/CapSense_1.c **** *
 495:Generated_Source\PSoC4/CapSense_1.c **** * Return:
 496:Generated_Source\PSoC4/CapSense_1.c **** *  None
 497:Generated_Source\PSoC4/CapSense_1.c **** *
 498:Generated_Source\PSoC4/CapSense_1.c **** * Global Variables:
 499:Generated_Source\PSoC4/CapSense_1.c **** *  CapSense_1_csdTrim1 - Contains the IDAC trim register value for the Sourcing Mode.
 500:Generated_Source\PSoC4/CapSense_1.c **** *  CapSense_1_csdTrim2 - Contains the IDAC trim register value for vSinking Mode.
 501:Generated_Source\PSoC4/CapSense_1.c **** *
 502:Generated_Source\PSoC4/CapSense_1.c **** * Side Effects:
 503:Generated_Source\PSoC4/CapSense_1.c **** *  This function should be called after scans are completed.
 504:Generated_Source\PSoC4/CapSense_1.c **** *
 505:Generated_Source\PSoC4/CapSense_1.c **** *******************************************************************************/
 506:Generated_Source\PSoC4/CapSense_1.c **** void CapSense_1_Stop(void)
 507:Generated_Source\PSoC4/CapSense_1.c **** {
 512              		.loc 1 507 0
 513              		.cfi_startproc
 514 0000 80B5     		push	{r7, lr}
ARM GAS  C:\Users\glenn\AppData\Local\Temp\cc8ystec.s 			page 19


 515              		.cfi_def_cfa_offset 8
 516              		.cfi_offset 7, -8
 517              		.cfi_offset 14, -4
 518 0002 00AF     		add	r7, sp, #0
 519              		.cfi_def_cfa_register 7
 508:Generated_Source\PSoC4/CapSense_1.c ****     /* Disable interrupt */
 509:Generated_Source\PSoC4/CapSense_1.c ****     CyIntDisable(CapSense_1_ISR_NUMBER);
 520              		.loc 1 509 0
 521 0004 1120     		mov	r0, #17
 522 0006 FFF7FEFF 		bl	CyIntDisable
 510:Generated_Source\PSoC4/CapSense_1.c **** 
 511:Generated_Source\PSoC4/CapSense_1.c ****     CapSense_1_CSD_CFG_REG &= ~(CapSense_1_CSD_CFG_SENSE_COMP_EN | CapSense_1_CSD_CFG_SENSE_EN);
 523              		.loc 1 511 0
 524 000a 094B     		ldr	r3, .L15
 525 000c 084A     		ldr	r2, .L15
 526 000e 1268     		ldr	r2, [r2]
 527 0010 0849     		ldr	r1, .L15+4
 528 0012 0A40     		and	r2, r1
 529 0014 1A60     		str	r2, [r3]
 512:Generated_Source\PSoC4/CapSense_1.c **** 
 513:Generated_Source\PSoC4/CapSense_1.c ****     #if(CapSense_1_IDAC_CNT == 2u)
 514:Generated_Source\PSoC4/CapSense_1.c ****         CapSense_1_CSD_CFG_REG &= ~(CapSense_1_CSD_CFG_ENABLE);
 530              		.loc 1 514 0
 531 0016 064B     		ldr	r3, .L15
 532 0018 054A     		ldr	r2, .L15
 533 001a 1268     		ldr	r2, [r2]
 534 001c 5200     		lsl	r2, r2, #1
 535 001e 5208     		lsr	r2, r2, #1
 536 0020 1A60     		str	r2, [r3]
 515:Generated_Source\PSoC4/CapSense_1.c ****     #endif /* (CapSense_1_IDAC_CNT == 2u) */
 516:Generated_Source\PSoC4/CapSense_1.c **** 
 517:Generated_Source\PSoC4/CapSense_1.c ****     /* Disable the Clocks */
 518:Generated_Source\PSoC4/CapSense_1.c ****     CapSense_1_SenseClk_Stop();
 537              		.loc 1 518 0
 538 0022 FFF7FEFF 		bl	CapSense_1_SenseClk_Stop
 519:Generated_Source\PSoC4/CapSense_1.c ****     CapSense_1_SampleClk_Stop();
 539              		.loc 1 519 0
 540 0026 FFF7FEFF 		bl	CapSense_1_SampleClk_Stop
 520:Generated_Source\PSoC4/CapSense_1.c **** }
 541              		.loc 1 520 0
 542 002a BD46     		mov	sp, r7
 543              		@ sp needed
 544 002c 80BD     		pop	{r7, pc}
 545              	.L16:
 546 002e C046     		.align	2
 547              	.L15:
 548 0030 04002840 		.word	1076363268
 549 0034 FFEFF7FF 		.word	-528385
 550              		.cfi_endproc
 551              	.LFE39:
 552              		.size	CapSense_1_Stop, .-CapSense_1_Stop
 553              		.section	.text.CapSense_1_FindNextSensor,"ax",%progbits
 554              		.align	2
 555              		.global	CapSense_1_FindNextSensor
 556              		.code	16
 557              		.thumb_func
 558              		.type	CapSense_1_FindNextSensor, %function
ARM GAS  C:\Users\glenn\AppData\Local\Temp\cc8ystec.s 			page 20


 559              	CapSense_1_FindNextSensor:
 560              	.LFB40:
 521:Generated_Source\PSoC4/CapSense_1.c **** 
 522:Generated_Source\PSoC4/CapSense_1.c **** 
 523:Generated_Source\PSoC4/CapSense_1.c **** /*******************************************************************************
 524:Generated_Source\PSoC4/CapSense_1.c **** * Function Name: CapSense_1_FindNextSensor
 525:Generated_Source\PSoC4/CapSense_1.c **** ********************************************************************************
 526:Generated_Source\PSoC4/CapSense_1.c **** *
 527:Generated_Source\PSoC4/CapSense_1.c **** * Summary:
 528:Generated_Source\PSoC4/CapSense_1.c **** *  Finds the next sensor to scan.
 529:Generated_Source\PSoC4/CapSense_1.c **** *
 530:Generated_Source\PSoC4/CapSense_1.c **** * Parameters:
 531:Generated_Source\PSoC4/CapSense_1.c **** *  snsIndex:  Current index of sensor.
 532:Generated_Source\PSoC4/CapSense_1.c **** *
 533:Generated_Source\PSoC4/CapSense_1.c **** * Return:
 534:Generated_Source\PSoC4/CapSense_1.c **** *  Returns the next sensor index to scan.
 535:Generated_Source\PSoC4/CapSense_1.c **** *
 536:Generated_Source\PSoC4/CapSense_1.c **** * Global Variables:
 537:Generated_Source\PSoC4/CapSense_1.c **** *  CapSense_1_sensorEnableMask[] - used to store bit masks of the enabled sensors.
 538:Generated_Source\PSoC4/CapSense_1.c **** *
 539:Generated_Source\PSoC4/CapSense_1.c **** * Side Effects:
 540:Generated_Source\PSoC4/CapSense_1.c **** *  This function affects the  current scanning and should not
 541:Generated_Source\PSoC4/CapSense_1.c **** *  be used outside the component.
 542:Generated_Source\PSoC4/CapSense_1.c **** *
 543:Generated_Source\PSoC4/CapSense_1.c **** *******************************************************************************/
 544:Generated_Source\PSoC4/CapSense_1.c **** uint8 CapSense_1_FindNextSensor(uint8 snsIndex)
 545:Generated_Source\PSoC4/CapSense_1.c **** {
 561              		.loc 1 545 0
 562              		.cfi_startproc
 563 0000 80B5     		push	{r7, lr}
 564              		.cfi_def_cfa_offset 8
 565              		.cfi_offset 7, -8
 566              		.cfi_offset 14, -4
 567 0002 84B0     		sub	sp, sp, #16
 568              		.cfi_def_cfa_offset 24
 569 0004 00AF     		add	r7, sp, #0
 570              		.cfi_def_cfa_register 7
 571 0006 021C     		mov	r2, r0
 572 0008 FB1D     		add	r3, r7, #7
 573 000a 1A70     		strb	r2, [r3]
 574              	.L20:
 546:Generated_Source\PSoC4/CapSense_1.c ****     uint32 enableFlag;
 547:Generated_Source\PSoC4/CapSense_1.c **** 
 548:Generated_Source\PSoC4/CapSense_1.c ****     /* Check if sensor enabled */
 549:Generated_Source\PSoC4/CapSense_1.c ****     do
 550:Generated_Source\PSoC4/CapSense_1.c ****     {
 551:Generated_Source\PSoC4/CapSense_1.c ****         /* Proceed with next sensor */
 552:Generated_Source\PSoC4/CapSense_1.c ****         snsIndex++;
 575              		.loc 1 552 0
 576 000c FB1D     		add	r3, r7, #7
 577 000e 1A78     		ldrb	r2, [r3]
 578 0010 FB1D     		add	r3, r7, #7
 579 0012 0132     		add	r2, r2, #1
 580 0014 1A70     		strb	r2, [r3]
 553:Generated_Source\PSoC4/CapSense_1.c ****         if(snsIndex == CapSense_1_TOTAL_SENSOR_COUNT)
 581              		.loc 1 553 0
 582 0016 FB1D     		add	r3, r7, #7
ARM GAS  C:\Users\glenn\AppData\Local\Temp\cc8ystec.s 			page 21


 583 0018 1B78     		ldrb	r3, [r3]
 584 001a 082B     		cmp	r3, #8
 585 001c 00D1     		bne	.L18
 554:Generated_Source\PSoC4/CapSense_1.c ****         {
 555:Generated_Source\PSoC4/CapSense_1.c ****             break;
 586              		.loc 1 555 0
 587 001e 0BE0     		b	.L19
 588              	.L18:
 556:Generated_Source\PSoC4/CapSense_1.c ****         }
 557:Generated_Source\PSoC4/CapSense_1.c ****         enableFlag = CapSense_1_GetBitValue(CapSense_1_sensorEnableMask, (uint32)snsIndex);
 589              		.loc 1 557 0
 590 0020 FB1D     		add	r3, r7, #7
 591 0022 1B78     		ldrb	r3, [r3]
 592 0024 074A     		ldr	r2, .L22
 593 0026 101C     		mov	r0, r2
 594 0028 191C     		mov	r1, r3
 595 002a FFF7FEFF 		bl	CapSense_1_GetBitValue
 596 002e 031C     		mov	r3, r0
 597 0030 FB60     		str	r3, [r7, #12]
 558:Generated_Source\PSoC4/CapSense_1.c ****     }
 559:Generated_Source\PSoC4/CapSense_1.c ****     while(enableFlag == 0u);
 598              		.loc 1 559 0
 599 0032 FB68     		ldr	r3, [r7, #12]
 600 0034 002B     		cmp	r3, #0
 601 0036 E9D0     		beq	.L20
 602              	.L19:
 560:Generated_Source\PSoC4/CapSense_1.c **** 
 561:Generated_Source\PSoC4/CapSense_1.c ****     return ((uint8)snsIndex);
 603              		.loc 1 561 0
 604 0038 FB1D     		add	r3, r7, #7
 605 003a 1B78     		ldrb	r3, [r3]
 562:Generated_Source\PSoC4/CapSense_1.c **** }
 606              		.loc 1 562 0
 607 003c 181C     		mov	r0, r3
 608 003e BD46     		mov	sp, r7
 609 0040 04B0     		add	sp, sp, #16
 610              		@ sp needed
 611 0042 80BD     		pop	{r7, pc}
 612              	.L23:
 613              		.align	2
 614              	.L22:
 615 0044 00000000 		.word	CapSense_1_sensorEnableMask
 616              		.cfi_endproc
 617              	.LFE40:
 618              		.size	CapSense_1_FindNextSensor, .-CapSense_1_FindNextSensor
 619              		.section	.text.CapSense_1_ScanSensor,"ax",%progbits
 620              		.align	2
 621              		.global	CapSense_1_ScanSensor
 622              		.code	16
 623              		.thumb_func
 624              		.type	CapSense_1_ScanSensor, %function
 625              	CapSense_1_ScanSensor:
 626              	.LFB41:
 563:Generated_Source\PSoC4/CapSense_1.c **** 
 564:Generated_Source\PSoC4/CapSense_1.c **** 
 565:Generated_Source\PSoC4/CapSense_1.c **** /*******************************************************************************
 566:Generated_Source\PSoC4/CapSense_1.c **** * Function Name: CapSense_1_ScanSensor
ARM GAS  C:\Users\glenn\AppData\Local\Temp\cc8ystec.s 			page 22


 567:Generated_Source\PSoC4/CapSense_1.c **** ********************************************************************************
 568:Generated_Source\PSoC4/CapSense_1.c **** *
 569:Generated_Source\PSoC4/CapSense_1.c **** * Summary:
 570:Generated_Source\PSoC4/CapSense_1.c **** *  Sets the scan settings and starts scanning a sensor. After scanning is complete,
 571:Generated_Source\PSoC4/CapSense_1.c **** *  the ISR copies the measured sensor raw data to the global raw sensor array.
 572:Generated_Source\PSoC4/CapSense_1.c **** *  Use of the ISR ensures this function is non-blocking.
 573:Generated_Source\PSoC4/CapSense_1.c **** *  Each sensor has a unique number within the sensor array.
 574:Generated_Source\PSoC4/CapSense_1.c **** *  This number is assigned by the CapSense customizer in sequence.
 575:Generated_Source\PSoC4/CapSense_1.c **** *
 576:Generated_Source\PSoC4/CapSense_1.c **** * Parameters:
 577:Generated_Source\PSoC4/CapSense_1.c **** *  sensor:  Sensor number.
 578:Generated_Source\PSoC4/CapSense_1.c **** *
 579:Generated_Source\PSoC4/CapSense_1.c **** * Return:
 580:Generated_Source\PSoC4/CapSense_1.c **** *  None
 581:Generated_Source\PSoC4/CapSense_1.c **** *
 582:Generated_Source\PSoC4/CapSense_1.c **** * Global Variables:
 583:Generated_Source\PSoC4/CapSense_1.c **** *  CapSense_1_csdStatusVar - used to provide the status and mode of the scanning process.
 584:Generated_Source\PSoC4/CapSense_1.c **** *  Sets the busy status(scan in progress) and mode of scan as single scan.
 585:Generated_Source\PSoC4/CapSense_1.c **** *  CapSense_1_sensorIndex - used to store a sensor scanning sensor number.
 586:Generated_Source\PSoC4/CapSense_1.c **** *  Sets to the provided sensor argument.
 587:Generated_Source\PSoC4/CapSense_1.c **** *
 588:Generated_Source\PSoC4/CapSense_1.c **** * Side Effects:
 589:Generated_Source\PSoC4/CapSense_1.c **** *  None
 590:Generated_Source\PSoC4/CapSense_1.c **** *
 591:Generated_Source\PSoC4/CapSense_1.c **** *******************************************************************************/
 592:Generated_Source\PSoC4/CapSense_1.c **** void CapSense_1_ScanSensor(uint32 sensor)
 593:Generated_Source\PSoC4/CapSense_1.c **** {
 627              		.loc 1 593 0
 628              		.cfi_startproc
 629 0000 80B5     		push	{r7, lr}
 630              		.cfi_def_cfa_offset 8
 631              		.cfi_offset 7, -8
 632              		.cfi_offset 14, -4
 633 0002 82B0     		sub	sp, sp, #8
 634              		.cfi_def_cfa_offset 16
 635 0004 00AF     		add	r7, sp, #0
 636              		.cfi_def_cfa_register 7
 637 0006 7860     		str	r0, [r7, #4]
 594:Generated_Source\PSoC4/CapSense_1.c ****     /* Clears status/control variable and set sensorIndex */
 595:Generated_Source\PSoC4/CapSense_1.c ****     CapSense_1_csdStatusVar = 0u;
 638              		.loc 1 595 0
 639 0008 084B     		ldr	r3, .L25
 640 000a 0022     		mov	r2, #0
 641 000c 1A70     		strb	r2, [r3]
 596:Generated_Source\PSoC4/CapSense_1.c ****     CapSense_1_sensorIndex = (uint8)sensor;
 642              		.loc 1 596 0
 643 000e 7B68     		ldr	r3, [r7, #4]
 644 0010 DAB2     		uxtb	r2, r3
 645 0012 074B     		ldr	r3, .L25+4
 646 0014 1A70     		strb	r2, [r3]
 597:Generated_Source\PSoC4/CapSense_1.c **** 
 598:Generated_Source\PSoC4/CapSense_1.c ****     /* Start of sensor scan */
 599:Generated_Source\PSoC4/CapSense_1.c ****     CapSense_1_csdStatusVar = (CapSense_1_SW_STS_BUSY | CapSense_1_SW_CTRL_SINGLE_SCAN);
 647              		.loc 1 599 0
 648 0016 054B     		ldr	r3, .L25
 649 0018 8122     		mov	r2, #129
 650 001a 1A70     		strb	r2, [r3]
ARM GAS  C:\Users\glenn\AppData\Local\Temp\cc8ystec.s 			page 23


 600:Generated_Source\PSoC4/CapSense_1.c ****     CapSense_1_PreScan(sensor);
 651              		.loc 1 600 0
 652 001c 7B68     		ldr	r3, [r7, #4]
 653 001e 181C     		mov	r0, r3
 654 0020 FFF7FEFF 		bl	CapSense_1_PreScan
 601:Generated_Source\PSoC4/CapSense_1.c **** }
 655              		.loc 1 601 0
 656 0024 BD46     		mov	sp, r7
 657 0026 02B0     		add	sp, sp, #8
 658              		@ sp needed
 659 0028 80BD     		pop	{r7, pc}
 660              	.L26:
 661 002a C046     		.align	2
 662              	.L25:
 663 002c 00000000 		.word	CapSense_1_csdStatusVar
 664 0030 00000000 		.word	CapSense_1_sensorIndex
 665              		.cfi_endproc
 666              	.LFE41:
 667              		.size	CapSense_1_ScanSensor, .-CapSense_1_ScanSensor
 668              		.section	.text.CapSense_1_ScanEnabledWidgets,"ax",%progbits
 669              		.align	2
 670              		.global	CapSense_1_ScanEnabledWidgets
 671              		.code	16
 672              		.thumb_func
 673              		.type	CapSense_1_ScanEnabledWidgets, %function
 674              	CapSense_1_ScanEnabledWidgets:
 675              	.LFB42:
 602:Generated_Source\PSoC4/CapSense_1.c **** 
 603:Generated_Source\PSoC4/CapSense_1.c **** 
 604:Generated_Source\PSoC4/CapSense_1.c **** #if(0u != CapSense_1_CSHL_API_GENERATE)
 605:Generated_Source\PSoC4/CapSense_1.c **** /*******************************************************************************
 606:Generated_Source\PSoC4/CapSense_1.c **** * Function Name: CapSense_1_ScanWidget
 607:Generated_Source\PSoC4/CapSense_1.c **** ********************************************************************************
 608:Generated_Source\PSoC4/CapSense_1.c **** *
 609:Generated_Source\PSoC4/CapSense_1.c **** * Summary:
 610:Generated_Source\PSoC4/CapSense_1.c **** *  Sets the scan settings and starts scanning a widget.
 611:Generated_Source\PSoC4/CapSense_1.c **** *
 612:Generated_Source\PSoC4/CapSense_1.c **** * Parameters:
 613:Generated_Source\PSoC4/CapSense_1.c **** *  uint32 widget: Widget number.
 614:Generated_Source\PSoC4/CapSense_1.c **** *
 615:Generated_Source\PSoC4/CapSense_1.c **** * Return:
 616:Generated_Source\PSoC4/CapSense_1.c **** *  None
 617:Generated_Source\PSoC4/CapSense_1.c **** *
 618:Generated_Source\PSoC4/CapSense_1.c **** * Global Variables:
 619:Generated_Source\PSoC4/CapSense_1.c **** *  CapSense_1_csdStatusVar - used to provide the status and mode of the scanning process.
 620:Generated_Source\PSoC4/CapSense_1.c **** *  Sets the busy status(scan in progress) and clears the single scan mode.
 621:Generated_Source\PSoC4/CapSense_1.c **** *  CapSense_1_sensorIndex - used to store a sensor scanning sensor number.
 622:Generated_Source\PSoC4/CapSense_1.c **** *  Sets to 0xFF and provided to function CapSense_1_FindNextSensor or
 623:Generated_Source\PSoC4/CapSense_1.c **** *  CapSense_1_sensorEnableMask[] - used to store bit masks of the enabled sensors.
 624:Generated_Source\PSoC4/CapSense_1.c **** *  CapSense_1_sensorEnableMaskBackup[] - used to backup bit masks of the enabled
 625:Generated_Source\PSoC4/CapSense_1.c **** *   sensors.
 626:Generated_Source\PSoC4/CapSense_1.c **** *
 627:Generated_Source\PSoC4/CapSense_1.c **** * Side Effects:
 628:Generated_Source\PSoC4/CapSense_1.c **** *  None
 629:Generated_Source\PSoC4/CapSense_1.c **** *
 630:Generated_Source\PSoC4/CapSense_1.c **** *******************************************************************************/
 631:Generated_Source\PSoC4/CapSense_1.c **** void CapSense_1_ScanWidget(uint32 widget)
ARM GAS  C:\Users\glenn\AppData\Local\Temp\cc8ystec.s 			page 24


 632:Generated_Source\PSoC4/CapSense_1.c **** {
 633:Generated_Source\PSoC4/CapSense_1.c ****     uint32 sensorsPerWidget;
 634:Generated_Source\PSoC4/CapSense_1.c ****     uint32 lastSensor;
 635:Generated_Source\PSoC4/CapSense_1.c ****     uint32 snsIndex;
 636:Generated_Source\PSoC4/CapSense_1.c **** 
 637:Generated_Source\PSoC4/CapSense_1.c ****     /* Get first sensor in widget */
 638:Generated_Source\PSoC4/CapSense_1.c ****     CapSense_1_sensorIndex = CapSense_1_rawDataIndex[widget];
 639:Generated_Source\PSoC4/CapSense_1.c **** 
 640:Generated_Source\PSoC4/CapSense_1.c ****     /* Get number of sensors in widget */
 641:Generated_Source\PSoC4/CapSense_1.c ****     sensorsPerWidget = CapSense_1_numberOfSensors[widget];
 642:Generated_Source\PSoC4/CapSense_1.c **** 
 643:Generated_Source\PSoC4/CapSense_1.c ****     /* Check if generic Sensor */
 644:Generated_Source\PSoC4/CapSense_1.c ****     if(sensorsPerWidget == 0u)
 645:Generated_Source\PSoC4/CapSense_1.c ****     {
 646:Generated_Source\PSoC4/CapSense_1.c ****         sensorsPerWidget = 1u;
 647:Generated_Source\PSoC4/CapSense_1.c ****     }
 648:Generated_Source\PSoC4/CapSense_1.c **** 
 649:Generated_Source\PSoC4/CapSense_1.c ****     /* Get last sensor in widget */
 650:Generated_Source\PSoC4/CapSense_1.c ****     lastSensor = (CapSense_1_rawDataIndex[widget] + sensorsPerWidget) - 1u;
 651:Generated_Source\PSoC4/CapSense_1.c **** 
 652:Generated_Source\PSoC4/CapSense_1.c ****     /* Backup sensorEnableMask array */
 653:Generated_Source\PSoC4/CapSense_1.c ****     for(snsIndex = 0u; snsIndex < CapSense_1_TOTAL_SENSOR_MASK; snsIndex++)
 654:Generated_Source\PSoC4/CapSense_1.c ****     {
 655:Generated_Source\PSoC4/CapSense_1.c ****         /* Backup sensorEnableMask array */
 656:Generated_Source\PSoC4/CapSense_1.c ****         CapSense_1_sensorEnableMaskBackup[snsIndex] = CapSense_1_sensorEnableMask[snsIndex];
 657:Generated_Source\PSoC4/CapSense_1.c ****     }
 658:Generated_Source\PSoC4/CapSense_1.c **** 
 659:Generated_Source\PSoC4/CapSense_1.c ****     /* Update sensorEnableMask to scan the sensors that belong to widget */
 660:Generated_Source\PSoC4/CapSense_1.c ****     for(snsIndex = 0u; snsIndex < CapSense_1_TOTAL_SENSOR_COUNT; snsIndex++)
 661:Generated_Source\PSoC4/CapSense_1.c ****     {
 662:Generated_Source\PSoC4/CapSense_1.c ****         /* Update sensorEnableMask array bits to scan the widget only */
 663:Generated_Source\PSoC4/CapSense_1.c ****         if((snsIndex >= CapSense_1_sensorIndex) && (snsIndex <= lastSensor))
 664:Generated_Source\PSoC4/CapSense_1.c ****         {
 665:Generated_Source\PSoC4/CapSense_1.c ****             /* Set sensor bit to scan */
 666:Generated_Source\PSoC4/CapSense_1.c ****             CapSense_1_SetBitValue(CapSense_1_sensorEnableMask, snsIndex, 1u);
 667:Generated_Source\PSoC4/CapSense_1.c ****         }
 668:Generated_Source\PSoC4/CapSense_1.c ****         else
 669:Generated_Source\PSoC4/CapSense_1.c ****         {
 670:Generated_Source\PSoC4/CapSense_1.c ****             /* Reset sensor bit to do not scan */
 671:Generated_Source\PSoC4/CapSense_1.c ****             CapSense_1_SetBitValue(CapSense_1_sensorEnableMask, snsIndex, 0u);
 672:Generated_Source\PSoC4/CapSense_1.c ****         }
 673:Generated_Source\PSoC4/CapSense_1.c ****     }
 674:Generated_Source\PSoC4/CapSense_1.c **** 
 675:Generated_Source\PSoC4/CapSense_1.c ****     /* Check end of scan condition */
 676:Generated_Source\PSoC4/CapSense_1.c ****     if(CapSense_1_sensorIndex < CapSense_1_TOTAL_SENSOR_COUNT)
 677:Generated_Source\PSoC4/CapSense_1.c ****     {
 678:Generated_Source\PSoC4/CapSense_1.c ****         /* Set widget busy bit in status/control variable*/
 679:Generated_Source\PSoC4/CapSense_1.c ****         CapSense_1_csdStatusVar = (CapSense_1_SW_STS_BUSY | CapSense_1_SW_CTRL_WIDGET_SCAN);
 680:Generated_Source\PSoC4/CapSense_1.c ****         /* Scan first sensor of widget*/
 681:Generated_Source\PSoC4/CapSense_1.c ****         CapSense_1_PreScan((uint32)CapSense_1_sensorIndex);
 682:Generated_Source\PSoC4/CapSense_1.c ****     }
 683:Generated_Source\PSoC4/CapSense_1.c **** }
 684:Generated_Source\PSoC4/CapSense_1.c **** #endif /* (0u != CapSense_1_CSHL_API_GENERATE) */
 685:Generated_Source\PSoC4/CapSense_1.c **** 
 686:Generated_Source\PSoC4/CapSense_1.c **** 
 687:Generated_Source\PSoC4/CapSense_1.c **** /*******************************************************************************
 688:Generated_Source\PSoC4/CapSense_1.c **** * Function Name: CapSense_1_ScanEnableWidgets
ARM GAS  C:\Users\glenn\AppData\Local\Temp\cc8ystec.s 			page 25


 689:Generated_Source\PSoC4/CapSense_1.c **** ********************************************************************************
 690:Generated_Source\PSoC4/CapSense_1.c **** *
 691:Generated_Source\PSoC4/CapSense_1.c **** * Summary:
 692:Generated_Source\PSoC4/CapSense_1.c **** *  This is the preferred method to scan all of the enabled widgets.
 693:Generated_Source\PSoC4/CapSense_1.c **** *  The API starts scanning a sensor within the enabled widgets.
 694:Generated_Source\PSoC4/CapSense_1.c **** *  The ISR continues scanning the sensors until all the enabled widgets are scanned.
 695:Generated_Source\PSoC4/CapSense_1.c **** *  Use of the ISR ensures this function is non-blocking.
 696:Generated_Source\PSoC4/CapSense_1.c **** *  All the widgets are enabled by default except proximity widgets.
 697:Generated_Source\PSoC4/CapSense_1.c **** *  The proximity widgets must be manually enabled as their long scan time
 698:Generated_Source\PSoC4/CapSense_1.c **** *  is incompatible with a fast response required of other widget types.
 699:Generated_Source\PSoC4/CapSense_1.c **** *
 700:Generated_Source\PSoC4/CapSense_1.c **** * Parameters:
 701:Generated_Source\PSoC4/CapSense_1.c **** *  None
 702:Generated_Source\PSoC4/CapSense_1.c **** *
 703:Generated_Source\PSoC4/CapSense_1.c **** * Return:
 704:Generated_Source\PSoC4/CapSense_1.c **** *  None
 705:Generated_Source\PSoC4/CapSense_1.c **** *
 706:Generated_Source\PSoC4/CapSense_1.c **** * Global Variables:
 707:Generated_Source\PSoC4/CapSense_1.c **** *  CapSense_1_csdStatusVar - used to provide the status and mode of the scanning process.
 708:Generated_Source\PSoC4/CapSense_1.c **** *  Sets the busy status(scan in progress) and clears the single scan mode.
 709:Generated_Source\PSoC4/CapSense_1.c **** *  CapSense_1_sensorIndex - used to store a sensor scanning sensor number.
 710:Generated_Source\PSoC4/CapSense_1.c **** *  Sets to 0xFF and provided to function CapSense_1_FindNextSensor or
 711:Generated_Source\PSoC4/CapSense_1.c **** *
 712:Generated_Source\PSoC4/CapSense_1.c **** * Side Effects:
 713:Generated_Source\PSoC4/CapSense_1.c **** *  None
 714:Generated_Source\PSoC4/CapSense_1.c **** *
 715:Generated_Source\PSoC4/CapSense_1.c **** *******************************************************************************/
 716:Generated_Source\PSoC4/CapSense_1.c **** void CapSense_1_ScanEnabledWidgets(void)
 717:Generated_Source\PSoC4/CapSense_1.c **** {
 676              		.loc 1 717 0
 677              		.cfi_startproc
 678 0000 80B5     		push	{r7, lr}
 679              		.cfi_def_cfa_offset 8
 680              		.cfi_offset 7, -8
 681              		.cfi_offset 14, -4
 682 0002 00AF     		add	r7, sp, #0
 683              		.cfi_def_cfa_register 7
 718:Generated_Source\PSoC4/CapSense_1.c ****     /* Clears status/control variable and set sensorIndex */
 719:Generated_Source\PSoC4/CapSense_1.c ****     CapSense_1_csdStatusVar = 0u;
 684              		.loc 1 719 0
 685 0004 124B     		ldr	r3, .L29
 686 0006 0022     		mov	r2, #0
 687 0008 1A70     		strb	r2, [r3]
 720:Generated_Source\PSoC4/CapSense_1.c ****     CapSense_1_sensorIndex = 0xFFu;
 688              		.loc 1 720 0
 689 000a 124B     		ldr	r3, .L29+4
 690 000c FF22     		mov	r2, #255
 691 000e 1A70     		strb	r2, [r3]
 721:Generated_Source\PSoC4/CapSense_1.c **** 
 722:Generated_Source\PSoC4/CapSense_1.c ****     /* Find next sensor */
 723:Generated_Source\PSoC4/CapSense_1.c ****     CapSense_1_sensorIndex = (uint8)CapSense_1_FindNextSensor(CapSense_1_sensorIndex);
 692              		.loc 1 723 0
 693 0010 104B     		ldr	r3, .L29+4
 694 0012 1B78     		ldrb	r3, [r3]
 695 0014 DBB2     		uxtb	r3, r3
 696 0016 181C     		mov	r0, r3
 697 0018 FFF7FEFF 		bl	CapSense_1_FindNextSensor
ARM GAS  C:\Users\glenn\AppData\Local\Temp\cc8ystec.s 			page 26


 698 001c 031C     		mov	r3, r0
 699 001e 1A1C     		mov	r2, r3
 700 0020 0C4B     		ldr	r3, .L29+4
 701 0022 1A70     		strb	r2, [r3]
 724:Generated_Source\PSoC4/CapSense_1.c **** 
 725:Generated_Source\PSoC4/CapSense_1.c ****     /* Check end of scan condition */
 726:Generated_Source\PSoC4/CapSense_1.c ****     if(CapSense_1_sensorIndex < CapSense_1_TOTAL_SENSOR_COUNT)
 702              		.loc 1 726 0
 703 0024 0B4B     		ldr	r3, .L29+4
 704 0026 1B78     		ldrb	r3, [r3]
 705 0028 DBB2     		uxtb	r3, r3
 706 002a 072B     		cmp	r3, #7
 707 002c 0DD8     		bhi	.L27
 727:Generated_Source\PSoC4/CapSense_1.c ****     {
 728:Generated_Source\PSoC4/CapSense_1.c ****         CapSense_1_csdStatusVar |= CapSense_1_SW_STS_BUSY;
 708              		.loc 1 728 0
 709 002e 084B     		ldr	r3, .L29
 710 0030 1B78     		ldrb	r3, [r3]
 711 0032 DBB2     		uxtb	r3, r3
 712 0034 0122     		mov	r2, #1
 713 0036 1343     		orr	r3, r2
 714 0038 DAB2     		uxtb	r2, r3
 715 003a 054B     		ldr	r3, .L29
 716 003c 1A70     		strb	r2, [r3]
 729:Generated_Source\PSoC4/CapSense_1.c ****         CapSense_1_PreScan((uint32)CapSense_1_sensorIndex);
 717              		.loc 1 729 0
 718 003e 054B     		ldr	r3, .L29+4
 719 0040 1B78     		ldrb	r3, [r3]
 720 0042 DBB2     		uxtb	r3, r3
 721 0044 181C     		mov	r0, r3
 722 0046 FFF7FEFF 		bl	CapSense_1_PreScan
 723              	.L27:
 730:Generated_Source\PSoC4/CapSense_1.c ****     }
 731:Generated_Source\PSoC4/CapSense_1.c **** }
 724              		.loc 1 731 0
 725 004a BD46     		mov	sp, r7
 726              		@ sp needed
 727 004c 80BD     		pop	{r7, pc}
 728              	.L30:
 729 004e C046     		.align	2
 730              	.L29:
 731 0050 00000000 		.word	CapSense_1_csdStatusVar
 732 0054 00000000 		.word	CapSense_1_sensorIndex
 733              		.cfi_endproc
 734              	.LFE42:
 735              		.size	CapSense_1_ScanEnabledWidgets, .-CapSense_1_ScanEnabledWidgets
 736              		.section	.text.CapSense_1_IsBusy,"ax",%progbits
 737              		.align	2
 738              		.global	CapSense_1_IsBusy
 739              		.code	16
 740              		.thumb_func
 741              		.type	CapSense_1_IsBusy, %function
 742              	CapSense_1_IsBusy:
 743              	.LFB43:
 732:Generated_Source\PSoC4/CapSense_1.c **** 
 733:Generated_Source\PSoC4/CapSense_1.c **** 
 734:Generated_Source\PSoC4/CapSense_1.c **** /*******************************************************************************
ARM GAS  C:\Users\glenn\AppData\Local\Temp\cc8ystec.s 			page 27


 735:Generated_Source\PSoC4/CapSense_1.c **** * Function Name: CapSense_1_IsBusy
 736:Generated_Source\PSoC4/CapSense_1.c **** ********************************************************************************
 737:Generated_Source\PSoC4/CapSense_1.c **** *
 738:Generated_Source\PSoC4/CapSense_1.c **** * Summary:
 739:Generated_Source\PSoC4/CapSense_1.c **** *  Returns the state of the CapSense component. 1 means that scanning in
 740:Generated_Source\PSoC4/CapSense_1.c **** *  progress and 0 means that scanning is complete.
 741:Generated_Source\PSoC4/CapSense_1.c **** *
 742:Generated_Source\PSoC4/CapSense_1.c **** * Parameters:
 743:Generated_Source\PSoC4/CapSense_1.c **** *  None
 744:Generated_Source\PSoC4/CapSense_1.c **** *
 745:Generated_Source\PSoC4/CapSense_1.c **** * Return:
 746:Generated_Source\PSoC4/CapSense_1.c **** *  Returns the state of scanning. 1 - scanning in progress, 0 - scanning
 747:Generated_Source\PSoC4/CapSense_1.c **** *  completed.
 748:Generated_Source\PSoC4/CapSense_1.c **** *
 749:Generated_Source\PSoC4/CapSense_1.c **** * Global Variables:
 750:Generated_Source\PSoC4/CapSense_1.c **** *  CapSense_1_csdStatusVar - used to provide the status and mode of the scanning process.
 751:Generated_Source\PSoC4/CapSense_1.c **** *  Checks the busy status.
 752:Generated_Source\PSoC4/CapSense_1.c **** *
 753:Generated_Source\PSoC4/CapSense_1.c **** * Side Effects:
 754:Generated_Source\PSoC4/CapSense_1.c **** *  None
 755:Generated_Source\PSoC4/CapSense_1.c **** *
 756:Generated_Source\PSoC4/CapSense_1.c **** *******************************************************************************/
 757:Generated_Source\PSoC4/CapSense_1.c **** uint32 CapSense_1_IsBusy(void)
 758:Generated_Source\PSoC4/CapSense_1.c **** {
 744              		.loc 1 758 0
 745              		.cfi_startproc
 746 0000 80B5     		push	{r7, lr}
 747              		.cfi_def_cfa_offset 8
 748              		.cfi_offset 7, -8
 749              		.cfi_offset 14, -4
 750 0002 00AF     		add	r7, sp, #0
 751              		.cfi_def_cfa_register 7
 759:Generated_Source\PSoC4/CapSense_1.c ****     return ((uint32)((0u != (CapSense_1_csdStatusVar & CapSense_1_SW_STS_BUSY)) ? 1u : 0u));
 752              		.loc 1 759 0
 753 0004 044B     		ldr	r3, .L33
 754 0006 1B78     		ldrb	r3, [r3]
 755 0008 DBB2     		uxtb	r3, r3
 756 000a 1A1C     		mov	r2, r3
 757 000c 0123     		mov	r3, #1
 758 000e 1340     		and	r3, r2
 760:Generated_Source\PSoC4/CapSense_1.c **** }
 759              		.loc 1 760 0
 760 0010 181C     		mov	r0, r3
 761 0012 BD46     		mov	sp, r7
 762              		@ sp needed
 763 0014 80BD     		pop	{r7, pc}
 764              	.L34:
 765 0016 C046     		.align	2
 766              	.L33:
 767 0018 00000000 		.word	CapSense_1_csdStatusVar
 768              		.cfi_endproc
 769              	.LFE43:
 770              		.size	CapSense_1_IsBusy, .-CapSense_1_IsBusy
 771              		.section	.text.CapSense_1_ReadSensorRaw,"ax",%progbits
 772              		.align	2
 773              		.global	CapSense_1_ReadSensorRaw
 774              		.code	16
ARM GAS  C:\Users\glenn\AppData\Local\Temp\cc8ystec.s 			page 28


 775              		.thumb_func
 776              		.type	CapSense_1_ReadSensorRaw, %function
 777              	CapSense_1_ReadSensorRaw:
 778              	.LFB44:
 761:Generated_Source\PSoC4/CapSense_1.c **** 
 762:Generated_Source\PSoC4/CapSense_1.c **** 
 763:Generated_Source\PSoC4/CapSense_1.c **** /*******************************************************************************
 764:Generated_Source\PSoC4/CapSense_1.c **** * Function Name: CapSense_1_ReadSensorRaw
 765:Generated_Source\PSoC4/CapSense_1.c **** ********************************************************************************
 766:Generated_Source\PSoC4/CapSense_1.c **** *
 767:Generated_Source\PSoC4/CapSense_1.c **** * Summary:
 768:Generated_Source\PSoC4/CapSense_1.c **** *  Returns sensor raw data from the global CapSense_sensorRaw[ ] array.
 769:Generated_Source\PSoC4/CapSense_1.c **** *  Each scan sensor has a unique number within the sensor array.
 770:Generated_Source\PSoC4/CapSense_1.c **** *  This number is assigned by the CapSense customizer in sequence.
 771:Generated_Source\PSoC4/CapSense_1.c **** *  Raw data can be used to perform calculations outside of the CapSense
 772:Generated_Source\PSoC4/CapSense_1.c **** *  provided framework.
 773:Generated_Source\PSoC4/CapSense_1.c **** *
 774:Generated_Source\PSoC4/CapSense_1.c **** * Parameters:
 775:Generated_Source\PSoC4/CapSense_1.c **** *  sensor:  Sensor number.
 776:Generated_Source\PSoC4/CapSense_1.c **** *
 777:Generated_Source\PSoC4/CapSense_1.c **** * Return:
 778:Generated_Source\PSoC4/CapSense_1.c **** *  Returns the current raw data value for a defined sensor number.
 779:Generated_Source\PSoC4/CapSense_1.c **** *
 780:Generated_Source\PSoC4/CapSense_1.c **** * Global Variables:
 781:Generated_Source\PSoC4/CapSense_1.c **** *  CapSense_1_sensorRaw[] - used to store sensors raw data.
 782:Generated_Source\PSoC4/CapSense_1.c **** *
 783:Generated_Source\PSoC4/CapSense_1.c **** * Side Effects:
 784:Generated_Source\PSoC4/CapSense_1.c **** *  None
 785:Generated_Source\PSoC4/CapSense_1.c **** *
 786:Generated_Source\PSoC4/CapSense_1.c **** *******************************************************************************/
 787:Generated_Source\PSoC4/CapSense_1.c **** uint16 CapSense_1_ReadSensorRaw(uint32 sensor)
 788:Generated_Source\PSoC4/CapSense_1.c **** {
 779              		.loc 1 788 0
 780              		.cfi_startproc
 781 0000 80B5     		push	{r7, lr}
 782              		.cfi_def_cfa_offset 8
 783              		.cfi_offset 7, -8
 784              		.cfi_offset 14, -4
 785 0002 82B0     		sub	sp, sp, #8
 786              		.cfi_def_cfa_offset 16
 787 0004 00AF     		add	r7, sp, #0
 788              		.cfi_def_cfa_register 7
 789 0006 7860     		str	r0, [r7, #4]
 789:Generated_Source\PSoC4/CapSense_1.c ****     return CapSense_1_sensorRaw[sensor];
 790              		.loc 1 789 0
 791 0008 034B     		ldr	r3, .L37
 792 000a 7A68     		ldr	r2, [r7, #4]
 793 000c 5200     		lsl	r2, r2, #1
 794 000e D35A     		ldrh	r3, [r2, r3]
 790:Generated_Source\PSoC4/CapSense_1.c **** }
 795              		.loc 1 790 0
 796 0010 181C     		mov	r0, r3
 797 0012 BD46     		mov	sp, r7
 798 0014 02B0     		add	sp, sp, #8
 799              		@ sp needed
 800 0016 80BD     		pop	{r7, pc}
 801              	.L38:
ARM GAS  C:\Users\glenn\AppData\Local\Temp\cc8ystec.s 			page 29


 802              		.align	2
 803              	.L37:
 804 0018 00000000 		.word	CapSense_1_sensorRaw
 805              		.cfi_endproc
 806              	.LFE44:
 807              		.size	CapSense_1_ReadSensorRaw, .-CapSense_1_ReadSensorRaw
 808              		.section	.text.CapSense_1_WriteSensorRaw,"ax",%progbits
 809              		.align	2
 810              		.global	CapSense_1_WriteSensorRaw
 811              		.code	16
 812              		.thumb_func
 813              		.type	CapSense_1_WriteSensorRaw, %function
 814              	CapSense_1_WriteSensorRaw:
 815              	.LFB45:
 791:Generated_Source\PSoC4/CapSense_1.c **** 
 792:Generated_Source\PSoC4/CapSense_1.c **** 
 793:Generated_Source\PSoC4/CapSense_1.c **** /*******************************************************************************
 794:Generated_Source\PSoC4/CapSense_1.c **** * Function Name: CapSense_1_WriteSensorRaw
 795:Generated_Source\PSoC4/CapSense_1.c **** ********************************************************************************
 796:Generated_Source\PSoC4/CapSense_1.c **** *
 797:Generated_Source\PSoC4/CapSense_1.c **** * Summary:
 798:Generated_Source\PSoC4/CapSense_1.c **** *  This API writes the raw count value passed as an argument to the sensor Raw count array.
 799:Generated_Source\PSoC4/CapSense_1.c **** *
 800:Generated_Source\PSoC4/CapSense_1.c **** * Parameters:
 801:Generated_Source\PSoC4/CapSense_1.c **** *  sensor:  Sensor number.
 802:Generated_Source\PSoC4/CapSense_1.c **** *  value: Raw count value.
 803:Generated_Source\PSoC4/CapSense_1.c **** *
 804:Generated_Source\PSoC4/CapSense_1.c **** * Global Variables:
 805:Generated_Source\PSoC4/CapSense_1.c **** *  CapSense_1_sensorRaw[] - used to store sensors raw data.
 806:Generated_Source\PSoC4/CapSense_1.c **** *
 807:Generated_Source\PSoC4/CapSense_1.c **** * Return:
 808:Generated_Source\PSoC4/CapSense_1.c **** *  None
 809:Generated_Source\PSoC4/CapSense_1.c **** *
 810:Generated_Source\PSoC4/CapSense_1.c **** * Side Effects:
 811:Generated_Source\PSoC4/CapSense_1.c **** *  None
 812:Generated_Source\PSoC4/CapSense_1.c **** *
 813:Generated_Source\PSoC4/CapSense_1.c **** *******************************************************************************/
 814:Generated_Source\PSoC4/CapSense_1.c **** void CapSense_1_WriteSensorRaw(uint32 sensor, uint16 value)
 815:Generated_Source\PSoC4/CapSense_1.c **** {
 816              		.loc 1 815 0
 817              		.cfi_startproc
 818 0000 80B5     		push	{r7, lr}
 819              		.cfi_def_cfa_offset 8
 820              		.cfi_offset 7, -8
 821              		.cfi_offset 14, -4
 822 0002 82B0     		sub	sp, sp, #8
 823              		.cfi_def_cfa_offset 16
 824 0004 00AF     		add	r7, sp, #0
 825              		.cfi_def_cfa_register 7
 826 0006 7860     		str	r0, [r7, #4]
 827 0008 0A1C     		mov	r2, r1
 828 000a BB1C     		add	r3, r7, #2
 829 000c 1A80     		strh	r2, [r3]
 816:Generated_Source\PSoC4/CapSense_1.c ****     CapSense_1_sensorRaw[sensor] = value;
 830              		.loc 1 816 0
 831 000e 044B     		ldr	r3, .L40
 832 0010 7A68     		ldr	r2, [r7, #4]
ARM GAS  C:\Users\glenn\AppData\Local\Temp\cc8ystec.s 			page 30


 833 0012 5200     		lsl	r2, r2, #1
 834 0014 B91C     		add	r1, r7, #2
 835 0016 0988     		ldrh	r1, [r1]
 836 0018 D152     		strh	r1, [r2, r3]
 817:Generated_Source\PSoC4/CapSense_1.c **** }
 837              		.loc 1 817 0
 838 001a BD46     		mov	sp, r7
 839 001c 02B0     		add	sp, sp, #8
 840              		@ sp needed
 841 001e 80BD     		pop	{r7, pc}
 842              	.L41:
 843              		.align	2
 844              	.L40:
 845 0020 00000000 		.word	CapSense_1_sensorRaw
 846              		.cfi_endproc
 847              	.LFE45:
 848              		.size	CapSense_1_WriteSensorRaw, .-CapSense_1_WriteSensorRaw
 849              		.section	.text.CapSense_1_GetScanResolution,"ax",%progbits
 850              		.align	2
 851              		.global	CapSense_1_GetScanResolution
 852              		.code	16
 853              		.thumb_func
 854              		.type	CapSense_1_GetScanResolution, %function
 855              	CapSense_1_GetScanResolution:
 856              	.LFB46:
 818:Generated_Source\PSoC4/CapSense_1.c **** 
 819:Generated_Source\PSoC4/CapSense_1.c **** 
 820:Generated_Source\PSoC4/CapSense_1.c **** #if (CapSense_1_TUNING_METHOD != CapSense_1__TUNING_NONE)
 821:Generated_Source\PSoC4/CapSense_1.c ****     /*******************************************************************************
 822:Generated_Source\PSoC4/CapSense_1.c ****     * Function Name: CapSense_1_SetScanResolution
 823:Generated_Source\PSoC4/CapSense_1.c ****     ********************************************************************************
 824:Generated_Source\PSoC4/CapSense_1.c ****     *
 825:Generated_Source\PSoC4/CapSense_1.c ****     * Summary:
 826:Generated_Source\PSoC4/CapSense_1.c ****     *  Sets a value of the sensor scan resolution for a widget.
 827:Generated_Source\PSoC4/CapSense_1.c ****     *  The MIN resolution can be set 8-bit. The MAX Resolution can be set 16 bit.
 828:Generated_Source\PSoC4/CapSense_1.c ****     *  This function is not available for the tuning mode "None".
 829:Generated_Source\PSoC4/CapSense_1.c ****     *
 830:Generated_Source\PSoC4/CapSense_1.c ****     * Parameters:
 831:Generated_Source\PSoC4/CapSense_1.c ****     *  widget:     Widget index.
 832:Generated_Source\PSoC4/CapSense_1.c ****     *  resolution: Represents the resolution value. The following defines which are available in th
 833:Generated_Source\PSoC4/CapSense_1.c ****     *              CapSense_1.h file should be used:
 834:Generated_Source\PSoC4/CapSense_1.c ****     *              CapSense_1_RESOLUTION_6_BITS
 835:Generated_Source\PSoC4/CapSense_1.c ****     *              CapSense_1_RESOLUTION_7_BITS
 836:Generated_Source\PSoC4/CapSense_1.c ****     *              CapSense_1_RESOLUTION_8_BITS
 837:Generated_Source\PSoC4/CapSense_1.c ****     *              CapSense_1_RESOLUTION_9_BITS
 838:Generated_Source\PSoC4/CapSense_1.c ****     *              CapSense_1_RESOLUTION_10_BITS
 839:Generated_Source\PSoC4/CapSense_1.c ****     *              CapSense_1_RESOLUTION_11_BITS
 840:Generated_Source\PSoC4/CapSense_1.c ****     *              CapSense_1_RESOLUTION_12_BITS
 841:Generated_Source\PSoC4/CapSense_1.c ****     *              CapSense_1_RESOLUTION_13_BITS
 842:Generated_Source\PSoC4/CapSense_1.c ****     *              CapSense_1_RESOLUTION_14_BITS
 843:Generated_Source\PSoC4/CapSense_1.c ****     *              CapSense_1_RESOLUTION_15_BITS
 844:Generated_Source\PSoC4/CapSense_1.c ****     *              CapSense_1_RESOLUTION_16_BITS
 845:Generated_Source\PSoC4/CapSense_1.c ****     *
 846:Generated_Source\PSoC4/CapSense_1.c ****     * Return:
 847:Generated_Source\PSoC4/CapSense_1.c ****     *  None
 848:Generated_Source\PSoC4/CapSense_1.c ****     *
 849:Generated_Source\PSoC4/CapSense_1.c ****     * Global Variables:
ARM GAS  C:\Users\glenn\AppData\Local\Temp\cc8ystec.s 			page 31


 850:Generated_Source\PSoC4/CapSense_1.c ****     *  CapSense_1_widgetResolution[] - used to store scan resolution of each widget.
 851:Generated_Source\PSoC4/CapSense_1.c ****     *
 852:Generated_Source\PSoC4/CapSense_1.c ****     * Side Effects:
 853:Generated_Source\PSoC4/CapSense_1.c ****     *  None
 854:Generated_Source\PSoC4/CapSense_1.c ****     *
 855:Generated_Source\PSoC4/CapSense_1.c ****     *******************************************************************************/
 856:Generated_Source\PSoC4/CapSense_1.c ****     void CapSense_1_SetScanResolution(uint32 widget, uint32 resolution)
 857:Generated_Source\PSoC4/CapSense_1.c ****     {
 858:Generated_Source\PSoC4/CapSense_1.c ****         CapSense_1_widgetResolution[widget] = resolution;
 859:Generated_Source\PSoC4/CapSense_1.c ****     }
 860:Generated_Source\PSoC4/CapSense_1.c **** #endif /* (CapSense_1_TUNING_METHOD != CapSense_1__TUNING_NONE) */
 861:Generated_Source\PSoC4/CapSense_1.c **** 
 862:Generated_Source\PSoC4/CapSense_1.c **** 
 863:Generated_Source\PSoC4/CapSense_1.c **** /*******************************************************************************
 864:Generated_Source\PSoC4/CapSense_1.c **** * Function Name: CapSense_1_GetScanResolution
 865:Generated_Source\PSoC4/CapSense_1.c **** ********************************************************************************
 866:Generated_Source\PSoC4/CapSense_1.c **** *
 867:Generated_Source\PSoC4/CapSense_1.c **** * Summary:
 868:Generated_Source\PSoC4/CapSense_1.c **** *  Returns the resolution value for the appropriate sensor.
 869:Generated_Source\PSoC4/CapSense_1.c **** *  This function is not available for tuning mode "None".
 870:Generated_Source\PSoC4/CapSense_1.c **** *
 871:Generated_Source\PSoC4/CapSense_1.c **** * Parameters:
 872:Generated_Source\PSoC4/CapSense_1.c **** *  widget:     Widget index.
 873:Generated_Source\PSoC4/CapSense_1.c **** *
 874:Generated_Source\PSoC4/CapSense_1.c **** * Return:
 875:Generated_Source\PSoC4/CapSense_1.c **** *  resolution: Returns the resolution value for the appropriate sensor.
 876:Generated_Source\PSoC4/CapSense_1.c **** *              The resolution values are defined in the CapSense_1.h file
 877:Generated_Source\PSoC4/CapSense_1.c **** *              The defines are encountered below:
 878:Generated_Source\PSoC4/CapSense_1.c **** *              CapSense_1_RESOLUTION_6_BITS
 879:Generated_Source\PSoC4/CapSense_1.c **** *              CapSense_1_RESOLUTION_7_BITS
 880:Generated_Source\PSoC4/CapSense_1.c **** *              CapSense_1_RESOLUTION_8_BITS
 881:Generated_Source\PSoC4/CapSense_1.c **** *              CapSense_1_RESOLUTION_9_BITS
 882:Generated_Source\PSoC4/CapSense_1.c **** *              CapSense_1_RESOLUTION_10_BITS
 883:Generated_Source\PSoC4/CapSense_1.c **** *              CapSense_1_RESOLUTION_11_BITS
 884:Generated_Source\PSoC4/CapSense_1.c **** *              CapSense_1_RESOLUTION_12_BITS
 885:Generated_Source\PSoC4/CapSense_1.c **** *              CapSense_1_RESOLUTION_13_BITS
 886:Generated_Source\PSoC4/CapSense_1.c **** *              CapSense_1_RESOLUTION_14_BITS
 887:Generated_Source\PSoC4/CapSense_1.c **** *              CapSense_1_RESOLUTION_15_BITS
 888:Generated_Source\PSoC4/CapSense_1.c **** *              CapSense_1_RESOLUTION_16_BITS
 889:Generated_Source\PSoC4/CapSense_1.c **** *
 890:Generated_Source\PSoC4/CapSense_1.c **** * Global Variables:
 891:Generated_Source\PSoC4/CapSense_1.c **** *  CapSense_1_widgetResolution[] - used to store scan resolution of every widget.
 892:Generated_Source\PSoC4/CapSense_1.c **** *
 893:Generated_Source\PSoC4/CapSense_1.c **** * Side Effects:
 894:Generated_Source\PSoC4/CapSense_1.c **** *  None
 895:Generated_Source\PSoC4/CapSense_1.c **** *
 896:Generated_Source\PSoC4/CapSense_1.c **** *******************************************************************************/
 897:Generated_Source\PSoC4/CapSense_1.c **** uint32 CapSense_1_GetScanResolution(uint32 widget)
 898:Generated_Source\PSoC4/CapSense_1.c **** {
 857              		.loc 1 898 0
 858              		.cfi_startproc
 859 0000 80B5     		push	{r7, lr}
 860              		.cfi_def_cfa_offset 8
 861              		.cfi_offset 7, -8
 862              		.cfi_offset 14, -4
 863 0002 82B0     		sub	sp, sp, #8
 864              		.cfi_def_cfa_offset 16
ARM GAS  C:\Users\glenn\AppData\Local\Temp\cc8ystec.s 			page 32


 865 0004 00AF     		add	r7, sp, #0
 866              		.cfi_def_cfa_register 7
 867 0006 7860     		str	r0, [r7, #4]
 899:Generated_Source\PSoC4/CapSense_1.c ****     return(CapSense_1_widgetResolution[widget]);
 868              		.loc 1 899 0
 869 0008 034B     		ldr	r3, .L44
 870 000a 7A68     		ldr	r2, [r7, #4]
 871 000c 9200     		lsl	r2, r2, #2
 872 000e D358     		ldr	r3, [r2, r3]
 900:Generated_Source\PSoC4/CapSense_1.c **** }
 873              		.loc 1 900 0
 874 0010 181C     		mov	r0, r3
 875 0012 BD46     		mov	sp, r7
 876 0014 02B0     		add	sp, sp, #8
 877              		@ sp needed
 878 0016 80BD     		pop	{r7, pc}
 879              	.L45:
 880              		.align	2
 881              	.L44:
 882 0018 00000000 		.word	CapSense_1_widgetResolution
 883              		.cfi_endproc
 884              	.LFE46:
 885              		.size	CapSense_1_GetScanResolution, .-CapSense_1_GetScanResolution
 886              		.section	.text.CapSense_1_ClearSensors,"ax",%progbits
 887              		.align	2
 888              		.global	CapSense_1_ClearSensors
 889              		.code	16
 890              		.thumb_func
 891              		.type	CapSense_1_ClearSensors, %function
 892              	CapSense_1_ClearSensors:
 893              	.LFB47:
 901:Generated_Source\PSoC4/CapSense_1.c **** 
 902:Generated_Source\PSoC4/CapSense_1.c **** 
 903:Generated_Source\PSoC4/CapSense_1.c **** /*******************************************************************************
 904:Generated_Source\PSoC4/CapSense_1.c **** * Function Name: CapSense_1_ClearSensors
 905:Generated_Source\PSoC4/CapSense_1.c **** ********************************************************************************
 906:Generated_Source\PSoC4/CapSense_1.c **** *
 907:Generated_Source\PSoC4/CapSense_1.c **** * Summary:
 908:Generated_Source\PSoC4/CapSense_1.c **** *  Resets all the sensors to the non-sampling state by sequentially disconnecting
 909:Generated_Source\PSoC4/CapSense_1.c **** *  all the sensors from Analog MUX Bus and putting them to an inactive state.
 910:Generated_Source\PSoC4/CapSense_1.c **** *
 911:Generated_Source\PSoC4/CapSense_1.c **** * Parameters:
 912:Generated_Source\PSoC4/CapSense_1.c **** *  None
 913:Generated_Source\PSoC4/CapSense_1.c **** *
 914:Generated_Source\PSoC4/CapSense_1.c **** * Return:
 915:Generated_Source\PSoC4/CapSense_1.c **** *  None
 916:Generated_Source\PSoC4/CapSense_1.c **** *
 917:Generated_Source\PSoC4/CapSense_1.c **** * Global Variables:
 918:Generated_Source\PSoC4/CapSense_1.c **** *  None
 919:Generated_Source\PSoC4/CapSense_1.c **** *
 920:Generated_Source\PSoC4/CapSense_1.c **** * Side Effects:
 921:Generated_Source\PSoC4/CapSense_1.c **** *  None
 922:Generated_Source\PSoC4/CapSense_1.c **** *
 923:Generated_Source\PSoC4/CapSense_1.c **** *******************************************************************************/
 924:Generated_Source\PSoC4/CapSense_1.c **** void CapSense_1_ClearSensors(void)
 925:Generated_Source\PSoC4/CapSense_1.c **** {
 894              		.loc 1 925 0
ARM GAS  C:\Users\glenn\AppData\Local\Temp\cc8ystec.s 			page 33


 895              		.cfi_startproc
 896 0000 80B5     		push	{r7, lr}
 897              		.cfi_def_cfa_offset 8
 898              		.cfi_offset 7, -8
 899              		.cfi_offset 14, -4
 900 0002 82B0     		sub	sp, sp, #8
 901              		.cfi_def_cfa_offset 16
 902 0004 00AF     		add	r7, sp, #0
 903              		.cfi_def_cfa_register 7
 926:Generated_Source\PSoC4/CapSense_1.c ****     uint32 snsIndex;
 927:Generated_Source\PSoC4/CapSense_1.c **** 
 928:Generated_Source\PSoC4/CapSense_1.c ****     for (snsIndex = 0u; snsIndex < CapSense_1_TOTAL_SENSOR_COUNT; snsIndex++)
 904              		.loc 1 928 0
 905 0006 0023     		mov	r3, #0
 906 0008 7B60     		str	r3, [r7, #4]
 907 000a 06E0     		b	.L47
 908              	.L48:
 929:Generated_Source\PSoC4/CapSense_1.c ****     {
 930:Generated_Source\PSoC4/CapSense_1.c ****         CapSense_1_DisableScanSlot(snsIndex);
 909              		.loc 1 930 0 discriminator 3
 910 000c 7B68     		ldr	r3, [r7, #4]
 911 000e 181C     		mov	r0, r3
 912 0010 FFF7FEFF 		bl	CapSense_1_DisableSensor
 928:Generated_Source\PSoC4/CapSense_1.c ****     {
 913              		.loc 1 928 0 discriminator 3
 914 0014 7B68     		ldr	r3, [r7, #4]
 915 0016 0133     		add	r3, r3, #1
 916 0018 7B60     		str	r3, [r7, #4]
 917              	.L47:
 928:Generated_Source\PSoC4/CapSense_1.c ****     {
 918              		.loc 1 928 0 is_stmt 0 discriminator 1
 919 001a 7B68     		ldr	r3, [r7, #4]
 920 001c 072B     		cmp	r3, #7
 921 001e F5D9     		bls	.L48
 931:Generated_Source\PSoC4/CapSense_1.c ****     }
 932:Generated_Source\PSoC4/CapSense_1.c **** }
 922              		.loc 1 932 0 is_stmt 1
 923 0020 BD46     		mov	sp, r7
 924 0022 02B0     		add	sp, sp, #8
 925              		@ sp needed
 926 0024 80BD     		pop	{r7, pc}
 927              		.cfi_endproc
 928              	.LFE47:
 929              		.size	CapSense_1_ClearSensors, .-CapSense_1_ClearSensors
 930 0026 C046     		.section	.text.CapSense_1_EnableSensor,"ax",%progbits
 931              		.align	2
 932              		.global	CapSense_1_EnableSensor
 933              		.code	16
 934              		.thumb_func
 935              		.type	CapSense_1_EnableSensor, %function
 936              	CapSense_1_EnableSensor:
 937              	.LFB48:
 933:Generated_Source\PSoC4/CapSense_1.c **** 
 934:Generated_Source\PSoC4/CapSense_1.c **** 
 935:Generated_Source\PSoC4/CapSense_1.c **** #if (CapSense_1_IS_COMPLEX_SCANSLOTS)
 936:Generated_Source\PSoC4/CapSense_1.c ****     /*******************************************************************************
 937:Generated_Source\PSoC4/CapSense_1.c ****     * Function Name: CapSense_1_EnableScanSlot
ARM GAS  C:\Users\glenn\AppData\Local\Temp\cc8ystec.s 			page 34


 938:Generated_Source\PSoC4/CapSense_1.c ****     ********************************************************************************
 939:Generated_Source\PSoC4/CapSense_1.c ****     *
 940:Generated_Source\PSoC4/CapSense_1.c ****     * Summary:
 941:Generated_Source\PSoC4/CapSense_1.c ****     *  Configures the selected slot to measure during the next measurement
 942:Generated_Source\PSoC4/CapSense_1.c ****     *  cycle. The corresponding pin/pins are set to Analog High-Z mode and
 943:Generated_Source\PSoC4/CapSense_1.c ****     *  connected to the Analog Mux Bus. This also enables the comparator function.
 944:Generated_Source\PSoC4/CapSense_1.c ****     *
 945:Generated_Source\PSoC4/CapSense_1.c ****     * Parameters:
 946:Generated_Source\PSoC4/CapSense_1.c ****     *  slot:  Slot number.
 947:Generated_Source\PSoC4/CapSense_1.c ****     *
 948:Generated_Source\PSoC4/CapSense_1.c ****     * Return:
 949:Generated_Source\PSoC4/CapSense_1.c ****     *  None
 950:Generated_Source\PSoC4/CapSense_1.c ****     *
 951:Generated_Source\PSoC4/CapSense_1.c ****     * Global Constants:
 952:Generated_Source\PSoC4/CapSense_1.c ****     *  CapSense_1_portTable[]  - used to store the port number that pin
 953:Generated_Source\PSoC4/CapSense_1.c ****     *  belongs to for each sensor.
 954:Generated_Source\PSoC4/CapSense_1.c ****     *  CapSense_1_maskTable[]  - used to store the pin within the port for
 955:Generated_Source\PSoC4/CapSense_1.c ****     *  each sensor.
 956:Generated_Source\PSoC4/CapSense_1.c ****     *  CapSense_1_indexTable[] - used to store indexes of complex sensors.
 957:Generated_Source\PSoC4/CapSense_1.c ****     *  The offset and position in this array are stored in a port and mask table for
 958:Generated_Source\PSoC4/CapSense_1.c ****     *  complex sensors.
 959:Generated_Source\PSoC4/CapSense_1.c ****     *  Bit 7 (msb) is used to define the sensor type: single or complex.
 960:Generated_Source\PSoC4/CapSense_1.c ****     *
 961:Generated_Source\PSoC4/CapSense_1.c ****     * Side Effects:
 962:Generated_Source\PSoC4/CapSense_1.c ****     *  None
 963:Generated_Source\PSoC4/CapSense_1.c ****     *
 964:Generated_Source\PSoC4/CapSense_1.c ****     *******************************************************************************/
 965:Generated_Source\PSoC4/CapSense_1.c ****     void CapSense_1_EnableScanSlot(uint32 slot)
 966:Generated_Source\PSoC4/CapSense_1.c ****     {
 967:Generated_Source\PSoC4/CapSense_1.c ****         uint8 j;
 968:Generated_Source\PSoC4/CapSense_1.c ****         uint8 snsNumber;
 969:Generated_Source\PSoC4/CapSense_1.c ****         const uint8 *index;
 970:Generated_Source\PSoC4/CapSense_1.c ****         /* Read sensor type: single or complex */
 971:Generated_Source\PSoC4/CapSense_1.c ****         uint8 snsType = CapSense_1_portTable[slot];
 972:Generated_Source\PSoC4/CapSense_1.c **** 
 973:Generated_Source\PSoC4/CapSense_1.c ****         /* Check if sensor is complex */
 974:Generated_Source\PSoC4/CapSense_1.c ****         if ((snsType & CapSense_1_COMPLEX_SS_FLAG) == 0u)
 975:Generated_Source\PSoC4/CapSense_1.c ****         {
 976:Generated_Source\PSoC4/CapSense_1.c ****             /* Enable sensor (single) */
 977:Generated_Source\PSoC4/CapSense_1.c ****             CapSense_1_EnableSensor(slot);
 978:Generated_Source\PSoC4/CapSense_1.c ****         }
 979:Generated_Source\PSoC4/CapSense_1.c ****         else
 980:Generated_Source\PSoC4/CapSense_1.c ****         {
 981:Generated_Source\PSoC4/CapSense_1.c ****             /* Enable complex sensor */
 982:Generated_Source\PSoC4/CapSense_1.c ****             snsType &= ~CapSense_1_COMPLEX_SS_FLAG;
 983:Generated_Source\PSoC4/CapSense_1.c ****             index = &CapSense_1_indexTable[snsType];
 984:Generated_Source\PSoC4/CapSense_1.c ****             snsNumber = CapSense_1_maskTable[slot];
 985:Generated_Source\PSoC4/CapSense_1.c **** 
 986:Generated_Source\PSoC4/CapSense_1.c ****             for (j = 0u; j < snsNumber; j++)
 987:Generated_Source\PSoC4/CapSense_1.c ****             {
 988:Generated_Source\PSoC4/CapSense_1.c ****                 CapSense_1_EnableSensor(index[j]);
 989:Generated_Source\PSoC4/CapSense_1.c ****             }
 990:Generated_Source\PSoC4/CapSense_1.c ****         }
 991:Generated_Source\PSoC4/CapSense_1.c ****     }
 992:Generated_Source\PSoC4/CapSense_1.c **** 
 993:Generated_Source\PSoC4/CapSense_1.c **** 
 994:Generated_Source\PSoC4/CapSense_1.c ****     /*******************************************************************************
ARM GAS  C:\Users\glenn\AppData\Local\Temp\cc8ystec.s 			page 35


 995:Generated_Source\PSoC4/CapSense_1.c ****     * Function Name: CapSense_1_DisableScanSlot
 996:Generated_Source\PSoC4/CapSense_1.c ****     ********************************************************************************
 997:Generated_Source\PSoC4/CapSense_1.c ****     *
 998:Generated_Source\PSoC4/CapSense_1.c ****     * Summary:
 999:Generated_Source\PSoC4/CapSense_1.c ****     *  Disables the selected slot. The corresponding pin/pins is/are disconnected
1000:Generated_Source\PSoC4/CapSense_1.c ****     *  from the Analog Mux Bus and connected to GND, High_Z or Shield electrode.
1001:Generated_Source\PSoC4/CapSense_1.c ****     *
1002:Generated_Source\PSoC4/CapSense_1.c ****     * Parameters:
1003:Generated_Source\PSoC4/CapSense_1.c ****     *  slot:  Slot number.
1004:Generated_Source\PSoC4/CapSense_1.c ****     *
1005:Generated_Source\PSoC4/CapSense_1.c ****     * Return:
1006:Generated_Source\PSoC4/CapSense_1.c ****     *  None
1007:Generated_Source\PSoC4/CapSense_1.c ****     *
1008:Generated_Source\PSoC4/CapSense_1.c ****     * Global Variables:
1009:Generated_Source\PSoC4/CapSense_1.c ****     *  CapSense_1_portTable[]  - used to store the port number that pin
1010:Generated_Source\PSoC4/CapSense_1.c ****     *  belongs to for each sensor.
1011:Generated_Source\PSoC4/CapSense_1.c ****     *  CapSense_1_maskTable[]  - used to store the pin within the port for
1012:Generated_Source\PSoC4/CapSense_1.c ****     *  each sensor.
1013:Generated_Source\PSoC4/CapSense_1.c ****     *  CapSense_1_indexTable[] - used to store indexes of complex sensors.
1014:Generated_Source\PSoC4/CapSense_1.c ****     *  The offset and position in this array are stored in a port and mask table for
1015:Generated_Source\PSoC4/CapSense_1.c ****     *  complex sensors.
1016:Generated_Source\PSoC4/CapSense_1.c ****     *  7bit(msb) is used to define the sensor type: single or complex.
1017:Generated_Source\PSoC4/CapSense_1.c ****     *
1018:Generated_Source\PSoC4/CapSense_1.c ****     * Side Effects:
1019:Generated_Source\PSoC4/CapSense_1.c ****     *  None
1020:Generated_Source\PSoC4/CapSense_1.c ****     *
1021:Generated_Source\PSoC4/CapSense_1.c ****     *******************************************************************************/
1022:Generated_Source\PSoC4/CapSense_1.c ****     void CapSense_1_DisableScanSlot(uint32 slot)
1023:Generated_Source\PSoC4/CapSense_1.c ****     {
1024:Generated_Source\PSoC4/CapSense_1.c ****         uint8 j;
1025:Generated_Source\PSoC4/CapSense_1.c ****         uint8 snsNumber;
1026:Generated_Source\PSoC4/CapSense_1.c ****         const uint8 *index;
1027:Generated_Source\PSoC4/CapSense_1.c **** 
1028:Generated_Source\PSoC4/CapSense_1.c ****         /* Read sensor type: single or complex */
1029:Generated_Source\PSoC4/CapSense_1.c ****         uint8 snsType = CapSense_1_portTable[slot];
1030:Generated_Source\PSoC4/CapSense_1.c **** 
1031:Generated_Source\PSoC4/CapSense_1.c ****         /* Check if sensor is complex */
1032:Generated_Source\PSoC4/CapSense_1.c ****         if ((snsType & CapSense_1_COMPLEX_SS_FLAG) == 0u)
1033:Generated_Source\PSoC4/CapSense_1.c ****         {
1034:Generated_Source\PSoC4/CapSense_1.c ****             /* Disable sensor (single) */
1035:Generated_Source\PSoC4/CapSense_1.c ****             CapSense_1_DisableSensor(slot);
1036:Generated_Source\PSoC4/CapSense_1.c ****         }
1037:Generated_Source\PSoC4/CapSense_1.c ****         else
1038:Generated_Source\PSoC4/CapSense_1.c ****         {
1039:Generated_Source\PSoC4/CapSense_1.c ****             /* Disable complex sensor */
1040:Generated_Source\PSoC4/CapSense_1.c ****             snsType &= ~CapSense_1_COMPLEX_SS_FLAG;
1041:Generated_Source\PSoC4/CapSense_1.c ****             index = &CapSense_1_indexTable[snsType];
1042:Generated_Source\PSoC4/CapSense_1.c ****             snsNumber = CapSense_1_maskTable[slot];
1043:Generated_Source\PSoC4/CapSense_1.c **** 
1044:Generated_Source\PSoC4/CapSense_1.c ****             for (j=0; j < snsNumber; j++)
1045:Generated_Source\PSoC4/CapSense_1.c ****             {
1046:Generated_Source\PSoC4/CapSense_1.c ****                 CapSense_1_DisableSensor(index[j]);
1047:Generated_Source\PSoC4/CapSense_1.c ****             }
1048:Generated_Source\PSoC4/CapSense_1.c ****         }
1049:Generated_Source\PSoC4/CapSense_1.c ****     }
1050:Generated_Source\PSoC4/CapSense_1.c **** #endif  /* CapSense_1_IS_COMPLEX_SCANSLOTS */
1051:Generated_Source\PSoC4/CapSense_1.c **** 
ARM GAS  C:\Users\glenn\AppData\Local\Temp\cc8ystec.s 			page 36


1052:Generated_Source\PSoC4/CapSense_1.c **** 
1053:Generated_Source\PSoC4/CapSense_1.c **** /*******************************************************************************
1054:Generated_Source\PSoC4/CapSense_1.c **** * Function Name: CapSense_1_EnableSensor
1055:Generated_Source\PSoC4/CapSense_1.c **** ********************************************************************************
1056:Generated_Source\PSoC4/CapSense_1.c **** *
1057:Generated_Source\PSoC4/CapSense_1.c **** * Summary:
1058:Generated_Source\PSoC4/CapSense_1.c **** *  Configures the selected sensor to measure during the next measurement cycle.
1059:Generated_Source\PSoC4/CapSense_1.c **** *  The corresponding pins are set to Analog High-Z mode and connected to the
1060:Generated_Source\PSoC4/CapSense_1.c **** *  Analog Mux Bus. This also enables the comparator function.
1061:Generated_Source\PSoC4/CapSense_1.c **** *
1062:Generated_Source\PSoC4/CapSense_1.c **** * Parameters:
1063:Generated_Source\PSoC4/CapSense_1.c **** *  sensor:  Sensor number.
1064:Generated_Source\PSoC4/CapSense_1.c **** *
1065:Generated_Source\PSoC4/CapSense_1.c **** * Return:
1066:Generated_Source\PSoC4/CapSense_1.c **** *  None
1067:Generated_Source\PSoC4/CapSense_1.c **** *
1068:Generated_Source\PSoC4/CapSense_1.c **** * Global Variables:
1069:Generated_Source\PSoC4/CapSense_1.c **** *  CapSense_1_portTable[] - used to store the port number that pin
1070:Generated_Source\PSoC4/CapSense_1.c **** *  belongs to for each sensor.
1071:Generated_Source\PSoC4/CapSense_1.c **** *  CapSense_1_pinShiftTbl[] - used to store position of pin that
1072:Generated_Source\PSoC4/CapSense_1.c **** *  configured as sensor in port.
1073:Generated_Source\PSoC4/CapSense_1.c **** *  CapSense_1_prtSelTbl[] - Contains pointers to the HSIOM
1074:Generated_Source\PSoC4/CapSense_1.c **** *  registers for each port.
1075:Generated_Source\PSoC4/CapSense_1.c **** *  CapSense_1_PrtCfgTb[] - Contains pointers to the port config
1076:Generated_Source\PSoC4/CapSense_1.c **** *  registers for each port.
1077:Generated_Source\PSoC4/CapSense_1.c **** *
1078:Generated_Source\PSoC4/CapSense_1.c **** * Side Effects:
1079:Generated_Source\PSoC4/CapSense_1.c **** *  None
1080:Generated_Source\PSoC4/CapSense_1.c **** *
1081:Generated_Source\PSoC4/CapSense_1.c **** *******************************************************************************/
1082:Generated_Source\PSoC4/CapSense_1.c **** void CapSense_1_EnableSensor(uint32 sensor)
1083:Generated_Source\PSoC4/CapSense_1.c **** {
 938              		.loc 1 1083 0
 939              		.cfi_startproc
 940 0000 90B5     		push	{r4, r7, lr}
 941              		.cfi_def_cfa_offset 12
 942              		.cfi_offset 4, -12
 943              		.cfi_offset 7, -8
 944              		.cfi_offset 14, -4
 945 0002 87B0     		sub	sp, sp, #28
 946              		.cfi_def_cfa_offset 40
 947 0004 00AF     		add	r7, sp, #0
 948              		.cfi_def_cfa_register 7
 949 0006 7860     		str	r0, [r7, #4]
1084:Generated_Source\PSoC4/CapSense_1.c ****     uint8  pinModeShift;
1085:Generated_Source\PSoC4/CapSense_1.c ****     uint8  pinHSIOMShift;
1086:Generated_Source\PSoC4/CapSense_1.c ****     uint8 interruptState;
1087:Generated_Source\PSoC4/CapSense_1.c ****     uint32 newRegisterValue;
1088:Generated_Source\PSoC4/CapSense_1.c ****     uint32 port;
1089:Generated_Source\PSoC4/CapSense_1.c **** 
1090:Generated_Source\PSoC4/CapSense_1.c ****     port = (uint32) CapSense_1_portTable[sensor];
 950              		.loc 1 1090 0
 951 0008 2B4A     		ldr	r2, .L50
 952 000a 7B68     		ldr	r3, [r7, #4]
 953 000c D318     		add	r3, r2, r3
 954 000e 1B78     		ldrb	r3, [r3]
 955 0010 7B61     		str	r3, [r7, #20]
ARM GAS  C:\Users\glenn\AppData\Local\Temp\cc8ystec.s 			page 37


1091:Generated_Source\PSoC4/CapSense_1.c ****     pinModeShift = CapSense_1_pinShiftTbl[sensor]  * CapSense_1_PC_PIN_CFG_SIZE;
 956              		.loc 1 1091 0
 957 0012 2A4A     		ldr	r2, .L50+4
 958 0014 7B68     		ldr	r3, [r7, #4]
 959 0016 D318     		add	r3, r2, r3
 960 0018 1B78     		ldrb	r3, [r3]
 961 001a 1322     		mov	r2, #19
 962 001c BA18     		add	r2, r7, r2
 963 001e 191C     		add	r1, r3, #0
 964 0020 0B1C     		add	r3, r1, #0
 965 0022 DB18     		add	r3, r3, r3
 966 0024 5B18     		add	r3, r3, r1
 967 0026 1370     		strb	r3, [r2]
1092:Generated_Source\PSoC4/CapSense_1.c ****     pinHSIOMShift = CapSense_1_pinShiftTbl[sensor] * CapSense_1_HSIOM_PIN_CFG_SIZE;
 968              		.loc 1 1092 0
 969 0028 244A     		ldr	r2, .L50+4
 970 002a 7B68     		ldr	r3, [r7, #4]
 971 002c D318     		add	r3, r2, r3
 972 002e 1A78     		ldrb	r2, [r3]
 973 0030 1223     		mov	r3, #18
 974 0032 FB18     		add	r3, r7, r3
 975 0034 9200     		lsl	r2, r2, #2
 976 0036 1A70     		strb	r2, [r3]
1093:Generated_Source\PSoC4/CapSense_1.c **** 
1094:Generated_Source\PSoC4/CapSense_1.c ****     interruptState = CyEnterCriticalSection();
 977              		.loc 1 1094 0
 978 0038 1123     		mov	r3, #17
 979 003a FC18     		add	r4, r7, r3
 980 003c FFF7FEFF 		bl	CyEnterCriticalSection
 981 0040 031C     		mov	r3, r0
 982 0042 2370     		strb	r3, [r4]
1095:Generated_Source\PSoC4/CapSense_1.c **** 
1096:Generated_Source\PSoC4/CapSense_1.c ****     newRegisterValue = *CapSense_1_prtSelTbl[port];
 983              		.loc 1 1096 0
 984 0044 1E4B     		ldr	r3, .L50+8
 985 0046 7A69     		ldr	r2, [r7, #20]
 986 0048 9200     		lsl	r2, r2, #2
 987 004a D358     		ldr	r3, [r2, r3]
 988 004c 1B68     		ldr	r3, [r3]
 989 004e FB60     		str	r3, [r7, #12]
1097:Generated_Source\PSoC4/CapSense_1.c ****     newRegisterValue &= ~(CapSense_1_CSD_HSIOM_MASK << pinHSIOMShift);
 990              		.loc 1 1097 0
 991 0050 1223     		mov	r3, #18
 992 0052 FB18     		add	r3, r7, r3
 993 0054 1B78     		ldrb	r3, [r3]
 994 0056 0F22     		mov	r2, #15
 995 0058 9A40     		lsl	r2, r2, r3
 996 005a 131C     		mov	r3, r2
 997 005c DA43     		mvn	r2, r3
 998 005e FB68     		ldr	r3, [r7, #12]
 999 0060 1340     		and	r3, r2
 1000 0062 FB60     		str	r3, [r7, #12]
1098:Generated_Source\PSoC4/CapSense_1.c ****     newRegisterValue |= (uint32)((uint32)CapSense_1_CSD_SENSE_PORT_MODE << pinHSIOMShift);
 1001              		.loc 1 1098 0
 1002 0064 1223     		mov	r3, #18
 1003 0066 FB18     		add	r3, r7, r3
 1004 0068 1B78     		ldrb	r3, [r3]
ARM GAS  C:\Users\glenn\AppData\Local\Temp\cc8ystec.s 			page 38


 1005 006a 0422     		mov	r2, #4
 1006 006c 9A40     		lsl	r2, r2, r3
 1007 006e 131C     		mov	r3, r2
 1008 0070 FA68     		ldr	r2, [r7, #12]
 1009 0072 1343     		orr	r3, r2
 1010 0074 FB60     		str	r3, [r7, #12]
1099:Generated_Source\PSoC4/CapSense_1.c **** 
1100:Generated_Source\PSoC4/CapSense_1.c ****     *CapSense_1_prtCfgTbl[port] &= (uint32)~((uint32)CapSense_1_CSD_PIN_MODE_MASK << pinModeShift);
 1011              		.loc 1 1100 0
 1012 0076 134B     		ldr	r3, .L50+12
 1013 0078 7A69     		ldr	r2, [r7, #20]
 1014 007a 9200     		lsl	r2, r2, #2
 1015 007c D358     		ldr	r3, [r2, r3]
 1016 007e 114A     		ldr	r2, .L50+12
 1017 0080 7969     		ldr	r1, [r7, #20]
 1018 0082 8900     		lsl	r1, r1, #2
 1019 0084 8A58     		ldr	r2, [r1, r2]
 1020 0086 1268     		ldr	r2, [r2]
 1021 0088 1321     		mov	r1, #19
 1022 008a 7918     		add	r1, r7, r1
 1023 008c 0978     		ldrb	r1, [r1]
 1024 008e 0720     		mov	r0, #7
 1025 0090 8840     		lsl	r0, r0, r1
 1026 0092 011C     		mov	r1, r0
 1027 0094 C943     		mvn	r1, r1
 1028 0096 0A40     		and	r2, r1
 1029 0098 1A60     		str	r2, [r3]
1101:Generated_Source\PSoC4/CapSense_1.c ****     *CapSense_1_prtSelTbl[port] = newRegisterValue;
 1030              		.loc 1 1101 0
 1031 009a 094B     		ldr	r3, .L50+8
 1032 009c 7A69     		ldr	r2, [r7, #20]
 1033 009e 9200     		lsl	r2, r2, #2
 1034 00a0 D358     		ldr	r3, [r2, r3]
 1035 00a2 FA68     		ldr	r2, [r7, #12]
 1036 00a4 1A60     		str	r2, [r3]
1102:Generated_Source\PSoC4/CapSense_1.c **** 
1103:Generated_Source\PSoC4/CapSense_1.c ****     CyExitCriticalSection(interruptState);
 1037              		.loc 1 1103 0
 1038 00a6 1123     		mov	r3, #17
 1039 00a8 FB18     		add	r3, r7, r3
 1040 00aa 1B78     		ldrb	r3, [r3]
 1041 00ac 181C     		mov	r0, r3
 1042 00ae FFF7FEFF 		bl	CyExitCriticalSection
1104:Generated_Source\PSoC4/CapSense_1.c **** }
 1043              		.loc 1 1104 0
 1044 00b2 BD46     		mov	sp, r7
 1045 00b4 07B0     		add	sp, sp, #28
 1046              		@ sp needed
 1047 00b6 90BD     		pop	{r4, r7, pc}
 1048              	.L51:
 1049              		.align	2
 1050              	.L50:
 1051 00b8 00000000 		.word	CapSense_1_portTable
 1052 00bc 00000000 		.word	CapSense_1_pinShiftTbl
 1053 00c0 00000000 		.word	CapSense_1_prtSelTbl
 1054 00c4 00000000 		.word	CapSense_1_prtCfgTbl
 1055              		.cfi_endproc
ARM GAS  C:\Users\glenn\AppData\Local\Temp\cc8ystec.s 			page 39


 1056              	.LFE48:
 1057              		.size	CapSense_1_EnableSensor, .-CapSense_1_EnableSensor
 1058              		.section	.text.CapSense_1_DisableSensor,"ax",%progbits
 1059              		.align	2
 1060              		.global	CapSense_1_DisableSensor
 1061              		.code	16
 1062              		.thumb_func
 1063              		.type	CapSense_1_DisableSensor, %function
 1064              	CapSense_1_DisableSensor:
 1065              	.LFB49:
1105:Generated_Source\PSoC4/CapSense_1.c **** 
1106:Generated_Source\PSoC4/CapSense_1.c **** 
1107:Generated_Source\PSoC4/CapSense_1.c **** /*******************************************************************************
1108:Generated_Source\PSoC4/CapSense_1.c **** * Function Name: CapSense_1_DisableSensor
1109:Generated_Source\PSoC4/CapSense_1.c **** ********************************************************************************
1110:Generated_Source\PSoC4/CapSense_1.c **** *
1111:Generated_Source\PSoC4/CapSense_1.c **** * Summary:
1112:Generated_Source\PSoC4/CapSense_1.c **** *  Disables the selected sensor. The corresponding pin is disconnected from the
1113:Generated_Source\PSoC4/CapSense_1.c **** *  Analog Mux Bus and connected to GND, High_Z or Shield electrode.
1114:Generated_Source\PSoC4/CapSense_1.c **** *
1115:Generated_Source\PSoC4/CapSense_1.c **** * Parameters:
1116:Generated_Source\PSoC4/CapSense_1.c **** *  sensor:  Sensor number
1117:Generated_Source\PSoC4/CapSense_1.c **** *
1118:Generated_Source\PSoC4/CapSense_1.c **** * Return:
1119:Generated_Source\PSoC4/CapSense_1.c **** *  None
1120:Generated_Source\PSoC4/CapSense_1.c **** *
1121:Generated_Source\PSoC4/CapSense_1.c **** * Global Variables:
1122:Generated_Source\PSoC4/CapSense_1.c **** *  CapSense_1_portTable[] - used to store the port number that pin
1123:Generated_Source\PSoC4/CapSense_1.c **** *  belongs to for each sensor.
1124:Generated_Source\PSoC4/CapSense_1.c **** *  CapSense_1_pinShiftTbl[] - used to store position of pin that
1125:Generated_Source\PSoC4/CapSense_1.c **** *  configured as a sensor in the port.
1126:Generated_Source\PSoC4/CapSense_1.c **** *  CapSense_1_prtSelTbl[] - Contains pointers to the HSIOM
1127:Generated_Source\PSoC4/CapSense_1.c **** *  registers for each port.
1128:Generated_Source\PSoC4/CapSense_1.c **** *  CapSense_1_PrtCfgTb[] - Contains pointers to the port config
1129:Generated_Source\PSoC4/CapSense_1.c **** *  registers for each port.
1130:Generated_Source\PSoC4/CapSense_1.c **** *
1131:Generated_Source\PSoC4/CapSense_1.c **** * Side Effects:
1132:Generated_Source\PSoC4/CapSense_1.c **** *  None
1133:Generated_Source\PSoC4/CapSense_1.c **** *
1134:Generated_Source\PSoC4/CapSense_1.c **** *******************************************************************************/
1135:Generated_Source\PSoC4/CapSense_1.c **** void CapSense_1_DisableSensor(uint32 sensor)
1136:Generated_Source\PSoC4/CapSense_1.c **** {
 1066              		.loc 1 1136 0
 1067              		.cfi_startproc
 1068 0000 90B5     		push	{r4, r7, lr}
 1069              		.cfi_def_cfa_offset 12
 1070              		.cfi_offset 4, -12
 1071              		.cfi_offset 7, -8
 1072              		.cfi_offset 14, -4
 1073 0002 89B0     		sub	sp, sp, #36
 1074              		.cfi_def_cfa_offset 48
 1075 0004 00AF     		add	r7, sp, #0
 1076              		.cfi_def_cfa_register 7
 1077 0006 7860     		str	r0, [r7, #4]
1137:Generated_Source\PSoC4/CapSense_1.c ****     uint8 interruptState;
1138:Generated_Source\PSoC4/CapSense_1.c ****     uint32 newRegisterValue;
1139:Generated_Source\PSoC4/CapSense_1.c **** 
ARM GAS  C:\Users\glenn\AppData\Local\Temp\cc8ystec.s 			page 40


1140:Generated_Source\PSoC4/CapSense_1.c ****     uint32 port = (uint32) CapSense_1_portTable[sensor];
 1078              		.loc 1 1140 0
 1079 0008 3D4A     		ldr	r2, .L55
 1080 000a 7B68     		ldr	r3, [r7, #4]
 1081 000c D318     		add	r3, r2, r3
 1082 000e 1B78     		ldrb	r3, [r3]
 1083 0010 7B61     		str	r3, [r7, #20]
1141:Generated_Source\PSoC4/CapSense_1.c ****     uint8  pinHSIOMShift = CapSense_1_pinShiftTbl[sensor] * CapSense_1_HSIOM_PIN_CFG_SIZE;
 1084              		.loc 1 1141 0
 1085 0012 3C4A     		ldr	r2, .L55+4
 1086 0014 7B68     		ldr	r3, [r7, #4]
 1087 0016 D318     		add	r3, r2, r3
 1088 0018 1A78     		ldrb	r2, [r3]
 1089 001a 1323     		mov	r3, #19
 1090 001c FB18     		add	r3, r7, r3
 1091 001e 9200     		lsl	r2, r2, #2
 1092 0020 1A70     		strb	r2, [r3]
1142:Generated_Source\PSoC4/CapSense_1.c ****     uint8  pinModeShift = CapSense_1_pinShiftTbl[sensor]  * CapSense_1_PC_PIN_CFG_SIZE;
 1093              		.loc 1 1142 0
 1094 0022 384A     		ldr	r2, .L55+4
 1095 0024 7B68     		ldr	r3, [r7, #4]
 1096 0026 D318     		add	r3, r2, r3
 1097 0028 1B78     		ldrb	r3, [r3]
 1098 002a 1222     		mov	r2, #18
 1099 002c BA18     		add	r2, r7, r2
 1100 002e 191C     		add	r1, r3, #0
 1101 0030 0B1C     		add	r3, r1, #0
 1102 0032 DB18     		add	r3, r3, r3
 1103 0034 5B18     		add	r3, r3, r1
 1104 0036 1370     		strb	r3, [r2]
1143:Generated_Source\PSoC4/CapSense_1.c **** 
1144:Generated_Source\PSoC4/CapSense_1.c ****     uint32 inactiveConnect = CapSense_1_SNS_HIZANALOG_CONNECT;
 1105              		.loc 1 1144 0
 1106 0038 0023     		mov	r3, #0
 1107 003a FB61     		str	r3, [r7, #28]
1145:Generated_Source\PSoC4/CapSense_1.c ****     uint32 sensorState = CapSense_1_unscannedSnsDriveMode[sensor];
 1108              		.loc 1 1145 0
 1109 003c 324A     		ldr	r2, .L55+8
 1110 003e 7B68     		ldr	r3, [r7, #4]
 1111 0040 D318     		add	r3, r2, r3
 1112 0042 1B78     		ldrb	r3, [r3]
 1113 0044 BB61     		str	r3, [r7, #24]
1146:Generated_Source\PSoC4/CapSense_1.c **** 
1147:Generated_Source\PSoC4/CapSense_1.c ****     *CapSense_1_prtSelTbl[port] &= ~(CapSense_1_CSD_HSIOM_MASK << pinHSIOMShift);
 1114              		.loc 1 1147 0
 1115 0046 314B     		ldr	r3, .L55+12
 1116 0048 7A69     		ldr	r2, [r7, #20]
 1117 004a 9200     		lsl	r2, r2, #2
 1118 004c D358     		ldr	r3, [r2, r3]
 1119 004e 2F4A     		ldr	r2, .L55+12
 1120 0050 7969     		ldr	r1, [r7, #20]
 1121 0052 8900     		lsl	r1, r1, #2
 1122 0054 8A58     		ldr	r2, [r1, r2]
 1123 0056 1268     		ldr	r2, [r2]
 1124 0058 1321     		mov	r1, #19
 1125 005a 7918     		add	r1, r7, r1
 1126 005c 0978     		ldrb	r1, [r1]
ARM GAS  C:\Users\glenn\AppData\Local\Temp\cc8ystec.s 			page 41


 1127 005e 0F20     		mov	r0, #15
 1128 0060 8840     		lsl	r0, r0, r1
 1129 0062 011C     		mov	r1, r0
 1130 0064 C943     		mvn	r1, r1
 1131 0066 0A40     		and	r2, r1
 1132 0068 1A60     		str	r2, [r3]
1148:Generated_Source\PSoC4/CapSense_1.c **** 
1149:Generated_Source\PSoC4/CapSense_1.c ****     #if(CapSense_1_IS_SHIELD_ENABLE != 0)
1150:Generated_Source\PSoC4/CapSense_1.c ****     if(sensorState != (uint32)CapSense_1__SHIELD)
1151:Generated_Source\PSoC4/CapSense_1.c ****     {
1152:Generated_Source\PSoC4/CapSense_1.c ****     #else
1153:Generated_Source\PSoC4/CapSense_1.c ****         /* Connected to Ground if shield is disabled */
1154:Generated_Source\PSoC4/CapSense_1.c ****         if(sensorState == (uint32)CapSense_1__SHIELD)
 1133              		.loc 1 1154 0
 1134 006a BB69     		ldr	r3, [r7, #24]
 1135 006c 022B     		cmp	r3, #2
 1136 006e 01D1     		bne	.L53
1155:Generated_Source\PSoC4/CapSense_1.c ****         {
1156:Generated_Source\PSoC4/CapSense_1.c ****             sensorState = (uint32)CapSense_1__GROUND;
 1137              		.loc 1 1156 0
 1138 0070 0023     		mov	r3, #0
 1139 0072 BB61     		str	r3, [r7, #24]
 1140              	.L53:
1157:Generated_Source\PSoC4/CapSense_1.c ****         }
1158:Generated_Source\PSoC4/CapSense_1.c ****     #endif /* (CapSense_1_IS_SHIELD_ENABLE) */
1159:Generated_Source\PSoC4/CapSense_1.c ****         if(sensorState != (uint32)CapSense_1__HIZ_ANALOG)
 1141              		.loc 1 1159 0
 1142 0074 BB69     		ldr	r3, [r7, #24]
 1143 0076 012B     		cmp	r3, #1
 1144 0078 01D0     		beq	.L54
1160:Generated_Source\PSoC4/CapSense_1.c ****         {
1161:Generated_Source\PSoC4/CapSense_1.c ****             /* Connected to Ground */
1162:Generated_Source\PSoC4/CapSense_1.c ****             inactiveConnect = (uint32)CapSense_1_SNS_GROUND_CONNECT;
 1145              		.loc 1 1162 0
 1146 007a 0623     		mov	r3, #6
 1147 007c FB61     		str	r3, [r7, #28]
 1148              	.L54:
1163:Generated_Source\PSoC4/CapSense_1.c ****         }
1164:Generated_Source\PSoC4/CapSense_1.c **** 
1165:Generated_Source\PSoC4/CapSense_1.c ****         interruptState = CyEnterCriticalSection();
 1149              		.loc 1 1165 0
 1150 007e 1123     		mov	r3, #17
 1151 0080 FC18     		add	r4, r7, r3
 1152 0082 FFF7FEFF 		bl	CyEnterCriticalSection
 1153 0086 031C     		mov	r3, r0
 1154 0088 2370     		strb	r3, [r4]
1166:Generated_Source\PSoC4/CapSense_1.c **** 
1167:Generated_Source\PSoC4/CapSense_1.c ****         /* Set drive mode */
1168:Generated_Source\PSoC4/CapSense_1.c ****         newRegisterValue = *CapSense_1_prtCfgTbl[port];
 1155              		.loc 1 1168 0
 1156 008a 214B     		ldr	r3, .L55+16
 1157 008c 7A69     		ldr	r2, [r7, #20]
 1158 008e 9200     		lsl	r2, r2, #2
 1159 0090 D358     		ldr	r3, [r2, r3]
 1160 0092 1B68     		ldr	r3, [r3]
 1161 0094 FB60     		str	r3, [r7, #12]
1169:Generated_Source\PSoC4/CapSense_1.c ****         newRegisterValue &= ~(CapSense_1_CSD_PIN_MODE_MASK << pinModeShift);
ARM GAS  C:\Users\glenn\AppData\Local\Temp\cc8ystec.s 			page 42


 1162              		.loc 1 1169 0
 1163 0096 1223     		mov	r3, #18
 1164 0098 FB18     		add	r3, r7, r3
 1165 009a 1B78     		ldrb	r3, [r3]
 1166 009c 0722     		mov	r2, #7
 1167 009e 9A40     		lsl	r2, r2, r3
 1168 00a0 131C     		mov	r3, r2
 1169 00a2 DA43     		mvn	r2, r3
 1170 00a4 FB68     		ldr	r3, [r7, #12]
 1171 00a6 1340     		and	r3, r2
 1172 00a8 FB60     		str	r3, [r7, #12]
1170:Generated_Source\PSoC4/CapSense_1.c ****         newRegisterValue |=  (uint32)(inactiveConnect << pinModeShift);
 1173              		.loc 1 1170 0
 1174 00aa 1223     		mov	r3, #18
 1175 00ac FB18     		add	r3, r7, r3
 1176 00ae 1B78     		ldrb	r3, [r3]
 1177 00b0 FA69     		ldr	r2, [r7, #28]
 1178 00b2 9A40     		lsl	r2, r2, r3
 1179 00b4 131C     		mov	r3, r2
 1180 00b6 FA68     		ldr	r2, [r7, #12]
 1181 00b8 1343     		orr	r3, r2
 1182 00ba FB60     		str	r3, [r7, #12]
1171:Generated_Source\PSoC4/CapSense_1.c ****         *CapSense_1_prtCfgTbl[port] =  newRegisterValue;
 1183              		.loc 1 1171 0
 1184 00bc 144B     		ldr	r3, .L55+16
 1185 00be 7A69     		ldr	r2, [r7, #20]
 1186 00c0 9200     		lsl	r2, r2, #2
 1187 00c2 D358     		ldr	r3, [r2, r3]
 1188 00c4 FA68     		ldr	r2, [r7, #12]
 1189 00c6 1A60     		str	r2, [r3]
1172:Generated_Source\PSoC4/CapSense_1.c **** 
1173:Generated_Source\PSoC4/CapSense_1.c ****         CyExitCriticalSection(interruptState);
 1190              		.loc 1 1173 0
 1191 00c8 1123     		mov	r3, #17
 1192 00ca FB18     		add	r3, r7, r3
 1193 00cc 1B78     		ldrb	r3, [r3]
 1194 00ce 181C     		mov	r0, r3
 1195 00d0 FFF7FEFF 		bl	CyExitCriticalSection
1174:Generated_Source\PSoC4/CapSense_1.c **** 
1175:Generated_Source\PSoC4/CapSense_1.c ****         *CapSense_1_prtDRTbl[port]  &=  (uint32)~(uint32)((uint32)1u << CapSense_1_pinShiftTbl[sens
 1196              		.loc 1 1175 0
 1197 00d4 0F4B     		ldr	r3, .L55+20
 1198 00d6 7A69     		ldr	r2, [r7, #20]
 1199 00d8 9200     		lsl	r2, r2, #2
 1200 00da D358     		ldr	r3, [r2, r3]
 1201 00dc 0D4A     		ldr	r2, .L55+20
 1202 00de 7969     		ldr	r1, [r7, #20]
 1203 00e0 8900     		lsl	r1, r1, #2
 1204 00e2 8A58     		ldr	r2, [r1, r2]
 1205 00e4 1268     		ldr	r2, [r2]
 1206 00e6 0748     		ldr	r0, .L55+4
 1207 00e8 7968     		ldr	r1, [r7, #4]
 1208 00ea 4118     		add	r1, r0, r1
 1209 00ec 0978     		ldrb	r1, [r1]
 1210 00ee 081C     		mov	r0, r1
 1211 00f0 0121     		mov	r1, #1
 1212 00f2 8140     		lsl	r1, r1, r0
ARM GAS  C:\Users\glenn\AppData\Local\Temp\cc8ystec.s 			page 43


 1213 00f4 C943     		mvn	r1, r1
 1214 00f6 0A40     		and	r2, r1
 1215 00f8 1A60     		str	r2, [r3]
1176:Generated_Source\PSoC4/CapSense_1.c ****     #if(CapSense_1_IS_SHIELD_ENABLE != 0)
1177:Generated_Source\PSoC4/CapSense_1.c ****     }
1178:Generated_Source\PSoC4/CapSense_1.c ****     else
1179:Generated_Source\PSoC4/CapSense_1.c ****     {
1180:Generated_Source\PSoC4/CapSense_1.c ****         /* Connect to Shield */
1181:Generated_Source\PSoC4/CapSense_1.c ****         *CapSense_1_prtSelTbl[port] |= (CapSense_1_CSD_SHIELD_PORT_MODE << pinHSIOMShift);
1182:Generated_Source\PSoC4/CapSense_1.c ****     }
1183:Generated_Source\PSoC4/CapSense_1.c ****     #endif /* (CapSense_1_IS_SHIELD_ENABLE) */
1184:Generated_Source\PSoC4/CapSense_1.c **** }
 1216              		.loc 1 1184 0
 1217 00fa BD46     		mov	sp, r7
 1218 00fc 09B0     		add	sp, sp, #36
 1219              		@ sp needed
 1220 00fe 90BD     		pop	{r4, r7, pc}
 1221              	.L56:
 1222              		.align	2
 1223              	.L55:
 1224 0100 00000000 		.word	CapSense_1_portTable
 1225 0104 00000000 		.word	CapSense_1_pinShiftTbl
 1226 0108 00000000 		.word	CapSense_1_unscannedSnsDriveMode
 1227 010c 00000000 		.word	CapSense_1_prtSelTbl
 1228 0110 00000000 		.word	CapSense_1_prtCfgTbl
 1229 0114 00000000 		.word	CapSense_1_prtDRTbl
 1230              		.cfi_endproc
 1231              	.LFE49:
 1232              		.size	CapSense_1_DisableSensor, .-CapSense_1_DisableSensor
 1233              		.section	.text.CapSense_1_SetDriveModeAllPins,"ax",%progbits
 1234              		.align	2
 1235              		.global	CapSense_1_SetDriveModeAllPins
 1236              		.code	16
 1237              		.thumb_func
 1238              		.type	CapSense_1_SetDriveModeAllPins, %function
 1239              	CapSense_1_SetDriveModeAllPins:
 1240              	.LFB50:
1185:Generated_Source\PSoC4/CapSense_1.c **** 
1186:Generated_Source\PSoC4/CapSense_1.c **** 
1187:Generated_Source\PSoC4/CapSense_1.c **** /*******************************************************************************
1188:Generated_Source\PSoC4/CapSense_1.c **** * Function Name: CapSense_1_SetDriveModeAllPins
1189:Generated_Source\PSoC4/CapSense_1.c **** ********************************************************************************
1190:Generated_Source\PSoC4/CapSense_1.c **** *
1191:Generated_Source\PSoC4/CapSense_1.c **** * Summary:
1192:Generated_Source\PSoC4/CapSense_1.c **** * This API sets the drive mode of port pins used by the CapSense
1193:Generated_Source\PSoC4/CapSense_1.c **** * component (sensors, guard, shield, shield tank and Cmod) to drive the
1194:Generated_Source\PSoC4/CapSense_1.c **** * mode specified by the argument.
1195:Generated_Source\PSoC4/CapSense_1.c **** *
1196:Generated_Source\PSoC4/CapSense_1.c **** * Parameters:
1197:Generated_Source\PSoC4/CapSense_1.c **** *  driveMode:  Drive mode definition.
1198:Generated_Source\PSoC4/CapSense_1.c **** *
1199:Generated_Source\PSoC4/CapSense_1.c **** * Return:
1200:Generated_Source\PSoC4/CapSense_1.c **** *  None
1201:Generated_Source\PSoC4/CapSense_1.c **** *
1202:Generated_Source\PSoC4/CapSense_1.c **** * Global Variables:
1203:Generated_Source\PSoC4/CapSense_1.c **** *  CapSense_1_portTable[] - used to store the port number that pin
1204:Generated_Source\PSoC4/CapSense_1.c **** *  belongs to for each sensor.
ARM GAS  C:\Users\glenn\AppData\Local\Temp\cc8ystec.s 			page 44


1205:Generated_Source\PSoC4/CapSense_1.c **** *  CapSense_1_pinShiftTbl[] - used to store position of pin that
1206:Generated_Source\PSoC4/CapSense_1.c **** *  configured as a sensor in the port.
1207:Generated_Source\PSoC4/CapSense_1.c **** *
1208:Generated_Source\PSoC4/CapSense_1.c **** * Side Effects:
1209:Generated_Source\PSoC4/CapSense_1.c **** *  This API shall be called only after CapSense component is stopped.
1210:Generated_Source\PSoC4/CapSense_1.c **** *
1211:Generated_Source\PSoC4/CapSense_1.c **** *******************************************************************************/
1212:Generated_Source\PSoC4/CapSense_1.c **** void CapSense_1_SetDriveModeAllPins(uint32 driveMode)
1213:Generated_Source\PSoC4/CapSense_1.c **** {
 1241              		.loc 1 1213 0
 1242              		.cfi_startproc
 1243 0000 80B5     		push	{r7, lr}
 1244              		.cfi_def_cfa_offset 8
 1245              		.cfi_offset 7, -8
 1246              		.cfi_offset 14, -4
 1247 0002 86B0     		sub	sp, sp, #24
 1248              		.cfi_def_cfa_offset 32
 1249 0004 00AF     		add	r7, sp, #0
 1250              		.cfi_def_cfa_register 7
 1251 0006 7860     		str	r0, [r7, #4]
1214:Generated_Source\PSoC4/CapSense_1.c ****     uint8 curSensor;
1215:Generated_Source\PSoC4/CapSense_1.c ****     #if (CapSense_1_IS_COMPLEX_SCANSLOTS)
1216:Generated_Source\PSoC4/CapSense_1.c ****         uint8 snsNumber;
1217:Generated_Source\PSoC4/CapSense_1.c ****         uint8 snsType;
1218:Generated_Source\PSoC4/CapSense_1.c ****     #endif  /* CapSense_1_IS_COMPLEX_SCANSLOTS */
1219:Generated_Source\PSoC4/CapSense_1.c ****     uint32 prtNumberTmp;
1220:Generated_Source\PSoC4/CapSense_1.c ****     uint32 pinNumberTmp;
1221:Generated_Source\PSoC4/CapSense_1.c **** 
1222:Generated_Source\PSoC4/CapSense_1.c ****     for(curSensor = 0u; curSensor < CapSense_1_TOTAL_SENSOR_COUNT; curSensor++)
 1252              		.loc 1 1222 0
 1253 0008 1723     		mov	r3, #23
 1254 000a FB18     		add	r3, r7, r3
 1255 000c 0022     		mov	r2, #0
 1256 000e 1A70     		strb	r2, [r3]
 1257 0010 1AE0     		b	.L58
 1258              	.L59:
1223:Generated_Source\PSoC4/CapSense_1.c ****     {
1224:Generated_Source\PSoC4/CapSense_1.c ****         #if (CapSense_1_IS_COMPLEX_SCANSLOTS)
1225:Generated_Source\PSoC4/CapSense_1.c ****             /* Read sensor type: single or complex */
1226:Generated_Source\PSoC4/CapSense_1.c ****             snsType = CapSense_1_portTable[curSensor];
1227:Generated_Source\PSoC4/CapSense_1.c **** 
1228:Generated_Source\PSoC4/CapSense_1.c ****             /* Check if sensor is complex */
1229:Generated_Source\PSoC4/CapSense_1.c ****             if ((snsType & CapSense_1_COMPLEX_SS_FLAG) == 0u)
1230:Generated_Source\PSoC4/CapSense_1.c ****             {
1231:Generated_Source\PSoC4/CapSense_1.c ****                 /* The sensor is not complex */
1232:Generated_Source\PSoC4/CapSense_1.c ****                 snsNumber = curSensor;
1233:Generated_Source\PSoC4/CapSense_1.c ****             }
1234:Generated_Source\PSoC4/CapSense_1.c ****             else
1235:Generated_Source\PSoC4/CapSense_1.c ****             {
1236:Generated_Source\PSoC4/CapSense_1.c ****                 /* Get dedicated sensor ID of the complex sensor */
1237:Generated_Source\PSoC4/CapSense_1.c ****                 snsType &= ~CapSense_1_COMPLEX_SS_FLAG;
1238:Generated_Source\PSoC4/CapSense_1.c ****                 snsNumber = CapSense_1_indexTable[snsType];
1239:Generated_Source\PSoC4/CapSense_1.c ****             }
1240:Generated_Source\PSoC4/CapSense_1.c **** 
1241:Generated_Source\PSoC4/CapSense_1.c ****             prtNumberTmp = CapSense_1_portTable[snsNumber];
1242:Generated_Source\PSoC4/CapSense_1.c ****             pinNumberTmp = CapSense_1_pinShiftTbl[snsNumber];
1243:Generated_Source\PSoC4/CapSense_1.c ****         #else
ARM GAS  C:\Users\glenn\AppData\Local\Temp\cc8ystec.s 			page 45


1244:Generated_Source\PSoC4/CapSense_1.c ****             prtNumberTmp = CapSense_1_portTable[curSensor];
 1259              		.loc 1 1244 0 discriminator 3
 1260 0012 1723     		mov	r3, #23
 1261 0014 FB18     		add	r3, r7, r3
 1262 0016 1B78     		ldrb	r3, [r3]
 1263 0018 124A     		ldr	r2, .L60
 1264 001a D35C     		ldrb	r3, [r2, r3]
 1265 001c 3B61     		str	r3, [r7, #16]
1245:Generated_Source\PSoC4/CapSense_1.c ****             pinNumberTmp = CapSense_1_pinShiftTbl[curSensor];
 1266              		.loc 1 1245 0 discriminator 3
 1267 001e 1723     		mov	r3, #23
 1268 0020 FB18     		add	r3, r7, r3
 1269 0022 1B78     		ldrb	r3, [r3]
 1270 0024 104A     		ldr	r2, .L60+4
 1271 0026 D35C     		ldrb	r3, [r2, r3]
 1272 0028 FB60     		str	r3, [r7, #12]
1246:Generated_Source\PSoC4/CapSense_1.c ****         #endif  /* CapSense_1_IS_COMPLEX_SCANSLOTS */
1247:Generated_Source\PSoC4/CapSense_1.c **** 
1248:Generated_Source\PSoC4/CapSense_1.c ****         CapSense_1_SetPinDriveMode(driveMode, pinNumberTmp, prtNumberTmp);
 1273              		.loc 1 1248 0 discriminator 3
 1274 002a 7968     		ldr	r1, [r7, #4]
 1275 002c FA68     		ldr	r2, [r7, #12]
 1276 002e 3B69     		ldr	r3, [r7, #16]
 1277 0030 081C     		mov	r0, r1
 1278 0032 111C     		mov	r1, r2
 1279 0034 1A1C     		mov	r2, r3
 1280 0036 FFF7FEFF 		bl	CapSense_1_SetPinDriveMode
1222:Generated_Source\PSoC4/CapSense_1.c ****     {
 1281              		.loc 1 1222 0 discriminator 3
 1282 003a 1723     		mov	r3, #23
 1283 003c FB18     		add	r3, r7, r3
 1284 003e 1A78     		ldrb	r2, [r3]
 1285 0040 1723     		mov	r3, #23
 1286 0042 FB18     		add	r3, r7, r3
 1287 0044 0132     		add	r2, r2, #1
 1288 0046 1A70     		strb	r2, [r3]
 1289              	.L58:
1222:Generated_Source\PSoC4/CapSense_1.c ****     {
 1290              		.loc 1 1222 0 is_stmt 0 discriminator 1
 1291 0048 1723     		mov	r3, #23
 1292 004a FB18     		add	r3, r7, r3
 1293 004c 1B78     		ldrb	r3, [r3]
 1294 004e 072B     		cmp	r3, #7
 1295 0050 DFD9     		bls	.L59
1249:Generated_Source\PSoC4/CapSense_1.c ****     }
1250:Generated_Source\PSoC4/CapSense_1.c **** 
1251:Generated_Source\PSoC4/CapSense_1.c ****     CapSense_1_SetPinDriveMode(driveMode, (uint32)CapSense_1_CMOD_PIN_NUMBER, (uint32)CapSense_1_CM
 1296              		.loc 1 1251 0 is_stmt 1
 1297 0052 7B68     		ldr	r3, [r7, #4]
 1298 0054 181C     		mov	r0, r3
 1299 0056 0221     		mov	r1, #2
 1300 0058 0422     		mov	r2, #4
 1301 005a FFF7FEFF 		bl	CapSense_1_SetPinDriveMode
1252:Generated_Source\PSoC4/CapSense_1.c **** 
1253:Generated_Source\PSoC4/CapSense_1.c ****     #if(0u != CapSense_1_CSH_TANK_ENABLE)
1254:Generated_Source\PSoC4/CapSense_1.c ****         CapSense_1_SetPinDriveMode(driveMode, (uint32)CapSense_1_CTANK_PIN_NUMBER, (uint32)CapSense
1255:Generated_Source\PSoC4/CapSense_1.c ****     #endif /* (0u != CapSense_1_CSH_TANK_ENABLE) */
ARM GAS  C:\Users\glenn\AppData\Local\Temp\cc8ystec.s 			page 46


1256:Generated_Source\PSoC4/CapSense_1.c **** 
1257:Generated_Source\PSoC4/CapSense_1.c ****     #if(0u != CapSense_1_IS_SHIELD_ENABLE)
1258:Generated_Source\PSoC4/CapSense_1.c ****         CapSense_1_SetPinDriveMode(driveMode, (uint32)CapSense_1_SHIELD_PIN_NUMBER, (uint32)CapSens
1259:Generated_Source\PSoC4/CapSense_1.c ****     #endif /* (0u != CapSense_1_IS_SHIELD_ENABLE) */
1260:Generated_Source\PSoC4/CapSense_1.c **** }
 1302              		.loc 1 1260 0
 1303 005e BD46     		mov	sp, r7
 1304 0060 06B0     		add	sp, sp, #24
 1305              		@ sp needed
 1306 0062 80BD     		pop	{r7, pc}
 1307              	.L61:
 1308              		.align	2
 1309              	.L60:
 1310 0064 00000000 		.word	CapSense_1_portTable
 1311 0068 00000000 		.word	CapSense_1_pinShiftTbl
 1312              		.cfi_endproc
 1313              	.LFE50:
 1314              		.size	CapSense_1_SetDriveModeAllPins, .-CapSense_1_SetDriveModeAllPins
 1315              		.section	.text.CapSense_1_RestoreDriveModeAllPins,"ax",%progbits
 1316              		.align	2
 1317              		.global	CapSense_1_RestoreDriveModeAllPins
 1318              		.code	16
 1319              		.thumb_func
 1320              		.type	CapSense_1_RestoreDriveModeAllPins, %function
 1321              	CapSense_1_RestoreDriveModeAllPins:
 1322              	.LFB51:
1261:Generated_Source\PSoC4/CapSense_1.c **** 
1262:Generated_Source\PSoC4/CapSense_1.c **** 
1263:Generated_Source\PSoC4/CapSense_1.c **** /*******************************************************************************
1264:Generated_Source\PSoC4/CapSense_1.c **** * Function Name: CapSense_1_RestoreDriveModeAllPins
1265:Generated_Source\PSoC4/CapSense_1.c **** ********************************************************************************
1266:Generated_Source\PSoC4/CapSense_1.c **** *
1267:Generated_Source\PSoC4/CapSense_1.c **** * Summary:
1268:Generated_Source\PSoC4/CapSense_1.c **** *  This API restores the drive for all the CapSense port pins to the original
1269:Generated_Source\PSoC4/CapSense_1.c **** *  state.
1270:Generated_Source\PSoC4/CapSense_1.c **** *
1271:Generated_Source\PSoC4/CapSense_1.c **** * Parameters:
1272:Generated_Source\PSoC4/CapSense_1.c **** *  None
1273:Generated_Source\PSoC4/CapSense_1.c **** *
1274:Generated_Source\PSoC4/CapSense_1.c **** * Return:
1275:Generated_Source\PSoC4/CapSense_1.c **** *  None
1276:Generated_Source\PSoC4/CapSense_1.c **** *
1277:Generated_Source\PSoC4/CapSense_1.c **** * Global Variables:
1278:Generated_Source\PSoC4/CapSense_1.c **** *  CapSense_1_prtSelTbl[] - Contains pointers to the HSIOM
1279:Generated_Source\PSoC4/CapSense_1.c **** *  registers for each port.
1280:Generated_Source\PSoC4/CapSense_1.c **** *
1281:Generated_Source\PSoC4/CapSense_1.c **** * Side Effects:
1282:Generated_Source\PSoC4/CapSense_1.c **** *  This API is called only after the CapSense component is stopped.
1283:Generated_Source\PSoC4/CapSense_1.c **** *
1284:Generated_Source\PSoC4/CapSense_1.c **** *******************************************************************************/
1285:Generated_Source\PSoC4/CapSense_1.c **** void CapSense_1_RestoreDriveModeAllPins(void)
1286:Generated_Source\PSoC4/CapSense_1.c **** {
 1323              		.loc 1 1286 0
 1324              		.cfi_startproc
 1325 0000 80B5     		push	{r7, lr}
 1326              		.cfi_def_cfa_offset 8
 1327              		.cfi_offset 7, -8
ARM GAS  C:\Users\glenn\AppData\Local\Temp\cc8ystec.s 			page 47


 1328              		.cfi_offset 14, -4
 1329 0002 82B0     		sub	sp, sp, #8
 1330              		.cfi_def_cfa_offset 16
 1331 0004 00AF     		add	r7, sp, #0
 1332              		.cfi_def_cfa_register 7
1287:Generated_Source\PSoC4/CapSense_1.c ****     uint32 newRegisterValue;
1288:Generated_Source\PSoC4/CapSense_1.c **** 
1289:Generated_Source\PSoC4/CapSense_1.c ****     CapSense_1_SetDriveModeAllPins(CY_SYS_PINS_DM_ALG_HIZ);
 1333              		.loc 1 1289 0
 1334 0006 0020     		mov	r0, #0
 1335 0008 FFF7FEFF 		bl	CapSense_1_SetDriveModeAllPins
1290:Generated_Source\PSoC4/CapSense_1.c **** 
1291:Generated_Source\PSoC4/CapSense_1.c ****     newRegisterValue = CapSense_1_CMOD_CONNECTION_REG;
 1336              		.loc 1 1291 0
 1337 000c 084B     		ldr	r3, .L63
 1338 000e 1B68     		ldr	r3, [r3]
 1339 0010 7B60     		str	r3, [r7, #4]
1292:Generated_Source\PSoC4/CapSense_1.c ****     newRegisterValue &= ~(CapSense_1_CSD_CMOD_CONNECTION_MASK);
 1340              		.loc 1 1292 0
 1341 0012 7B68     		ldr	r3, [r7, #4]
 1342 0014 074A     		ldr	r2, .L63+4
 1343 0016 1340     		and	r3, r2
 1344 0018 7B60     		str	r3, [r7, #4]
1293:Generated_Source\PSoC4/CapSense_1.c ****     newRegisterValue |= CapSense_1_CSD_CMOD_TO_AMUXBUS_A;
 1345              		.loc 1 1293 0
 1346 001a 7B68     		ldr	r3, [r7, #4]
 1347 001c C022     		mov	r2, #192
 1348 001e D200     		lsl	r2, r2, #3
 1349 0020 1343     		orr	r3, r2
 1350 0022 7B60     		str	r3, [r7, #4]
1294:Generated_Source\PSoC4/CapSense_1.c ****     CapSense_1_CMOD_CONNECTION_REG = newRegisterValue;
 1351              		.loc 1 1294 0
 1352 0024 024B     		ldr	r3, .L63
 1353 0026 7A68     		ldr	r2, [r7, #4]
 1354 0028 1A60     		str	r2, [r3]
1295:Generated_Source\PSoC4/CapSense_1.c **** 
1296:Generated_Source\PSoC4/CapSense_1.c ****     #if(0u != CapSense_1_CSH_TANK_ENABLE)
1297:Generated_Source\PSoC4/CapSense_1.c ****         newRegisterValue = CapSense_1_CTANK_CONNECTION_REG;
1298:Generated_Source\PSoC4/CapSense_1.c ****         newRegisterValue &= ~(CapSense_1_CSD_CTANK_CONNECTION_MASK);
1299:Generated_Source\PSoC4/CapSense_1.c ****         newRegisterValue |= CapSense_1_CSD_CTANK_TO_AMUXBUS_B;
1300:Generated_Source\PSoC4/CapSense_1.c ****         CapSense_1_CTANK_CONNECTION_REG = newRegisterValue;
1301:Generated_Source\PSoC4/CapSense_1.c ****     #endif/* (0u != CapSense_1_CSH_TANK_ENABLE) */
1302:Generated_Source\PSoC4/CapSense_1.c **** 
1303:Generated_Source\PSoC4/CapSense_1.c ****     #if(0u != CapSense_1_IS_SHIELD_ENABLE)
1304:Generated_Source\PSoC4/CapSense_1.c ****         newRegisterValue = *CapSense_1_prtSelTbl[CapSense_1_SHIELD_PORT_NUMBER];
1305:Generated_Source\PSoC4/CapSense_1.c ****         newRegisterValue &= ~(CapSense_1_CSD_HSIOM_MASK << ((uint32)CapSense_1_SHIELD_PIN_NUMBER * 
1306:Generated_Source\PSoC4/CapSense_1.c ****         newRegisterValue |= (CapSense_1_CSD_SHIELD_PORT_MODE << ((uint32)CapSense_1_SHIELD_PIN_NUMB
1307:Generated_Source\PSoC4/CapSense_1.c ****         *CapSense_1_prtSelTbl[CapSense_1_SHIELD_PORT_NUMBER] = newRegisterValue;
1308:Generated_Source\PSoC4/CapSense_1.c ****     #endif /* (0u != CapSense_1_IS_SHIELD_ENABLE) */
1309:Generated_Source\PSoC4/CapSense_1.c **** }
 1355              		.loc 1 1309 0
 1356 002a BD46     		mov	sp, r7
 1357 002c 02B0     		add	sp, sp, #8
 1358              		@ sp needed
 1359 002e 80BD     		pop	{r7, pc}
 1360              	.L64:
 1361              		.align	2
ARM GAS  C:\Users\glenn\AppData\Local\Temp\cc8ystec.s 			page 48


 1362              	.L63:
 1363 0030 00040240 		.word	1073873920
 1364 0034 FFF0FFFF 		.word	-3841
 1365              		.cfi_endproc
 1366              	.LFE51:
 1367              		.size	CapSense_1_RestoreDriveModeAllPins, .-CapSense_1_RestoreDriveModeAllPins
 1368              		.section	.text.CapSense_1_SetPinDriveMode,"ax",%progbits
 1369              		.align	2
 1370              		.global	CapSense_1_SetPinDriveMode
 1371              		.code	16
 1372              		.thumb_func
 1373              		.type	CapSense_1_SetPinDriveMode, %function
 1374              	CapSense_1_SetPinDriveMode:
 1375              	.LFB52:
1310:Generated_Source\PSoC4/CapSense_1.c **** 
1311:Generated_Source\PSoC4/CapSense_1.c **** 
1312:Generated_Source\PSoC4/CapSense_1.c **** /*******************************************************************************
1313:Generated_Source\PSoC4/CapSense_1.c **** * Function Name: CapSense_1_SetPinDriveMode
1314:Generated_Source\PSoC4/CapSense_1.c **** ********************************************************************************
1315:Generated_Source\PSoC4/CapSense_1.c **** *
1316:Generated_Source\PSoC4/CapSense_1.c **** * Summary:
1317:Generated_Source\PSoC4/CapSense_1.c **** * This API sets the drive mode for the appropriate port/pin.
1318:Generated_Source\PSoC4/CapSense_1.c **** *
1319:Generated_Source\PSoC4/CapSense_1.c **** * Parameters:
1320:Generated_Source\PSoC4/CapSense_1.c **** *  driveMode:  Drive mode definition.
1321:Generated_Source\PSoC4/CapSense_1.c **** *  portNumber: contains port number (0, 1, 2).
1322:Generated_Source\PSoC4/CapSense_1.c **** *  pinNumber: contains pin number (0, 1, 2, ... , 7).
1323:Generated_Source\PSoC4/CapSense_1.c **** *
1324:Generated_Source\PSoC4/CapSense_1.c **** * Return:
1325:Generated_Source\PSoC4/CapSense_1.c **** *  None
1326:Generated_Source\PSoC4/CapSense_1.c **** *
1327:Generated_Source\PSoC4/CapSense_1.c **** * Global Variables:
1328:Generated_Source\PSoC4/CapSense_1.c **** *  CapSense_1_prtSelTbl[] - Contains pointers to the HSIOM
1329:Generated_Source\PSoC4/CapSense_1.c **** *  registers for each port.
1330:Generated_Source\PSoC4/CapSense_1.c **** *  CapSense_1_prtCfgTb[] - Contains pointers to the port config
1331:Generated_Source\PSoC4/CapSense_1.c **** *  registers for each port.
1332:Generated_Source\PSoC4/CapSense_1.c **** *
1333:Generated_Source\PSoC4/CapSense_1.c **** * Side Effects:
1334:Generated_Source\PSoC4/CapSense_1.c **** *  This API is called only after CapSense component is stopped.
1335:Generated_Source\PSoC4/CapSense_1.c **** *
1336:Generated_Source\PSoC4/CapSense_1.c **** *******************************************************************************/
1337:Generated_Source\PSoC4/CapSense_1.c **** void CapSense_1_SetPinDriveMode(uint32 driveMode, uint32 pinNumber, uint32 portNumber)
1338:Generated_Source\PSoC4/CapSense_1.c **** {
 1376              		.loc 1 1338 0
 1377              		.cfi_startproc
 1378 0000 80B5     		push	{r7, lr}
 1379              		.cfi_def_cfa_offset 8
 1380              		.cfi_offset 7, -8
 1381              		.cfi_offset 14, -4
 1382 0002 86B0     		sub	sp, sp, #24
 1383              		.cfi_def_cfa_offset 32
 1384 0004 00AF     		add	r7, sp, #0
 1385              		.cfi_def_cfa_register 7
 1386 0006 F860     		str	r0, [r7, #12]
 1387 0008 B960     		str	r1, [r7, #8]
 1388 000a 7A60     		str	r2, [r7, #4]
1339:Generated_Source\PSoC4/CapSense_1.c ****     uint32  pinModeShift;
ARM GAS  C:\Users\glenn\AppData\Local\Temp\cc8ystec.s 			page 49


1340:Generated_Source\PSoC4/CapSense_1.c ****     uint32 newRegisterValue;
1341:Generated_Source\PSoC4/CapSense_1.c **** 
1342:Generated_Source\PSoC4/CapSense_1.c ****     pinModeShift  = pinNumber * CapSense_1_PC_PIN_CFG_SIZE;
 1389              		.loc 1 1342 0
 1390 000c BA68     		ldr	r2, [r7, #8]
 1391 000e 131C     		mov	r3, r2
 1392 0010 5B00     		lsl	r3, r3, #1
 1393 0012 9B18     		add	r3, r3, r2
 1394 0014 7B61     		str	r3, [r7, #20]
1343:Generated_Source\PSoC4/CapSense_1.c **** 
1344:Generated_Source\PSoC4/CapSense_1.c ****     newRegisterValue = *CapSense_1_prtCfgTbl[portNumber];
 1395              		.loc 1 1344 0
 1396 0016 0F4B     		ldr	r3, .L66
 1397 0018 7A68     		ldr	r2, [r7, #4]
 1398 001a 9200     		lsl	r2, r2, #2
 1399 001c D358     		ldr	r3, [r2, r3]
 1400 001e 1B68     		ldr	r3, [r3]
 1401 0020 3B61     		str	r3, [r7, #16]
1345:Generated_Source\PSoC4/CapSense_1.c ****     newRegisterValue &= ~(CapSense_1_CSD_PIN_MODE_MASK << pinModeShift);
 1402              		.loc 1 1345 0
 1403 0022 7B69     		ldr	r3, [r7, #20]
 1404 0024 0722     		mov	r2, #7
 1405 0026 9A40     		lsl	r2, r2, r3
 1406 0028 131C     		mov	r3, r2
 1407 002a DA43     		mvn	r2, r3
 1408 002c 3B69     		ldr	r3, [r7, #16]
 1409 002e 1340     		and	r3, r2
 1410 0030 3B61     		str	r3, [r7, #16]
1346:Generated_Source\PSoC4/CapSense_1.c ****     newRegisterValue |=  (uint32)((uint32)driveMode << pinModeShift);
 1411              		.loc 1 1346 0
 1412 0032 7B69     		ldr	r3, [r7, #20]
 1413 0034 FA68     		ldr	r2, [r7, #12]
 1414 0036 9A40     		lsl	r2, r2, r3
 1415 0038 131C     		mov	r3, r2
 1416 003a 3A69     		ldr	r2, [r7, #16]
 1417 003c 1343     		orr	r3, r2
 1418 003e 3B61     		str	r3, [r7, #16]
1347:Generated_Source\PSoC4/CapSense_1.c ****     *CapSense_1_prtCfgTbl[portNumber] =  newRegisterValue;
 1419              		.loc 1 1347 0
 1420 0040 044B     		ldr	r3, .L66
 1421 0042 7A68     		ldr	r2, [r7, #4]
 1422 0044 9200     		lsl	r2, r2, #2
 1423 0046 D358     		ldr	r3, [r2, r3]
 1424 0048 3A69     		ldr	r2, [r7, #16]
 1425 004a 1A60     		str	r2, [r3]
1348:Generated_Source\PSoC4/CapSense_1.c **** }
 1426              		.loc 1 1348 0
 1427 004c BD46     		mov	sp, r7
 1428 004e 06B0     		add	sp, sp, #24
 1429              		@ sp needed
 1430 0050 80BD     		pop	{r7, pc}
 1431              	.L67:
 1432 0052 C046     		.align	2
 1433              	.L66:
 1434 0054 00000000 		.word	CapSense_1_prtCfgTbl
 1435              		.cfi_endproc
 1436              	.LFE52:
ARM GAS  C:\Users\glenn\AppData\Local\Temp\cc8ystec.s 			page 50


 1437              		.size	CapSense_1_SetPinDriveMode, .-CapSense_1_SetPinDriveMode
 1438              		.section	.text.CapSense_1_PreScan,"ax",%progbits
 1439              		.align	2
 1440              		.global	CapSense_1_PreScan
 1441              		.code	16
 1442              		.thumb_func
 1443              		.type	CapSense_1_PreScan, %function
 1444              	CapSense_1_PreScan:
 1445              	.LFB53:
1349:Generated_Source\PSoC4/CapSense_1.c **** 
1350:Generated_Source\PSoC4/CapSense_1.c **** 
1351:Generated_Source\PSoC4/CapSense_1.c **** /*******************************************************************************
1352:Generated_Source\PSoC4/CapSense_1.c **** * Function Name: CapSense_1_PreScan
1353:Generated_Source\PSoC4/CapSense_1.c **** ********************************************************************************
1354:Generated_Source\PSoC4/CapSense_1.c **** *
1355:Generated_Source\PSoC4/CapSense_1.c **** * Summary:
1356:Generated_Source\PSoC4/CapSense_1.c **** *  Sets required settings, enables a sensor, removes Vref from AMUX and starts the
1357:Generated_Source\PSoC4/CapSense_1.c **** *  scanning process of the sensor.
1358:Generated_Source\PSoC4/CapSense_1.c **** *
1359:Generated_Source\PSoC4/CapSense_1.c **** * Parameters:
1360:Generated_Source\PSoC4/CapSense_1.c **** *  sensor:  Sensor number.
1361:Generated_Source\PSoC4/CapSense_1.c **** *
1362:Generated_Source\PSoC4/CapSense_1.c **** * Return:
1363:Generated_Source\PSoC4/CapSense_1.c **** *  None
1364:Generated_Source\PSoC4/CapSense_1.c **** *
1365:Generated_Source\PSoC4/CapSense_1.c **** * Global Variables:
1366:Generated_Source\PSoC4/CapSense_1.c **** * CapSense_1_widgetNumber[] - This array contains numbers of widgets for each sensor.
1367:Generated_Source\PSoC4/CapSense_1.c **** * CapSense_1_widgetResolution[] - Contains the widget resolution.
1368:Generated_Source\PSoC4/CapSense_1.c **** *
1369:Generated_Source\PSoC4/CapSense_1.c **** * Side Effects:
1370:Generated_Source\PSoC4/CapSense_1.c **** *  None
1371:Generated_Source\PSoC4/CapSense_1.c **** *
1372:Generated_Source\PSoC4/CapSense_1.c **** *******************************************************************************/
1373:Generated_Source\PSoC4/CapSense_1.c **** void CapSense_1_PreScan(uint32 sensor)
1374:Generated_Source\PSoC4/CapSense_1.c **** {
 1446              		.loc 1 1374 0
 1447              		.cfi_startproc
 1448 0000 90B5     		push	{r4, r7, lr}
 1449              		.cfi_def_cfa_offset 12
 1450              		.cfi_offset 4, -12
 1451              		.cfi_offset 7, -8
 1452              		.cfi_offset 14, -4
 1453 0002 87B0     		sub	sp, sp, #28
 1454              		.cfi_def_cfa_offset 40
 1455 0004 00AF     		add	r7, sp, #0
 1456              		.cfi_def_cfa_register 7
 1457 0006 7860     		str	r0, [r7, #4]
1375:Generated_Source\PSoC4/CapSense_1.c ****     uint8 widget;
1376:Generated_Source\PSoC4/CapSense_1.c ****     uint8 interruptState;
1377:Generated_Source\PSoC4/CapSense_1.c ****     uint32 newRegValue;
1378:Generated_Source\PSoC4/CapSense_1.c ****     uint32 counterResolution;
1379:Generated_Source\PSoC4/CapSense_1.c **** 
1380:Generated_Source\PSoC4/CapSense_1.c ****     #if(CapSense_1_PRS_OPTIONS == CapSense_1__PRS_AUTO)
1381:Generated_Source\PSoC4/CapSense_1.c ****         uint8 senseClkDivMath;
1382:Generated_Source\PSoC4/CapSense_1.c ****         uint8 sampleClkDivMath;
1383:Generated_Source\PSoC4/CapSense_1.c ****     #endif /* (CapSense_1_PRS_OPTIONS == CapSense_1__PRS_AUTO) */
1384:Generated_Source\PSoC4/CapSense_1.c **** 
ARM GAS  C:\Users\glenn\AppData\Local\Temp\cc8ystec.s 			page 51


1385:Generated_Source\PSoC4/CapSense_1.c ****     #if ((CapSense_1_TUNING_METHOD == CapSense_1__TUNING_AUTO) &&\
1386:Generated_Source\PSoC4/CapSense_1.c ****          (0 != CapSense_1_IS_OVERSAMPLING_EN))
1387:Generated_Source\PSoC4/CapSense_1.c ****         uint32 oversamplingFactor;
1388:Generated_Source\PSoC4/CapSense_1.c ****     #endif /* ((CapSense_1_TUNING_METHOD == CapSense_1__TUNING_AUTO) &&\
1389:Generated_Source\PSoC4/CapSense_1.c ****                (0 != CapSense_1_IS_OVERSAMPLING_EN)) */
1390:Generated_Source\PSoC4/CapSense_1.c **** 
1391:Generated_Source\PSoC4/CapSense_1.c ****     /* Define widget sensor belongs to */
1392:Generated_Source\PSoC4/CapSense_1.c ****     widget = CapSense_1_widgetNumber[sensor];
 1458              		.loc 1 1392 0
 1459 0008 1723     		mov	r3, #23
 1460 000a FB18     		add	r3, r7, r3
 1461 000c 4349     		ldr	r1, .L70
 1462 000e 7A68     		ldr	r2, [r7, #4]
 1463 0010 8A18     		add	r2, r1, r2
 1464 0012 1278     		ldrb	r2, [r2]
 1465 0014 1A70     		strb	r2, [r3]
1393:Generated_Source\PSoC4/CapSense_1.c **** 
1394:Generated_Source\PSoC4/CapSense_1.c ****     /* Recalculate Counter Resolution to MSB 16 bits */
1395:Generated_Source\PSoC4/CapSense_1.c ****     counterResolution = CapSense_1_widgetResolution[widget];
 1466              		.loc 1 1395 0
 1467 0016 1723     		mov	r3, #23
 1468 0018 FB18     		add	r3, r7, r3
 1469 001a 1A78     		ldrb	r2, [r3]
 1470 001c 404B     		ldr	r3, .L70+4
 1471 001e 9200     		lsl	r2, r2, #2
 1472 0020 D358     		ldr	r3, [r2, r3]
 1473 0022 3B61     		str	r3, [r7, #16]
1396:Generated_Source\PSoC4/CapSense_1.c **** 
1397:Generated_Source\PSoC4/CapSense_1.c ****     #if ((CapSense_1_TUNING_METHOD == CapSense_1__TUNING_AUTO) &&\
1398:Generated_Source\PSoC4/CapSense_1.c ****          (0 != CapSense_1_IS_OVERSAMPLING_EN))
1399:Generated_Source\PSoC4/CapSense_1.c ****         oversamplingFactor = CapSense_1_GetBitValue(CapSense_1_scanSpeedTbl, sensor);
1400:Generated_Source\PSoC4/CapSense_1.c **** 
1401:Generated_Source\PSoC4/CapSense_1.c ****         if(counterResolution < CapSense_1_RESOLUTION_16_BITS)
1402:Generated_Source\PSoC4/CapSense_1.c ****         {
1403:Generated_Source\PSoC4/CapSense_1.c ****             counterResolution <<= oversamplingFactor;
1404:Generated_Source\PSoC4/CapSense_1.c ****             counterResolution |= (uint32)(CapSense_1_RESOLUTION_8_BITS);
1405:Generated_Source\PSoC4/CapSense_1.c ****         }
1406:Generated_Source\PSoC4/CapSense_1.c ****     #endif /* ((CapSense_1_TUNING_METHOD == CapSense_1__TUNING_AUTO) &&\
1407:Generated_Source\PSoC4/CapSense_1.c ****                (0 != CapSense_1_IS_OVERSAMPLING_EN)) */
1408:Generated_Source\PSoC4/CapSense_1.c **** 
1409:Generated_Source\PSoC4/CapSense_1.c ****     #if (0u != CapSense_1_IS_M0S8PERI_BLOCK)
1410:Generated_Source\PSoC4/CapSense_1.c ****         CapSense_1_SenseClk_Stop();
 1474              		.loc 1 1410 0
 1475 0024 FFF7FEFF 		bl	CapSense_1_SenseClk_Stop
1411:Generated_Source\PSoC4/CapSense_1.c ****         CapSense_1_SampleClk_Stop();
 1476              		.loc 1 1411 0
 1477 0028 FFF7FEFF 		bl	CapSense_1_SampleClk_Stop
1412:Generated_Source\PSoC4/CapSense_1.c ****     #endif /* (0u != CapSense_1_IS_M0S8PERI_BLOCK) */
1413:Generated_Source\PSoC4/CapSense_1.c **** 
1414:Generated_Source\PSoC4/CapSense_1.c ****     #if (0u != CapSense_1_MULTIPLE_FREQUENCY_SET)
1415:Generated_Source\PSoC4/CapSense_1.c ****         CapSense_1_SampleClk_SetDividerValue((uint16)CapSense_1_sampleClkDividerVal[sensor]);
 1478              		.loc 1 1415 0
 1479 002c 3D4A     		ldr	r2, .L70+8
 1480 002e 7B68     		ldr	r3, [r7, #4]
 1481 0030 D318     		add	r3, r2, r3
 1482 0032 1B78     		ldrb	r3, [r3]
 1483 0034 9BB2     		uxth	r3, r3
ARM GAS  C:\Users\glenn\AppData\Local\Temp\cc8ystec.s 			page 52


 1484 0036 013B     		sub	r3, r3, #1
 1485 0038 9BB2     		uxth	r3, r3
 1486 003a 181C     		mov	r0, r3
 1487 003c 0021     		mov	r1, #0
 1488 003e FFF7FEFF 		bl	CapSense_1_SampleClk_SetFractionalDividerRegister
1416:Generated_Source\PSoC4/CapSense_1.c ****         CapSense_1_SenseClk_SetDividerValue((uint16)CapSense_1_senseClkDividerVal[sensor]);
 1489              		.loc 1 1416 0
 1490 0042 394A     		ldr	r2, .L70+12
 1491 0044 7B68     		ldr	r3, [r7, #4]
 1492 0046 D318     		add	r3, r2, r3
 1493 0048 1B78     		ldrb	r3, [r3]
 1494 004a 9BB2     		uxth	r3, r3
 1495 004c 013B     		sub	r3, r3, #1
 1496 004e 9BB2     		uxth	r3, r3
 1497 0050 181C     		mov	r0, r3
 1498 0052 0021     		mov	r1, #0
 1499 0054 FFF7FEFF 		bl	CapSense_1_SenseClk_SetFractionalDividerRegister
1417:Generated_Source\PSoC4/CapSense_1.c ****     #else
1418:Generated_Source\PSoC4/CapSense_1.c ****         CapSense_1_SampleClk_SetDividerValue((uint16)CapSense_1_sampleClkDividerVal);
1419:Generated_Source\PSoC4/CapSense_1.c ****         CapSense_1_SenseClk_SetDividerValue((uint16)CapSense_1_senseClkDividerVal);
1420:Generated_Source\PSoC4/CapSense_1.c ****     #endif /* (0u != CapSense_1_MULTIPLE_FREQUENCY_SET) */
1421:Generated_Source\PSoC4/CapSense_1.c **** 
1422:Generated_Source\PSoC4/CapSense_1.c ****     #if (0u != CapSense_1_IS_M0S8PERI_BLOCK)
1423:Generated_Source\PSoC4/CapSense_1.c ****         CapSense_1_SampleClk_Start();
 1500              		.loc 1 1423 0
 1501 0058 FF20     		mov	r0, #255
 1502 005a FFF7FEFF 		bl	CapSense_1_SampleClk_StartEx
1424:Generated_Source\PSoC4/CapSense_1.c ****         CapSense_1_SenseClk_StartEx(CapSense_1_SampleClk__DIV_ID);
 1503              		.loc 1 1424 0
 1504 005e 4020     		mov	r0, #64
 1505 0060 FFF7FEFF 		bl	CapSense_1_SenseClk_StartEx
1425:Generated_Source\PSoC4/CapSense_1.c **** 
1426:Generated_Source\PSoC4/CapSense_1.c ****         #if(CapSense_1_PRS_OPTIONS == CapSense_1__PRS_NONE)
1427:Generated_Source\PSoC4/CapSense_1.c ****             CyIntDisable(CapSense_1_ISR_NUMBER);
 1506              		.loc 1 1427 0
 1507 0064 1120     		mov	r0, #17
 1508 0066 FFF7FEFF 		bl	CyIntDisable
1428:Generated_Source\PSoC4/CapSense_1.c ****             CapSense_1_CSD_CNT_REG = CapSense_1_ONE_CYCLE;
 1509              		.loc 1 1428 0
 1510 006a 304B     		ldr	r3, .L70+16
 1511 006c 8022     		mov	r2, #128
 1512 006e 5202     		lsl	r2, r2, #9
 1513 0070 1A60     		str	r2, [r3]
1429:Generated_Source\PSoC4/CapSense_1.c ****             while(0u != (CapSense_1_CSD_CNT_REG & CapSense_1_RESOLUTION_16_BITS))
 1514              		.loc 1 1429 0
 1515 0072 C046     		mov	r8, r8
 1516              	.L69:
 1517              		.loc 1 1429 0 is_stmt 0 discriminator 1
 1518 0074 2D4B     		ldr	r3, .L70+16
 1519 0076 1B68     		ldr	r3, [r3]
 1520 0078 1B0C     		lsr	r3, r3, #16
 1521 007a 1B04     		lsl	r3, r3, #16
 1522 007c FAD1     		bne	.L69
1430:Generated_Source\PSoC4/CapSense_1.c ****             {
1431:Generated_Source\PSoC4/CapSense_1.c ****             /* Wait until scanning is complete */
1432:Generated_Source\PSoC4/CapSense_1.c ****             }
1433:Generated_Source\PSoC4/CapSense_1.c ****             CapSense_1_CSD_INTR_REG = 1u;
ARM GAS  C:\Users\glenn\AppData\Local\Temp\cc8ystec.s 			page 53


 1523              		.loc 1 1433 0 is_stmt 1
 1524 007e 2C4B     		ldr	r3, .L70+20
 1525 0080 0122     		mov	r2, #1
 1526 0082 1A60     		str	r2, [r3]
1434:Generated_Source\PSoC4/CapSense_1.c ****             CyIntClearPending(CapSense_1_ISR_NUMBER);
 1527              		.loc 1 1434 0
 1528 0084 1120     		mov	r0, #17
 1529 0086 FFF7FEFF 		bl	CyIntClearPending
1435:Generated_Source\PSoC4/CapSense_1.c ****             CyIntEnable(CapSense_1_ISR_NUMBER);
 1530              		.loc 1 1435 0
 1531 008a 1120     		mov	r0, #17
 1532 008c FFF7FEFF 		bl	CyIntEnable
1436:Generated_Source\PSoC4/CapSense_1.c ****         #endif /* CapSense_1_PRS_OPTIONS == CapSense_1__PRS_NONE */
1437:Generated_Source\PSoC4/CapSense_1.c ****     #endif /* (0u != CapSense_1_IS_M0S8PERI_BLOCK) */
1438:Generated_Source\PSoC4/CapSense_1.c **** 
1439:Generated_Source\PSoC4/CapSense_1.c **** #if(CapSense_1_PRS_OPTIONS != CapSense_1__PRS_NONE)
1440:Generated_Source\PSoC4/CapSense_1.c **** 
1441:Generated_Source\PSoC4/CapSense_1.c ****     #if(CapSense_1_TUNING_METHOD == CapSense_1__TUNING_AUTO)
1442:Generated_Source\PSoC4/CapSense_1.c ****         if(CapSense_1_prescalersTuningDone != 0u)
1443:Generated_Source\PSoC4/CapSense_1.c ****         {
1444:Generated_Source\PSoC4/CapSense_1.c ****     #endif /* (CapSense_1_TUNING_METHOD == CapSense_1__TUNING_AUTO) */
1445:Generated_Source\PSoC4/CapSense_1.c **** 
1446:Generated_Source\PSoC4/CapSense_1.c ****             CyIntDisable(CapSense_1_ISR_NUMBER);
1447:Generated_Source\PSoC4/CapSense_1.c **** 
1448:Generated_Source\PSoC4/CapSense_1.c ****             newRegValue = CapSense_1_CSD_CFG_REG;
1449:Generated_Source\PSoC4/CapSense_1.c ****             newRegValue |= CapSense_1_CSD_CFG_PRS_SELECT;
1450:Generated_Source\PSoC4/CapSense_1.c **** 
1451:Generated_Source\PSoC4/CapSense_1.c ****             #if(CapSense_1_PRS_OPTIONS == CapSense_1__PRS_AUTO)
1452:Generated_Source\PSoC4/CapSense_1.c **** 
1453:Generated_Source\PSoC4/CapSense_1.c ****                 newRegValue &= ~(CapSense_1_PRS_MODE_MASK);
1454:Generated_Source\PSoC4/CapSense_1.c **** 
1455:Generated_Source\PSoC4/CapSense_1.c ****                 #if (0u != CapSense_1_MULTIPLE_FREQUENCY_SET)
1456:Generated_Source\PSoC4/CapSense_1.c ****                     senseClkDivMath = CapSense_1_senseClkDividerVal[sensor];
1457:Generated_Source\PSoC4/CapSense_1.c ****                     sampleClkDivMath = CapSense_1_sampleClkDividerVal[sensor];
1458:Generated_Source\PSoC4/CapSense_1.c ****                 #else
1459:Generated_Source\PSoC4/CapSense_1.c ****                     senseClkDivMath = CapSense_1_senseClkDividerVal;
1460:Generated_Source\PSoC4/CapSense_1.c ****                     sampleClkDivMath = CapSense_1_sampleClkDividerVal;
1461:Generated_Source\PSoC4/CapSense_1.c ****                 #endif /* ( CapSense_1_MULTIPLE_FREQUENCY_SET) */
1462:Generated_Source\PSoC4/CapSense_1.c **** 
1463:Generated_Source\PSoC4/CapSense_1.c ****                 #if(0u == CapSense_1_IS_M0S8PERI_BLOCK)
1464:Generated_Source\PSoC4/CapSense_1.c ****                     senseClkDivMath *= sampleClkDivMath;
1465:Generated_Source\PSoC4/CapSense_1.c ****                 #endif /* (0u == CapSense_1_IS_M0S8PERI_BLOCK) */
1466:Generated_Source\PSoC4/CapSense_1.c **** 
1467:Generated_Source\PSoC4/CapSense_1.c ****                 if((senseClkDivMath * CapSense_1_RESOLUTION_12_BITS) <
1468:Generated_Source\PSoC4/CapSense_1.c ****                    (sampleClkDivMath * CapSense_1_widgetResolution[widget]))
1469:Generated_Source\PSoC4/CapSense_1.c ****                 {
1470:Generated_Source\PSoC4/CapSense_1.c ****                     newRegValue |= CapSense_1_CSD_PRS_12_BIT;
1471:Generated_Source\PSoC4/CapSense_1.c ****                 }
1472:Generated_Source\PSoC4/CapSense_1.c ****             #endif /* (CapSense_1_PRS_OPTIONS == CapSense_1__PRS_AUTO) */
1473:Generated_Source\PSoC4/CapSense_1.c **** 
1474:Generated_Source\PSoC4/CapSense_1.c ****             CapSense_1_CSD_CFG_REG = newRegValue;
1475:Generated_Source\PSoC4/CapSense_1.c **** 
1476:Generated_Source\PSoC4/CapSense_1.c ****             CyIntEnable(CapSense_1_ISR_NUMBER);
1477:Generated_Source\PSoC4/CapSense_1.c **** 
1478:Generated_Source\PSoC4/CapSense_1.c ****     #if(CapSense_1_TUNING_METHOD == CapSense_1__TUNING_AUTO)
1479:Generated_Source\PSoC4/CapSense_1.c ****         }
1480:Generated_Source\PSoC4/CapSense_1.c ****     #endif /* (CapSense_1_PRS_OPTIONS != CapSense_1__PRS_NONE) */
ARM GAS  C:\Users\glenn\AppData\Local\Temp\cc8ystec.s 			page 54


1481:Generated_Source\PSoC4/CapSense_1.c **** 
1482:Generated_Source\PSoC4/CapSense_1.c **** #endif /* (CapSense_1_PRS_OPTIONS == CapSense_1__PRS_NONE) */
1483:Generated_Source\PSoC4/CapSense_1.c **** 
1484:Generated_Source\PSoC4/CapSense_1.c ****     /* Set Idac Value */
1485:Generated_Source\PSoC4/CapSense_1.c ****     CyIntDisable(CapSense_1_ISR_NUMBER);
 1533              		.loc 1 1485 0
 1534 0090 1120     		mov	r0, #17
 1535 0092 FFF7FEFF 		bl	CyIntDisable
1486:Generated_Source\PSoC4/CapSense_1.c ****     newRegValue = CapSense_1_CSD_IDAC_REG;
 1536              		.loc 1 1486 0
 1537 0096 274B     		ldr	r3, .L70+24
 1538 0098 1B68     		ldr	r3, [r3]
 1539 009a FB60     		str	r3, [r7, #12]
1487:Generated_Source\PSoC4/CapSense_1.c **** 
1488:Generated_Source\PSoC4/CapSense_1.c **** #if (CapSense_1_IDAC_CNT == 1u)
1489:Generated_Source\PSoC4/CapSense_1.c ****     newRegValue &= ~(CapSense_1_CSD_IDAC1_DATA_MASK);
1490:Generated_Source\PSoC4/CapSense_1.c ****     newRegValue |= CapSense_1_modulationIDAC[sensor];
1491:Generated_Source\PSoC4/CapSense_1.c **** #else
1492:Generated_Source\PSoC4/CapSense_1.c ****     newRegValue &= ~(CapSense_1_CSD_IDAC1_DATA_MASK | CapSense_1_CSD_IDAC2_DATA_MASK);
 1540              		.loc 1 1492 0
 1541 009c FB68     		ldr	r3, [r7, #12]
 1542 009e 264A     		ldr	r2, .L70+28
 1543 00a0 1340     		and	r3, r2
 1544 00a2 FB60     		str	r3, [r7, #12]
1493:Generated_Source\PSoC4/CapSense_1.c ****     newRegValue |= (CapSense_1_modulationIDAC[sensor] |
 1545              		.loc 1 1493 0
 1546 00a4 254A     		ldr	r2, .L70+32
 1547 00a6 7B68     		ldr	r3, [r7, #4]
 1548 00a8 D318     		add	r3, r2, r3
 1549 00aa 1B78     		ldrb	r3, [r3]
 1550 00ac 191C     		mov	r1, r3
1494:Generated_Source\PSoC4/CapSense_1.c ****                             (uint32)((uint32)CapSense_1_compensationIDAC[sensor] <<
 1551              		.loc 1 1494 0
 1552 00ae 244A     		ldr	r2, .L70+36
 1553 00b0 7B68     		ldr	r3, [r7, #4]
 1554 00b2 D318     		add	r3, r2, r3
 1555 00b4 1B78     		ldrb	r3, [r3]
 1556 00b6 1B04     		lsl	r3, r3, #16
1493:Generated_Source\PSoC4/CapSense_1.c ****     newRegValue |= (CapSense_1_modulationIDAC[sensor] |
 1557              		.loc 1 1493 0
 1558 00b8 0B43     		orr	r3, r1
 1559 00ba FA68     		ldr	r2, [r7, #12]
 1560 00bc 1343     		orr	r3, r2
 1561 00be FB60     		str	r3, [r7, #12]
1495:Generated_Source\PSoC4/CapSense_1.c ****                             CapSense_1_CSD_IDAC2_DATA_OFFSET));
1496:Generated_Source\PSoC4/CapSense_1.c **** #endif /* (CapSense_1_IDAC_CNT == 1u) */
1497:Generated_Source\PSoC4/CapSense_1.c **** 
1498:Generated_Source\PSoC4/CapSense_1.c ****     CapSense_1_CSD_IDAC_REG = newRegValue;
 1562              		.loc 1 1498 0
 1563 00c0 1C4B     		ldr	r3, .L70+24
 1564 00c2 FA68     		ldr	r2, [r7, #12]
 1565 00c4 1A60     		str	r2, [r3]
1499:Generated_Source\PSoC4/CapSense_1.c **** 
1500:Generated_Source\PSoC4/CapSense_1.c **** #if(CapSense_1_CMOD_PREGARGE_OPTION == CapSense_1__CAPPRIOBUF)
1501:Generated_Source\PSoC4/CapSense_1.c ****     newRegValue = CapSense_1_CMOD_CONNECTION_REG;
1502:Generated_Source\PSoC4/CapSense_1.c ****     newRegValue &= ~(CapSense_1_CSD_CMOD_CONNECTION_MASK);
1503:Generated_Source\PSoC4/CapSense_1.c ****     newRegValue |= CapSense_1_CSD_CMOD_TO_AMUXBUS_A;
ARM GAS  C:\Users\glenn\AppData\Local\Temp\cc8ystec.s 			page 55


1504:Generated_Source\PSoC4/CapSense_1.c ****     CapSense_1_CMOD_CONNECTION_REG = newRegValue;
1505:Generated_Source\PSoC4/CapSense_1.c **** 
1506:Generated_Source\PSoC4/CapSense_1.c ****     newRegValue = CapSense_1_CMOD_PORT_PC_REG;
1507:Generated_Source\PSoC4/CapSense_1.c ****     newRegValue &= ~(CapSense_1_CSD_CMOD_PC_MASK);
1508:Generated_Source\PSoC4/CapSense_1.c ****     newRegValue |= CapSense_1_CMOD_PC_HIGH_Z_MODE;
1509:Generated_Source\PSoC4/CapSense_1.c ****     CapSense_1_CMOD_PORT_PC_REG = newRegValue;
1510:Generated_Source\PSoC4/CapSense_1.c **** #endif /* (CapSense_1_CMOD_PREGARGE_OPTION == CapSense_1__CAPPRIOBUF) */
1511:Generated_Source\PSoC4/CapSense_1.c **** 
1512:Generated_Source\PSoC4/CapSense_1.c ****     /* Disconnect Vref Buffer from AMUX */
1513:Generated_Source\PSoC4/CapSense_1.c ****     newRegValue = CapSense_1_CSD_CFG_REG;
 1566              		.loc 1 1513 0
 1567 00c6 1F4B     		ldr	r3, .L70+40
 1568 00c8 1B68     		ldr	r3, [r3]
 1569 00ca FB60     		str	r3, [r7, #12]
1514:Generated_Source\PSoC4/CapSense_1.c ****     newRegValue &= ~(CapSense_1_PRECHARGE_CONFIG_MASK);
 1570              		.loc 1 1514 0
 1571 00cc FB68     		ldr	r3, [r7, #12]
 1572 00ce 1E4A     		ldr	r2, .L70+44
 1573 00d0 1340     		and	r3, r2
 1574 00d2 FB60     		str	r3, [r7, #12]
1515:Generated_Source\PSoC4/CapSense_1.c ****     newRegValue |= CapSense_1_CTANK_PRECHARGE_CONFIG;
 1575              		.loc 1 1515 0
 1576 00d4 FB68     		ldr	r3, [r7, #12]
 1577 00d6 1D4A     		ldr	r2, .L70+48
 1578 00d8 1343     		orr	r3, r2
 1579 00da FB60     		str	r3, [r7, #12]
1516:Generated_Source\PSoC4/CapSense_1.c **** 
1517:Generated_Source\PSoC4/CapSense_1.c ****     CyIntEnable(CapSense_1_ISR_NUMBER);
 1580              		.loc 1 1517 0
 1581 00dc 1120     		mov	r0, #17
 1582 00de FFF7FEFF 		bl	CyIntEnable
1518:Generated_Source\PSoC4/CapSense_1.c **** 
1519:Generated_Source\PSoC4/CapSense_1.c ****     /* Enable Sensor */
1520:Generated_Source\PSoC4/CapSense_1.c ****     CapSense_1_EnableScanSlot(sensor);
 1583              		.loc 1 1520 0
 1584 00e2 7B68     		ldr	r3, [r7, #4]
 1585 00e4 181C     		mov	r0, r3
 1586 00e6 FFF7FEFF 		bl	CapSense_1_EnableSensor
1521:Generated_Source\PSoC4/CapSense_1.c **** 
1522:Generated_Source\PSoC4/CapSense_1.c ****     interruptState = CyEnterCriticalSection();
 1587              		.loc 1 1522 0
 1588 00ea 0B23     		mov	r3, #11
 1589 00ec FC18     		add	r4, r7, r3
 1590 00ee FFF7FEFF 		bl	CyEnterCriticalSection
 1591 00f2 031C     		mov	r3, r0
 1592 00f4 2370     		strb	r3, [r4]
1523:Generated_Source\PSoC4/CapSense_1.c ****     CapSense_1_CSD_CFG_REG = newRegValue;
 1593              		.loc 1 1523 0
 1594 00f6 134B     		ldr	r3, .L70+40
 1595 00f8 FA68     		ldr	r2, [r7, #12]
 1596 00fa 1A60     		str	r2, [r3]
1524:Generated_Source\PSoC4/CapSense_1.c **** 
1525:Generated_Source\PSoC4/CapSense_1.c ****     /* `#START CapSense_1_PreSettlingDelay_Debug` */
1526:Generated_Source\PSoC4/CapSense_1.c **** 
1527:Generated_Source\PSoC4/CapSense_1.c ****     /* `#END` */
1528:Generated_Source\PSoC4/CapSense_1.c **** 
1529:Generated_Source\PSoC4/CapSense_1.c **** #ifdef CapSense_1_PRE_SCAN_PRE_SETTLING_DELAY_DEBUG_CALLBACK
ARM GAS  C:\Users\glenn\AppData\Local\Temp\cc8ystec.s 			page 56


1530:Generated_Source\PSoC4/CapSense_1.c ****     CapSense_1_PreScan_Pre_SettlingDelay_Debug_Callback();
1531:Generated_Source\PSoC4/CapSense_1.c **** #endif /* CapSense_1_PRE_SCAN_PRE_SETTLING_DELAY_DEBUG_CALLBACK */
1532:Generated_Source\PSoC4/CapSense_1.c **** 
1533:Generated_Source\PSoC4/CapSense_1.c ****     CyDelayCycles(CapSense_1_GLITCH_ELIMINATION_CYCLES);
 1597              		.loc 1 1533 0
 1598 00fc 0020     		mov	r0, #0
 1599 00fe FFF7FEFF 		bl	CyDelayCycles
1534:Generated_Source\PSoC4/CapSense_1.c **** 
1535:Generated_Source\PSoC4/CapSense_1.c ****     /* `#START CapSense_1_PreScan_Debug` */
1536:Generated_Source\PSoC4/CapSense_1.c **** 
1537:Generated_Source\PSoC4/CapSense_1.c ****     /* `#END` */
1538:Generated_Source\PSoC4/CapSense_1.c **** 
1539:Generated_Source\PSoC4/CapSense_1.c **** #ifdef CapSense_1_PRE_SCAN_DEBUG_CALLBACK
1540:Generated_Source\PSoC4/CapSense_1.c ****     CapSense_1_PreScan_Debug_Callback();
1541:Generated_Source\PSoC4/CapSense_1.c **** #endif /* CapSense_1_PRE_SCAN_DEBUG_CALLBACK */
1542:Generated_Source\PSoC4/CapSense_1.c **** 
1543:Generated_Source\PSoC4/CapSense_1.c ****     CapSense_1_CSD_CNT_REG = counterResolution;
 1600              		.loc 1 1543 0
 1601 0102 0A4B     		ldr	r3, .L70+16
 1602 0104 3A69     		ldr	r2, [r7, #16]
 1603 0106 1A60     		str	r2, [r3]
1544:Generated_Source\PSoC4/CapSense_1.c ****     CyExitCriticalSection(interruptState);
 1604              		.loc 1 1544 0
 1605 0108 0B23     		mov	r3, #11
 1606 010a FB18     		add	r3, r7, r3
 1607 010c 1B78     		ldrb	r3, [r3]
 1608 010e 181C     		mov	r0, r3
 1609 0110 FFF7FEFF 		bl	CyExitCriticalSection
1545:Generated_Source\PSoC4/CapSense_1.c **** }
 1610              		.loc 1 1545 0
 1611 0114 BD46     		mov	sp, r7
 1612 0116 07B0     		add	sp, sp, #28
 1613              		@ sp needed
 1614 0118 90BD     		pop	{r4, r7, pc}
 1615              	.L71:
 1616 011a C046     		.align	2
 1617              	.L70:
 1618 011c 00000000 		.word	CapSense_1_widgetNumber
 1619 0120 00000000 		.word	CapSense_1_widgetResolution
 1620 0124 00000000 		.word	CapSense_1_sampleClkDividerVal
 1621 0128 00000000 		.word	CapSense_1_senseClkDividerVal
 1622 012c 0C002840 		.word	1076363276
 1623 0130 14002840 		.word	1076363284
 1624 0134 08002840 		.word	1076363272
 1625 0138 00FF80FF 		.word	-8323328
 1626 013c 00000000 		.word	CapSense_1_modulationIDAC
 1627 0140 00000000 		.word	CapSense_1_compensationIDAC
 1628 0144 04002840 		.word	1076363268
 1629 0148 FF1FDFFF 		.word	-2154497
 1630 014c 20002000 		.word	2097184
 1631              		.cfi_endproc
 1632              	.LFE53:
 1633              		.size	CapSense_1_PreScan, .-CapSense_1_PreScan
 1634              		.section	.text.CapSense_1_PostScan,"ax",%progbits
 1635              		.align	2
 1636              		.global	CapSense_1_PostScan
 1637              		.code	16
ARM GAS  C:\Users\glenn\AppData\Local\Temp\cc8ystec.s 			page 57


 1638              		.thumb_func
 1639              		.type	CapSense_1_PostScan, %function
 1640              	CapSense_1_PostScan:
 1641              	.LFB54:
1546:Generated_Source\PSoC4/CapSense_1.c **** 
1547:Generated_Source\PSoC4/CapSense_1.c **** 
1548:Generated_Source\PSoC4/CapSense_1.c **** /*******************************************************************************
1549:Generated_Source\PSoC4/CapSense_1.c **** * Function Name: CapSense_1_PostScan
1550:Generated_Source\PSoC4/CapSense_1.c **** ********************************************************************************
1551:Generated_Source\PSoC4/CapSense_1.c **** *
1552:Generated_Source\PSoC4/CapSense_1.c **** * Summary:
1553:Generated_Source\PSoC4/CapSense_1.c **** *  Stores the results of measurement in the CapSense_1_sensorRaw[] array,
1554:Generated_Source\PSoC4/CapSense_1.c **** *  sets the scanning sensor in the non-sampling state, turns off Idac(Current Source IDAC),
1555:Generated_Source\PSoC4/CapSense_1.c **** *  disconnects the IDAC(Sink mode), and applies Vref on AMUX.
1556:Generated_Source\PSoC4/CapSense_1.c **** *
1557:Generated_Source\PSoC4/CapSense_1.c **** * Parameters:
1558:Generated_Source\PSoC4/CapSense_1.c **** *  sensor:  Sensor number.
1559:Generated_Source\PSoC4/CapSense_1.c **** *
1560:Generated_Source\PSoC4/CapSense_1.c **** * Return:
1561:Generated_Source\PSoC4/CapSense_1.c **** *  None
1562:Generated_Source\PSoC4/CapSense_1.c **** *
1563:Generated_Source\PSoC4/CapSense_1.c **** * Global Variables:
1564:Generated_Source\PSoC4/CapSense_1.c **** *  CapSense_1_sensorRaw[] - used to store sensors raw data.
1565:Generated_Source\PSoC4/CapSense_1.c **** *
1566:Generated_Source\PSoC4/CapSense_1.c **** * Side Effects:
1567:Generated_Source\PSoC4/CapSense_1.c **** *  None
1568:Generated_Source\PSoC4/CapSense_1.c **** *
1569:Generated_Source\PSoC4/CapSense_1.c **** *******************************************************************************/
1570:Generated_Source\PSoC4/CapSense_1.c **** void CapSense_1_PostScan(uint32 sensor)
1571:Generated_Source\PSoC4/CapSense_1.c **** {
 1642              		.loc 1 1571 0
 1643              		.cfi_startproc
 1644 0000 80B5     		push	{r7, lr}
 1645              		.cfi_def_cfa_offset 8
 1646              		.cfi_offset 7, -8
 1647              		.cfi_offset 14, -4
 1648 0002 84B0     		sub	sp, sp, #16
 1649              		.cfi_def_cfa_offset 24
 1650 0004 00AF     		add	r7, sp, #0
 1651              		.cfi_def_cfa_register 7
 1652 0006 7860     		str	r0, [r7, #4]
1572:Generated_Source\PSoC4/CapSense_1.c ****     uint32 newRegValue;
1573:Generated_Source\PSoC4/CapSense_1.c **** #if ((CapSense_1_TUNING_METHOD == CapSense_1__TUNING_AUTO) &&\
1574:Generated_Source\PSoC4/CapSense_1.c ****      (0 != CapSense_1_IS_OVERSAMPLING_EN))
1575:Generated_Source\PSoC4/CapSense_1.c ****     uint32 oversamplingFactor;
1576:Generated_Source\PSoC4/CapSense_1.c ****     uint32 widget;
1577:Generated_Source\PSoC4/CapSense_1.c **** #endif /* ((CapSense_1_TUNING_METHOD == CapSense_1__TUNING_AUTO) &&\
1578:Generated_Source\PSoC4/CapSense_1.c ****            (0 != CapSense_1_IS_OVERSAMPLING_EN)) */
1579:Generated_Source\PSoC4/CapSense_1.c **** 
1580:Generated_Source\PSoC4/CapSense_1.c ****     /* `#START CapSense_1_PostScan_Debug` */
1581:Generated_Source\PSoC4/CapSense_1.c **** 
1582:Generated_Source\PSoC4/CapSense_1.c ****     /* `#END` */
1583:Generated_Source\PSoC4/CapSense_1.c **** 
1584:Generated_Source\PSoC4/CapSense_1.c **** #ifdef CapSense_1_POST_SCAN_DEBUG_CALLBACK
1585:Generated_Source\PSoC4/CapSense_1.c ****     CapSense_1_PostScan_Debug_Callback();
1586:Generated_Source\PSoC4/CapSense_1.c **** #endif /* CapSense_1_POST_SCAN_DEBUG_Callback */
1587:Generated_Source\PSoC4/CapSense_1.c **** 
ARM GAS  C:\Users\glenn\AppData\Local\Temp\cc8ystec.s 			page 58


1588:Generated_Source\PSoC4/CapSense_1.c ****     /* Read SlotResult from Raw Counter */
1589:Generated_Source\PSoC4/CapSense_1.c ****     CapSense_1_sensorRaw[sensor]  = (uint16)CapSense_1_CSD_CNT_REG;
 1653              		.loc 1 1589 0
 1654 0008 144B     		ldr	r3, .L73
 1655 000a 1B68     		ldr	r3, [r3]
 1656 000c 99B2     		uxth	r1, r3
 1657 000e 144B     		ldr	r3, .L73+4
 1658 0010 7A68     		ldr	r2, [r7, #4]
 1659 0012 5200     		lsl	r2, r2, #1
 1660 0014 D152     		strh	r1, [r2, r3]
1590:Generated_Source\PSoC4/CapSense_1.c **** 
1591:Generated_Source\PSoC4/CapSense_1.c **** #if ((CapSense_1_TUNING_METHOD == CapSense_1__TUNING_AUTO) &&\
1592:Generated_Source\PSoC4/CapSense_1.c ****      (0 != CapSense_1_IS_OVERSAMPLING_EN))
1593:Generated_Source\PSoC4/CapSense_1.c ****     widget = CapSense_1_widgetNumber[sensor];
1594:Generated_Source\PSoC4/CapSense_1.c ****     if(CapSense_1_widgetResolution[widget] < CapSense_1_RESOLUTION_16_BITS)
1595:Generated_Source\PSoC4/CapSense_1.c ****     {
1596:Generated_Source\PSoC4/CapSense_1.c ****         oversamplingFactor = CapSense_1_GetBitValue(CapSense_1_scanSpeedTbl, sensor);
1597:Generated_Source\PSoC4/CapSense_1.c ****         CapSense_1_sensorRaw[sensor] >>= oversamplingFactor;
1598:Generated_Source\PSoC4/CapSense_1.c ****     }
1599:Generated_Source\PSoC4/CapSense_1.c **** #endif /* ((CapSense_1_TUNING_METHOD == CapSense_1__TUNING_AUTO) &&\
1600:Generated_Source\PSoC4/CapSense_1.c ****            (0 != CapSense_1_IS_OVERSAMPLING_EN)) */
1601:Generated_Source\PSoC4/CapSense_1.c **** 
1602:Generated_Source\PSoC4/CapSense_1.c ****     /* Disable Sensor */
1603:Generated_Source\PSoC4/CapSense_1.c ****     CapSense_1_DisableScanSlot(sensor);
 1661              		.loc 1 1603 0
 1662 0016 7B68     		ldr	r3, [r7, #4]
 1663 0018 181C     		mov	r0, r3
 1664 001a FFF7FEFF 		bl	CapSense_1_DisableSensor
1604:Generated_Source\PSoC4/CapSense_1.c **** 
1605:Generated_Source\PSoC4/CapSense_1.c ****     CyIntDisable(CapSense_1_ISR_NUMBER);
 1665              		.loc 1 1605 0
 1666 001e 1120     		mov	r0, #17
 1667 0020 FFF7FEFF 		bl	CyIntDisable
1606:Generated_Source\PSoC4/CapSense_1.c **** 
1607:Generated_Source\PSoC4/CapSense_1.c **** #if(CapSense_1_CMOD_PREGARGE_OPTION == CapSense_1__CAPPRIOBUF)
1608:Generated_Source\PSoC4/CapSense_1.c ****     newRegValue = CapSense_1_CMOD_CONNECTION_REG;
1609:Generated_Source\PSoC4/CapSense_1.c ****     newRegValue &= ~(CapSense_1_CSD_CMOD_CONNECTION_MASK);
1610:Generated_Source\PSoC4/CapSense_1.c ****     newRegValue |= CapSense_1_CSD_CMOD_TO_AMUXBUS_B;
1611:Generated_Source\PSoC4/CapSense_1.c ****     CapSense_1_CMOD_CONNECTION_REG = newRegValue;
1612:Generated_Source\PSoC4/CapSense_1.c **** 
1613:Generated_Source\PSoC4/CapSense_1.c ****     newRegValue = CapSense_1_CMOD_PORT_PC_REG;
1614:Generated_Source\PSoC4/CapSense_1.c ****     newRegValue &= ~(CapSense_1_CSD_CMOD_PC_MASK);
1615:Generated_Source\PSoC4/CapSense_1.c ****     newRegValue |= CapSense_1_CMOD_PC_STRONG_MODE;
1616:Generated_Source\PSoC4/CapSense_1.c ****     CapSense_1_CMOD_PORT_PC_REG = newRegValue;
1617:Generated_Source\PSoC4/CapSense_1.c **** 
1618:Generated_Source\PSoC4/CapSense_1.c ****     newRegValue = CapSense_1_CMOD_PORT_DR_REG;
1619:Generated_Source\PSoC4/CapSense_1.c ****     newRegValue &= ~(CapSense_1_CMOD_DR_MASK);
1620:Generated_Source\PSoC4/CapSense_1.c ****     newRegValue |= CapSense_1_CMOD_DR_CONFIG;
1621:Generated_Source\PSoC4/CapSense_1.c ****     CapSense_1_CMOD_PORT_DR_REG = newRegValue;
1622:Generated_Source\PSoC4/CapSense_1.c **** #endif /* (CapSense_1_CMOD_PREGARGE_OPTION == CapSense_1__CAPPRIOBUF) */
1623:Generated_Source\PSoC4/CapSense_1.c **** 
1624:Generated_Source\PSoC4/CapSense_1.c ****     /* Connect Vref Buffer to AMUX bus  */
1625:Generated_Source\PSoC4/CapSense_1.c ****     newRegValue = CapSense_1_CSD_CFG_REG;
 1668              		.loc 1 1625 0
 1669 0024 0F4B     		ldr	r3, .L73+8
 1670 0026 1B68     		ldr	r3, [r3]
 1671 0028 FB60     		str	r3, [r7, #12]
ARM GAS  C:\Users\glenn\AppData\Local\Temp\cc8ystec.s 			page 59


1626:Generated_Source\PSoC4/CapSense_1.c ****     newRegValue &= ~(CapSense_1_PRECHARGE_CONFIG_MASK);
 1672              		.loc 1 1626 0
 1673 002a FB68     		ldr	r3, [r7, #12]
 1674 002c 0E4A     		ldr	r2, .L73+12
 1675 002e 1340     		and	r3, r2
 1676 0030 FB60     		str	r3, [r7, #12]
1627:Generated_Source\PSoC4/CapSense_1.c ****     newRegValue |= CapSense_1_CMOD_PRECHARGE_CONFIG;
 1677              		.loc 1 1627 0
 1678 0032 FB68     		ldr	r3, [r7, #12]
 1679 0034 A022     		mov	r2, #160
 1680 0036 1202     		lsl	r2, r2, #8
 1681 0038 1343     		orr	r3, r2
 1682 003a FB60     		str	r3, [r7, #12]
1628:Generated_Source\PSoC4/CapSense_1.c ****     CapSense_1_CSD_CFG_REG = newRegValue;
 1683              		.loc 1 1628 0
 1684 003c 094B     		ldr	r3, .L73+8
 1685 003e FA68     		ldr	r2, [r7, #12]
 1686 0040 1A60     		str	r2, [r3]
1629:Generated_Source\PSoC4/CapSense_1.c **** 
1630:Generated_Source\PSoC4/CapSense_1.c ****     /* Set Idac Value = 0 */
1631:Generated_Source\PSoC4/CapSense_1.c **** #if (CapSense_1_IDAC_CNT == 1u)
1632:Generated_Source\PSoC4/CapSense_1.c ****     CapSense_1_CSD_IDAC_REG &= ~(CapSense_1_CSD_IDAC1_DATA_MASK);
1633:Generated_Source\PSoC4/CapSense_1.c **** #else
1634:Generated_Source\PSoC4/CapSense_1.c ****     CapSense_1_CSD_IDAC_REG &= ~(CapSense_1_CSD_IDAC1_DATA_MASK | CapSense_1_CSD_IDAC2_DATA_MASK);
 1687              		.loc 1 1634 0
 1688 0042 0A4B     		ldr	r3, .L73+16
 1689 0044 094A     		ldr	r2, .L73+16
 1690 0046 1268     		ldr	r2, [r2]
 1691 0048 0949     		ldr	r1, .L73+20
 1692 004a 0A40     		and	r2, r1
 1693 004c 1A60     		str	r2, [r3]
1635:Generated_Source\PSoC4/CapSense_1.c **** #endif /* (CapSense_1_IDAC_CNT == 1u) */
1636:Generated_Source\PSoC4/CapSense_1.c **** 
1637:Generated_Source\PSoC4/CapSense_1.c ****     CyIntEnable(CapSense_1_ISR_NUMBER);
 1694              		.loc 1 1637 0
 1695 004e 1120     		mov	r0, #17
 1696 0050 FFF7FEFF 		bl	CyIntEnable
1638:Generated_Source\PSoC4/CapSense_1.c **** }
 1697              		.loc 1 1638 0
 1698 0054 BD46     		mov	sp, r7
 1699 0056 04B0     		add	sp, sp, #16
 1700              		@ sp needed
 1701 0058 80BD     		pop	{r7, pc}
 1702              	.L74:
 1703 005a C046     		.align	2
 1704              	.L73:
 1705 005c 0C002840 		.word	1076363276
 1706 0060 00000000 		.word	CapSense_1_sensorRaw
 1707 0064 04002840 		.word	1076363268
 1708 0068 FF1FDFFF 		.word	-2154497
 1709 006c 08002840 		.word	1076363272
 1710 0070 00FF80FF 		.word	-8323328
 1711              		.cfi_endproc
 1712              	.LFE54:
 1713              		.size	CapSense_1_PostScan, .-CapSense_1_PostScan
 1714              		.section	.text.CapSense_1_EnableShieldElectrode,"ax",%progbits
 1715              		.align	2
ARM GAS  C:\Users\glenn\AppData\Local\Temp\cc8ystec.s 			page 60


 1716              		.global	CapSense_1_EnableShieldElectrode
 1717              		.code	16
 1718              		.thumb_func
 1719              		.type	CapSense_1_EnableShieldElectrode, %function
 1720              	CapSense_1_EnableShieldElectrode:
 1721              	.LFB55:
1639:Generated_Source\PSoC4/CapSense_1.c **** 
1640:Generated_Source\PSoC4/CapSense_1.c **** 
1641:Generated_Source\PSoC4/CapSense_1.c **** /*******************************************************************************
1642:Generated_Source\PSoC4/CapSense_1.c **** * Function Name: CapSense_1_EnableShieldElectrode
1643:Generated_Source\PSoC4/CapSense_1.c **** ********************************************************************************
1644:Generated_Source\PSoC4/CapSense_1.c **** *
1645:Generated_Source\PSoC4/CapSense_1.c **** * Summary:
1646:Generated_Source\PSoC4/CapSense_1.c **** *  This API enables or disables the shield electrode on a specified port pin.
1647:Generated_Source\PSoC4/CapSense_1.c **** *
1648:Generated_Source\PSoC4/CapSense_1.c **** * Parameters:
1649:Generated_Source\PSoC4/CapSense_1.c **** *  portNumber: contains the shield electrode port number (0, 1, 2).
1650:Generated_Source\PSoC4/CapSense_1.c **** *  pinNumber: contains the shield electrode pin number (0, 1, 2, ... , 7).
1651:Generated_Source\PSoC4/CapSense_1.c **** *
1652:Generated_Source\PSoC4/CapSense_1.c **** * Return:
1653:Generated_Source\PSoC4/CapSense_1.c **** *  None
1654:Generated_Source\PSoC4/CapSense_1.c **** *
1655:Generated_Source\PSoC4/CapSense_1.c **** * Global Variables:
1656:Generated_Source\PSoC4/CapSense_1.c **** *  CapSense_1_prtCfgTbl[] - Contains pointers to the port config registers for each port.
1657:Generated_Source\PSoC4/CapSense_1.c **** *  CapSense_1_prtSelTbl[] - Contains pointers to the HSIOM registers for each port.
1658:Generated_Source\PSoC4/CapSense_1.c **** *
1659:Generated_Source\PSoC4/CapSense_1.c **** * Side Effects:
1660:Generated_Source\PSoC4/CapSense_1.c **** *  None
1661:Generated_Source\PSoC4/CapSense_1.c **** *
1662:Generated_Source\PSoC4/CapSense_1.c **** *******************************************************************************/
1663:Generated_Source\PSoC4/CapSense_1.c **** void CapSense_1_EnableShieldElectrode(uint32 pinNumber, uint32 portNumber)
1664:Generated_Source\PSoC4/CapSense_1.c **** {
 1722              		.loc 1 1664 0
 1723              		.cfi_startproc
 1724 0000 80B5     		push	{r7, lr}
 1725              		.cfi_def_cfa_offset 8
 1726              		.cfi_offset 7, -8
 1727              		.cfi_offset 14, -4
 1728 0002 84B0     		sub	sp, sp, #16
 1729              		.cfi_def_cfa_offset 24
 1730 0004 00AF     		add	r7, sp, #0
 1731              		.cfi_def_cfa_register 7
 1732 0006 7860     		str	r0, [r7, #4]
 1733 0008 3960     		str	r1, [r7]
1665:Generated_Source\PSoC4/CapSense_1.c ****     uint32 newRegValue;
1666:Generated_Source\PSoC4/CapSense_1.c **** 
1667:Generated_Source\PSoC4/CapSense_1.c ****     *CapSense_1_prtCfgTbl[portNumber] &= ~(CapSense_1_CSD_PIN_MODE_MASK << (pinNumber * CapSense_1_
 1734              		.loc 1 1667 0
 1735 000a 194B     		ldr	r3, .L76
 1736 000c 3A68     		ldr	r2, [r7]
 1737 000e 9200     		lsl	r2, r2, #2
 1738 0010 D258     		ldr	r2, [r2, r3]
 1739 0012 174B     		ldr	r3, .L76
 1740 0014 3968     		ldr	r1, [r7]
 1741 0016 8900     		lsl	r1, r1, #2
 1742 0018 CB58     		ldr	r3, [r1, r3]
 1743 001a 1868     		ldr	r0, [r3]
ARM GAS  C:\Users\glenn\AppData\Local\Temp\cc8ystec.s 			page 61


 1744 001c 7968     		ldr	r1, [r7, #4]
 1745 001e 0B1C     		mov	r3, r1
 1746 0020 5B00     		lsl	r3, r3, #1
 1747 0022 5B18     		add	r3, r3, r1
 1748 0024 191C     		mov	r1, r3
 1749 0026 0723     		mov	r3, #7
 1750 0028 8B40     		lsl	r3, r3, r1
 1751 002a DB43     		mvn	r3, r3
 1752 002c 0340     		and	r3, r0
 1753 002e 1360     		str	r3, [r2]
1668:Generated_Source\PSoC4/CapSense_1.c ****     newRegValue = *CapSense_1_prtSelTbl[portNumber];
 1754              		.loc 1 1668 0
 1755 0030 104B     		ldr	r3, .L76+4
 1756 0032 3A68     		ldr	r2, [r7]
 1757 0034 9200     		lsl	r2, r2, #2
 1758 0036 D358     		ldr	r3, [r2, r3]
 1759 0038 1B68     		ldr	r3, [r3]
 1760 003a FB60     		str	r3, [r7, #12]
1669:Generated_Source\PSoC4/CapSense_1.c ****     newRegValue &= ~(CapSense_1_CSD_HSIOM_MASK << (pinNumber * CapSense_1_HSIOM_PIN_CFG_SIZE));
 1761              		.loc 1 1669 0
 1762 003c 7B68     		ldr	r3, [r7, #4]
 1763 003e 9B00     		lsl	r3, r3, #2
 1764 0040 1A1C     		mov	r2, r3
 1765 0042 0F23     		mov	r3, #15
 1766 0044 9340     		lsl	r3, r3, r2
 1767 0046 DA43     		mvn	r2, r3
 1768 0048 FB68     		ldr	r3, [r7, #12]
 1769 004a 1340     		and	r3, r2
 1770 004c FB60     		str	r3, [r7, #12]
1670:Generated_Source\PSoC4/CapSense_1.c ****     newRegValue |= (CapSense_1_CSD_SHIELD_PORT_MODE << (pinNumber * CapSense_1_HSIOM_PIN_CFG_SIZE))
 1771              		.loc 1 1670 0
 1772 004e 7B68     		ldr	r3, [r7, #4]
 1773 0050 9B00     		lsl	r3, r3, #2
 1774 0052 1A1C     		mov	r2, r3
 1775 0054 0523     		mov	r3, #5
 1776 0056 9340     		lsl	r3, r3, r2
 1777 0058 FA68     		ldr	r2, [r7, #12]
 1778 005a 1343     		orr	r3, r2
 1779 005c FB60     		str	r3, [r7, #12]
1671:Generated_Source\PSoC4/CapSense_1.c ****     *CapSense_1_prtSelTbl[portNumber] = newRegValue;
 1780              		.loc 1 1671 0
 1781 005e 054B     		ldr	r3, .L76+4
 1782 0060 3A68     		ldr	r2, [r7]
 1783 0062 9200     		lsl	r2, r2, #2
 1784 0064 D358     		ldr	r3, [r2, r3]
 1785 0066 FA68     		ldr	r2, [r7, #12]
 1786 0068 1A60     		str	r2, [r3]
1672:Generated_Source\PSoC4/CapSense_1.c **** }
 1787              		.loc 1 1672 0
 1788 006a BD46     		mov	sp, r7
 1789 006c 04B0     		add	sp, sp, #16
 1790              		@ sp needed
 1791 006e 80BD     		pop	{r7, pc}
 1792              	.L77:
 1793              		.align	2
 1794              	.L76:
 1795 0070 00000000 		.word	CapSense_1_prtCfgTbl
ARM GAS  C:\Users\glenn\AppData\Local\Temp\cc8ystec.s 			page 62


 1796 0074 00000000 		.word	CapSense_1_prtSelTbl
 1797              		.cfi_endproc
 1798              	.LFE55:
 1799              		.size	CapSense_1_EnableShieldElectrode, .-CapSense_1_EnableShieldElectrode
 1800              		.section	.text.CapSense_1_SetShieldDelay,"ax",%progbits
 1801              		.align	2
 1802              		.global	CapSense_1_SetShieldDelay
 1803              		.code	16
 1804              		.thumb_func
 1805              		.type	CapSense_1_SetShieldDelay, %function
 1806              	CapSense_1_SetShieldDelay:
 1807              	.LFB56:
1673:Generated_Source\PSoC4/CapSense_1.c **** 
1674:Generated_Source\PSoC4/CapSense_1.c **** 
1675:Generated_Source\PSoC4/CapSense_1.c **** /*******************************************************************************
1676:Generated_Source\PSoC4/CapSense_1.c **** * Function Name: CapSense_1_SetShieldDelay
1677:Generated_Source\PSoC4/CapSense_1.c **** ********************************************************************************
1678:Generated_Source\PSoC4/CapSense_1.c **** *
1679:Generated_Source\PSoC4/CapSense_1.c **** * Summary:
1680:Generated_Source\PSoC4/CapSense_1.c **** *  This API sets a shield delay.
1681:Generated_Source\PSoC4/CapSense_1.c **** *
1682:Generated_Source\PSoC4/CapSense_1.c **** * Parameters:
1683:Generated_Source\PSoC4/CapSense_1.c **** *  delay:  shield delay value:
1684:Generated_Source\PSoC4/CapSense_1.c **** *                               0 - no delay
1685:Generated_Source\PSoC4/CapSense_1.c **** *                               1 - 1 cycle delay
1686:Generated_Source\PSoC4/CapSense_1.c **** *                               2 - 2 cycles delay
1687:Generated_Source\PSoC4/CapSense_1.c **** *
1688:Generated_Source\PSoC4/CapSense_1.c **** * Return:
1689:Generated_Source\PSoC4/CapSense_1.c **** *  None
1690:Generated_Source\PSoC4/CapSense_1.c **** *
1691:Generated_Source\PSoC4/CapSense_1.c **** * Global Variables:
1692:Generated_Source\PSoC4/CapSense_1.c **** *  None
1693:Generated_Source\PSoC4/CapSense_1.c **** *
1694:Generated_Source\PSoC4/CapSense_1.c **** * Side Effects:
1695:Generated_Source\PSoC4/CapSense_1.c **** *  None
1696:Generated_Source\PSoC4/CapSense_1.c **** *
1697:Generated_Source\PSoC4/CapSense_1.c **** *******************************************************************************/
1698:Generated_Source\PSoC4/CapSense_1.c **** void CapSense_1_SetShieldDelay(uint32 delay)
1699:Generated_Source\PSoC4/CapSense_1.c **** {
 1808              		.loc 1 1699 0
 1809              		.cfi_startproc
 1810 0000 80B5     		push	{r7, lr}
 1811              		.cfi_def_cfa_offset 8
 1812              		.cfi_offset 7, -8
 1813              		.cfi_offset 14, -4
 1814 0002 84B0     		sub	sp, sp, #16
 1815              		.cfi_def_cfa_offset 24
 1816 0004 00AF     		add	r7, sp, #0
 1817              		.cfi_def_cfa_register 7
 1818 0006 7860     		str	r0, [r7, #4]
1700:Generated_Source\PSoC4/CapSense_1.c ****     uint32 newRegValue;
1701:Generated_Source\PSoC4/CapSense_1.c **** 
1702:Generated_Source\PSoC4/CapSense_1.c ****     delay &= 0x03u;
 1819              		.loc 1 1702 0
 1820 0008 7B68     		ldr	r3, [r7, #4]
 1821 000a 0322     		mov	r2, #3
 1822 000c 1340     		and	r3, r2
ARM GAS  C:\Users\glenn\AppData\Local\Temp\cc8ystec.s 			page 63


 1823 000e 7B60     		str	r3, [r7, #4]
1703:Generated_Source\PSoC4/CapSense_1.c **** 
1704:Generated_Source\PSoC4/CapSense_1.c ****     newRegValue = CapSense_1_CSD_CFG_REG;
 1824              		.loc 1 1704 0
 1825 0010 064B     		ldr	r3, .L79
 1826 0012 1B68     		ldr	r3, [r3]
 1827 0014 FB60     		str	r3, [r7, #12]
1705:Generated_Source\PSoC4/CapSense_1.c ****     newRegValue &= (uint32)(~(uint32)CapSense_1_SHIELD_DELAY);
1706:Generated_Source\PSoC4/CapSense_1.c ****     newRegValue |= (delay << CapSense_1_CSD_CFG_SHIELD_DELAY_POS);
 1828              		.loc 1 1706 0
 1829 0016 7B68     		ldr	r3, [r7, #4]
 1830 0018 5B02     		lsl	r3, r3, #9
 1831 001a FA68     		ldr	r2, [r7, #12]
 1832 001c 1343     		orr	r3, r2
 1833 001e FB60     		str	r3, [r7, #12]
1707:Generated_Source\PSoC4/CapSense_1.c ****     CapSense_1_CSD_CFG_REG = newRegValue;
 1834              		.loc 1 1707 0
 1835 0020 024B     		ldr	r3, .L79
 1836 0022 FA68     		ldr	r2, [r7, #12]
 1837 0024 1A60     		str	r2, [r3]
1708:Generated_Source\PSoC4/CapSense_1.c **** }
 1838              		.loc 1 1708 0
 1839 0026 BD46     		mov	sp, r7
 1840 0028 04B0     		add	sp, sp, #16
 1841              		@ sp needed
 1842 002a 80BD     		pop	{r7, pc}
 1843              	.L80:
 1844              		.align	2
 1845              	.L79:
 1846 002c 04002840 		.word	1076363268
 1847              		.cfi_endproc
 1848              	.LFE56:
 1849              		.size	CapSense_1_SetShieldDelay, .-CapSense_1_SetShieldDelay
 1850              		.section	.text.CapSense_1_ReadCurrentScanningSensor,"ax",%progbits
 1851              		.align	2
 1852              		.global	CapSense_1_ReadCurrentScanningSensor
 1853              		.code	16
 1854              		.thumb_func
 1855              		.type	CapSense_1_ReadCurrentScanningSensor, %function
 1856              	CapSense_1_ReadCurrentScanningSensor:
 1857              	.LFB57:
1709:Generated_Source\PSoC4/CapSense_1.c **** 
1710:Generated_Source\PSoC4/CapSense_1.c **** 
1711:Generated_Source\PSoC4/CapSense_1.c **** /*******************************************************************************
1712:Generated_Source\PSoC4/CapSense_1.c **** * Function Name: CapSense_1_ReadCurrentScanningSensor
1713:Generated_Source\PSoC4/CapSense_1.c **** ********************************************************************************
1714:Generated_Source\PSoC4/CapSense_1.c **** *
1715:Generated_Source\PSoC4/CapSense_1.c **** * Summary:
1716:Generated_Source\PSoC4/CapSense_1.c **** *  This API returns scanning sensor number when sensor scan is in progress.
1717:Generated_Source\PSoC4/CapSense_1.c **** *  When sensor scan is completed the API returns
1718:Generated_Source\PSoC4/CapSense_1.c **** *  $INSTANCE_NAME`_NOT_SENSOR (0xFFFFFFFF) (when no sensor is scanned).
1719:Generated_Source\PSoC4/CapSense_1.c **** *
1720:Generated_Source\PSoC4/CapSense_1.c **** * Parameters:
1721:Generated_Source\PSoC4/CapSense_1.c **** *   None.
1722:Generated_Source\PSoC4/CapSense_1.c **** *
1723:Generated_Source\PSoC4/CapSense_1.c **** * Return:
1724:Generated_Source\PSoC4/CapSense_1.c **** *  Returns Sensor number if sensor is being scanned and
ARM GAS  C:\Users\glenn\AppData\Local\Temp\cc8ystec.s 			page 64


1725:Generated_Source\PSoC4/CapSense_1.c **** *  $INSTANCE_NAME`_NOT_SENSOR (0xFFFFFFFF) if scanning is complete.
1726:Generated_Source\PSoC4/CapSense_1.c **** *
1727:Generated_Source\PSoC4/CapSense_1.c **** * Global Variables:
1728:Generated_Source\PSoC4/CapSense_1.c **** *  CapSense_1_sensorIndex - the sensor number is being scanned.
1729:Generated_Source\PSoC4/CapSense_1.c **** *
1730:Generated_Source\PSoC4/CapSense_1.c **** * Side Effects:
1731:Generated_Source\PSoC4/CapSense_1.c **** *  None
1732:Generated_Source\PSoC4/CapSense_1.c **** *
1733:Generated_Source\PSoC4/CapSense_1.c **** *******************************************************************************/
1734:Generated_Source\PSoC4/CapSense_1.c **** uint32 CapSense_1_ReadCurrentScanningSensor(void)
1735:Generated_Source\PSoC4/CapSense_1.c **** {
 1858              		.loc 1 1735 0
 1859              		.cfi_startproc
 1860 0000 80B5     		push	{r7, lr}
 1861              		.cfi_def_cfa_offset 8
 1862              		.cfi_offset 7, -8
 1863              		.cfi_offset 14, -4
 1864 0002 00AF     		add	r7, sp, #0
 1865              		.cfi_def_cfa_register 7
1736:Generated_Source\PSoC4/CapSense_1.c ****     return ((uint32)(( 0u != (CapSense_1_csdStatusVar & CapSense_1_SW_STS_BUSY)) ?
 1866              		.loc 1 1736 0
 1867 0004 074B     		ldr	r3, .L85
 1868 0006 1B78     		ldrb	r3, [r3]
 1869 0008 DBB2     		uxtb	r3, r3
 1870 000a 1A1C     		mov	r2, r3
 1871 000c 0123     		mov	r3, #1
 1872 000e 1340     		and	r3, r2
 1873 0010 03D0     		beq	.L82
 1874              		.loc 1 1736 0 is_stmt 0 discriminator 1
 1875 0012 054B     		ldr	r3, .L85+4
 1876 0014 1B78     		ldrb	r3, [r3]
 1877 0016 DBB2     		uxtb	r3, r3
 1878 0018 01E0     		b	.L83
 1879              	.L82:
 1880              		.loc 1 1736 0 discriminator 2
 1881 001a 0123     		mov	r3, #1
 1882 001c 5B42     		neg	r3, r3
 1883              	.L83:
1737:Generated_Source\PSoC4/CapSense_1.c ****                      CapSense_1_sensorIndex : CapSense_1_NOT_SENSOR));
1738:Generated_Source\PSoC4/CapSense_1.c **** }
 1884              		.loc 1 1738 0 is_stmt 1 discriminator 4
 1885 001e 181C     		mov	r0, r3
 1886 0020 BD46     		mov	sp, r7
 1887              		@ sp needed
 1888 0022 80BD     		pop	{r7, pc}
 1889              	.L86:
 1890              		.align	2
 1891              	.L85:
 1892 0024 00000000 		.word	CapSense_1_csdStatusVar
 1893 0028 00000000 		.word	CapSense_1_sensorIndex
 1894              		.cfi_endproc
 1895              	.LFE57:
 1896              		.size	CapSense_1_ReadCurrentScanningSensor, .-CapSense_1_ReadCurrentScanningSensor
 1897              		.section	.text.CapSense_1_GetBitValue,"ax",%progbits
 1898              		.align	2
 1899              		.global	CapSense_1_GetBitValue
 1900              		.code	16
ARM GAS  C:\Users\glenn\AppData\Local\Temp\cc8ystec.s 			page 65


 1901              		.thumb_func
 1902              		.type	CapSense_1_GetBitValue, %function
 1903              	CapSense_1_GetBitValue:
 1904              	.LFB58:
1739:Generated_Source\PSoC4/CapSense_1.c **** 
1740:Generated_Source\PSoC4/CapSense_1.c **** 
1741:Generated_Source\PSoC4/CapSense_1.c **** /*******************************************************************************
1742:Generated_Source\PSoC4/CapSense_1.c **** * Function Name: CapSense_1_GetBitValue
1743:Generated_Source\PSoC4/CapSense_1.c **** ********************************************************************************
1744:Generated_Source\PSoC4/CapSense_1.c **** *
1745:Generated_Source\PSoC4/CapSense_1.c **** * Summary:
1746:Generated_Source\PSoC4/CapSense_1.c **** *  The API returns a bit status of the bit in the table array which contains the masks.
1747:Generated_Source\PSoC4/CapSense_1.c **** *
1748:Generated_Source\PSoC4/CapSense_1.c **** * Parameters:
1749:Generated_Source\PSoC4/CapSense_1.c **** *  table[] - array with bit masks.
1750:Generated_Source\PSoC4/CapSense_1.c **** *  position - position of bit in the table[] array.
1751:Generated_Source\PSoC4/CapSense_1.c **** *
1752:Generated_Source\PSoC4/CapSense_1.c **** * Return:
1753:Generated_Source\PSoC4/CapSense_1.c **** *  0 - bit is not set; 1 - bit is set.
1754:Generated_Source\PSoC4/CapSense_1.c **** *
1755:Generated_Source\PSoC4/CapSense_1.c **** * Global Variables:
1756:Generated_Source\PSoC4/CapSense_1.c **** *  None
1757:Generated_Source\PSoC4/CapSense_1.c **** *
1758:Generated_Source\PSoC4/CapSense_1.c **** * Side Effects:
1759:Generated_Source\PSoC4/CapSense_1.c **** *  None
1760:Generated_Source\PSoC4/CapSense_1.c **** *
1761:Generated_Source\PSoC4/CapSense_1.c **** *******************************************************************************/
1762:Generated_Source\PSoC4/CapSense_1.c **** uint32 CapSense_1_GetBitValue(const uint8 table[], uint32 position)
1763:Generated_Source\PSoC4/CapSense_1.c **** {
 1905              		.loc 1 1763 0
 1906              		.cfi_startproc
 1907 0000 80B5     		push	{r7, lr}
 1908              		.cfi_def_cfa_offset 8
 1909              		.cfi_offset 7, -8
 1910              		.cfi_offset 14, -4
 1911 0002 84B0     		sub	sp, sp, #16
 1912              		.cfi_def_cfa_offset 24
 1913 0004 00AF     		add	r7, sp, #0
 1914              		.cfi_def_cfa_register 7
 1915 0006 7860     		str	r0, [r7, #4]
 1916 0008 3960     		str	r1, [r7]
1764:Generated_Source\PSoC4/CapSense_1.c ****     uint32 offset;
1765:Generated_Source\PSoC4/CapSense_1.c ****     uint8 enMask;
1766:Generated_Source\PSoC4/CapSense_1.c **** 
1767:Generated_Source\PSoC4/CapSense_1.c ****     /* position is divided by 8 to calculate the element of the
1768:Generated_Source\PSoC4/CapSense_1.c ****        table[] array that contains the enable bit
1769:Generated_Source\PSoC4/CapSense_1.c ****        for an appropriate sensor.
1770:Generated_Source\PSoC4/CapSense_1.c ****     */
1771:Generated_Source\PSoC4/CapSense_1.c ****     offset = (position >> 3u);
 1917              		.loc 1 1771 0
 1918 000a 3B68     		ldr	r3, [r7]
 1919 000c DB08     		lsr	r3, r3, #3
 1920 000e FB60     		str	r3, [r7, #12]
1772:Generated_Source\PSoC4/CapSense_1.c **** 
1773:Generated_Source\PSoC4/CapSense_1.c ****     /* The enMask calculation for the appropriate sensor. Operation (position & 0x07u)
1774:Generated_Source\PSoC4/CapSense_1.c ****        intends to calculate the enable bit offset for the 8-bit element of the
1775:Generated_Source\PSoC4/CapSense_1.c ****        table[] array.
ARM GAS  C:\Users\glenn\AppData\Local\Temp\cc8ystec.s 			page 66


1776:Generated_Source\PSoC4/CapSense_1.c ****     */
1777:Generated_Source\PSoC4/CapSense_1.c ****     enMask = 0x01u << (position & 0x07u);
 1921              		.loc 1 1777 0
 1922 0010 3B68     		ldr	r3, [r7]
 1923 0012 0722     		mov	r2, #7
 1924 0014 1340     		and	r3, r2
 1925 0016 0122     		mov	r2, #1
 1926 0018 9A40     		lsl	r2, r2, r3
 1927 001a 0B23     		mov	r3, #11
 1928 001c FB18     		add	r3, r7, r3
 1929 001e 1A70     		strb	r2, [r3]
1778:Generated_Source\PSoC4/CapSense_1.c **** 
1779:Generated_Source\PSoC4/CapSense_1.c ****     return ((0u !=(table[offset] & enMask)) ? 1Lu : 0Lu);
 1930              		.loc 1 1779 0
 1931 0020 7A68     		ldr	r2, [r7, #4]
 1932 0022 FB68     		ldr	r3, [r7, #12]
 1933 0024 D318     		add	r3, r2, r3
 1934 0026 1B78     		ldrb	r3, [r3]
 1935 0028 0B22     		mov	r2, #11
 1936 002a BA18     		add	r2, r7, r2
 1937 002c 1278     		ldrb	r2, [r2]
 1938 002e 1340     		and	r3, r2
 1939 0030 DBB2     		uxtb	r3, r3
 1940 0032 002B     		cmp	r3, #0
 1941 0034 01D0     		beq	.L88
 1942              		.loc 1 1779 0 is_stmt 0 discriminator 1
 1943 0036 0123     		mov	r3, #1
 1944 0038 00E0     		b	.L89
 1945              	.L88:
 1946              		.loc 1 1779 0 discriminator 2
 1947 003a 0023     		mov	r3, #0
 1948              	.L89:
1780:Generated_Source\PSoC4/CapSense_1.c **** }
 1949              		.loc 1 1780 0 is_stmt 1 discriminator 4
 1950 003c 181C     		mov	r0, r3
 1951 003e BD46     		mov	sp, r7
 1952 0040 04B0     		add	sp, sp, #16
 1953              		@ sp needed
 1954 0042 80BD     		pop	{r7, pc}
 1955              		.cfi_endproc
 1956              	.LFE58:
 1957              		.size	CapSense_1_GetBitValue, .-CapSense_1_GetBitValue
 1958              		.section	.text.CapSense_1_SetBitValue,"ax",%progbits
 1959              		.align	2
 1960              		.global	CapSense_1_SetBitValue
 1961              		.code	16
 1962              		.thumb_func
 1963              		.type	CapSense_1_SetBitValue, %function
 1964              	CapSense_1_SetBitValue:
 1965              	.LFB59:
1781:Generated_Source\PSoC4/CapSense_1.c **** 
1782:Generated_Source\PSoC4/CapSense_1.c **** 
1783:Generated_Source\PSoC4/CapSense_1.c **** /*******************************************************************************
1784:Generated_Source\PSoC4/CapSense_1.c **** * Function Name: CapSense_1_SetBitValue
1785:Generated_Source\PSoC4/CapSense_1.c **** ********************************************************************************
1786:Generated_Source\PSoC4/CapSense_1.c **** *
1787:Generated_Source\PSoC4/CapSense_1.c **** * Summary:
ARM GAS  C:\Users\glenn\AppData\Local\Temp\cc8ystec.s 			page 67


1788:Generated_Source\PSoC4/CapSense_1.c **** *  The API sets a bit status of the bit in the table array which contains masks.
1789:Generated_Source\PSoC4/CapSense_1.c **** *
1790:Generated_Source\PSoC4/CapSense_1.c **** * Parameters:
1791:Generated_Source\PSoC4/CapSense_1.c **** *  table[] - array with bit masks.
1792:Generated_Source\PSoC4/CapSense_1.c **** *  position - position of bit in the table[] array.
1793:Generated_Source\PSoC4/CapSense_1.c **** *  value: 0 - bit is not set; 1 - bit is set.
1794:Generated_Source\PSoC4/CapSense_1.c **** *
1795:Generated_Source\PSoC4/CapSense_1.c **** * Return:
1796:Generated_Source\PSoC4/CapSense_1.c **** *  None
1797:Generated_Source\PSoC4/CapSense_1.c **** *
1798:Generated_Source\PSoC4/CapSense_1.c **** * Global Variables:
1799:Generated_Source\PSoC4/CapSense_1.c **** *  None
1800:Generated_Source\PSoC4/CapSense_1.c **** *
1801:Generated_Source\PSoC4/CapSense_1.c **** * Side Effects:
1802:Generated_Source\PSoC4/CapSense_1.c **** *  None
1803:Generated_Source\PSoC4/CapSense_1.c **** *
1804:Generated_Source\PSoC4/CapSense_1.c **** *******************************************************************************/
1805:Generated_Source\PSoC4/CapSense_1.c **** void CapSense_1_SetBitValue(uint8 table[], uint32 position, uint32 value)
1806:Generated_Source\PSoC4/CapSense_1.c **** {
 1966              		.loc 1 1806 0
 1967              		.cfi_startproc
 1968 0000 80B5     		push	{r7, lr}
 1969              		.cfi_def_cfa_offset 8
 1970              		.cfi_offset 7, -8
 1971              		.cfi_offset 14, -4
 1972 0002 86B0     		sub	sp, sp, #24
 1973              		.cfi_def_cfa_offset 32
 1974 0004 00AF     		add	r7, sp, #0
 1975              		.cfi_def_cfa_register 7
 1976 0006 F860     		str	r0, [r7, #12]
 1977 0008 B960     		str	r1, [r7, #8]
 1978 000a 7A60     		str	r2, [r7, #4]
1807:Generated_Source\PSoC4/CapSense_1.c ****     uint32 offset;
1808:Generated_Source\PSoC4/CapSense_1.c ****     uint8 enMask;
1809:Generated_Source\PSoC4/CapSense_1.c **** 
1810:Generated_Source\PSoC4/CapSense_1.c ****     /* position is divided by 8 to calculate the element of the
1811:Generated_Source\PSoC4/CapSense_1.c ****        table[] array that contains the enable bit
1812:Generated_Source\PSoC4/CapSense_1.c ****        for an appropriate sensor.
1813:Generated_Source\PSoC4/CapSense_1.c ****     */
1814:Generated_Source\PSoC4/CapSense_1.c ****     offset = (position >> 3u);
 1979              		.loc 1 1814 0
 1980 000c BB68     		ldr	r3, [r7, #8]
 1981 000e DB08     		lsr	r3, r3, #3
 1982 0010 7B61     		str	r3, [r7, #20]
1815:Generated_Source\PSoC4/CapSense_1.c **** 
1816:Generated_Source\PSoC4/CapSense_1.c ****     /* The enMask calculation for the appropriate sensor. Operation (position & 0x07u)
1817:Generated_Source\PSoC4/CapSense_1.c ****        intends to calculate the enable bit offset for the 8-bit element of the
1818:Generated_Source\PSoC4/CapSense_1.c ****        table[] array.
1819:Generated_Source\PSoC4/CapSense_1.c ****     */
1820:Generated_Source\PSoC4/CapSense_1.c ****     enMask = 0x01u << (position & 0x07u);
 1983              		.loc 1 1820 0
 1984 0012 BB68     		ldr	r3, [r7, #8]
 1985 0014 0722     		mov	r2, #7
 1986 0016 1340     		and	r3, r2
 1987 0018 0122     		mov	r2, #1
 1988 001a 9A40     		lsl	r2, r2, r3
 1989 001c 1323     		mov	r3, #19
ARM GAS  C:\Users\glenn\AppData\Local\Temp\cc8ystec.s 			page 68


 1990 001e FB18     		add	r3, r7, r3
 1991 0020 1A70     		strb	r2, [r3]
1821:Generated_Source\PSoC4/CapSense_1.c **** 
1822:Generated_Source\PSoC4/CapSense_1.c ****     if(0u != value)
 1992              		.loc 1 1822 0
 1993 0022 7B68     		ldr	r3, [r7, #4]
 1994 0024 002B     		cmp	r3, #0
 1995 0026 0DD0     		beq	.L92
1823:Generated_Source\PSoC4/CapSense_1.c ****     {
1824:Generated_Source\PSoC4/CapSense_1.c ****         table[offset] |= enMask;
 1996              		.loc 1 1824 0
 1997 0028 FA68     		ldr	r2, [r7, #12]
 1998 002a 7B69     		ldr	r3, [r7, #20]
 1999 002c D318     		add	r3, r2, r3
 2000 002e F968     		ldr	r1, [r7, #12]
 2001 0030 7A69     		ldr	r2, [r7, #20]
 2002 0032 8A18     		add	r2, r1, r2
 2003 0034 1178     		ldrb	r1, [r2]
 2004 0036 1322     		mov	r2, #19
 2005 0038 BA18     		add	r2, r7, r2
 2006 003a 1278     		ldrb	r2, [r2]
 2007 003c 0A43     		orr	r2, r1
 2008 003e D2B2     		uxtb	r2, r2
 2009 0040 1A70     		strb	r2, [r3]
 2010 0042 0EE0     		b	.L91
 2011              	.L92:
1825:Generated_Source\PSoC4/CapSense_1.c ****     }
1826:Generated_Source\PSoC4/CapSense_1.c ****     else
1827:Generated_Source\PSoC4/CapSense_1.c ****     {
1828:Generated_Source\PSoC4/CapSense_1.c ****         table[offset] &= (uint8)~(enMask);
 2012              		.loc 1 1828 0
 2013 0044 FA68     		ldr	r2, [r7, #12]
 2014 0046 7B69     		ldr	r3, [r7, #20]
 2015 0048 D318     		add	r3, r2, r3
 2016 004a F968     		ldr	r1, [r7, #12]
 2017 004c 7A69     		ldr	r2, [r7, #20]
 2018 004e 8A18     		add	r2, r1, r2
 2019 0050 1278     		ldrb	r2, [r2]
 2020 0052 1321     		mov	r1, #19
 2021 0054 7918     		add	r1, r7, r1
 2022 0056 0978     		ldrb	r1, [r1]
 2023 0058 C943     		mvn	r1, r1
 2024 005a C9B2     		uxtb	r1, r1
 2025 005c 0A40     		and	r2, r1
 2026 005e D2B2     		uxtb	r2, r2
 2027 0060 1A70     		strb	r2, [r3]
 2028              	.L91:
1829:Generated_Source\PSoC4/CapSense_1.c ****     }
1830:Generated_Source\PSoC4/CapSense_1.c **** }
 2029              		.loc 1 1830 0
 2030 0062 BD46     		mov	sp, r7
 2031 0064 06B0     		add	sp, sp, #24
 2032              		@ sp needed
 2033 0066 80BD     		pop	{r7, pc}
 2034              		.cfi_endproc
 2035              	.LFE59:
 2036              		.size	CapSense_1_SetBitValue, .-CapSense_1_SetBitValue
ARM GAS  C:\Users\glenn\AppData\Local\Temp\cc8ystec.s 			page 69


 2037              		.section	.text.CapSense_1_GetSenseClkDivider,"ax",%progbits
 2038              		.align	2
 2039              		.global	CapSense_1_GetSenseClkDivider
 2040              		.code	16
 2041              		.thumb_func
 2042              		.type	CapSense_1_GetSenseClkDivider, %function
 2043              	CapSense_1_GetSenseClkDivider:
 2044              	.LFB60:
1831:Generated_Source\PSoC4/CapSense_1.c **** 
1832:Generated_Source\PSoC4/CapSense_1.c **** 
1833:Generated_Source\PSoC4/CapSense_1.c **** 
1834:Generated_Source\PSoC4/CapSense_1.c **** /*******************************************************************************
1835:Generated_Source\PSoC4/CapSense_1.c **** * Function Name: CapSense_1_GetSenseClkDivider
1836:Generated_Source\PSoC4/CapSense_1.c **** ********************************************************************************
1837:Generated_Source\PSoC4/CapSense_1.c **** *
1838:Generated_Source\PSoC4/CapSense_1.c **** * Summary:
1839:Generated_Source\PSoC4/CapSense_1.c **** *  This API returns a value of the sense clock divider for the  sensor.
1840:Generated_Source\PSoC4/CapSense_1.c **** *
1841:Generated_Source\PSoC4/CapSense_1.c **** * Parameters:
1842:Generated_Source\PSoC4/CapSense_1.c **** *  sensor: sensor index. The index value can be
1843:Generated_Source\PSoC4/CapSense_1.c **** *  from 0 to (CapSense_1_TOTAL_SENSOR_COUNT-1).
1844:Generated_Source\PSoC4/CapSense_1.c **** *
1845:Generated_Source\PSoC4/CapSense_1.c **** * Return:
1846:Generated_Source\PSoC4/CapSense_1.c **** *  This API returns the sense clock divider of the sensor.
1847:Generated_Source\PSoC4/CapSense_1.c **** *
1848:Generated_Source\PSoC4/CapSense_1.c **** * Global Variables:
1849:Generated_Source\PSoC4/CapSense_1.c **** *  CapSense_1_senseClkDividerVal[] - stores the sense clock divider values.
1850:Generated_Source\PSoC4/CapSense_1.c **** *
1851:Generated_Source\PSoC4/CapSense_1.c **** * Side Effects:
1852:Generated_Source\PSoC4/CapSense_1.c **** *  None
1853:Generated_Source\PSoC4/CapSense_1.c **** *
1854:Generated_Source\PSoC4/CapSense_1.c **** *******************************************************************************/
1855:Generated_Source\PSoC4/CapSense_1.c **** uint32 CapSense_1_GetSenseClkDivider(uint32 sensor)
1856:Generated_Source\PSoC4/CapSense_1.c **** {
 2045              		.loc 1 1856 0
 2046              		.cfi_startproc
 2047 0000 80B5     		push	{r7, lr}
 2048              		.cfi_def_cfa_offset 8
 2049              		.cfi_offset 7, -8
 2050              		.cfi_offset 14, -4
 2051 0002 82B0     		sub	sp, sp, #8
 2052              		.cfi_def_cfa_offset 16
 2053 0004 00AF     		add	r7, sp, #0
 2054              		.cfi_def_cfa_register 7
 2055 0006 7860     		str	r0, [r7, #4]
1857:Generated_Source\PSoC4/CapSense_1.c ****     #if(0u != CapSense_1_MULTIPLE_FREQUENCY_SET)
1858:Generated_Source\PSoC4/CapSense_1.c ****         return((uint32)CapSense_1_senseClkDividerVal[sensor]);
 2056              		.loc 1 1858 0
 2057 0008 034A     		ldr	r2, .L96
 2058 000a 7B68     		ldr	r3, [r7, #4]
 2059 000c D318     		add	r3, r2, r3
 2060 000e 1B78     		ldrb	r3, [r3]
1859:Generated_Source\PSoC4/CapSense_1.c ****     #else
1860:Generated_Source\PSoC4/CapSense_1.c ****         return((uint32)CapSense_1_senseClkDividerVal);
1861:Generated_Source\PSoC4/CapSense_1.c ****     #endif /* (0u != CapSense_1_MULTIPLE_FREQUENCY_SET) */
1862:Generated_Source\PSoC4/CapSense_1.c **** }
 2061              		.loc 1 1862 0
ARM GAS  C:\Users\glenn\AppData\Local\Temp\cc8ystec.s 			page 70


 2062 0010 181C     		mov	r0, r3
 2063 0012 BD46     		mov	sp, r7
 2064 0014 02B0     		add	sp, sp, #8
 2065              		@ sp needed
 2066 0016 80BD     		pop	{r7, pc}
 2067              	.L97:
 2068              		.align	2
 2069              	.L96:
 2070 0018 00000000 		.word	CapSense_1_senseClkDividerVal
 2071              		.cfi_endproc
 2072              	.LFE60:
 2073              		.size	CapSense_1_GetSenseClkDivider, .-CapSense_1_GetSenseClkDivider
 2074              		.section	.text.CapSense_1_GetModulatorClkDivider,"ax",%progbits
 2075              		.align	2
 2076              		.global	CapSense_1_GetModulatorClkDivider
 2077              		.code	16
 2078              		.thumb_func
 2079              		.type	CapSense_1_GetModulatorClkDivider, %function
 2080              	CapSense_1_GetModulatorClkDivider:
 2081              	.LFB61:
1863:Generated_Source\PSoC4/CapSense_1.c **** 
1864:Generated_Source\PSoC4/CapSense_1.c **** #if (CapSense_1_TUNING_METHOD != CapSense_1__TUNING_NONE)
1865:Generated_Source\PSoC4/CapSense_1.c ****     /*******************************************************************************
1866:Generated_Source\PSoC4/CapSense_1.c ****     * Function Name: CapSense_1_SetSenseClkDivider
1867:Generated_Source\PSoC4/CapSense_1.c ****     ********************************************************************************
1868:Generated_Source\PSoC4/CapSense_1.c ****     *
1869:Generated_Source\PSoC4/CapSense_1.c ****     * Summary:
1870:Generated_Source\PSoC4/CapSense_1.c ****     *  This API sets a value of the sense clock divider for the  sensor.
1871:Generated_Source\PSoC4/CapSense_1.c ****     *
1872:Generated_Source\PSoC4/CapSense_1.c ****     * Parameters:
1873:Generated_Source\PSoC4/CapSense_1.c ****     *  sensor:  Sensor index.
1874:Generated_Source\PSoC4/CapSense_1.c ****     *  senseClk: represents the sense clock value.
1875:Generated_Source\PSoC4/CapSense_1.c ****     *
1876:Generated_Source\PSoC4/CapSense_1.c ****     * Return:
1877:Generated_Source\PSoC4/CapSense_1.c ****     *  None.
1878:Generated_Source\PSoC4/CapSense_1.c ****     *
1879:Generated_Source\PSoC4/CapSense_1.c ****     * Global Variables:
1880:Generated_Source\PSoC4/CapSense_1.c ****     *  CapSense_1_senseClkDividerVal[] - stores the sense clock divider values.
1881:Generated_Source\PSoC4/CapSense_1.c ****     *
1882:Generated_Source\PSoC4/CapSense_1.c ****     * Side Effects:
1883:Generated_Source\PSoC4/CapSense_1.c ****     *  None
1884:Generated_Source\PSoC4/CapSense_1.c ****     *
1885:Generated_Source\PSoC4/CapSense_1.c ****     *******************************************************************************/
1886:Generated_Source\PSoC4/CapSense_1.c ****     void CapSense_1_SetSenseClkDivider(uint32 sensor, uint32 senseClk)
1887:Generated_Source\PSoC4/CapSense_1.c ****     {
1888:Generated_Source\PSoC4/CapSense_1.c ****         #if(0u != CapSense_1_MULTIPLE_FREQUENCY_SET)
1889:Generated_Source\PSoC4/CapSense_1.c ****             CapSense_1_senseClkDividerVal[sensor] = (uint8)senseClk;
1890:Generated_Source\PSoC4/CapSense_1.c ****         #else
1891:Generated_Source\PSoC4/CapSense_1.c ****             CapSense_1_senseClkDividerVal = (uint8)senseClk;
1892:Generated_Source\PSoC4/CapSense_1.c ****         #endif /* (0u != CapSense_1_MULTIPLE_FREQUENCY_SET) */
1893:Generated_Source\PSoC4/CapSense_1.c ****     }
1894:Generated_Source\PSoC4/CapSense_1.c **** #endif /* (CapSense_1_TUNING_METHOD != CapSense_1__TUNING_NONE) */
1895:Generated_Source\PSoC4/CapSense_1.c **** 
1896:Generated_Source\PSoC4/CapSense_1.c **** 
1897:Generated_Source\PSoC4/CapSense_1.c **** /*******************************************************************************
1898:Generated_Source\PSoC4/CapSense_1.c **** * Function Name: CapSense_1_GetModulatorClkDivider
1899:Generated_Source\PSoC4/CapSense_1.c **** ********************************************************************************
ARM GAS  C:\Users\glenn\AppData\Local\Temp\cc8ystec.s 			page 71


1900:Generated_Source\PSoC4/CapSense_1.c **** *
1901:Generated_Source\PSoC4/CapSense_1.c **** * Summary:
1902:Generated_Source\PSoC4/CapSense_1.c **** *  This API returns a value of the modulator sample clock divider for the  sensor.
1903:Generated_Source\PSoC4/CapSense_1.c **** *
1904:Generated_Source\PSoC4/CapSense_1.c **** * Parameters:
1905:Generated_Source\PSoC4/CapSense_1.c **** *  sensor: sensor index. The value of index can be
1906:Generated_Source\PSoC4/CapSense_1.c **** *  from 0 to (CapSense_1_TOTAL_SENSOR_COUNT-1).
1907:Generated_Source\PSoC4/CapSense_1.c **** *
1908:Generated_Source\PSoC4/CapSense_1.c **** * Return:
1909:Generated_Source\PSoC4/CapSense_1.c **** *  This API returns the modulator sample clock divider for the  sensor.
1910:Generated_Source\PSoC4/CapSense_1.c **** *
1911:Generated_Source\PSoC4/CapSense_1.c **** * Global Variables:
1912:Generated_Source\PSoC4/CapSense_1.c **** *  CapSense_1_sampleClkDividerVal[] - stores the modulator sample divider values.
1913:Generated_Source\PSoC4/CapSense_1.c **** *
1914:Generated_Source\PSoC4/CapSense_1.c **** * Side Effects:
1915:Generated_Source\PSoC4/CapSense_1.c **** *  None
1916:Generated_Source\PSoC4/CapSense_1.c **** *
1917:Generated_Source\PSoC4/CapSense_1.c **** *******************************************************************************/
1918:Generated_Source\PSoC4/CapSense_1.c **** uint32 CapSense_1_GetModulatorClkDivider(uint32 sensor)
1919:Generated_Source\PSoC4/CapSense_1.c **** {
 2082              		.loc 1 1919 0
 2083              		.cfi_startproc
 2084 0000 80B5     		push	{r7, lr}
 2085              		.cfi_def_cfa_offset 8
 2086              		.cfi_offset 7, -8
 2087              		.cfi_offset 14, -4
 2088 0002 82B0     		sub	sp, sp, #8
 2089              		.cfi_def_cfa_offset 16
 2090 0004 00AF     		add	r7, sp, #0
 2091              		.cfi_def_cfa_register 7
 2092 0006 7860     		str	r0, [r7, #4]
1920:Generated_Source\PSoC4/CapSense_1.c ****     #if(0u != CapSense_1_MULTIPLE_FREQUENCY_SET)
1921:Generated_Source\PSoC4/CapSense_1.c ****         return((uint32)CapSense_1_sampleClkDividerVal[sensor]);
 2093              		.loc 1 1921 0
 2094 0008 034A     		ldr	r2, .L100
 2095 000a 7B68     		ldr	r3, [r7, #4]
 2096 000c D318     		add	r3, r2, r3
 2097 000e 1B78     		ldrb	r3, [r3]
1922:Generated_Source\PSoC4/CapSense_1.c ****     #else
1923:Generated_Source\PSoC4/CapSense_1.c ****         return((uint32)CapSense_1_sampleClkDividerVal);
1924:Generated_Source\PSoC4/CapSense_1.c ****     #endif /* (0u != CapSense_1_MULTIPLE_FREQUENCY_SET) */
1925:Generated_Source\PSoC4/CapSense_1.c **** }
 2098              		.loc 1 1925 0
 2099 0010 181C     		mov	r0, r3
 2100 0012 BD46     		mov	sp, r7
 2101 0014 02B0     		add	sp, sp, #8
 2102              		@ sp needed
 2103 0016 80BD     		pop	{r7, pc}
 2104              	.L101:
 2105              		.align	2
 2106              	.L100:
 2107 0018 00000000 		.word	CapSense_1_sampleClkDividerVal
 2108              		.cfi_endproc
 2109              	.LFE61:
 2110              		.size	CapSense_1_GetModulatorClkDivider, .-CapSense_1_GetModulatorClkDivider
 2111              		.section	.text.CapSense_1_GetModulationIDAC,"ax",%progbits
 2112              		.align	2
ARM GAS  C:\Users\glenn\AppData\Local\Temp\cc8ystec.s 			page 72


 2113              		.global	CapSense_1_GetModulationIDAC
 2114              		.code	16
 2115              		.thumb_func
 2116              		.type	CapSense_1_GetModulationIDAC, %function
 2117              	CapSense_1_GetModulationIDAC:
 2118              	.LFB62:
1926:Generated_Source\PSoC4/CapSense_1.c **** 
1927:Generated_Source\PSoC4/CapSense_1.c **** #if (CapSense_1_TUNING_METHOD != CapSense_1__TUNING_NONE)
1928:Generated_Source\PSoC4/CapSense_1.c ****     /*******************************************************************************
1929:Generated_Source\PSoC4/CapSense_1.c ****     * Function Name: CapSense_1_SetModulatorClkDivider
1930:Generated_Source\PSoC4/CapSense_1.c ****     ********************************************************************************
1931:Generated_Source\PSoC4/CapSense_1.c ****     *
1932:Generated_Source\PSoC4/CapSense_1.c ****     * Summary:
1933:Generated_Source\PSoC4/CapSense_1.c ****     *  This API sets a value of the modulator sample clock divider for the  sensor.
1934:Generated_Source\PSoC4/CapSense_1.c ****     *
1935:Generated_Source\PSoC4/CapSense_1.c ****     * Parameters:
1936:Generated_Source\PSoC4/CapSense_1.c ****     *  sensor:  Sensor index.
1937:Generated_Source\PSoC4/CapSense_1.c ****     *  modulatorClk: represents the modulator sample clock value.
1938:Generated_Source\PSoC4/CapSense_1.c ****     *
1939:Generated_Source\PSoC4/CapSense_1.c ****     * Return:
1940:Generated_Source\PSoC4/CapSense_1.c ****     *  None.
1941:Generated_Source\PSoC4/CapSense_1.c ****     *
1942:Generated_Source\PSoC4/CapSense_1.c ****     * Global Variables:
1943:Generated_Source\PSoC4/CapSense_1.c ****     *  CapSense_1_sampleClkDividerVal[] - stores the modulator sample divider values.
1944:Generated_Source\PSoC4/CapSense_1.c ****     *
1945:Generated_Source\PSoC4/CapSense_1.c ****     * Side Effects:
1946:Generated_Source\PSoC4/CapSense_1.c ****     *  None
1947:Generated_Source\PSoC4/CapSense_1.c ****     *
1948:Generated_Source\PSoC4/CapSense_1.c ****     *******************************************************************************/
1949:Generated_Source\PSoC4/CapSense_1.c ****     void CapSense_1_SetModulatorClkDivider(uint32 sensor, uint32 modulatorClk)
1950:Generated_Source\PSoC4/CapSense_1.c ****     {
1951:Generated_Source\PSoC4/CapSense_1.c ****         #if(0u != CapSense_1_MULTIPLE_FREQUENCY_SET)
1952:Generated_Source\PSoC4/CapSense_1.c ****             CapSense_1_sampleClkDividerVal[sensor] = (uint8)modulatorClk;
1953:Generated_Source\PSoC4/CapSense_1.c ****         #else
1954:Generated_Source\PSoC4/CapSense_1.c ****             CapSense_1_sampleClkDividerVal = (uint8)modulatorClk;
1955:Generated_Source\PSoC4/CapSense_1.c ****         #endif /* (0u != CapSense_1_MULTIPLE_FREQUENCY_SET) */
1956:Generated_Source\PSoC4/CapSense_1.c ****     }
1957:Generated_Source\PSoC4/CapSense_1.c **** #endif /* (CapSense_1_TUNING_METHOD != CapSense_1__TUNING_NONE) */
1958:Generated_Source\PSoC4/CapSense_1.c **** 
1959:Generated_Source\PSoC4/CapSense_1.c **** /*******************************************************************************
1960:Generated_Source\PSoC4/CapSense_1.c **** * Function Name: CapSense_1_GetModulationIDAC
1961:Generated_Source\PSoC4/CapSense_1.c **** ********************************************************************************
1962:Generated_Source\PSoC4/CapSense_1.c **** *
1963:Generated_Source\PSoC4/CapSense_1.c **** * Summary:
1964:Generated_Source\PSoC4/CapSense_1.c **** *  This API returns a value of the modulation IDAC for the  sensor.
1965:Generated_Source\PSoC4/CapSense_1.c **** *
1966:Generated_Source\PSoC4/CapSense_1.c **** * Parameters:
1967:Generated_Source\PSoC4/CapSense_1.c **** *  sensor: sensor index. The index value can be
1968:Generated_Source\PSoC4/CapSense_1.c **** *  from 0 to (CapSense_1_TOTAL_SENSOR_COUNT-1).
1969:Generated_Source\PSoC4/CapSense_1.c **** *
1970:Generated_Source\PSoC4/CapSense_1.c **** * Return:
1971:Generated_Source\PSoC4/CapSense_1.c **** *  This API returns the modulation IDAC of the sensor.
1972:Generated_Source\PSoC4/CapSense_1.c **** *
1973:Generated_Source\PSoC4/CapSense_1.c **** * Global Variables:
1974:Generated_Source\PSoC4/CapSense_1.c **** *  CapSense_1_modulationIDAC[] - stores modulation IDAC values.
1975:Generated_Source\PSoC4/CapSense_1.c **** *
1976:Generated_Source\PSoC4/CapSense_1.c **** * Side Effects:
ARM GAS  C:\Users\glenn\AppData\Local\Temp\cc8ystec.s 			page 73


1977:Generated_Source\PSoC4/CapSense_1.c **** *  None
1978:Generated_Source\PSoC4/CapSense_1.c **** *
1979:Generated_Source\PSoC4/CapSense_1.c **** *******************************************************************************/
1980:Generated_Source\PSoC4/CapSense_1.c **** uint32 CapSense_1_GetModulationIDAC(uint32 sensor)
1981:Generated_Source\PSoC4/CapSense_1.c **** {
 2119              		.loc 1 1981 0
 2120              		.cfi_startproc
 2121 0000 80B5     		push	{r7, lr}
 2122              		.cfi_def_cfa_offset 8
 2123              		.cfi_offset 7, -8
 2124              		.cfi_offset 14, -4
 2125 0002 82B0     		sub	sp, sp, #8
 2126              		.cfi_def_cfa_offset 16
 2127 0004 00AF     		add	r7, sp, #0
 2128              		.cfi_def_cfa_register 7
 2129 0006 7860     		str	r0, [r7, #4]
1982:Generated_Source\PSoC4/CapSense_1.c ****         return((uint32)CapSense_1_modulationIDAC[sensor]);
 2130              		.loc 1 1982 0
 2131 0008 034A     		ldr	r2, .L104
 2132 000a 7B68     		ldr	r3, [r7, #4]
 2133 000c D318     		add	r3, r2, r3
 2134 000e 1B78     		ldrb	r3, [r3]
1983:Generated_Source\PSoC4/CapSense_1.c **** }
 2135              		.loc 1 1983 0
 2136 0010 181C     		mov	r0, r3
 2137 0012 BD46     		mov	sp, r7
 2138 0014 02B0     		add	sp, sp, #8
 2139              		@ sp needed
 2140 0016 80BD     		pop	{r7, pc}
 2141              	.L105:
 2142              		.align	2
 2143              	.L104:
 2144 0018 00000000 		.word	CapSense_1_modulationIDAC
 2145              		.cfi_endproc
 2146              	.LFE62:
 2147              		.size	CapSense_1_GetModulationIDAC, .-CapSense_1_GetModulationIDAC
 2148              		.section	.text.CapSense_1_GetCompensationIDAC,"ax",%progbits
 2149              		.align	2
 2150              		.global	CapSense_1_GetCompensationIDAC
 2151              		.code	16
 2152              		.thumb_func
 2153              		.type	CapSense_1_GetCompensationIDAC, %function
 2154              	CapSense_1_GetCompensationIDAC:
 2155              	.LFB63:
1984:Generated_Source\PSoC4/CapSense_1.c **** 
1985:Generated_Source\PSoC4/CapSense_1.c **** #if (CapSense_1_TUNING_METHOD != CapSense_1__TUNING_NONE)
1986:Generated_Source\PSoC4/CapSense_1.c ****     /*******************************************************************************
1987:Generated_Source\PSoC4/CapSense_1.c ****     * Function Name: CapSense_1_SetModulationIDAC
1988:Generated_Source\PSoC4/CapSense_1.c ****     ********************************************************************************
1989:Generated_Source\PSoC4/CapSense_1.c ****     *
1990:Generated_Source\PSoC4/CapSense_1.c ****     * Summary:
1991:Generated_Source\PSoC4/CapSense_1.c ****     *  This API sets a value of the modulation IDAC for the  sensor.
1992:Generated_Source\PSoC4/CapSense_1.c ****     *
1993:Generated_Source\PSoC4/CapSense_1.c ****     * Parameters:
1994:Generated_Source\PSoC4/CapSense_1.c ****     *  sensor:  Sensor index.
1995:Generated_Source\PSoC4/CapSense_1.c ****     *  compIdacValue: represents the modulation IDAC data register value.
1996:Generated_Source\PSoC4/CapSense_1.c ****     *
ARM GAS  C:\Users\glenn\AppData\Local\Temp\cc8ystec.s 			page 74


1997:Generated_Source\PSoC4/CapSense_1.c ****     * Return:
1998:Generated_Source\PSoC4/CapSense_1.c ****     *  None.
1999:Generated_Source\PSoC4/CapSense_1.c ****     *
2000:Generated_Source\PSoC4/CapSense_1.c ****     * Global Variables:
2001:Generated_Source\PSoC4/CapSense_1.c ****     *  CapSense_1_modulationIDAC[] - array with modulation IDAC values
2002:Generated_Source\PSoC4/CapSense_1.c ****     *
2003:Generated_Source\PSoC4/CapSense_1.c ****     * Side Effects:
2004:Generated_Source\PSoC4/CapSense_1.c ****     *  None
2005:Generated_Source\PSoC4/CapSense_1.c ****     *
2006:Generated_Source\PSoC4/CapSense_1.c ****     *******************************************************************************/
2007:Generated_Source\PSoC4/CapSense_1.c ****     void CapSense_1_SetModulationIDAC(uint32 sensor, uint32 modIdacValue)
2008:Generated_Source\PSoC4/CapSense_1.c ****     {
2009:Generated_Source\PSoC4/CapSense_1.c ****         CapSense_1_modulationIDAC[sensor] = (uint8)modIdacValue;
2010:Generated_Source\PSoC4/CapSense_1.c ****     }
2011:Generated_Source\PSoC4/CapSense_1.c **** #endif /* (CapSense_1_TUNING_METHOD != CapSense_1__TUNING_NONE) */
2012:Generated_Source\PSoC4/CapSense_1.c **** 
2013:Generated_Source\PSoC4/CapSense_1.c **** 
2014:Generated_Source\PSoC4/CapSense_1.c **** #if(CapSense_1_IDAC_CNT > 1u)
2015:Generated_Source\PSoC4/CapSense_1.c ****     /*******************************************************************************
2016:Generated_Source\PSoC4/CapSense_1.c ****     * Function Name: CapSense_1_GetCompensationIDAC
2017:Generated_Source\PSoC4/CapSense_1.c ****     ********************************************************************************
2018:Generated_Source\PSoC4/CapSense_1.c ****     *
2019:Generated_Source\PSoC4/CapSense_1.c ****     * Summary:
2020:Generated_Source\PSoC4/CapSense_1.c ****     *  This API returns a value of the compensation IDAC for the  sensor.
2021:Generated_Source\PSoC4/CapSense_1.c ****     *
2022:Generated_Source\PSoC4/CapSense_1.c ****     * Parameters:
