ARM GAS  C:\Users\glenn\AppData\Local\Temp\ccPcZrmN.s 			page 1


   1              		.cpu cortex-m0
   2              		.fpu softvfp
   3              		.eabi_attribute 20, 1
   4              		.eabi_attribute 21, 1
   5              		.eabi_attribute 23, 3
   6              		.eabi_attribute 24, 1
   7              		.eabi_attribute 25, 1
   8              		.eabi_attribute 26, 1
   9              		.eabi_attribute 30, 1
  10              		.eabi_attribute 34, 0
  11              		.eabi_attribute 18, 4
  12              		.code	16
  13              		.file	"CapSense_2.c"
  14              		.text
  15              	.Ltext0:
  16              		.cfi_sections	.debug_frame
  17              		.section	.text.CapSense_2_CsdHwBlockInit,"ax",%progbits
  18              		.align	2
  19              		.global	CapSense_2_CsdHwBlockInit
  20              		.code	16
  21              		.thumb_func
  22              		.type	CapSense_2_CsdHwBlockInit, %function
  23              	CapSense_2_CsdHwBlockInit:
  24              	.LFB36:
  25              		.file 1 ".\\Generated_Source\\PSoC4\\CapSense_2.c"
   1:.\Generated_Source\PSoC4/CapSense_2.c **** /*******************************************************************************
   2:.\Generated_Source\PSoC4/CapSense_2.c **** * File Name: CapSense_2.c
   3:.\Generated_Source\PSoC4/CapSense_2.c **** * Version 2.40
   4:.\Generated_Source\PSoC4/CapSense_2.c **** *
   5:.\Generated_Source\PSoC4/CapSense_2.c **** * Description:
   6:.\Generated_Source\PSoC4/CapSense_2.c **** *  This file provides the source code for scanning APIs for the CapSense CSD
   7:.\Generated_Source\PSoC4/CapSense_2.c **** *  component.
   8:.\Generated_Source\PSoC4/CapSense_2.c **** *
   9:.\Generated_Source\PSoC4/CapSense_2.c **** * Note:
  10:.\Generated_Source\PSoC4/CapSense_2.c **** *
  11:.\Generated_Source\PSoC4/CapSense_2.c **** ********************************************************************************
  12:.\Generated_Source\PSoC4/CapSense_2.c **** * Copyright 2013-2015, Cypress Semiconductor Corporation.  All rights reserved.
  13:.\Generated_Source\PSoC4/CapSense_2.c **** * You may use this file only in accordance with the license, terms, conditions,
  14:.\Generated_Source\PSoC4/CapSense_2.c **** * disclaimers, and limitations in the end user license agreement accompanying
  15:.\Generated_Source\PSoC4/CapSense_2.c **** * the software package with which this file was provided.
  16:.\Generated_Source\PSoC4/CapSense_2.c **** *******************************************************************************/
  17:.\Generated_Source\PSoC4/CapSense_2.c **** 
  18:.\Generated_Source\PSoC4/CapSense_2.c **** #include "CapSense_2.h"
  19:.\Generated_Source\PSoC4/CapSense_2.c **** #include "CapSense_2_PVT.h"
  20:.\Generated_Source\PSoC4/CapSense_2.c **** #include "cypins.h"
  21:.\Generated_Source\PSoC4/CapSense_2.c **** #include "cyapicallbacks.h"
  22:.\Generated_Source\PSoC4/CapSense_2.c **** 
  23:.\Generated_Source\PSoC4/CapSense_2.c **** #if(0u != CapSense_2_CSHL_API_GENERATE)
  24:.\Generated_Source\PSoC4/CapSense_2.c ****     #include "CapSense_2_CSHL.h"
  25:.\Generated_Source\PSoC4/CapSense_2.c **** #endif /* (0u != CapSense_2_CSHL_API_GENERATE) */
  26:.\Generated_Source\PSoC4/CapSense_2.c **** 
  27:.\Generated_Source\PSoC4/CapSense_2.c **** /* This definition is intended to prevent unexpected linker error.
  28:.\Generated_Source\PSoC4/CapSense_2.c ****    For more details please see the IAR Technical Note 49981 */
  29:.\Generated_Source\PSoC4/CapSense_2.c **** #if defined(__ICCARM__)
  30:.\Generated_Source\PSoC4/CapSense_2.c ****     extern void CapSense_2_EnableSensor(uint32 sensor);
  31:.\Generated_Source\PSoC4/CapSense_2.c ****     extern void CapSense_2_DisableSensor(uint32 sensor);
  32:.\Generated_Source\PSoC4/CapSense_2.c **** #endif /* (__ICCARM__) */
ARM GAS  C:\Users\glenn\AppData\Local\Temp\ccPcZrmN.s 			page 2


  33:.\Generated_Source\PSoC4/CapSense_2.c **** 
  34:.\Generated_Source\PSoC4/CapSense_2.c **** /* SmartSense functions */
  35:.\Generated_Source\PSoC4/CapSense_2.c **** #if (CapSense_2_TUNING_METHOD == CapSense_2__TUNING_AUTO)
  36:.\Generated_Source\PSoC4/CapSense_2.c ****     uint8 CapSense_2_lowLevelTuningDone = 0u;
  37:.\Generated_Source\PSoC4/CapSense_2.c ****     uint8 CapSense_2_scanSpeedTbl[((CapSense_2_TOTAL_SENSOR_COUNT - 1u) / 8u) + 1u];
  38:.\Generated_Source\PSoC4/CapSense_2.c **** #endif /* (CapSense_2_TUNING_METHOD == CapSense_2__TUNING_AUTO) */
  39:.\Generated_Source\PSoC4/CapSense_2.c **** 
  40:.\Generated_Source\PSoC4/CapSense_2.c **** #if(CapSense_2_PRS_OPTIONS != CapSense_2__PRS_NONE)
  41:.\Generated_Source\PSoC4/CapSense_2.c ****     uint8 CapSense_2_prescalersTuningDone = 0u;
  42:.\Generated_Source\PSoC4/CapSense_2.c **** #endif /* (CapSense_2_PRS_OPTIONS == CapSense_2__PRS_NONE) */
  43:.\Generated_Source\PSoC4/CapSense_2.c **** 
  44:.\Generated_Source\PSoC4/CapSense_2.c **** /* Global software variables */
  45:.\Generated_Source\PSoC4/CapSense_2.c **** volatile uint8 CapSense_2_csdStatusVar = 0u;   /* CapSense CSD status, variable */
  46:.\Generated_Source\PSoC4/CapSense_2.c **** volatile uint8 CapSense_2_sensorIndex = 0u;    /* Index of scannig sensor */
  47:.\Generated_Source\PSoC4/CapSense_2.c **** 
  48:.\Generated_Source\PSoC4/CapSense_2.c **** /* Global array of Raw Counts */
  49:.\Generated_Source\PSoC4/CapSense_2.c **** uint16 CapSense_2_sensorRaw[CapSense_2_TOTAL_SENSOR_COUNT] = {0u};
  50:.\Generated_Source\PSoC4/CapSense_2.c **** 
  51:.\Generated_Source\PSoC4/CapSense_2.c **** /* Backup variables for trim registers*/
  52:.\Generated_Source\PSoC4/CapSense_2.c **** #if (CapSense_2_IDAC1_POLARITY == CapSense_2__IDAC_SINK)
  53:.\Generated_Source\PSoC4/CapSense_2.c ****     uint8 CapSense_2_csdTrim2;
  54:.\Generated_Source\PSoC4/CapSense_2.c **** #else
  55:.\Generated_Source\PSoC4/CapSense_2.c ****     uint8 CapSense_2_csdTrim1;
  56:.\Generated_Source\PSoC4/CapSense_2.c **** #endif /* (CapSense_2_IDAC1_POLARITY == CapSense_2__IDAC_SINK) */
  57:.\Generated_Source\PSoC4/CapSense_2.c **** 
  58:.\Generated_Source\PSoC4/CapSense_2.c **** /* Global array of un-scanned sensors state */
  59:.\Generated_Source\PSoC4/CapSense_2.c **** uint8 CapSense_2_unscannedSnsDriveMode[CapSense_2_PORT_PIN_CONFIG_TBL_ZISE];
  60:.\Generated_Source\PSoC4/CapSense_2.c **** 
  61:.\Generated_Source\PSoC4/CapSense_2.c **** /* Backup array for CapSense_2_sensorEnableMask */
  62:.\Generated_Source\PSoC4/CapSense_2.c **** uint8 CapSense_2_sensorEnableMaskBackup[(((CapSense_2_TOTAL_SENSOR_COUNT - 1u) / 8u) + 1u)];
  63:.\Generated_Source\PSoC4/CapSense_2.c **** 
  64:.\Generated_Source\PSoC4/CapSense_2.c **** /* Configured constants and arrays by Customizer */
  65:.\Generated_Source\PSoC4/CapSense_2.c **** uint8 CapSense_2_sensorEnableMask[(((CapSense_2_TOTAL_SENSOR_COUNT - 1u) / 8u) + 1u)] = {
  66:.\Generated_Source\PSoC4/CapSense_2.c **** 0x1u, };
  67:.\Generated_Source\PSoC4/CapSense_2.c **** 
  68:.\Generated_Source\PSoC4/CapSense_2.c **** reg32 * CapSense_2_pcTable[] = {
  69:.\Generated_Source\PSoC4/CapSense_2.c ****     (reg32 *)CapSense_2_Sns__Generic0_0__GEN__PC, 
  70:.\Generated_Source\PSoC4/CapSense_2.c **** };
  71:.\Generated_Source\PSoC4/CapSense_2.c **** 
  72:.\Generated_Source\PSoC4/CapSense_2.c **** const uint8 CapSense_2_portTable[] = {
  73:.\Generated_Source\PSoC4/CapSense_2.c ****     CapSense_2_Sns__Generic0_0__GEN__PORT, 
  74:.\Generated_Source\PSoC4/CapSense_2.c **** };
  75:.\Generated_Source\PSoC4/CapSense_2.c **** 
  76:.\Generated_Source\PSoC4/CapSense_2.c **** const uint32 CapSense_2_maskTable[] = {
  77:.\Generated_Source\PSoC4/CapSense_2.c ****     CapSense_2_Sns__Generic0_0__GEN__MASK, 
  78:.\Generated_Source\PSoC4/CapSense_2.c **** };
  79:.\Generated_Source\PSoC4/CapSense_2.c **** 
  80:.\Generated_Source\PSoC4/CapSense_2.c **** const uint8 CapSense_2_pinShiftTbl[] = {
  81:.\Generated_Source\PSoC4/CapSense_2.c ****     (uint8) CapSense_2_Sns__Generic0_0__GEN__SHIFT, 
  82:.\Generated_Source\PSoC4/CapSense_2.c **** };
  83:.\Generated_Source\PSoC4/CapSense_2.c **** 
  84:.\Generated_Source\PSoC4/CapSense_2.c **** const uint8 CapSense_2_modulationIDAC[CapSense_2_TOTAL_SENSOR_COUNT] = {
  85:.\Generated_Source\PSoC4/CapSense_2.c ****     80u, 
  86:.\Generated_Source\PSoC4/CapSense_2.c **** };
  87:.\Generated_Source\PSoC4/CapSense_2.c **** const uint8 CapSense_2_compensationIDAC[CapSense_2_TOTAL_SENSOR_COUNT] = {
  88:.\Generated_Source\PSoC4/CapSense_2.c ****     80u, 
  89:.\Generated_Source\PSoC4/CapSense_2.c **** };
ARM GAS  C:\Users\glenn\AppData\Local\Temp\ccPcZrmN.s 			page 3


  90:.\Generated_Source\PSoC4/CapSense_2.c **** 
  91:.\Generated_Source\PSoC4/CapSense_2.c **** const uint32 CapSense_2_widgetResolution[CapSense_2_RESOLUTIONS_TBL_SIZE] = {
  92:.\Generated_Source\PSoC4/CapSense_2.c ****     CapSense_2_RESOLUTION_16_BITS,
  93:.\Generated_Source\PSoC4/CapSense_2.c **** };
  94:.\Generated_Source\PSoC4/CapSense_2.c **** 
  95:.\Generated_Source\PSoC4/CapSense_2.c **** const uint8 CapSense_2_senseClkDividerVal[CapSense_2_TOTAL_SCANSLOT_COUNT] = {
  96:.\Generated_Source\PSoC4/CapSense_2.c ****     2u, 
  97:.\Generated_Source\PSoC4/CapSense_2.c **** };
  98:.\Generated_Source\PSoC4/CapSense_2.c **** const uint8 CapSense_2_sampleClkDividerVal[CapSense_2_TOTAL_SCANSLOT_COUNT] = {
  99:.\Generated_Source\PSoC4/CapSense_2.c ****     2u, 
 100:.\Generated_Source\PSoC4/CapSense_2.c **** };
 101:.\Generated_Source\PSoC4/CapSense_2.c **** 
 102:.\Generated_Source\PSoC4/CapSense_2.c **** 
 103:.\Generated_Source\PSoC4/CapSense_2.c **** const uint8 CapSense_2_widgetNumber[CapSense_2_TOTAL_SENSOR_COUNT] = {
 104:.\Generated_Source\PSoC4/CapSense_2.c ****     0u, /* Generic0__GEN */
 105:.\Generated_Source\PSoC4/CapSense_2.c **** };
 106:.\Generated_Source\PSoC4/CapSense_2.c **** 
 107:.\Generated_Source\PSoC4/CapSense_2.c **** reg32* const CapSense_2_prtSelTbl[CapSense_2_CFG_REG_TBL_SIZE] = {
 108:.\Generated_Source\PSoC4/CapSense_2.c ****     ((reg32 *) CYREG_HSIOM_PORT_SEL0),
 109:.\Generated_Source\PSoC4/CapSense_2.c ****     ((reg32 *) CYREG_HSIOM_PORT_SEL1),
 110:.\Generated_Source\PSoC4/CapSense_2.c ****     ((reg32 *) CYREG_HSIOM_PORT_SEL2),
 111:.\Generated_Source\PSoC4/CapSense_2.c ****     ((reg32 *) CYREG_HSIOM_PORT_SEL3),
 112:.\Generated_Source\PSoC4/CapSense_2.c ****     ((reg32 *) CYREG_HSIOM_PORT_SEL4),
 113:.\Generated_Source\PSoC4/CapSense_2.c ****     ((reg32 *) CYREG_HSIOM_PORT_SEL5),
 114:.\Generated_Source\PSoC4/CapSense_2.c ****     ((reg32 *) CYREG_HSIOM_PORT_SEL6),
 115:.\Generated_Source\PSoC4/CapSense_2.c ****     ((reg32 *) CYREG_HSIOM_PORT_SEL7),
 116:.\Generated_Source\PSoC4/CapSense_2.c **** };
 117:.\Generated_Source\PSoC4/CapSense_2.c **** 
 118:.\Generated_Source\PSoC4/CapSense_2.c **** reg32* const CapSense_2_prtCfgTbl[CapSense_2_CFG_REG_TBL_SIZE] = {
 119:.\Generated_Source\PSoC4/CapSense_2.c ****     ((reg32 *) CYREG_GPIO_PRT0_PC),
 120:.\Generated_Source\PSoC4/CapSense_2.c ****     ((reg32 *) CYREG_GPIO_PRT1_PC),
 121:.\Generated_Source\PSoC4/CapSense_2.c ****     ((reg32 *) CYREG_GPIO_PRT2_PC),
 122:.\Generated_Source\PSoC4/CapSense_2.c ****     ((reg32 *) CYREG_GPIO_PRT3_PC),
 123:.\Generated_Source\PSoC4/CapSense_2.c ****     ((reg32 *) CYREG_GPIO_PRT4_PC),
 124:.\Generated_Source\PSoC4/CapSense_2.c ****     ((reg32 *) CYREG_GPIO_PRT5_PC),
 125:.\Generated_Source\PSoC4/CapSense_2.c ****     ((reg32 *) CYREG_GPIO_PRT6_PC),
 126:.\Generated_Source\PSoC4/CapSense_2.c ****     ((reg32 *) CYREG_GPIO_PRT7_PC),
 127:.\Generated_Source\PSoC4/CapSense_2.c **** };
 128:.\Generated_Source\PSoC4/CapSense_2.c **** 
 129:.\Generated_Source\PSoC4/CapSense_2.c **** reg32* const CapSense_2_prtDRTbl[CapSense_2_CFG_REG_TBL_SIZE] = {
 130:.\Generated_Source\PSoC4/CapSense_2.c ****     ((reg32 *) CYREG_GPIO_PRT0_DR),
 131:.\Generated_Source\PSoC4/CapSense_2.c ****     ((reg32 *) CYREG_GPIO_PRT1_DR),
 132:.\Generated_Source\PSoC4/CapSense_2.c ****     ((reg32 *) CYREG_GPIO_PRT2_DR),
 133:.\Generated_Source\PSoC4/CapSense_2.c ****     ((reg32 *) CYREG_GPIO_PRT3_DR),
 134:.\Generated_Source\PSoC4/CapSense_2.c ****     ((reg32 *) CYREG_GPIO_PRT4_DR),
 135:.\Generated_Source\PSoC4/CapSense_2.c ****     ((reg32 *) CYREG_GPIO_PRT5_DR),
 136:.\Generated_Source\PSoC4/CapSense_2.c ****     ((reg32 *) CYREG_GPIO_PRT6_DR),
 137:.\Generated_Source\PSoC4/CapSense_2.c ****     ((reg32 *) CYREG_GPIO_PRT7_DR),
 138:.\Generated_Source\PSoC4/CapSense_2.c **** };
 139:.\Generated_Source\PSoC4/CapSense_2.c **** 
 140:.\Generated_Source\PSoC4/CapSense_2.c **** 
 141:.\Generated_Source\PSoC4/CapSense_2.c **** 
 142:.\Generated_Source\PSoC4/CapSense_2.c **** /*******************************************************************************
 143:.\Generated_Source\PSoC4/CapSense_2.c **** * Function Name: CapSense_2_Init
 144:.\Generated_Source\PSoC4/CapSense_2.c **** ********************************************************************************
 145:.\Generated_Source\PSoC4/CapSense_2.c **** *
 146:.\Generated_Source\PSoC4/CapSense_2.c **** * Summary:
ARM GAS  C:\Users\glenn\AppData\Local\Temp\ccPcZrmN.s 			page 4


 147:.\Generated_Source\PSoC4/CapSense_2.c **** *  API initializes default CapSense configuration provided by the customizer that defines
 148:.\Generated_Source\PSoC4/CapSense_2.c **** *  the mode of component operations and resets all the sensors to an inactive state.
 149:.\Generated_Source\PSoC4/CapSense_2.c **** *
 150:.\Generated_Source\PSoC4/CapSense_2.c **** * Parameters:
 151:.\Generated_Source\PSoC4/CapSense_2.c **** *  None
 152:.\Generated_Source\PSoC4/CapSense_2.c **** *
 153:.\Generated_Source\PSoC4/CapSense_2.c **** * Return:
 154:.\Generated_Source\PSoC4/CapSense_2.c **** *  None
 155:.\Generated_Source\PSoC4/CapSense_2.c **** *
 156:.\Generated_Source\PSoC4/CapSense_2.c **** * Global Variables:
 157:.\Generated_Source\PSoC4/CapSense_2.c **** *  CapSense_2_immunityIndex - defines immunity level.
 158:.\Generated_Source\PSoC4/CapSense_2.c **** *
 159:.\Generated_Source\PSoC4/CapSense_2.c **** * Side Effects:
 160:.\Generated_Source\PSoC4/CapSense_2.c **** *  None
 161:.\Generated_Source\PSoC4/CapSense_2.c **** *
 162:.\Generated_Source\PSoC4/CapSense_2.c **** *******************************************************************************/
 163:.\Generated_Source\PSoC4/CapSense_2.c **** void CapSense_2_Init(void)
 164:.\Generated_Source\PSoC4/CapSense_2.c **** {
 165:.\Generated_Source\PSoC4/CapSense_2.c ****     uint32 curSensor;
 166:.\Generated_Source\PSoC4/CapSense_2.c **** 
 167:.\Generated_Source\PSoC4/CapSense_2.c ****     #if(CapSense_2_IS_SHIELD_ENABLE)
 168:.\Generated_Source\PSoC4/CapSense_2.c **** 
 169:.\Generated_Source\PSoC4/CapSense_2.c ****         #if((CapSense_2_CSH_TANK_PREGARGE_OPTION == CapSense_2__CAPPRIOBUF) || (0u != CapSense_2_CS
 170:.\Generated_Source\PSoC4/CapSense_2.c ****             uint32 newRegValue;
 171:.\Generated_Source\PSoC4/CapSense_2.c **** 
 172:.\Generated_Source\PSoC4/CapSense_2.c ****             newRegValue = CapSense_2_CTANK_CONNECTION_REG;
 173:.\Generated_Source\PSoC4/CapSense_2.c ****             newRegValue &= ~(CapSense_2_CSD_CTANK_CONNECTION_MASK);
 174:.\Generated_Source\PSoC4/CapSense_2.c ****             newRegValue |= CapSense_2_CSD_CTANK_TO_AMUXBUS_B;
 175:.\Generated_Source\PSoC4/CapSense_2.c ****             CapSense_2_CTANK_CONNECTION_REG = newRegValue;
 176:.\Generated_Source\PSoC4/CapSense_2.c **** 
 177:.\Generated_Source\PSoC4/CapSense_2.c ****             #if(CapSense_2_CSH_TANK_PREGARGE_OPTION == CapSense_2__CAPPRIOBUF)
 178:.\Generated_Source\PSoC4/CapSense_2.c ****                 newRegValue = CapSense_2_CTANK_PORT_PC_REG;
 179:.\Generated_Source\PSoC4/CapSense_2.c ****                 newRegValue &= ~(CapSense_2_CSD_CTANK_PC_MASK);
 180:.\Generated_Source\PSoC4/CapSense_2.c ****                 newRegValue |= CapSense_2_CTANK_PC_STRONG_MODE;
 181:.\Generated_Source\PSoC4/CapSense_2.c ****                 CapSense_2_CTANK_PORT_PC_REG = newRegValue;
 182:.\Generated_Source\PSoC4/CapSense_2.c **** 
 183:.\Generated_Source\PSoC4/CapSense_2.c ****                 newRegValue = CapSense_2_CTANK_PORT_DR_REG;
 184:.\Generated_Source\PSoC4/CapSense_2.c ****                 newRegValue &= ~(CapSense_2_CTANK_DR_MASK);
 185:.\Generated_Source\PSoC4/CapSense_2.c ****                 newRegValue |= CapSense_2_CTANK_DR_CONFIG;
 186:.\Generated_Source\PSoC4/CapSense_2.c ****                 CapSense_2_CTANK_PORT_DR_REG = newRegValue;
 187:.\Generated_Source\PSoC4/CapSense_2.c ****             #endif /* (CapSense_2_CSH_TANK_PREGARGE_OPTION == CapSense_2__CAPPRIOBUF) */
 188:.\Generated_Source\PSoC4/CapSense_2.c **** 
 189:.\Generated_Source\PSoC4/CapSense_2.c ****         #endif /* ((CapSense_2_CSH_TANK_PREGARGE_OPTION == CapSense_2__CAPPRIOBUF) || (CapSense_2_C
 190:.\Generated_Source\PSoC4/CapSense_2.c **** 
 191:.\Generated_Source\PSoC4/CapSense_2.c ****         CapSense_2_EnableShieldElectrode((uint32)CapSense_2_SHIELD_PIN_NUMBER, (uint32)CapSense_2_S
 192:.\Generated_Source\PSoC4/CapSense_2.c **** 
 193:.\Generated_Source\PSoC4/CapSense_2.c ****     #endif /* (CapSense_2_IS_SHIELD_ENABLE) */
 194:.\Generated_Source\PSoC4/CapSense_2.c **** 
 195:.\Generated_Source\PSoC4/CapSense_2.c ****     for(curSensor = 0u; curSensor < CapSense_2_TOTAL_SENSOR_COUNT; curSensor++)
 196:.\Generated_Source\PSoC4/CapSense_2.c ****     {
 197:.\Generated_Source\PSoC4/CapSense_2.c ****         CapSense_2_SetUnscannedSensorState(curSensor, CapSense_2_CONNECT_INACTIVE_SNS);
 198:.\Generated_Source\PSoC4/CapSense_2.c ****     }
 199:.\Generated_Source\PSoC4/CapSense_2.c **** 
 200:.\Generated_Source\PSoC4/CapSense_2.c ****     CapSense_2_CsdHwBlockInit();
 201:.\Generated_Source\PSoC4/CapSense_2.c ****     CapSense_2_SetShieldDelay(CapSense_2_SHIELD_DELAY );
 202:.\Generated_Source\PSoC4/CapSense_2.c **** 
 203:.\Generated_Source\PSoC4/CapSense_2.c ****     /* Clear all sensors */
ARM GAS  C:\Users\glenn\AppData\Local\Temp\ccPcZrmN.s 			page 5


 204:.\Generated_Source\PSoC4/CapSense_2.c ****     CapSense_2_ClearSensors();
 205:.\Generated_Source\PSoC4/CapSense_2.c **** }
 206:.\Generated_Source\PSoC4/CapSense_2.c **** 
 207:.\Generated_Source\PSoC4/CapSense_2.c **** /*******************************************************************************
 208:.\Generated_Source\PSoC4/CapSense_2.c **** * Function Name: CapSense_2_CsdHwBlockInit
 209:.\Generated_Source\PSoC4/CapSense_2.c **** ********************************************************************************
 210:.\Generated_Source\PSoC4/CapSense_2.c **** *
 211:.\Generated_Source\PSoC4/CapSense_2.c **** * Summary:
 212:.\Generated_Source\PSoC4/CapSense_2.c **** *  Initialises the hardware parameters of the CSD block
 213:.\Generated_Source\PSoC4/CapSense_2.c **** *
 214:.\Generated_Source\PSoC4/CapSense_2.c **** * Parameters:
 215:.\Generated_Source\PSoC4/CapSense_2.c **** *  None
 216:.\Generated_Source\PSoC4/CapSense_2.c **** *
 217:.\Generated_Source\PSoC4/CapSense_2.c **** * Return:
 218:.\Generated_Source\PSoC4/CapSense_2.c **** *  None
 219:.\Generated_Source\PSoC4/CapSense_2.c **** *
 220:.\Generated_Source\PSoC4/CapSense_2.c **** * Global Variables:
 221:.\Generated_Source\PSoC4/CapSense_2.c **** *  CapSense_2_csdTrim1 - Contains IDAC trim register value for Sourcing Mode.
 222:.\Generated_Source\PSoC4/CapSense_2.c **** *  CapSense_2_csdTrim2 - Contains IDAC trim register value for Sinking Mode.
 223:.\Generated_Source\PSoC4/CapSense_2.c **** *
 224:.\Generated_Source\PSoC4/CapSense_2.c **** * Side Effects:
 225:.\Generated_Source\PSoC4/CapSense_2.c **** *  None
 226:.\Generated_Source\PSoC4/CapSense_2.c **** *
 227:.\Generated_Source\PSoC4/CapSense_2.c **** *******************************************************************************/
 228:.\Generated_Source\PSoC4/CapSense_2.c **** void CapSense_2_CsdHwBlockInit(void)
 229:.\Generated_Source\PSoC4/CapSense_2.c **** {
  26              		.loc 1 229 0
  27              		.cfi_startproc
  28 0000 38B5     		push	{r3, r4, r5, lr}
  29              		.cfi_def_cfa_offset 16
  30              		.cfi_offset 3, -16
  31              		.cfi_offset 4, -12
  32              		.cfi_offset 5, -8
  33              		.cfi_offset 14, -4
 230:.\Generated_Source\PSoC4/CapSense_2.c ****     uint32 newRegValue;
 231:.\Generated_Source\PSoC4/CapSense_2.c **** 
 232:.\Generated_Source\PSoC4/CapSense_2.c ****         /* Set trim registers for CSD Mode */
 233:.\Generated_Source\PSoC4/CapSense_2.c ****     #if (CapSense_2_IDAC1_POLARITY == CapSense_2__IDAC_SINK)
 234:.\Generated_Source\PSoC4/CapSense_2.c ****         /* iDAC1 Sinking Mode */
 235:.\Generated_Source\PSoC4/CapSense_2.c ****         CapSense_2_csdTrim2 = (uint8)CapSense_2_CSD_TRIM2_REG;
 236:.\Generated_Source\PSoC4/CapSense_2.c ****         newRegValue = CapSense_2_csdTrim2;
 237:.\Generated_Source\PSoC4/CapSense_2.c ****         newRegValue &= CapSense_2_CSD_IDAC1_TRIM_MASK;
 238:.\Generated_Source\PSoC4/CapSense_2.c ****         newRegValue |= (uint32)((uint32)CapSense_2_SFLASH_CSD_TRIM2_REG & (uint32)CapSense_2_CSFLAS
 239:.\Generated_Source\PSoC4/CapSense_2.c **** 
 240:.\Generated_Source\PSoC4/CapSense_2.c ****         #if (CapSense_2_IDAC_CNT == 2u)
 241:.\Generated_Source\PSoC4/CapSense_2.c ****             /* iDAC2 Sinking Mode */
 242:.\Generated_Source\PSoC4/CapSense_2.c ****             newRegValue &= CapSense_2_CSD_IDAC2_TRIM_MASK;
 243:.\Generated_Source\PSoC4/CapSense_2.c ****             newRegValue |= (uint32)((uint32)CapSense_2_SFLASH_CSD_TRIM2_REG & (uint32)CapSense_2_CS
 244:.\Generated_Source\PSoC4/CapSense_2.c ****         #endif /* (CapSense_2_IDAC_CNT == 2u) */
 245:.\Generated_Source\PSoC4/CapSense_2.c ****         CapSense_2_CSD_TRIM2_REG = newRegValue;
 246:.\Generated_Source\PSoC4/CapSense_2.c ****     #else
 247:.\Generated_Source\PSoC4/CapSense_2.c ****         /* iDAC1 Sourcing Mode */
 248:.\Generated_Source\PSoC4/CapSense_2.c ****         CapSense_2_csdTrim1 = (uint8)CapSense_2_CSD_TRIM1_REG;
  34              		.loc 1 248 0
  35 0002 1748     		ldr	r0, .L2
  36 0004 0368     		ldr	r3, [r0]
  37 0006 DBB2     		uxtb	r3, r3
ARM GAS  C:\Users\glenn\AppData\Local\Temp\ccPcZrmN.s 			page 6


  38 0008 164A     		ldr	r2, .L2+4
  39 000a 1370     		strb	r3, [r2]
  40              	.LVL0:
 249:.\Generated_Source\PSoC4/CapSense_2.c ****         newRegValue = CapSense_2_csdTrim1;
 250:.\Generated_Source\PSoC4/CapSense_2.c ****         newRegValue &= CapSense_2_CSD_IDAC1_TRIM_MASK;
  41              		.loc 1 250 0
  42 000c 0F24     		mov	r4, #15
  43 000e A343     		bic	r3, r4
  44              	.LVL1:
  45 0010 191C     		mov	r1, r3
  46              	.LVL2:
 251:.\Generated_Source\PSoC4/CapSense_2.c ****         newRegValue |= (uint32)((uint32)CapSense_2_SFLASH_CSD_TRIM1_REG & (uint32)CapSense_2_CSFLAS
  47              		.loc 1 251 0
  48 0012 154D     		ldr	r5, .L2+8
  49 0014 2A78     		ldrb	r2, [r5]
  50 0016 0F23     		mov	r3, #15
  51 0018 1340     		and	r3, r2
  52 001a 0B43     		orr	r3, r1
  53              	.LVL3:
 252:.\Generated_Source\PSoC4/CapSense_2.c ****         #if (CapSense_2_IDAC_CNT == 2u)
 253:.\Generated_Source\PSoC4/CapSense_2.c ****              /* iDAC2 Sourcing Mode */
 254:.\Generated_Source\PSoC4/CapSense_2.c ****             newRegValue &= CapSense_2_CSD_IDAC2_TRIM_MASK;
  54              		.loc 1 254 0
  55 001c F022     		mov	r2, #240
  56 001e 9343     		bic	r3, r2
  57              	.LVL4:
  58 0020 1A1C     		mov	r2, r3
  59              	.LVL5:
 255:.\Generated_Source\PSoC4/CapSense_2.c ****             newRegValue |= (uint32)((uint32)CapSense_2_SFLASH_CSD_TRIM1_REG & (uint32)CapSense_2_CS
  60              		.loc 1 255 0
  61 0022 2B78     		ldrb	r3, [r5]
  62 0024 A343     		bic	r3, r4
  63 0026 1343     		orr	r3, r2
  64              	.LVL6:
 256:.\Generated_Source\PSoC4/CapSense_2.c ****         #endif
 257:.\Generated_Source\PSoC4/CapSense_2.c ****         CapSense_2_CSD_TRIM1_REG = newRegValue;
  65              		.loc 1 257 0
  66 0028 0360     		str	r3, [r0]
 258:.\Generated_Source\PSoC4/CapSense_2.c ****     #endif /* (CapSense_2_IDAC1_POLARITY == CapSense_2__IDAC_SINK) */
 259:.\Generated_Source\PSoC4/CapSense_2.c **** 
 260:.\Generated_Source\PSoC4/CapSense_2.c ****     /* Configure CSD and IDAC */
 261:.\Generated_Source\PSoC4/CapSense_2.c ****     #if (CapSense_2_IDAC_CNT > 1u)
 262:.\Generated_Source\PSoC4/CapSense_2.c ****         CapSense_2_CSD_IDAC_REG = CapSense_2_DEFAULT_CSD_IDAC_CONFIG;
  67              		.loc 1 262 0
  68 002a 104A     		ldr	r2, .L2+12
  69 002c 104B     		ldr	r3, .L2+16
  70              	.LVL7:
  71 002e 1A60     		str	r2, [r3]
  72              	.LVL8:
 263:.\Generated_Source\PSoC4/CapSense_2.c ****         CapSense_2_CSD_CFG_REG = CapSense_2_DEFAULT_CSD_CONFIG;
  73              		.loc 1 263 0
  74 0030 104A     		ldr	r2, .L2+20
  75 0032 114B     		ldr	r3, .L2+24
  76 0034 1A60     		str	r2, [r3]
 264:.\Generated_Source\PSoC4/CapSense_2.c ****     #else
 265:.\Generated_Source\PSoC4/CapSense_2.c ****         CapSense_2_CSD_IDAC_REG &= ~(CapSense_2_CSD_IDAC1_MODE_MASK  | CapSense_2_CSD_IDAC1_DATA_MA
 266:.\Generated_Source\PSoC4/CapSense_2.c ****         CapSense_2_CSD_IDAC_REG |= CapSense_2_DEFAULT_CSD_IDAC_CONFIG;
ARM GAS  C:\Users\glenn\AppData\Local\Temp\ccPcZrmN.s 			page 7


 267:.\Generated_Source\PSoC4/CapSense_2.c **** 
 268:.\Generated_Source\PSoC4/CapSense_2.c ****         CapSense_2_CSD_CFG_REG &= ~(CapSense_2_CSD_CONFIG_MASK);
 269:.\Generated_Source\PSoC4/CapSense_2.c ****         CapSense_2_CSD_CFG_REG |= (CapSense_2_DEFAULT_CSD_CONFIG);
 270:.\Generated_Source\PSoC4/CapSense_2.c ****     #endif /* (CapSense_2_IDAC_CNT > 1u) */
 271:.\Generated_Source\PSoC4/CapSense_2.c **** 
 272:.\Generated_Source\PSoC4/CapSense_2.c **** 
 273:.\Generated_Source\PSoC4/CapSense_2.c ****     /* Connect Cmod to AMUX bus */
 274:.\Generated_Source\PSoC4/CapSense_2.c ****     newRegValue = CapSense_2_CMOD_CONNECTION_REG;
  77              		.loc 1 274 0
  78 0036 114A     		ldr	r2, .L2+28
  79 0038 1168     		ldr	r1, [r2]
  80              	.LVL9:
 275:.\Generated_Source\PSoC4/CapSense_2.c ****     newRegValue &= ~(CapSense_2_CSD_CMOD_CONNECTION_MASK);
  81              		.loc 1 275 0
  82 003a 114B     		ldr	r3, .L2+32
  83 003c 0B40     		and	r3, r1
  84              	.LVL10:
 276:.\Generated_Source\PSoC4/CapSense_2.c ****     newRegValue |= CapSense_2_CSD_CMOD_TO_AMUXBUS_A;
  85              		.loc 1 276 0
  86 003e C021     		mov	r1, #192
  87 0040 C900     		lsl	r1, r1, #3
  88 0042 0B43     		orr	r3, r1
  89              	.LVL11:
 277:.\Generated_Source\PSoC4/CapSense_2.c ****     CapSense_2_CMOD_CONNECTION_REG = newRegValue;
  90              		.loc 1 277 0
  91 0044 1360     		str	r3, [r2]
 278:.\Generated_Source\PSoC4/CapSense_2.c **** 
 279:.\Generated_Source\PSoC4/CapSense_2.c ****     /* Configure Dead Band PWM if it is enabled */
 280:.\Generated_Source\PSoC4/CapSense_2.c ****     #if(CapSense_2_CSD_4B_PWM_MODE != CapSense_2__PWM_OFF)
 281:.\Generated_Source\PSoC4/CapSense_2.c ****         CapSense_2_CSD_4B_PWM_REG = CapSense_2_DEFAULT_CSD_4B_PWM_CONFIG;
 282:.\Generated_Source\PSoC4/CapSense_2.c ****     #endif /* (CapSense_2_CSD_4B_PWM_MODE != CapSense_2__PWM_OFF) */
 283:.\Generated_Source\PSoC4/CapSense_2.c **** 
 284:.\Generated_Source\PSoC4/CapSense_2.c ****     /* Setup ISR */
 285:.\Generated_Source\PSoC4/CapSense_2.c ****     CyIntDisable(CapSense_2_ISR_NUMBER);
  92              		.loc 1 285 0
  93 0046 1120     		mov	r0, #17
  94 0048 FFF7FEFF 		bl	CyIntDisable
  95              	.LVL12:
 286:.\Generated_Source\PSoC4/CapSense_2.c ****     #if !defined(CY_EXTERNAL_INTERRUPT_CONFIG)
 287:.\Generated_Source\PSoC4/CapSense_2.c ****         (void)CyIntSetVector(CapSense_2_ISR_NUMBER, &CapSense_2_ISR);
  96              		.loc 1 287 0
  97 004c 1120     		mov	r0, #17
  98 004e 0D49     		ldr	r1, .L2+36
  99 0050 FFF7FEFF 		bl	CyIntSetVector
 100              	.LVL13:
 288:.\Generated_Source\PSoC4/CapSense_2.c ****         CyIntSetPriority(CapSense_2_ISR_NUMBER, CapSense_2_ISR_PRIORITY);
 101              		.loc 1 288 0
 102 0054 1120     		mov	r0, #17
 103 0056 0321     		mov	r1, #3
 104 0058 FFF7FEFF 		bl	CyIntSetPriority
 105              	.LVL14:
 289:.\Generated_Source\PSoC4/CapSense_2.c ****     #endif /* (CY_EXTERNAL_INTERRUPT_CONFIG) */
 290:.\Generated_Source\PSoC4/CapSense_2.c **** }
 106              		.loc 1 290 0
 107              		@ sp needed
 108 005c 38BD     		pop	{r3, r4, r5, pc}
 109              	.L3:
ARM GAS  C:\Users\glenn\AppData\Local\Temp\ccPcZrmN.s 			page 8


 110 005e C046     		.align	2
 111              	.L2:
 112 0060 00FF2840 		.word	1076428544
 113 0064 00000000 		.word	CapSense_2_csdTrim1
 114 0068 62F1FF0F 		.word	268431714
 115 006c 00020001 		.word	16777728
 116 0070 08002840 		.word	1076363272
 117 0074 0008A001 		.word	27265024
 118 0078 04002840 		.word	1076363268
 119 007c 00040240 		.word	1073873920
 120 0080 FFF0FFFF 		.word	-3841
 121 0084 00000000 		.word	CapSense_2_ISR
 122              		.cfi_endproc
 123              	.LFE36:
 124              		.size	CapSense_2_CsdHwBlockInit, .-CapSense_2_CsdHwBlockInit
 125              		.section	.text.CapSense_2_Enable,"ax",%progbits
 126              		.align	2
 127              		.global	CapSense_2_Enable
 128              		.code	16
 129              		.thumb_func
 130              		.type	CapSense_2_Enable, %function
 131              	CapSense_2_Enable:
 132              	.LFB37:
 291:.\Generated_Source\PSoC4/CapSense_2.c **** 
 292:.\Generated_Source\PSoC4/CapSense_2.c **** 
 293:.\Generated_Source\PSoC4/CapSense_2.c **** /*******************************************************************************
 294:.\Generated_Source\PSoC4/CapSense_2.c **** * Function Name: CapSense_2_Enable
 295:.\Generated_Source\PSoC4/CapSense_2.c **** ********************************************************************************
 296:.\Generated_Source\PSoC4/CapSense_2.c **** *
 297:.\Generated_Source\PSoC4/CapSense_2.c **** * Summary:
 298:.\Generated_Source\PSoC4/CapSense_2.c **** *  Enables the CSD block and related resources to an active mode.
 299:.\Generated_Source\PSoC4/CapSense_2.c **** *
 300:.\Generated_Source\PSoC4/CapSense_2.c **** * Parameters:
 301:.\Generated_Source\PSoC4/CapSense_2.c **** *  None
 302:.\Generated_Source\PSoC4/CapSense_2.c **** *
 303:.\Generated_Source\PSoC4/CapSense_2.c **** * Return:
 304:.\Generated_Source\PSoC4/CapSense_2.c **** *  None
 305:.\Generated_Source\PSoC4/CapSense_2.c **** *
 306:.\Generated_Source\PSoC4/CapSense_2.c **** * Global Variables:
 307:.\Generated_Source\PSoC4/CapSense_2.c **** *  None.
 308:.\Generated_Source\PSoC4/CapSense_2.c **** *
 309:.\Generated_Source\PSoC4/CapSense_2.c **** * Side Effects:
 310:.\Generated_Source\PSoC4/CapSense_2.c **** *  None
 311:.\Generated_Source\PSoC4/CapSense_2.c **** *
 312:.\Generated_Source\PSoC4/CapSense_2.c **** *******************************************************************************/
 313:.\Generated_Source\PSoC4/CapSense_2.c **** void CapSense_2_Enable(void)
 314:.\Generated_Source\PSoC4/CapSense_2.c **** {
 133              		.loc 1 314 0
 134              		.cfi_startproc
 135 0000 08B5     		push	{r3, lr}
 136              		.cfi_def_cfa_offset 8
 137              		.cfi_offset 3, -8
 138              		.cfi_offset 14, -4
 315:.\Generated_Source\PSoC4/CapSense_2.c ****     uint32 newRegValue;
 316:.\Generated_Source\PSoC4/CapSense_2.c **** 
 317:.\Generated_Source\PSoC4/CapSense_2.c ****     /* Enable Clocks */
 318:.\Generated_Source\PSoC4/CapSense_2.c ****     CapSense_2_SenseClk_Stop();
ARM GAS  C:\Users\glenn\AppData\Local\Temp\ccPcZrmN.s 			page 9


 139              		.loc 1 318 0
 140 0002 FFF7FEFF 		bl	CapSense_2_SenseClk_Stop
 141              	.LVL15:
 319:.\Generated_Source\PSoC4/CapSense_2.c ****     CapSense_2_SampleClk_Stop();
 142              		.loc 1 319 0
 143 0006 FFF7FEFF 		bl	CapSense_2_SampleClk_Stop
 144              	.LVL16:
 320:.\Generated_Source\PSoC4/CapSense_2.c **** 
 321:.\Generated_Source\PSoC4/CapSense_2.c ****     CapSense_2_SampleClk_SetDividerValue((uint16)CapSense_2_INITIAL_CLK_DIVIDER);
 145              		.loc 1 321 0
 146 000a 0020     		mov	r0, #0
 147 000c 0021     		mov	r1, #0
 148 000e FFF7FEFF 		bl	CapSense_2_SampleClk_SetFractionalDividerRegister
 149              	.LVL17:
 322:.\Generated_Source\PSoC4/CapSense_2.c ****     CapSense_2_SenseClk_SetDividerValue((uint16)CapSense_2_INITIAL_CLK_DIVIDER);
 150              		.loc 1 322 0
 151 0012 0020     		mov	r0, #0
 152 0014 0021     		mov	r1, #0
 153 0016 FFF7FEFF 		bl	CapSense_2_SenseClk_SetFractionalDividerRegister
 154              	.LVL18:
 323:.\Generated_Source\PSoC4/CapSense_2.c **** 
 324:.\Generated_Source\PSoC4/CapSense_2.c ****     #if (0u == CapSense_2_IS_M0S8PERI_BLOCK)
 325:.\Generated_Source\PSoC4/CapSense_2.c ****         CapSense_2_SenseClk_Start();
 326:.\Generated_Source\PSoC4/CapSense_2.c ****         CapSense_2_SampleClk_Start();
 327:.\Generated_Source\PSoC4/CapSense_2.c ****     #else
 328:.\Generated_Source\PSoC4/CapSense_2.c ****         CapSense_2_SampleClk_Start();
 155              		.loc 1 328 0
 156 001a FF20     		mov	r0, #255
 157 001c FFF7FEFF 		bl	CapSense_2_SampleClk_StartEx
 158              	.LVL19:
 329:.\Generated_Source\PSoC4/CapSense_2.c ****         CapSense_2_SenseClk_StartEx(CapSense_2_SampleClk__DIV_ID);
 159              		.loc 1 329 0
 160 0020 4020     		mov	r0, #64
 161 0022 FFF7FEFF 		bl	CapSense_2_SenseClk_StartEx
 162              	.LVL20:
 330:.\Generated_Source\PSoC4/CapSense_2.c ****     #endif /* (0u == CapSense_2_IS_M0S8PERI_BLOCK) */
 331:.\Generated_Source\PSoC4/CapSense_2.c **** 
 332:.\Generated_Source\PSoC4/CapSense_2.c ****     /* Enable the CSD block */
 333:.\Generated_Source\PSoC4/CapSense_2.c ****     newRegValue = CapSense_2_CSD_CFG_REG;
 163              		.loc 1 333 0
 164 0026 044A     		ldr	r2, .L5
 165 0028 1368     		ldr	r3, [r2]
 166              	.LVL21:
 334:.\Generated_Source\PSoC4/CapSense_2.c ****     newRegValue |= (CapSense_2_CSD_CFG_ENABLE | CapSense_2_CSD_CFG_SENSE_COMP_EN
 167              		.loc 1 334 0
 168 002a 0449     		ldr	r1, .L5+4
 169 002c 0B43     		orr	r3, r1
 170              	.LVL22:
 335:.\Generated_Source\PSoC4/CapSense_2.c ****                                                    | CapSense_2_CSD_CFG_SENSE_EN);
 336:.\Generated_Source\PSoC4/CapSense_2.c ****     CapSense_2_CSD_CFG_REG = newRegValue;
 171              		.loc 1 336 0
 172 002e 1360     		str	r3, [r2]
 337:.\Generated_Source\PSoC4/CapSense_2.c **** 
 338:.\Generated_Source\PSoC4/CapSense_2.c ****     /* Enable interrupt */
 339:.\Generated_Source\PSoC4/CapSense_2.c ****     CyIntEnable(CapSense_2_ISR_NUMBER);
 173              		.loc 1 339 0
 174 0030 1120     		mov	r0, #17
ARM GAS  C:\Users\glenn\AppData\Local\Temp\ccPcZrmN.s 			page 10


 175 0032 FFF7FEFF 		bl	CyIntEnable
 176              	.LVL23:
 340:.\Generated_Source\PSoC4/CapSense_2.c **** }
 177              		.loc 1 340 0
 178              		@ sp needed
 179 0036 08BD     		pop	{r3, pc}
 180              	.L6:
 181              		.align	2
 182              	.L5:
 183 0038 04002840 		.word	1076363268
 184 003c 00100880 		.word	-2146955264
 185              		.cfi_endproc
 186              	.LFE37:
 187              		.size	CapSense_2_Enable, .-CapSense_2_Enable
 188              		.section	.text.CapSense_2_Stop,"ax",%progbits
 189              		.align	2
 190              		.global	CapSense_2_Stop
 191              		.code	16
 192              		.thumb_func
 193              		.type	CapSense_2_Stop, %function
 194              	CapSense_2_Stop:
 195              	.LFB39:
 341:.\Generated_Source\PSoC4/CapSense_2.c **** 
 342:.\Generated_Source\PSoC4/CapSense_2.c **** 
 343:.\Generated_Source\PSoC4/CapSense_2.c **** /*******************************************************************************
 344:.\Generated_Source\PSoC4/CapSense_2.c **** * Function Name: CapSense_2_Start
 345:.\Generated_Source\PSoC4/CapSense_2.c **** ********************************************************************************
 346:.\Generated_Source\PSoC4/CapSense_2.c **** *
 347:.\Generated_Source\PSoC4/CapSense_2.c **** * Summary:
 348:.\Generated_Source\PSoC4/CapSense_2.c **** *  This is the preferred method to begin the component operation. CapSense_Start()
 349:.\Generated_Source\PSoC4/CapSense_2.c **** *  calls the CapSense_Init() function, and then calls the CapSense_Enable()
 350:.\Generated_Source\PSoC4/CapSense_2.c **** *  function. Initializes the registers and starts the CSD method of the CapSense
 351:.\Generated_Source\PSoC4/CapSense_2.c **** *  component. Resets all the sensors to an inactive state. Enables interrupts for
 352:.\Generated_Source\PSoC4/CapSense_2.c **** *  sensors scanning. When the SmartSense tuning mode is selected, the tuning procedure
 353:.\Generated_Source\PSoC4/CapSense_2.c **** *  is applied for all the sensors. The CapSense_Start() routine must be called before
 354:.\Generated_Source\PSoC4/CapSense_2.c **** *  any other API routines.
 355:.\Generated_Source\PSoC4/CapSense_2.c **** *
 356:.\Generated_Source\PSoC4/CapSense_2.c **** * Parameters:
 357:.\Generated_Source\PSoC4/CapSense_2.c **** *  None
 358:.\Generated_Source\PSoC4/CapSense_2.c **** *
 359:.\Generated_Source\PSoC4/CapSense_2.c **** * Return:
 360:.\Generated_Source\PSoC4/CapSense_2.c **** *  None
 361:.\Generated_Source\PSoC4/CapSense_2.c **** *
 362:.\Generated_Source\PSoC4/CapSense_2.c **** * Global Variables:
 363:.\Generated_Source\PSoC4/CapSense_2.c **** *   CapSense_2_initVar - used to check the initial configuration,
 364:.\Generated_Source\PSoC4/CapSense_2.c **** *   modified on the first function call.
 365:.\Generated_Source\PSoC4/CapSense_2.c **** *  CapSense_2_lowLevelTuningDone - Used to notify the Tuner GUI that
 366:.\Generated_Source\PSoC4/CapSense_2.c **** *   tuning of the scanning parameters is done.
 367:.\Generated_Source\PSoC4/CapSense_2.c **** *
 368:.\Generated_Source\PSoC4/CapSense_2.c **** * Side Effects:
 369:.\Generated_Source\PSoC4/CapSense_2.c **** *  None
 370:.\Generated_Source\PSoC4/CapSense_2.c **** *
 371:.\Generated_Source\PSoC4/CapSense_2.c **** *******************************************************************************/
 372:.\Generated_Source\PSoC4/CapSense_2.c **** void CapSense_2_Start(void)
 373:.\Generated_Source\PSoC4/CapSense_2.c **** {
 374:.\Generated_Source\PSoC4/CapSense_2.c **** 
 375:.\Generated_Source\PSoC4/CapSense_2.c ****     static uint8 CapSense_2_initVar = 0u;
ARM GAS  C:\Users\glenn\AppData\Local\Temp\ccPcZrmN.s 			page 11


 376:.\Generated_Source\PSoC4/CapSense_2.c **** 
 377:.\Generated_Source\PSoC4/CapSense_2.c ****     #if((0u != CapSense_2_AUTOCALIBRATION_ENABLE) && (CapSense_2_TUNING_METHOD != CapSense_2__TUNIN
 378:.\Generated_Source\PSoC4/CapSense_2.c ****         uint32 curSensor;
 379:.\Generated_Source\PSoC4/CapSense_2.c ****         uint32 rawLevel;
 380:.\Generated_Source\PSoC4/CapSense_2.c ****         uint32 widget;
 381:.\Generated_Source\PSoC4/CapSense_2.c ****     #endif /* ((0u != CapSense_2_AUTOCALIBRATION_ENABLE) && (CapSense_2_TUNING_METHOD != CapSense_2
 382:.\Generated_Source\PSoC4/CapSense_2.c **** 
 383:.\Generated_Source\PSoC4/CapSense_2.c ****     if (CapSense_2_initVar == 0u)
 384:.\Generated_Source\PSoC4/CapSense_2.c ****     {
 385:.\Generated_Source\PSoC4/CapSense_2.c ****         CapSense_2_Init();
 386:.\Generated_Source\PSoC4/CapSense_2.c ****         CapSense_2_initVar = 1u;
 387:.\Generated_Source\PSoC4/CapSense_2.c ****     }
 388:.\Generated_Source\PSoC4/CapSense_2.c ****     CapSense_2_Enable();
 389:.\Generated_Source\PSoC4/CapSense_2.c **** 
 390:.\Generated_Source\PSoC4/CapSense_2.c ****     /* AutoTunning start */
 391:.\Generated_Source\PSoC4/CapSense_2.c ****     #if(CapSense_2_TUNING_METHOD == CapSense_2__TUNING_AUTO)
 392:.\Generated_Source\PSoC4/CapSense_2.c ****         #if(0u != CapSense_2_CSHL_API_GENERATE)
 393:.\Generated_Source\PSoC4/CapSense_2.c ****             CapSense_2_AutoTune();
 394:.\Generated_Source\PSoC4/CapSense_2.c ****             CapSense_2_lowLevelTuningDone = 1u;
 395:.\Generated_Source\PSoC4/CapSense_2.c ****         #endif /* (0u != CapSense_2_CSHL_API_GENERATE) */
 396:.\Generated_Source\PSoC4/CapSense_2.c ****     #else
 397:.\Generated_Source\PSoC4/CapSense_2.c ****         #if(0u != CapSense_2_AUTOCALIBRATION_ENABLE)
 398:.\Generated_Source\PSoC4/CapSense_2.c **** 
 399:.\Generated_Source\PSoC4/CapSense_2.c ****             #if(CapSense_2_IDAC_CNT > 1u)
 400:.\Generated_Source\PSoC4/CapSense_2.c ****                 CapSense_2_CSD_IDAC_REG &= ~(CapSense_2_CSD_IDAC2_MODE_MASK);
 401:.\Generated_Source\PSoC4/CapSense_2.c ****             #endif /* (CapSense_2_IDAC_CNT > 1u) */
 402:.\Generated_Source\PSoC4/CapSense_2.c **** 
 403:.\Generated_Source\PSoC4/CapSense_2.c ****             for(curSensor = 0u; curSensor < CapSense_2_TOTAL_SCANSLOT_COUNT; curSensor++)
 404:.\Generated_Source\PSoC4/CapSense_2.c ****             {
 405:.\Generated_Source\PSoC4/CapSense_2.c ****                 widget = CapSense_2_widgetNumber[curSensor];
 406:.\Generated_Source\PSoC4/CapSense_2.c ****                 rawLevel = CapSense_2_widgetResolution[widget] >> CapSense_2_RESOLUTION_OFFSET;
 407:.\Generated_Source\PSoC4/CapSense_2.c **** 
 408:.\Generated_Source\PSoC4/CapSense_2.c ****                 /* Calibration level should be equal to 85% from scanning resolution */
 409:.\Generated_Source\PSoC4/CapSense_2.c ****                 rawLevel = (rawLevel * 85u) / 100u;
 410:.\Generated_Source\PSoC4/CapSense_2.c **** 
 411:.\Generated_Source\PSoC4/CapSense_2.c ****                 CapSense_2_CalibrateSensor(curSensor, rawLevel, CapSense_2_modulationIDAC);
 412:.\Generated_Source\PSoC4/CapSense_2.c ****             }
 413:.\Generated_Source\PSoC4/CapSense_2.c **** 
 414:.\Generated_Source\PSoC4/CapSense_2.c ****             #if(0u != CapSense_2_TOTAL_CENTROIDS_COUNT)
 415:.\Generated_Source\PSoC4/CapSense_2.c ****                 CapSense_2_NormalizeWidgets(CapSense_2_END_OF_WIDGETS_INDEX, CapSense_2_modulationI
 416:.\Generated_Source\PSoC4/CapSense_2.c ****             #endif /* (0u != CapSense_2_TOTAL_CENTROIDS_COUNT)  */
 417:.\Generated_Source\PSoC4/CapSense_2.c **** 
 418:.\Generated_Source\PSoC4/CapSense_2.c ****             #if(CapSense_2_IDAC_CNT > 1u)
 419:.\Generated_Source\PSoC4/CapSense_2.c ****                 for(curSensor = 0u; curSensor < CapSense_2_TOTAL_SCANSLOT_COUNT; curSensor++)
 420:.\Generated_Source\PSoC4/CapSense_2.c ****                 {
 421:.\Generated_Source\PSoC4/CapSense_2.c ****                     CapSense_2_compensationIDAC[curSensor] = CapSense_2_modulationIDAC[curSensor] /
 422:.\Generated_Source\PSoC4/CapSense_2.c ****                     CapSense_2_modulationIDAC[curSensor] = (CapSense_2_modulationIDAC[curSensor] + 
 423:.\Generated_Source\PSoC4/CapSense_2.c ****                 }
 424:.\Generated_Source\PSoC4/CapSense_2.c ****                 CapSense_2_CSD_IDAC_REG |= CapSense_2_CSD_IDAC2_MODE_FIXED;
 425:.\Generated_Source\PSoC4/CapSense_2.c ****             #endif /* (CapSense_2_IDAC_CNT > 1u) */
 426:.\Generated_Source\PSoC4/CapSense_2.c **** 
 427:.\Generated_Source\PSoC4/CapSense_2.c ****         #endif /* (0u != CapSense_2_AUTOCALIBRATION_ENABLE) */
 428:.\Generated_Source\PSoC4/CapSense_2.c **** 
 429:.\Generated_Source\PSoC4/CapSense_2.c ****     #endif /* ((CapSense_2_TUNING_METHOD == CapSense_2__TUNING_AUTO) */
 430:.\Generated_Source\PSoC4/CapSense_2.c **** 
 431:.\Generated_Source\PSoC4/CapSense_2.c ****     /* Initialize Advanced Centroid */
 432:.\Generated_Source\PSoC4/CapSense_2.c ****     #if(CapSense_2_TOTAL_TRACKPAD_GESTURES_COUNT > 0u)
ARM GAS  C:\Users\glenn\AppData\Local\Temp\ccPcZrmN.s 			page 12


 433:.\Generated_Source\PSoC4/CapSense_2.c ****         CapSense_2_AdvancedCentroidInit();
 434:.\Generated_Source\PSoC4/CapSense_2.c ****     #endif /* (CapSense_2_TOTAL_TRACKPAD_GESTURES_COUNT > 0u) */
 435:.\Generated_Source\PSoC4/CapSense_2.c **** 
 436:.\Generated_Source\PSoC4/CapSense_2.c ****     /* Connect sense comparator input to AMUXA */
 437:.\Generated_Source\PSoC4/CapSense_2.c ****     CapSense_2_CSD_CFG_REG |= CapSense_2_CSD_CFG_SENSE_INSEL;
 438:.\Generated_Source\PSoC4/CapSense_2.c **** }
 439:.\Generated_Source\PSoC4/CapSense_2.c **** 
 440:.\Generated_Source\PSoC4/CapSense_2.c **** 
 441:.\Generated_Source\PSoC4/CapSense_2.c **** /*******************************************************************************
 442:.\Generated_Source\PSoC4/CapSense_2.c **** * Function Name: CapSense_2_Stop
 443:.\Generated_Source\PSoC4/CapSense_2.c **** ********************************************************************************
 444:.\Generated_Source\PSoC4/CapSense_2.c **** *
 445:.\Generated_Source\PSoC4/CapSense_2.c **** * Summary:
 446:.\Generated_Source\PSoC4/CapSense_2.c **** *  Stops the sensor scanning, disables component interrupts, and resets all the
 447:.\Generated_Source\PSoC4/CapSense_2.c **** *  sensors to an inactive state. Disables the Active mode power template bits for
 448:.\Generated_Source\PSoC4/CapSense_2.c **** *  the subcomponents used within CapSense.
 449:.\Generated_Source\PSoC4/CapSense_2.c **** *
 450:.\Generated_Source\PSoC4/CapSense_2.c **** * Parameters:
 451:.\Generated_Source\PSoC4/CapSense_2.c **** *  None
 452:.\Generated_Source\PSoC4/CapSense_2.c **** *
 453:.\Generated_Source\PSoC4/CapSense_2.c **** * Return:
 454:.\Generated_Source\PSoC4/CapSense_2.c **** *  None
 455:.\Generated_Source\PSoC4/CapSense_2.c **** *
 456:.\Generated_Source\PSoC4/CapSense_2.c **** * Global Variables:
 457:.\Generated_Source\PSoC4/CapSense_2.c **** *  CapSense_2_csdTrim1 - Contains the IDAC trim register value for the Sourcing Mode.
 458:.\Generated_Source\PSoC4/CapSense_2.c **** *  CapSense_2_csdTrim2 - Contains the IDAC trim register value for vSinking Mode.
 459:.\Generated_Source\PSoC4/CapSense_2.c **** *
 460:.\Generated_Source\PSoC4/CapSense_2.c **** * Side Effects:
 461:.\Generated_Source\PSoC4/CapSense_2.c **** *  This function should be called after scans are completed.
 462:.\Generated_Source\PSoC4/CapSense_2.c **** *
 463:.\Generated_Source\PSoC4/CapSense_2.c **** *******************************************************************************/
 464:.\Generated_Source\PSoC4/CapSense_2.c **** void CapSense_2_Stop(void)
 465:.\Generated_Source\PSoC4/CapSense_2.c **** {
 196              		.loc 1 465 0
 197              		.cfi_startproc
 198 0000 08B5     		push	{r3, lr}
 199              		.cfi_def_cfa_offset 8
 200              		.cfi_offset 3, -8
 201              		.cfi_offset 14, -4
 466:.\Generated_Source\PSoC4/CapSense_2.c ****     /* Disable interrupt */
 467:.\Generated_Source\PSoC4/CapSense_2.c ****     CyIntDisable(CapSense_2_ISR_NUMBER);
 202              		.loc 1 467 0
 203 0002 1120     		mov	r0, #17
 204 0004 FFF7FEFF 		bl	CyIntDisable
 205              	.LVL24:
 468:.\Generated_Source\PSoC4/CapSense_2.c **** 
 469:.\Generated_Source\PSoC4/CapSense_2.c ****     CapSense_2_CSD_CFG_REG &= ~(CapSense_2_CSD_CFG_SENSE_COMP_EN | CapSense_2_CSD_CFG_SENSE_EN);
 206              		.loc 1 469 0
 207 0008 064A     		ldr	r2, .L8
 208 000a 1168     		ldr	r1, [r2]
 209 000c 064B     		ldr	r3, .L8+4
 210 000e 0B40     		and	r3, r1
 211 0010 1360     		str	r3, [r2]
 470:.\Generated_Source\PSoC4/CapSense_2.c **** 
 471:.\Generated_Source\PSoC4/CapSense_2.c ****     #if(CapSense_2_IDAC_CNT == 2u)
 472:.\Generated_Source\PSoC4/CapSense_2.c ****         CapSense_2_CSD_CFG_REG &= ~(CapSense_2_CSD_CFG_ENABLE);
 212              		.loc 1 472 0
ARM GAS  C:\Users\glenn\AppData\Local\Temp\ccPcZrmN.s 			page 13


 213 0012 1368     		ldr	r3, [r2]
 214 0014 5B00     		lsl	r3, r3, #1
 215 0016 5B08     		lsr	r3, r3, #1
 216 0018 1360     		str	r3, [r2]
 473:.\Generated_Source\PSoC4/CapSense_2.c ****     #endif /* (CapSense_2_IDAC_CNT == 2u) */
 474:.\Generated_Source\PSoC4/CapSense_2.c **** 
 475:.\Generated_Source\PSoC4/CapSense_2.c ****     /* Disable the Clocks */
 476:.\Generated_Source\PSoC4/CapSense_2.c ****     CapSense_2_SenseClk_Stop();
 217              		.loc 1 476 0
 218 001a FFF7FEFF 		bl	CapSense_2_SenseClk_Stop
 219              	.LVL25:
 477:.\Generated_Source\PSoC4/CapSense_2.c ****     CapSense_2_SampleClk_Stop();
 220              		.loc 1 477 0
 221 001e FFF7FEFF 		bl	CapSense_2_SampleClk_Stop
 222              	.LVL26:
 478:.\Generated_Source\PSoC4/CapSense_2.c **** }
 223              		.loc 1 478 0
 224              		@ sp needed
 225 0022 08BD     		pop	{r3, pc}
 226              	.L9:
 227              		.align	2
 228              	.L8:
 229 0024 04002840 		.word	1076363268
 230 0028 FFEFF7FF 		.word	-528385
 231              		.cfi_endproc
 232              	.LFE39:
 233              		.size	CapSense_2_Stop, .-CapSense_2_Stop
 234              		.section	.text.CapSense_2_IsBusy,"ax",%progbits
 235              		.align	2
 236              		.global	CapSense_2_IsBusy
 237              		.code	16
 238              		.thumb_func
 239              		.type	CapSense_2_IsBusy, %function
 240              	CapSense_2_IsBusy:
 241              	.LFB43:
 479:.\Generated_Source\PSoC4/CapSense_2.c **** 
 480:.\Generated_Source\PSoC4/CapSense_2.c **** 
 481:.\Generated_Source\PSoC4/CapSense_2.c **** /*******************************************************************************
 482:.\Generated_Source\PSoC4/CapSense_2.c **** * Function Name: CapSense_2_FindNextSensor
 483:.\Generated_Source\PSoC4/CapSense_2.c **** ********************************************************************************
 484:.\Generated_Source\PSoC4/CapSense_2.c **** *
 485:.\Generated_Source\PSoC4/CapSense_2.c **** * Summary:
 486:.\Generated_Source\PSoC4/CapSense_2.c **** *  Finds the next sensor to scan.
 487:.\Generated_Source\PSoC4/CapSense_2.c **** *
 488:.\Generated_Source\PSoC4/CapSense_2.c **** * Parameters:
 489:.\Generated_Source\PSoC4/CapSense_2.c **** *  snsIndex:  Current index of sensor.
 490:.\Generated_Source\PSoC4/CapSense_2.c **** *
 491:.\Generated_Source\PSoC4/CapSense_2.c **** * Return:
 492:.\Generated_Source\PSoC4/CapSense_2.c **** *  Returns the next sensor index to scan.
 493:.\Generated_Source\PSoC4/CapSense_2.c **** *
 494:.\Generated_Source\PSoC4/CapSense_2.c **** * Global Variables:
 495:.\Generated_Source\PSoC4/CapSense_2.c **** *  CapSense_2_sensorEnableMask[] - used to store bit masks of the enabled sensors.
 496:.\Generated_Source\PSoC4/CapSense_2.c **** *
 497:.\Generated_Source\PSoC4/CapSense_2.c **** * Side Effects:
 498:.\Generated_Source\PSoC4/CapSense_2.c **** *  This function affects the  current scanning and should not
 499:.\Generated_Source\PSoC4/CapSense_2.c **** *  be used outside the component.
 500:.\Generated_Source\PSoC4/CapSense_2.c **** *
ARM GAS  C:\Users\glenn\AppData\Local\Temp\ccPcZrmN.s 			page 14


 501:.\Generated_Source\PSoC4/CapSense_2.c **** *******************************************************************************/
 502:.\Generated_Source\PSoC4/CapSense_2.c **** uint8 CapSense_2_FindNextSensor(uint8 snsIndex)
 503:.\Generated_Source\PSoC4/CapSense_2.c **** {
 504:.\Generated_Source\PSoC4/CapSense_2.c ****     uint32 enableFlag;
 505:.\Generated_Source\PSoC4/CapSense_2.c **** 
 506:.\Generated_Source\PSoC4/CapSense_2.c ****     /* Check if sensor enabled */
 507:.\Generated_Source\PSoC4/CapSense_2.c ****     do
 508:.\Generated_Source\PSoC4/CapSense_2.c ****     {
 509:.\Generated_Source\PSoC4/CapSense_2.c ****         /* Proceed with next sensor */
 510:.\Generated_Source\PSoC4/CapSense_2.c ****         snsIndex++;
 511:.\Generated_Source\PSoC4/CapSense_2.c ****         if(snsIndex == CapSense_2_TOTAL_SENSOR_COUNT)
 512:.\Generated_Source\PSoC4/CapSense_2.c ****         {
 513:.\Generated_Source\PSoC4/CapSense_2.c ****             break;
 514:.\Generated_Source\PSoC4/CapSense_2.c ****         }
 515:.\Generated_Source\PSoC4/CapSense_2.c ****         enableFlag = CapSense_2_GetBitValue(CapSense_2_sensorEnableMask, (uint32)snsIndex);
 516:.\Generated_Source\PSoC4/CapSense_2.c ****     }
 517:.\Generated_Source\PSoC4/CapSense_2.c ****     while(enableFlag == 0u);
 518:.\Generated_Source\PSoC4/CapSense_2.c **** 
 519:.\Generated_Source\PSoC4/CapSense_2.c ****     return ((uint8)snsIndex);
 520:.\Generated_Source\PSoC4/CapSense_2.c **** }
 521:.\Generated_Source\PSoC4/CapSense_2.c **** 
 522:.\Generated_Source\PSoC4/CapSense_2.c **** 
 523:.\Generated_Source\PSoC4/CapSense_2.c **** /*******************************************************************************
 524:.\Generated_Source\PSoC4/CapSense_2.c **** * Function Name: CapSense_2_ScanSensor
 525:.\Generated_Source\PSoC4/CapSense_2.c **** ********************************************************************************
 526:.\Generated_Source\PSoC4/CapSense_2.c **** *
 527:.\Generated_Source\PSoC4/CapSense_2.c **** * Summary:
 528:.\Generated_Source\PSoC4/CapSense_2.c **** *  Sets the scan settings and starts scanning a sensor. After scanning is complete,
 529:.\Generated_Source\PSoC4/CapSense_2.c **** *  the ISR copies the measured sensor raw data to the global raw sensor array.
 530:.\Generated_Source\PSoC4/CapSense_2.c **** *  Use of the ISR ensures this function is non-blocking.
 531:.\Generated_Source\PSoC4/CapSense_2.c **** *  Each sensor has a unique number within the sensor array.
 532:.\Generated_Source\PSoC4/CapSense_2.c **** *  This number is assigned by the CapSense customizer in sequence.
 533:.\Generated_Source\PSoC4/CapSense_2.c **** *
 534:.\Generated_Source\PSoC4/CapSense_2.c **** * Parameters:
 535:.\Generated_Source\PSoC4/CapSense_2.c **** *  sensor:  Sensor number.
 536:.\Generated_Source\PSoC4/CapSense_2.c **** *
 537:.\Generated_Source\PSoC4/CapSense_2.c **** * Return:
 538:.\Generated_Source\PSoC4/CapSense_2.c **** *  None
 539:.\Generated_Source\PSoC4/CapSense_2.c **** *
 540:.\Generated_Source\PSoC4/CapSense_2.c **** * Global Variables:
 541:.\Generated_Source\PSoC4/CapSense_2.c **** *  CapSense_2_csdStatusVar - used to provide the status and mode of the scanning process.
 542:.\Generated_Source\PSoC4/CapSense_2.c **** *  Sets the busy status(scan in progress) and mode of scan as single scan.
 543:.\Generated_Source\PSoC4/CapSense_2.c **** *  CapSense_2_sensorIndex - used to store a sensor scanning sensor number.
 544:.\Generated_Source\PSoC4/CapSense_2.c **** *  Sets to the provided sensor argument.
 545:.\Generated_Source\PSoC4/CapSense_2.c **** *
 546:.\Generated_Source\PSoC4/CapSense_2.c **** * Side Effects:
 547:.\Generated_Source\PSoC4/CapSense_2.c **** *  None
 548:.\Generated_Source\PSoC4/CapSense_2.c **** *
 549:.\Generated_Source\PSoC4/CapSense_2.c **** *******************************************************************************/
 550:.\Generated_Source\PSoC4/CapSense_2.c **** void CapSense_2_ScanSensor(uint32 sensor)
 551:.\Generated_Source\PSoC4/CapSense_2.c **** {
 552:.\Generated_Source\PSoC4/CapSense_2.c ****     /* Clears status/control variable and set sensorIndex */
 553:.\Generated_Source\PSoC4/CapSense_2.c ****     CapSense_2_csdStatusVar = 0u;
 554:.\Generated_Source\PSoC4/CapSense_2.c ****     CapSense_2_sensorIndex = (uint8)sensor;
 555:.\Generated_Source\PSoC4/CapSense_2.c **** 
 556:.\Generated_Source\PSoC4/CapSense_2.c ****     /* Start of sensor scan */
 557:.\Generated_Source\PSoC4/CapSense_2.c ****     CapSense_2_csdStatusVar = (CapSense_2_SW_STS_BUSY | CapSense_2_SW_CTRL_SINGLE_SCAN);
ARM GAS  C:\Users\glenn\AppData\Local\Temp\ccPcZrmN.s 			page 15


 558:.\Generated_Source\PSoC4/CapSense_2.c ****     CapSense_2_PreScan(sensor);
 559:.\Generated_Source\PSoC4/CapSense_2.c **** }
 560:.\Generated_Source\PSoC4/CapSense_2.c **** 
 561:.\Generated_Source\PSoC4/CapSense_2.c **** 
 562:.\Generated_Source\PSoC4/CapSense_2.c **** #if(0u != CapSense_2_CSHL_API_GENERATE)
 563:.\Generated_Source\PSoC4/CapSense_2.c **** /*******************************************************************************
 564:.\Generated_Source\PSoC4/CapSense_2.c **** * Function Name: CapSense_2_ScanWidget
 565:.\Generated_Source\PSoC4/CapSense_2.c **** ********************************************************************************
 566:.\Generated_Source\PSoC4/CapSense_2.c **** *
 567:.\Generated_Source\PSoC4/CapSense_2.c **** * Summary:
 568:.\Generated_Source\PSoC4/CapSense_2.c **** *  Sets the scan settings and starts scanning a widget.
 569:.\Generated_Source\PSoC4/CapSense_2.c **** *
 570:.\Generated_Source\PSoC4/CapSense_2.c **** * Parameters:
 571:.\Generated_Source\PSoC4/CapSense_2.c **** *  uint32 widget: Widget number.
 572:.\Generated_Source\PSoC4/CapSense_2.c **** *
 573:.\Generated_Source\PSoC4/CapSense_2.c **** * Return:
 574:.\Generated_Source\PSoC4/CapSense_2.c **** *  None
 575:.\Generated_Source\PSoC4/CapSense_2.c **** *
 576:.\Generated_Source\PSoC4/CapSense_2.c **** * Global Variables:
 577:.\Generated_Source\PSoC4/CapSense_2.c **** *  CapSense_2_csdStatusVar - used to provide the status and mode of the scanning process.
 578:.\Generated_Source\PSoC4/CapSense_2.c **** *  Sets the busy status(scan in progress) and clears the single scan mode.
 579:.\Generated_Source\PSoC4/CapSense_2.c **** *  CapSense_2_sensorIndex - used to store a sensor scanning sensor number.
 580:.\Generated_Source\PSoC4/CapSense_2.c **** *  Sets to 0xFF and provided to function CapSense_2_FindNextSensor or
 581:.\Generated_Source\PSoC4/CapSense_2.c **** *  CapSense_2_sensorEnableMask[] - used to store bit masks of the enabled sensors.
 582:.\Generated_Source\PSoC4/CapSense_2.c **** *  CapSense_2_sensorEnableMaskBackup[] - used to backup bit masks of the enabled
 583:.\Generated_Source\PSoC4/CapSense_2.c **** *   sensors.
 584:.\Generated_Source\PSoC4/CapSense_2.c **** *
 585:.\Generated_Source\PSoC4/CapSense_2.c **** * Side Effects:
 586:.\Generated_Source\PSoC4/CapSense_2.c **** *  None
 587:.\Generated_Source\PSoC4/CapSense_2.c **** *
 588:.\Generated_Source\PSoC4/CapSense_2.c **** *******************************************************************************/
 589:.\Generated_Source\PSoC4/CapSense_2.c **** void CapSense_2_ScanWidget(uint32 widget)
 590:.\Generated_Source\PSoC4/CapSense_2.c **** {
 591:.\Generated_Source\PSoC4/CapSense_2.c ****     uint32 sensorsPerWidget;
 592:.\Generated_Source\PSoC4/CapSense_2.c ****     uint32 lastSensor;
 593:.\Generated_Source\PSoC4/CapSense_2.c ****     uint32 snsIndex;
 594:.\Generated_Source\PSoC4/CapSense_2.c **** 
 595:.\Generated_Source\PSoC4/CapSense_2.c ****     /* Get first sensor in widget */
 596:.\Generated_Source\PSoC4/CapSense_2.c ****     CapSense_2_sensorIndex = CapSense_2_rawDataIndex[widget];
 597:.\Generated_Source\PSoC4/CapSense_2.c **** 
 598:.\Generated_Source\PSoC4/CapSense_2.c ****     /* Get number of sensors in widget */
 599:.\Generated_Source\PSoC4/CapSense_2.c ****     sensorsPerWidget = CapSense_2_numberOfSensors[widget];
 600:.\Generated_Source\PSoC4/CapSense_2.c **** 
 601:.\Generated_Source\PSoC4/CapSense_2.c ****     /* Check if generic Sensor */
 602:.\Generated_Source\PSoC4/CapSense_2.c ****     if(sensorsPerWidget == 0u)
 603:.\Generated_Source\PSoC4/CapSense_2.c ****     {
 604:.\Generated_Source\PSoC4/CapSense_2.c ****         sensorsPerWidget = 1u;
 605:.\Generated_Source\PSoC4/CapSense_2.c ****     }
 606:.\Generated_Source\PSoC4/CapSense_2.c **** 
 607:.\Generated_Source\PSoC4/CapSense_2.c ****     /* Get last sensor in widget */
 608:.\Generated_Source\PSoC4/CapSense_2.c ****     lastSensor = (CapSense_2_rawDataIndex[widget] + sensorsPerWidget) - 1u;
 609:.\Generated_Source\PSoC4/CapSense_2.c **** 
 610:.\Generated_Source\PSoC4/CapSense_2.c ****     /* Backup sensorEnableMask array */
 611:.\Generated_Source\PSoC4/CapSense_2.c ****     for(snsIndex = 0u; snsIndex < CapSense_2_TOTAL_SENSOR_MASK; snsIndex++)
 612:.\Generated_Source\PSoC4/CapSense_2.c ****     {
 613:.\Generated_Source\PSoC4/CapSense_2.c ****         /* Backup sensorEnableMask array */
 614:.\Generated_Source\PSoC4/CapSense_2.c ****         CapSense_2_sensorEnableMaskBackup[snsIndex] = CapSense_2_sensorEnableMask[snsIndex];
ARM GAS  C:\Users\glenn\AppData\Local\Temp\ccPcZrmN.s 			page 16


 615:.\Generated_Source\PSoC4/CapSense_2.c ****     }
 616:.\Generated_Source\PSoC4/CapSense_2.c **** 
 617:.\Generated_Source\PSoC4/CapSense_2.c ****     /* Update sensorEnableMask to scan the sensors that belong to widget */
 618:.\Generated_Source\PSoC4/CapSense_2.c ****     for(snsIndex = 0u; snsIndex < CapSense_2_TOTAL_SENSOR_COUNT; snsIndex++)
 619:.\Generated_Source\PSoC4/CapSense_2.c ****     {
 620:.\Generated_Source\PSoC4/CapSense_2.c ****         /* Update sensorEnableMask array bits to scan the widget only */
 621:.\Generated_Source\PSoC4/CapSense_2.c ****         if((snsIndex >= CapSense_2_sensorIndex) && (snsIndex <= lastSensor))
 622:.\Generated_Source\PSoC4/CapSense_2.c ****         {
 623:.\Generated_Source\PSoC4/CapSense_2.c ****             /* Set sensor bit to scan */
 624:.\Generated_Source\PSoC4/CapSense_2.c ****             CapSense_2_SetBitValue(CapSense_2_sensorEnableMask, snsIndex, 1u);
 625:.\Generated_Source\PSoC4/CapSense_2.c ****         }
 626:.\Generated_Source\PSoC4/CapSense_2.c ****         else
 627:.\Generated_Source\PSoC4/CapSense_2.c ****         {
 628:.\Generated_Source\PSoC4/CapSense_2.c ****             /* Reset sensor bit to do not scan */
 629:.\Generated_Source\PSoC4/CapSense_2.c ****             CapSense_2_SetBitValue(CapSense_2_sensorEnableMask, snsIndex, 0u);
 630:.\Generated_Source\PSoC4/CapSense_2.c ****         }
 631:.\Generated_Source\PSoC4/CapSense_2.c ****     }
 632:.\Generated_Source\PSoC4/CapSense_2.c **** 
 633:.\Generated_Source\PSoC4/CapSense_2.c ****     /* Check end of scan condition */
 634:.\Generated_Source\PSoC4/CapSense_2.c ****     if(CapSense_2_sensorIndex < CapSense_2_TOTAL_SENSOR_COUNT)
 635:.\Generated_Source\PSoC4/CapSense_2.c ****     {
 636:.\Generated_Source\PSoC4/CapSense_2.c ****         /* Set widget busy bit in status/control variable*/
 637:.\Generated_Source\PSoC4/CapSense_2.c ****         CapSense_2_csdStatusVar = (CapSense_2_SW_STS_BUSY | CapSense_2_SW_CTRL_WIDGET_SCAN);
 638:.\Generated_Source\PSoC4/CapSense_2.c ****         /* Scan first sensor of widget*/
 639:.\Generated_Source\PSoC4/CapSense_2.c ****         CapSense_2_PreScan((uint32)CapSense_2_sensorIndex);
 640:.\Generated_Source\PSoC4/CapSense_2.c ****     }
 641:.\Generated_Source\PSoC4/CapSense_2.c **** }
 642:.\Generated_Source\PSoC4/CapSense_2.c **** #endif /* (0u != CapSense_2_CSHL_API_GENERATE) */
 643:.\Generated_Source\PSoC4/CapSense_2.c **** 
 644:.\Generated_Source\PSoC4/CapSense_2.c **** 
 645:.\Generated_Source\PSoC4/CapSense_2.c **** /*******************************************************************************
 646:.\Generated_Source\PSoC4/CapSense_2.c **** * Function Name: CapSense_2_ScanEnableWidgets
 647:.\Generated_Source\PSoC4/CapSense_2.c **** ********************************************************************************
 648:.\Generated_Source\PSoC4/CapSense_2.c **** *
 649:.\Generated_Source\PSoC4/CapSense_2.c **** * Summary:
 650:.\Generated_Source\PSoC4/CapSense_2.c **** *  This is the preferred method to scan all of the enabled widgets.
 651:.\Generated_Source\PSoC4/CapSense_2.c **** *  The API starts scanning a sensor within the enabled widgets.
 652:.\Generated_Source\PSoC4/CapSense_2.c **** *  The ISR continues scanning the sensors until all the enabled widgets are scanned.
 653:.\Generated_Source\PSoC4/CapSense_2.c **** *  Use of the ISR ensures this function is non-blocking.
 654:.\Generated_Source\PSoC4/CapSense_2.c **** *  All the widgets are enabled by default except proximity widgets.
 655:.\Generated_Source\PSoC4/CapSense_2.c **** *  The proximity widgets must be manually enabled as their long scan time
 656:.\Generated_Source\PSoC4/CapSense_2.c **** *  is incompatible with a fast response required of other widget types.
 657:.\Generated_Source\PSoC4/CapSense_2.c **** *
 658:.\Generated_Source\PSoC4/CapSense_2.c **** * Parameters:
 659:.\Generated_Source\PSoC4/CapSense_2.c **** *  None
 660:.\Generated_Source\PSoC4/CapSense_2.c **** *
 661:.\Generated_Source\PSoC4/CapSense_2.c **** * Return:
 662:.\Generated_Source\PSoC4/CapSense_2.c **** *  None
 663:.\Generated_Source\PSoC4/CapSense_2.c **** *
 664:.\Generated_Source\PSoC4/CapSense_2.c **** * Global Variables:
 665:.\Generated_Source\PSoC4/CapSense_2.c **** *  CapSense_2_csdStatusVar - used to provide the status and mode of the scanning process.
 666:.\Generated_Source\PSoC4/CapSense_2.c **** *  Sets the busy status(scan in progress) and clears the single scan mode.
 667:.\Generated_Source\PSoC4/CapSense_2.c **** *  CapSense_2_sensorIndex - used to store a sensor scanning sensor number.
 668:.\Generated_Source\PSoC4/CapSense_2.c **** *  Sets to 0xFF and provided to function CapSense_2_FindNextSensor or
 669:.\Generated_Source\PSoC4/CapSense_2.c **** *
 670:.\Generated_Source\PSoC4/CapSense_2.c **** * Side Effects:
 671:.\Generated_Source\PSoC4/CapSense_2.c **** *  None
ARM GAS  C:\Users\glenn\AppData\Local\Temp\ccPcZrmN.s 			page 17


 672:.\Generated_Source\PSoC4/CapSense_2.c **** *
 673:.\Generated_Source\PSoC4/CapSense_2.c **** *******************************************************************************/
 674:.\Generated_Source\PSoC4/CapSense_2.c **** void CapSense_2_ScanEnabledWidgets(void)
 675:.\Generated_Source\PSoC4/CapSense_2.c **** {
 676:.\Generated_Source\PSoC4/CapSense_2.c ****     /* Clears status/control variable and set sensorIndex */
 677:.\Generated_Source\PSoC4/CapSense_2.c ****     CapSense_2_csdStatusVar = 0u;
 678:.\Generated_Source\PSoC4/CapSense_2.c ****     CapSense_2_sensorIndex = 0xFFu;
 679:.\Generated_Source\PSoC4/CapSense_2.c **** 
 680:.\Generated_Source\PSoC4/CapSense_2.c ****     /* Find next sensor */
 681:.\Generated_Source\PSoC4/CapSense_2.c ****     CapSense_2_sensorIndex = (uint8)CapSense_2_FindNextSensor(CapSense_2_sensorIndex);
 682:.\Generated_Source\PSoC4/CapSense_2.c **** 
 683:.\Generated_Source\PSoC4/CapSense_2.c ****     /* Check end of scan condition */
 684:.\Generated_Source\PSoC4/CapSense_2.c ****     if(CapSense_2_sensorIndex < CapSense_2_TOTAL_SENSOR_COUNT)
 685:.\Generated_Source\PSoC4/CapSense_2.c ****     {
 686:.\Generated_Source\PSoC4/CapSense_2.c ****         CapSense_2_csdStatusVar |= CapSense_2_SW_STS_BUSY;
 687:.\Generated_Source\PSoC4/CapSense_2.c ****         CapSense_2_PreScan((uint32)CapSense_2_sensorIndex);
 688:.\Generated_Source\PSoC4/CapSense_2.c ****     }
 689:.\Generated_Source\PSoC4/CapSense_2.c **** }
 690:.\Generated_Source\PSoC4/CapSense_2.c **** 
 691:.\Generated_Source\PSoC4/CapSense_2.c **** 
 692:.\Generated_Source\PSoC4/CapSense_2.c **** /*******************************************************************************
 693:.\Generated_Source\PSoC4/CapSense_2.c **** * Function Name: CapSense_2_IsBusy
 694:.\Generated_Source\PSoC4/CapSense_2.c **** ********************************************************************************
 695:.\Generated_Source\PSoC4/CapSense_2.c **** *
 696:.\Generated_Source\PSoC4/CapSense_2.c **** * Summary:
 697:.\Generated_Source\PSoC4/CapSense_2.c **** *  Returns the state of the CapSense component. 1 means that scanning in
 698:.\Generated_Source\PSoC4/CapSense_2.c **** *  progress and 0 means that scanning is complete.
 699:.\Generated_Source\PSoC4/CapSense_2.c **** *
 700:.\Generated_Source\PSoC4/CapSense_2.c **** * Parameters:
 701:.\Generated_Source\PSoC4/CapSense_2.c **** *  None
 702:.\Generated_Source\PSoC4/CapSense_2.c **** *
 703:.\Generated_Source\PSoC4/CapSense_2.c **** * Return:
 704:.\Generated_Source\PSoC4/CapSense_2.c **** *  Returns the state of scanning. 1 - scanning in progress, 0 - scanning
 705:.\Generated_Source\PSoC4/CapSense_2.c **** *  completed.
 706:.\Generated_Source\PSoC4/CapSense_2.c **** *
 707:.\Generated_Source\PSoC4/CapSense_2.c **** * Global Variables:
 708:.\Generated_Source\PSoC4/CapSense_2.c **** *  CapSense_2_csdStatusVar - used to provide the status and mode of the scanning process.
 709:.\Generated_Source\PSoC4/CapSense_2.c **** *  Checks the busy status.
 710:.\Generated_Source\PSoC4/CapSense_2.c **** *
 711:.\Generated_Source\PSoC4/CapSense_2.c **** * Side Effects:
 712:.\Generated_Source\PSoC4/CapSense_2.c **** *  None
 713:.\Generated_Source\PSoC4/CapSense_2.c **** *
 714:.\Generated_Source\PSoC4/CapSense_2.c **** *******************************************************************************/
 715:.\Generated_Source\PSoC4/CapSense_2.c **** uint32 CapSense_2_IsBusy(void)
 716:.\Generated_Source\PSoC4/CapSense_2.c **** {
 242              		.loc 1 716 0
 243              		.cfi_startproc
 717:.\Generated_Source\PSoC4/CapSense_2.c ****     return ((uint32)((0u != (CapSense_2_csdStatusVar & CapSense_2_SW_STS_BUSY)) ? 1u : 0u));
 244              		.loc 1 717 0
 245 0000 024B     		ldr	r3, .L11
 246 0002 1878     		ldrb	r0, [r3]
 247 0004 0123     		mov	r3, #1
 248 0006 1840     		and	r0, r3
 718:.\Generated_Source\PSoC4/CapSense_2.c **** }
 249              		.loc 1 718 0
 250              		@ sp needed
 251 0008 7047     		bx	lr
ARM GAS  C:\Users\glenn\AppData\Local\Temp\ccPcZrmN.s 			page 18


 252              	.L12:
 253 000a C046     		.align	2
 254              	.L11:
 255 000c 00000000 		.word	.LANCHOR0
 256              		.cfi_endproc
 257              	.LFE43:
 258              		.size	CapSense_2_IsBusy, .-CapSense_2_IsBusy
 259              		.section	.text.CapSense_2_ReadSensorRaw,"ax",%progbits
 260              		.align	2
 261              		.global	CapSense_2_ReadSensorRaw
 262              		.code	16
 263              		.thumb_func
 264              		.type	CapSense_2_ReadSensorRaw, %function
 265              	CapSense_2_ReadSensorRaw:
 266              	.LFB44:
 719:.\Generated_Source\PSoC4/CapSense_2.c **** 
 720:.\Generated_Source\PSoC4/CapSense_2.c **** 
 721:.\Generated_Source\PSoC4/CapSense_2.c **** /*******************************************************************************
 722:.\Generated_Source\PSoC4/CapSense_2.c **** * Function Name: CapSense_2_ReadSensorRaw
 723:.\Generated_Source\PSoC4/CapSense_2.c **** ********************************************************************************
 724:.\Generated_Source\PSoC4/CapSense_2.c **** *
 725:.\Generated_Source\PSoC4/CapSense_2.c **** * Summary:
 726:.\Generated_Source\PSoC4/CapSense_2.c **** *  Returns sensor raw data from the global CapSense_sensorRaw[ ] array.
 727:.\Generated_Source\PSoC4/CapSense_2.c **** *  Each scan sensor has a unique number within the sensor array.
 728:.\Generated_Source\PSoC4/CapSense_2.c **** *  This number is assigned by the CapSense customizer in sequence.
 729:.\Generated_Source\PSoC4/CapSense_2.c **** *  Raw data can be used to perform calculations outside of the CapSense
 730:.\Generated_Source\PSoC4/CapSense_2.c **** *  provided framework.
 731:.\Generated_Source\PSoC4/CapSense_2.c **** *
 732:.\Generated_Source\PSoC4/CapSense_2.c **** * Parameters:
 733:.\Generated_Source\PSoC4/CapSense_2.c **** *  sensor:  Sensor number.
 734:.\Generated_Source\PSoC4/CapSense_2.c **** *
 735:.\Generated_Source\PSoC4/CapSense_2.c **** * Return:
 736:.\Generated_Source\PSoC4/CapSense_2.c **** *  Returns the current raw data value for a defined sensor number.
 737:.\Generated_Source\PSoC4/CapSense_2.c **** *
 738:.\Generated_Source\PSoC4/CapSense_2.c **** * Global Variables:
 739:.\Generated_Source\PSoC4/CapSense_2.c **** *  CapSense_2_sensorRaw[] - used to store sensors raw data.
 740:.\Generated_Source\PSoC4/CapSense_2.c **** *
 741:.\Generated_Source\PSoC4/CapSense_2.c **** * Side Effects:
 742:.\Generated_Source\PSoC4/CapSense_2.c **** *  None
 743:.\Generated_Source\PSoC4/CapSense_2.c **** *
 744:.\Generated_Source\PSoC4/CapSense_2.c **** *******************************************************************************/
 745:.\Generated_Source\PSoC4/CapSense_2.c **** uint16 CapSense_2_ReadSensorRaw(uint32 sensor)
 746:.\Generated_Source\PSoC4/CapSense_2.c **** {
 267              		.loc 1 746 0
 268              		.cfi_startproc
 269              	.LVL27:
 747:.\Generated_Source\PSoC4/CapSense_2.c ****     return CapSense_2_sensorRaw[sensor];
 270              		.loc 1 747 0
 271 0000 4000     		lsl	r0, r0, #1
 272              	.LVL28:
 273 0002 024B     		ldr	r3, .L14
 274 0004 1818     		add	r0, r3, r0
 275 0006 8088     		ldrh	r0, [r0, #4]
 748:.\Generated_Source\PSoC4/CapSense_2.c **** }
 276              		.loc 1 748 0
 277              		@ sp needed
 278 0008 7047     		bx	lr
ARM GAS  C:\Users\glenn\AppData\Local\Temp\ccPcZrmN.s 			page 19


 279              	.L15:
 280 000a C046     		.align	2
 281              	.L14:
 282 000c 00000000 		.word	.LANCHOR0
 283              		.cfi_endproc
 284              	.LFE44:
 285              		.size	CapSense_2_ReadSensorRaw, .-CapSense_2_ReadSensorRaw
 286              		.section	.text.CapSense_2_WriteSensorRaw,"ax",%progbits
 287              		.align	2
 288              		.global	CapSense_2_WriteSensorRaw
 289              		.code	16
 290              		.thumb_func
 291              		.type	CapSense_2_WriteSensorRaw, %function
 292              	CapSense_2_WriteSensorRaw:
 293              	.LFB45:
 749:.\Generated_Source\PSoC4/CapSense_2.c **** 
 750:.\Generated_Source\PSoC4/CapSense_2.c **** 
 751:.\Generated_Source\PSoC4/CapSense_2.c **** /*******************************************************************************
 752:.\Generated_Source\PSoC4/CapSense_2.c **** * Function Name: CapSense_2_WriteSensorRaw
 753:.\Generated_Source\PSoC4/CapSense_2.c **** ********************************************************************************
 754:.\Generated_Source\PSoC4/CapSense_2.c **** *
 755:.\Generated_Source\PSoC4/CapSense_2.c **** * Summary:
 756:.\Generated_Source\PSoC4/CapSense_2.c **** *  This API writes the raw count value passed as an argument to the sensor Raw count array.
 757:.\Generated_Source\PSoC4/CapSense_2.c **** *
 758:.\Generated_Source\PSoC4/CapSense_2.c **** * Parameters:
 759:.\Generated_Source\PSoC4/CapSense_2.c **** *  sensor:  Sensor number.
 760:.\Generated_Source\PSoC4/CapSense_2.c **** *  value: Raw count value.
 761:.\Generated_Source\PSoC4/CapSense_2.c **** *
 762:.\Generated_Source\PSoC4/CapSense_2.c **** * Global Variables:
 763:.\Generated_Source\PSoC4/CapSense_2.c **** *  CapSense_2_sensorRaw[] - used to store sensors raw data.
 764:.\Generated_Source\PSoC4/CapSense_2.c **** *
 765:.\Generated_Source\PSoC4/CapSense_2.c **** * Return:
 766:.\Generated_Source\PSoC4/CapSense_2.c **** *  None
 767:.\Generated_Source\PSoC4/CapSense_2.c **** *
 768:.\Generated_Source\PSoC4/CapSense_2.c **** * Side Effects:
 769:.\Generated_Source\PSoC4/CapSense_2.c **** *  None
 770:.\Generated_Source\PSoC4/CapSense_2.c **** *
 771:.\Generated_Source\PSoC4/CapSense_2.c **** *******************************************************************************/
 772:.\Generated_Source\PSoC4/CapSense_2.c **** void CapSense_2_WriteSensorRaw(uint32 sensor, uint16 value)
 773:.\Generated_Source\PSoC4/CapSense_2.c **** {
 294              		.loc 1 773 0
 295              		.cfi_startproc
 296              	.LVL29:
 774:.\Generated_Source\PSoC4/CapSense_2.c ****     CapSense_2_sensorRaw[sensor] = value;
 297              		.loc 1 774 0
 298 0000 4000     		lsl	r0, r0, #1
 299              	.LVL30:
 300 0002 024B     		ldr	r3, .L17
 301 0004 1818     		add	r0, r3, r0
 302 0006 8180     		strh	r1, [r0, #4]
 775:.\Generated_Source\PSoC4/CapSense_2.c **** }
 303              		.loc 1 775 0
 304              		@ sp needed
 305 0008 7047     		bx	lr
 306              	.L18:
 307 000a C046     		.align	2
 308              	.L17:
ARM GAS  C:\Users\glenn\AppData\Local\Temp\ccPcZrmN.s 			page 20


 309 000c 00000000 		.word	.LANCHOR0
 310              		.cfi_endproc
 311              	.LFE45:
 312              		.size	CapSense_2_WriteSensorRaw, .-CapSense_2_WriteSensorRaw
 313              		.section	.text.CapSense_2_GetScanResolution,"ax",%progbits
 314              		.align	2
 315              		.global	CapSense_2_GetScanResolution
 316              		.code	16
 317              		.thumb_func
 318              		.type	CapSense_2_GetScanResolution, %function
 319              	CapSense_2_GetScanResolution:
 320              	.LFB46:
 776:.\Generated_Source\PSoC4/CapSense_2.c **** 
 777:.\Generated_Source\PSoC4/CapSense_2.c **** 
 778:.\Generated_Source\PSoC4/CapSense_2.c **** #if (CapSense_2_TUNING_METHOD != CapSense_2__TUNING_NONE)
 779:.\Generated_Source\PSoC4/CapSense_2.c ****     /*******************************************************************************
 780:.\Generated_Source\PSoC4/CapSense_2.c ****     * Function Name: CapSense_2_SetScanResolution
 781:.\Generated_Source\PSoC4/CapSense_2.c ****     ********************************************************************************
 782:.\Generated_Source\PSoC4/CapSense_2.c ****     *
 783:.\Generated_Source\PSoC4/CapSense_2.c ****     * Summary:
 784:.\Generated_Source\PSoC4/CapSense_2.c ****     *  Sets a value of the sensor scan resolution for a widget.
 785:.\Generated_Source\PSoC4/CapSense_2.c ****     *  The MIN resolution can be set 8-bit. The MAX Resolution can be set 16 bit.
 786:.\Generated_Source\PSoC4/CapSense_2.c ****     *  This function is not available for the tuning mode "None".
 787:.\Generated_Source\PSoC4/CapSense_2.c ****     *
 788:.\Generated_Source\PSoC4/CapSense_2.c ****     * Parameters:
 789:.\Generated_Source\PSoC4/CapSense_2.c ****     *  widget:     Widget index.
 790:.\Generated_Source\PSoC4/CapSense_2.c ****     *  resolution: Represents the resolution value. The following defines which are available in th
 791:.\Generated_Source\PSoC4/CapSense_2.c ****     *              CapSense_2.h file should be used:
 792:.\Generated_Source\PSoC4/CapSense_2.c ****     *              CapSense_2_RESOLUTION_6_BITS
 793:.\Generated_Source\PSoC4/CapSense_2.c ****     *              CapSense_2_RESOLUTION_7_BITS
 794:.\Generated_Source\PSoC4/CapSense_2.c ****     *              CapSense_2_RESOLUTION_8_BITS
 795:.\Generated_Source\PSoC4/CapSense_2.c ****     *              CapSense_2_RESOLUTION_9_BITS
 796:.\Generated_Source\PSoC4/CapSense_2.c ****     *              CapSense_2_RESOLUTION_10_BITS
 797:.\Generated_Source\PSoC4/CapSense_2.c ****     *              CapSense_2_RESOLUTION_11_BITS
 798:.\Generated_Source\PSoC4/CapSense_2.c ****     *              CapSense_2_RESOLUTION_12_BITS
 799:.\Generated_Source\PSoC4/CapSense_2.c ****     *              CapSense_2_RESOLUTION_13_BITS
 800:.\Generated_Source\PSoC4/CapSense_2.c ****     *              CapSense_2_RESOLUTION_14_BITS
 801:.\Generated_Source\PSoC4/CapSense_2.c ****     *              CapSense_2_RESOLUTION_15_BITS
 802:.\Generated_Source\PSoC4/CapSense_2.c ****     *              CapSense_2_RESOLUTION_16_BITS
 803:.\Generated_Source\PSoC4/CapSense_2.c ****     *
 804:.\Generated_Source\PSoC4/CapSense_2.c ****     * Return:
 805:.\Generated_Source\PSoC4/CapSense_2.c ****     *  None
 806:.\Generated_Source\PSoC4/CapSense_2.c ****     *
 807:.\Generated_Source\PSoC4/CapSense_2.c ****     * Global Variables:
 808:.\Generated_Source\PSoC4/CapSense_2.c ****     *  CapSense_2_widgetResolution[] - used to store scan resolution of each widget.
 809:.\Generated_Source\PSoC4/CapSense_2.c ****     *
 810:.\Generated_Source\PSoC4/CapSense_2.c ****     * Side Effects:
 811:.\Generated_Source\PSoC4/CapSense_2.c ****     *  None
 812:.\Generated_Source\PSoC4/CapSense_2.c ****     *
 813:.\Generated_Source\PSoC4/CapSense_2.c ****     *******************************************************************************/
 814:.\Generated_Source\PSoC4/CapSense_2.c ****     void CapSense_2_SetScanResolution(uint32 widget, uint32 resolution)
 815:.\Generated_Source\PSoC4/CapSense_2.c ****     {
 816:.\Generated_Source\PSoC4/CapSense_2.c ****         CapSense_2_widgetResolution[widget] = resolution;
 817:.\Generated_Source\PSoC4/CapSense_2.c ****     }
 818:.\Generated_Source\PSoC4/CapSense_2.c **** #endif /* (CapSense_2_TUNING_METHOD != CapSense_2__TUNING_NONE) */
 819:.\Generated_Source\PSoC4/CapSense_2.c **** 
 820:.\Generated_Source\PSoC4/CapSense_2.c **** 
ARM GAS  C:\Users\glenn\AppData\Local\Temp\ccPcZrmN.s 			page 21


 821:.\Generated_Source\PSoC4/CapSense_2.c **** /*******************************************************************************
 822:.\Generated_Source\PSoC4/CapSense_2.c **** * Function Name: CapSense_2_GetScanResolution
 823:.\Generated_Source\PSoC4/CapSense_2.c **** ********************************************************************************
 824:.\Generated_Source\PSoC4/CapSense_2.c **** *
 825:.\Generated_Source\PSoC4/CapSense_2.c **** * Summary:
 826:.\Generated_Source\PSoC4/CapSense_2.c **** *  Returns the resolution value for the appropriate sensor.
 827:.\Generated_Source\PSoC4/CapSense_2.c **** *  This function is not available for tuning mode "None".
 828:.\Generated_Source\PSoC4/CapSense_2.c **** *
 829:.\Generated_Source\PSoC4/CapSense_2.c **** * Parameters:
 830:.\Generated_Source\PSoC4/CapSense_2.c **** *  widget:     Widget index.
 831:.\Generated_Source\PSoC4/CapSense_2.c **** *
 832:.\Generated_Source\PSoC4/CapSense_2.c **** * Return:
 833:.\Generated_Source\PSoC4/CapSense_2.c **** *  resolution: Returns the resolution value for the appropriate sensor.
 834:.\Generated_Source\PSoC4/CapSense_2.c **** *              The resolution values are defined in the CapSense_2.h file
 835:.\Generated_Source\PSoC4/CapSense_2.c **** *              The defines are encountered below:
 836:.\Generated_Source\PSoC4/CapSense_2.c **** *              CapSense_2_RESOLUTION_6_BITS
 837:.\Generated_Source\PSoC4/CapSense_2.c **** *              CapSense_2_RESOLUTION_7_BITS
 838:.\Generated_Source\PSoC4/CapSense_2.c **** *              CapSense_2_RESOLUTION_8_BITS
 839:.\Generated_Source\PSoC4/CapSense_2.c **** *              CapSense_2_RESOLUTION_9_BITS
 840:.\Generated_Source\PSoC4/CapSense_2.c **** *              CapSense_2_RESOLUTION_10_BITS
 841:.\Generated_Source\PSoC4/CapSense_2.c **** *              CapSense_2_RESOLUTION_11_BITS
 842:.\Generated_Source\PSoC4/CapSense_2.c **** *              CapSense_2_RESOLUTION_12_BITS
 843:.\Generated_Source\PSoC4/CapSense_2.c **** *              CapSense_2_RESOLUTION_13_BITS
 844:.\Generated_Source\PSoC4/CapSense_2.c **** *              CapSense_2_RESOLUTION_14_BITS
 845:.\Generated_Source\PSoC4/CapSense_2.c **** *              CapSense_2_RESOLUTION_15_BITS
 846:.\Generated_Source\PSoC4/CapSense_2.c **** *              CapSense_2_RESOLUTION_16_BITS
 847:.\Generated_Source\PSoC4/CapSense_2.c **** *
 848:.\Generated_Source\PSoC4/CapSense_2.c **** * Global Variables:
 849:.\Generated_Source\PSoC4/CapSense_2.c **** *  CapSense_2_widgetResolution[] - used to store scan resolution of every widget.
 850:.\Generated_Source\PSoC4/CapSense_2.c **** *
 851:.\Generated_Source\PSoC4/CapSense_2.c **** * Side Effects:
 852:.\Generated_Source\PSoC4/CapSense_2.c **** *  None
 853:.\Generated_Source\PSoC4/CapSense_2.c **** *
 854:.\Generated_Source\PSoC4/CapSense_2.c **** *******************************************************************************/
 855:.\Generated_Source\PSoC4/CapSense_2.c **** uint32 CapSense_2_GetScanResolution(uint32 widget)
 856:.\Generated_Source\PSoC4/CapSense_2.c **** {
 321              		.loc 1 856 0
 322              		.cfi_startproc
 323              	.LVL31:
 857:.\Generated_Source\PSoC4/CapSense_2.c ****     return(CapSense_2_widgetResolution[widget]);
 858:.\Generated_Source\PSoC4/CapSense_2.c **** }
 324              		.loc 1 858 0
 325 0000 0048     		ldr	r0, .L20
 326              	.LVL32:
 327              		@ sp needed
 328 0002 7047     		bx	lr
 329              	.L21:
 330              		.align	2
 331              	.L20:
 332 0004 0000FFFF 		.word	-65536
 333              		.cfi_endproc
 334              	.LFE46:
 335              		.size	CapSense_2_GetScanResolution, .-CapSense_2_GetScanResolution
 336              		.section	.text.CapSense_2_EnableSensor,"ax",%progbits
 337              		.align	2
 338              		.global	CapSense_2_EnableSensor
 339              		.code	16
ARM GAS  C:\Users\glenn\AppData\Local\Temp\ccPcZrmN.s 			page 22


 340              		.thumb_func
 341              		.type	CapSense_2_EnableSensor, %function
 342              	CapSense_2_EnableSensor:
 343              	.LFB48:
 859:.\Generated_Source\PSoC4/CapSense_2.c **** 
 860:.\Generated_Source\PSoC4/CapSense_2.c **** 
 861:.\Generated_Source\PSoC4/CapSense_2.c **** /*******************************************************************************
 862:.\Generated_Source\PSoC4/CapSense_2.c **** * Function Name: CapSense_2_ClearSensors
 863:.\Generated_Source\PSoC4/CapSense_2.c **** ********************************************************************************
 864:.\Generated_Source\PSoC4/CapSense_2.c **** *
 865:.\Generated_Source\PSoC4/CapSense_2.c **** * Summary:
 866:.\Generated_Source\PSoC4/CapSense_2.c **** *  Resets all the sensors to the non-sampling state by sequentially disconnecting
 867:.\Generated_Source\PSoC4/CapSense_2.c **** *  all the sensors from Analog MUX Bus and putting them to an inactive state.
 868:.\Generated_Source\PSoC4/CapSense_2.c **** *
 869:.\Generated_Source\PSoC4/CapSense_2.c **** * Parameters:
 870:.\Generated_Source\PSoC4/CapSense_2.c **** *  None
 871:.\Generated_Source\PSoC4/CapSense_2.c **** *
 872:.\Generated_Source\PSoC4/CapSense_2.c **** * Return:
 873:.\Generated_Source\PSoC4/CapSense_2.c **** *  None
 874:.\Generated_Source\PSoC4/CapSense_2.c **** *
 875:.\Generated_Source\PSoC4/CapSense_2.c **** * Global Variables:
 876:.\Generated_Source\PSoC4/CapSense_2.c **** *  None
 877:.\Generated_Source\PSoC4/CapSense_2.c **** *
 878:.\Generated_Source\PSoC4/CapSense_2.c **** * Side Effects:
 879:.\Generated_Source\PSoC4/CapSense_2.c **** *  None
 880:.\Generated_Source\PSoC4/CapSense_2.c **** *
 881:.\Generated_Source\PSoC4/CapSense_2.c **** *******************************************************************************/
 882:.\Generated_Source\PSoC4/CapSense_2.c **** void CapSense_2_ClearSensors(void)
 883:.\Generated_Source\PSoC4/CapSense_2.c **** {
 884:.\Generated_Source\PSoC4/CapSense_2.c ****     uint32 snsIndex;
 885:.\Generated_Source\PSoC4/CapSense_2.c **** 
 886:.\Generated_Source\PSoC4/CapSense_2.c ****     for (snsIndex = 0u; snsIndex < CapSense_2_TOTAL_SENSOR_COUNT; snsIndex++)
 887:.\Generated_Source\PSoC4/CapSense_2.c ****     {
 888:.\Generated_Source\PSoC4/CapSense_2.c ****         CapSense_2_DisableScanSlot(snsIndex);
 889:.\Generated_Source\PSoC4/CapSense_2.c ****     }
 890:.\Generated_Source\PSoC4/CapSense_2.c **** }
 891:.\Generated_Source\PSoC4/CapSense_2.c **** 
 892:.\Generated_Source\PSoC4/CapSense_2.c **** 
 893:.\Generated_Source\PSoC4/CapSense_2.c **** #if (CapSense_2_IS_COMPLEX_SCANSLOTS)
 894:.\Generated_Source\PSoC4/CapSense_2.c ****     /*******************************************************************************
 895:.\Generated_Source\PSoC4/CapSense_2.c ****     * Function Name: CapSense_2_EnableScanSlot
 896:.\Generated_Source\PSoC4/CapSense_2.c ****     ********************************************************************************
 897:.\Generated_Source\PSoC4/CapSense_2.c ****     *
 898:.\Generated_Source\PSoC4/CapSense_2.c ****     * Summary:
 899:.\Generated_Source\PSoC4/CapSense_2.c ****     *  Configures the selected slot to measure during the next measurement
 900:.\Generated_Source\PSoC4/CapSense_2.c ****     *  cycle. The corresponding pin/pins are set to Analog High-Z mode and
 901:.\Generated_Source\PSoC4/CapSense_2.c ****     *  connected to the Analog Mux Bus. This also enables the comparator function.
 902:.\Generated_Source\PSoC4/CapSense_2.c ****     *
 903:.\Generated_Source\PSoC4/CapSense_2.c ****     * Parameters:
 904:.\Generated_Source\PSoC4/CapSense_2.c ****     *  slot:  Slot number.
 905:.\Generated_Source\PSoC4/CapSense_2.c ****     *
 906:.\Generated_Source\PSoC4/CapSense_2.c ****     * Return:
 907:.\Generated_Source\PSoC4/CapSense_2.c ****     *  None
 908:.\Generated_Source\PSoC4/CapSense_2.c ****     *
 909:.\Generated_Source\PSoC4/CapSense_2.c ****     * Global Constants:
 910:.\Generated_Source\PSoC4/CapSense_2.c ****     *  CapSense_2_portTable[]  - used to store the port number that pin
 911:.\Generated_Source\PSoC4/CapSense_2.c ****     *  belongs to for each sensor.
ARM GAS  C:\Users\glenn\AppData\Local\Temp\ccPcZrmN.s 			page 23


 912:.\Generated_Source\PSoC4/CapSense_2.c ****     *  CapSense_2_maskTable[]  - used to store the pin within the port for
 913:.\Generated_Source\PSoC4/CapSense_2.c ****     *  each sensor.
 914:.\Generated_Source\PSoC4/CapSense_2.c ****     *  CapSense_2_indexTable[] - used to store indexes of complex sensors.
 915:.\Generated_Source\PSoC4/CapSense_2.c ****     *  The offset and position in this array are stored in a port and mask table for
 916:.\Generated_Source\PSoC4/CapSense_2.c ****     *  complex sensors.
 917:.\Generated_Source\PSoC4/CapSense_2.c ****     *  Bit 7 (msb) is used to define the sensor type: single or complex.
 918:.\Generated_Source\PSoC4/CapSense_2.c ****     *
 919:.\Generated_Source\PSoC4/CapSense_2.c ****     * Side Effects:
 920:.\Generated_Source\PSoC4/CapSense_2.c ****     *  None
 921:.\Generated_Source\PSoC4/CapSense_2.c ****     *
 922:.\Generated_Source\PSoC4/CapSense_2.c ****     *******************************************************************************/
 923:.\Generated_Source\PSoC4/CapSense_2.c ****     void CapSense_2_EnableScanSlot(uint32 slot)
 924:.\Generated_Source\PSoC4/CapSense_2.c ****     {
 925:.\Generated_Source\PSoC4/CapSense_2.c ****         uint8 j;
 926:.\Generated_Source\PSoC4/CapSense_2.c ****         uint8 snsNumber;
 927:.\Generated_Source\PSoC4/CapSense_2.c ****         const uint8 *index;
 928:.\Generated_Source\PSoC4/CapSense_2.c ****         /* Read sensor type: single or complex */
 929:.\Generated_Source\PSoC4/CapSense_2.c ****         uint8 snsType = CapSense_2_portTable[slot];
 930:.\Generated_Source\PSoC4/CapSense_2.c **** 
 931:.\Generated_Source\PSoC4/CapSense_2.c ****         /* Check if sensor is complex */
 932:.\Generated_Source\PSoC4/CapSense_2.c ****         if ((snsType & CapSense_2_COMPLEX_SS_FLAG) == 0u)
 933:.\Generated_Source\PSoC4/CapSense_2.c ****         {
 934:.\Generated_Source\PSoC4/CapSense_2.c ****             /* Enable sensor (single) */
 935:.\Generated_Source\PSoC4/CapSense_2.c ****             CapSense_2_EnableSensor(slot);
 936:.\Generated_Source\PSoC4/CapSense_2.c ****         }
 937:.\Generated_Source\PSoC4/CapSense_2.c ****         else
 938:.\Generated_Source\PSoC4/CapSense_2.c ****         {
 939:.\Generated_Source\PSoC4/CapSense_2.c ****             /* Enable complex sensor */
 940:.\Generated_Source\PSoC4/CapSense_2.c ****             snsType &= ~CapSense_2_COMPLEX_SS_FLAG;
 941:.\Generated_Source\PSoC4/CapSense_2.c ****             index = &CapSense_2_indexTable[snsType];
 942:.\Generated_Source\PSoC4/CapSense_2.c ****             snsNumber = CapSense_2_maskTable[slot];
 943:.\Generated_Source\PSoC4/CapSense_2.c **** 
 944:.\Generated_Source\PSoC4/CapSense_2.c ****             for (j = 0u; j < snsNumber; j++)
 945:.\Generated_Source\PSoC4/CapSense_2.c ****             {
 946:.\Generated_Source\PSoC4/CapSense_2.c ****                 CapSense_2_EnableSensor(index[j]);
 947:.\Generated_Source\PSoC4/CapSense_2.c ****             }
 948:.\Generated_Source\PSoC4/CapSense_2.c ****         }
 949:.\Generated_Source\PSoC4/CapSense_2.c ****     }
 950:.\Generated_Source\PSoC4/CapSense_2.c **** 
 951:.\Generated_Source\PSoC4/CapSense_2.c **** 
 952:.\Generated_Source\PSoC4/CapSense_2.c ****     /*******************************************************************************
 953:.\Generated_Source\PSoC4/CapSense_2.c ****     * Function Name: CapSense_2_DisableScanSlot
 954:.\Generated_Source\PSoC4/CapSense_2.c ****     ********************************************************************************
 955:.\Generated_Source\PSoC4/CapSense_2.c ****     *
 956:.\Generated_Source\PSoC4/CapSense_2.c ****     * Summary:
 957:.\Generated_Source\PSoC4/CapSense_2.c ****     *  Disables the selected slot. The corresponding pin/pins is/are disconnected
 958:.\Generated_Source\PSoC4/CapSense_2.c ****     *  from the Analog Mux Bus and connected to GND, High_Z or Shield electrode.
 959:.\Generated_Source\PSoC4/CapSense_2.c ****     *
 960:.\Generated_Source\PSoC4/CapSense_2.c ****     * Parameters:
 961:.\Generated_Source\PSoC4/CapSense_2.c ****     *  slot:  Slot number.
 962:.\Generated_Source\PSoC4/CapSense_2.c ****     *
 963:.\Generated_Source\PSoC4/CapSense_2.c ****     * Return:
 964:.\Generated_Source\PSoC4/CapSense_2.c ****     *  None
 965:.\Generated_Source\PSoC4/CapSense_2.c ****     *
 966:.\Generated_Source\PSoC4/CapSense_2.c ****     * Global Variables:
 967:.\Generated_Source\PSoC4/CapSense_2.c ****     *  CapSense_2_portTable[]  - used to store the port number that pin
 968:.\Generated_Source\PSoC4/CapSense_2.c ****     *  belongs to for each sensor.
ARM GAS  C:\Users\glenn\AppData\Local\Temp\ccPcZrmN.s 			page 24


 969:.\Generated_Source\PSoC4/CapSense_2.c ****     *  CapSense_2_maskTable[]  - used to store the pin within the port for
 970:.\Generated_Source\PSoC4/CapSense_2.c ****     *  each sensor.
 971:.\Generated_Source\PSoC4/CapSense_2.c ****     *  CapSense_2_indexTable[] - used to store indexes of complex sensors.
 972:.\Generated_Source\PSoC4/CapSense_2.c ****     *  The offset and position in this array are stored in a port and mask table for
 973:.\Generated_Source\PSoC4/CapSense_2.c ****     *  complex sensors.
 974:.\Generated_Source\PSoC4/CapSense_2.c ****     *  7bit(msb) is used to define the sensor type: single or complex.
 975:.\Generated_Source\PSoC4/CapSense_2.c ****     *
 976:.\Generated_Source\PSoC4/CapSense_2.c ****     * Side Effects:
 977:.\Generated_Source\PSoC4/CapSense_2.c ****     *  None
 978:.\Generated_Source\PSoC4/CapSense_2.c ****     *
 979:.\Generated_Source\PSoC4/CapSense_2.c ****     *******************************************************************************/
 980:.\Generated_Source\PSoC4/CapSense_2.c ****     void CapSense_2_DisableScanSlot(uint32 slot)
 981:.\Generated_Source\PSoC4/CapSense_2.c ****     {
 982:.\Generated_Source\PSoC4/CapSense_2.c ****         uint8 j;
 983:.\Generated_Source\PSoC4/CapSense_2.c ****         uint8 snsNumber;
 984:.\Generated_Source\PSoC4/CapSense_2.c ****         const uint8 *index;
 985:.\Generated_Source\PSoC4/CapSense_2.c **** 
 986:.\Generated_Source\PSoC4/CapSense_2.c ****         /* Read sensor type: single or complex */
 987:.\Generated_Source\PSoC4/CapSense_2.c ****         uint8 snsType = CapSense_2_portTable[slot];
 988:.\Generated_Source\PSoC4/CapSense_2.c **** 
 989:.\Generated_Source\PSoC4/CapSense_2.c ****         /* Check if sensor is complex */
 990:.\Generated_Source\PSoC4/CapSense_2.c ****         if ((snsType & CapSense_2_COMPLEX_SS_FLAG) == 0u)
 991:.\Generated_Source\PSoC4/CapSense_2.c ****         {
 992:.\Generated_Source\PSoC4/CapSense_2.c ****             /* Disable sensor (single) */
 993:.\Generated_Source\PSoC4/CapSense_2.c ****             CapSense_2_DisableSensor(slot);
 994:.\Generated_Source\PSoC4/CapSense_2.c ****         }
 995:.\Generated_Source\PSoC4/CapSense_2.c ****         else
 996:.\Generated_Source\PSoC4/CapSense_2.c ****         {
 997:.\Generated_Source\PSoC4/CapSense_2.c ****             /* Disable complex sensor */
 998:.\Generated_Source\PSoC4/CapSense_2.c ****             snsType &= ~CapSense_2_COMPLEX_SS_FLAG;
 999:.\Generated_Source\PSoC4/CapSense_2.c ****             index = &CapSense_2_indexTable[snsType];
1000:.\Generated_Source\PSoC4/CapSense_2.c ****             snsNumber = CapSense_2_maskTable[slot];
1001:.\Generated_Source\PSoC4/CapSense_2.c **** 
1002:.\Generated_Source\PSoC4/CapSense_2.c ****             for (j=0; j < snsNumber; j++)
1003:.\Generated_Source\PSoC4/CapSense_2.c ****             {
1004:.\Generated_Source\PSoC4/CapSense_2.c ****                 CapSense_2_DisableSensor(index[j]);
1005:.\Generated_Source\PSoC4/CapSense_2.c ****             }
1006:.\Generated_Source\PSoC4/CapSense_2.c ****         }
1007:.\Generated_Source\PSoC4/CapSense_2.c ****     }
1008:.\Generated_Source\PSoC4/CapSense_2.c **** #endif  /* CapSense_2_IS_COMPLEX_SCANSLOTS */
1009:.\Generated_Source\PSoC4/CapSense_2.c **** 
1010:.\Generated_Source\PSoC4/CapSense_2.c **** 
1011:.\Generated_Source\PSoC4/CapSense_2.c **** /*******************************************************************************
1012:.\Generated_Source\PSoC4/CapSense_2.c **** * Function Name: CapSense_2_EnableSensor
1013:.\Generated_Source\PSoC4/CapSense_2.c **** ********************************************************************************
1014:.\Generated_Source\PSoC4/CapSense_2.c **** *
1015:.\Generated_Source\PSoC4/CapSense_2.c **** * Summary:
1016:.\Generated_Source\PSoC4/CapSense_2.c **** *  Configures the selected sensor to measure during the next measurement cycle.
1017:.\Generated_Source\PSoC4/CapSense_2.c **** *  The corresponding pins are set to Analog High-Z mode and connected to the
1018:.\Generated_Source\PSoC4/CapSense_2.c **** *  Analog Mux Bus. This also enables the comparator function.
1019:.\Generated_Source\PSoC4/CapSense_2.c **** *
1020:.\Generated_Source\PSoC4/CapSense_2.c **** * Parameters:
1021:.\Generated_Source\PSoC4/CapSense_2.c **** *  sensor:  Sensor number.
1022:.\Generated_Source\PSoC4/CapSense_2.c **** *
1023:.\Generated_Source\PSoC4/CapSense_2.c **** * Return:
1024:.\Generated_Source\PSoC4/CapSense_2.c **** *  None
1025:.\Generated_Source\PSoC4/CapSense_2.c **** *
ARM GAS  C:\Users\glenn\AppData\Local\Temp\ccPcZrmN.s 			page 25


1026:.\Generated_Source\PSoC4/CapSense_2.c **** * Global Variables:
1027:.\Generated_Source\PSoC4/CapSense_2.c **** *  CapSense_2_portTable[] - used to store the port number that pin
1028:.\Generated_Source\PSoC4/CapSense_2.c **** *  belongs to for each sensor.
1029:.\Generated_Source\PSoC4/CapSense_2.c **** *  CapSense_2_pinShiftTbl[] - used to store position of pin that
1030:.\Generated_Source\PSoC4/CapSense_2.c **** *  configured as sensor in port.
1031:.\Generated_Source\PSoC4/CapSense_2.c **** *  CapSense_2_prtSelTbl[] - Contains pointers to the HSIOM
1032:.\Generated_Source\PSoC4/CapSense_2.c **** *  registers for each port.
1033:.\Generated_Source\PSoC4/CapSense_2.c **** *  CapSense_2_PrtCfgTb[] - Contains pointers to the port config
1034:.\Generated_Source\PSoC4/CapSense_2.c **** *  registers for each port.
1035:.\Generated_Source\PSoC4/CapSense_2.c **** *
1036:.\Generated_Source\PSoC4/CapSense_2.c **** * Side Effects:
1037:.\Generated_Source\PSoC4/CapSense_2.c **** *  None
1038:.\Generated_Source\PSoC4/CapSense_2.c **** *
1039:.\Generated_Source\PSoC4/CapSense_2.c **** *******************************************************************************/
1040:.\Generated_Source\PSoC4/CapSense_2.c **** void CapSense_2_EnableSensor(uint32 sensor)
1041:.\Generated_Source\PSoC4/CapSense_2.c **** {
 344              		.loc 1 1041 0
 345              		.cfi_startproc
 346              	.LVL33:
 347 0000 38B5     		push	{r3, r4, r5, lr}
 348              		.cfi_def_cfa_offset 16
 349              		.cfi_offset 3, -16
 350              		.cfi_offset 4, -12
 351              		.cfi_offset 5, -8
 352              		.cfi_offset 14, -4
 353              	.LVL34:
1042:.\Generated_Source\PSoC4/CapSense_2.c ****     uint8  pinModeShift;
1043:.\Generated_Source\PSoC4/CapSense_2.c ****     uint8  pinHSIOMShift;
1044:.\Generated_Source\PSoC4/CapSense_2.c ****     uint8 interruptState;
1045:.\Generated_Source\PSoC4/CapSense_2.c ****     uint32 newRegisterValue;
1046:.\Generated_Source\PSoC4/CapSense_2.c ****     uint32 port;
1047:.\Generated_Source\PSoC4/CapSense_2.c **** 
1048:.\Generated_Source\PSoC4/CapSense_2.c ****     port = (uint32) CapSense_2_portTable[sensor];
1049:.\Generated_Source\PSoC4/CapSense_2.c ****     pinModeShift = CapSense_2_pinShiftTbl[sensor]  * CapSense_2_PC_PIN_CFG_SIZE;
1050:.\Generated_Source\PSoC4/CapSense_2.c ****     pinHSIOMShift = CapSense_2_pinShiftTbl[sensor] * CapSense_2_HSIOM_PIN_CFG_SIZE;
1051:.\Generated_Source\PSoC4/CapSense_2.c **** 
1052:.\Generated_Source\PSoC4/CapSense_2.c ****     interruptState = CyEnterCriticalSection();
 354              		.loc 1 1052 0
 355 0002 FFF7FEFF 		bl	CyEnterCriticalSection
 356              	.LVL35:
1053:.\Generated_Source\PSoC4/CapSense_2.c **** 
1054:.\Generated_Source\PSoC4/CapSense_2.c ****     newRegisterValue = *CapSense_2_prtSelTbl[port];
 357              		.loc 1 1054 0
 358 0006 0749     		ldr	r1, .L23
 359 0008 0B68     		ldr	r3, [r1]
 360              	.LVL36:
1055:.\Generated_Source\PSoC4/CapSense_2.c ****     newRegisterValue &= ~(CapSense_2_CSD_HSIOM_MASK << pinHSIOMShift);
 361              		.loc 1 1055 0
 362 000a F022     		mov	r2, #240
 363 000c 9343     		bic	r3, r2
 364              	.LVL37:
1056:.\Generated_Source\PSoC4/CapSense_2.c ****     newRegisterValue |= (uint32)((uint32)CapSense_2_CSD_SENSE_PORT_MODE << pinHSIOMShift);
 365              		.loc 1 1056 0
 366 000e B03A     		sub	r2, r2, #176
 367 0010 1343     		orr	r3, r2
 368              	.LVL38:
1057:.\Generated_Source\PSoC4/CapSense_2.c **** 
ARM GAS  C:\Users\glenn\AppData\Local\Temp\ccPcZrmN.s 			page 26


1058:.\Generated_Source\PSoC4/CapSense_2.c ****     *CapSense_2_prtCfgTbl[port] &= (uint32)~((uint32)CapSense_2_CSD_PIN_MODE_MASK << pinModeShift);
 369              		.loc 1 1058 0
 370 0012 054C     		ldr	r4, .L23+4
 371 0014 2268     		ldr	r2, [r4]
 372 0016 3825     		mov	r5, #56
 373 0018 AA43     		bic	r2, r5
 374 001a 2260     		str	r2, [r4]
1059:.\Generated_Source\PSoC4/CapSense_2.c ****     *CapSense_2_prtSelTbl[port] = newRegisterValue;
 375              		.loc 1 1059 0
 376 001c 0B60     		str	r3, [r1]
1060:.\Generated_Source\PSoC4/CapSense_2.c **** 
1061:.\Generated_Source\PSoC4/CapSense_2.c ****     CyExitCriticalSection(interruptState);
 377              		.loc 1 1061 0
 378 001e FFF7FEFF 		bl	CyExitCriticalSection
 379              	.LVL39:
1062:.\Generated_Source\PSoC4/CapSense_2.c **** }
 380              		.loc 1 1062 0
 381              		@ sp needed
 382 0022 38BD     		pop	{r3, r4, r5, pc}
 383              	.L24:
 384              		.align	2
 385              	.L23:
 386 0024 00040240 		.word	1073873920
 387 0028 08040440 		.word	1074005000
 388              		.cfi_endproc
 389              	.LFE48:
 390              		.size	CapSense_2_EnableSensor, .-CapSense_2_EnableSensor
 391              		.section	.text.CapSense_2_DisableSensor,"ax",%progbits
 392              		.align	2
 393              		.global	CapSense_2_DisableSensor
 394              		.code	16
 395              		.thumb_func
 396              		.type	CapSense_2_DisableSensor, %function
 397              	CapSense_2_DisableSensor:
 398              	.LFB49:
1063:.\Generated_Source\PSoC4/CapSense_2.c **** 
1064:.\Generated_Source\PSoC4/CapSense_2.c **** 
1065:.\Generated_Source\PSoC4/CapSense_2.c **** /*******************************************************************************
1066:.\Generated_Source\PSoC4/CapSense_2.c **** * Function Name: CapSense_2_DisableSensor
1067:.\Generated_Source\PSoC4/CapSense_2.c **** ********************************************************************************
1068:.\Generated_Source\PSoC4/CapSense_2.c **** *
1069:.\Generated_Source\PSoC4/CapSense_2.c **** * Summary:
1070:.\Generated_Source\PSoC4/CapSense_2.c **** *  Disables the selected sensor. The corresponding pin is disconnected from the
1071:.\Generated_Source\PSoC4/CapSense_2.c **** *  Analog Mux Bus and connected to GND, High_Z or Shield electrode.
1072:.\Generated_Source\PSoC4/CapSense_2.c **** *
1073:.\Generated_Source\PSoC4/CapSense_2.c **** * Parameters:
1074:.\Generated_Source\PSoC4/CapSense_2.c **** *  sensor:  Sensor number
1075:.\Generated_Source\PSoC4/CapSense_2.c **** *
1076:.\Generated_Source\PSoC4/CapSense_2.c **** * Return:
1077:.\Generated_Source\PSoC4/CapSense_2.c **** *  None
1078:.\Generated_Source\PSoC4/CapSense_2.c **** *
1079:.\Generated_Source\PSoC4/CapSense_2.c **** * Global Variables:
1080:.\Generated_Source\PSoC4/CapSense_2.c **** *  CapSense_2_portTable[] - used to store the port number that pin
1081:.\Generated_Source\PSoC4/CapSense_2.c **** *  belongs to for each sensor.
1082:.\Generated_Source\PSoC4/CapSense_2.c **** *  CapSense_2_pinShiftTbl[] - used to store position of pin that
1083:.\Generated_Source\PSoC4/CapSense_2.c **** *  configured as a sensor in the port.
1084:.\Generated_Source\PSoC4/CapSense_2.c **** *  CapSense_2_prtSelTbl[] - Contains pointers to the HSIOM
ARM GAS  C:\Users\glenn\AppData\Local\Temp\ccPcZrmN.s 			page 27


1085:.\Generated_Source\PSoC4/CapSense_2.c **** *  registers for each port.
1086:.\Generated_Source\PSoC4/CapSense_2.c **** *  CapSense_2_PrtCfgTb[] - Contains pointers to the port config
1087:.\Generated_Source\PSoC4/CapSense_2.c **** *  registers for each port.
1088:.\Generated_Source\PSoC4/CapSense_2.c **** *
1089:.\Generated_Source\PSoC4/CapSense_2.c **** * Side Effects:
1090:.\Generated_Source\PSoC4/CapSense_2.c **** *  None
1091:.\Generated_Source\PSoC4/CapSense_2.c **** *
1092:.\Generated_Source\PSoC4/CapSense_2.c **** *******************************************************************************/
1093:.\Generated_Source\PSoC4/CapSense_2.c **** void CapSense_2_DisableSensor(uint32 sensor)
1094:.\Generated_Source\PSoC4/CapSense_2.c **** {
 399              		.loc 1 1094 0
 400              		.cfi_startproc
 401              	.LVL40:
 402 0000 10B5     		push	{r4, lr}
 403              		.cfi_def_cfa_offset 8
 404              		.cfi_offset 4, -8
 405              		.cfi_offset 14, -4
 406              	.LVL41:
1095:.\Generated_Source\PSoC4/CapSense_2.c ****     uint8 interruptState;
1096:.\Generated_Source\PSoC4/CapSense_2.c ****     uint32 newRegisterValue;
1097:.\Generated_Source\PSoC4/CapSense_2.c **** 
1098:.\Generated_Source\PSoC4/CapSense_2.c ****     uint32 port = (uint32) CapSense_2_portTable[sensor];
1099:.\Generated_Source\PSoC4/CapSense_2.c ****     uint8  pinHSIOMShift = CapSense_2_pinShiftTbl[sensor] * CapSense_2_HSIOM_PIN_CFG_SIZE;
1100:.\Generated_Source\PSoC4/CapSense_2.c ****     uint8  pinModeShift = CapSense_2_pinShiftTbl[sensor]  * CapSense_2_PC_PIN_CFG_SIZE;
1101:.\Generated_Source\PSoC4/CapSense_2.c **** 
1102:.\Generated_Source\PSoC4/CapSense_2.c ****     uint32 inactiveConnect = CapSense_2_SNS_HIZANALOG_CONNECT;
1103:.\Generated_Source\PSoC4/CapSense_2.c ****     uint32 sensorState = CapSense_2_unscannedSnsDriveMode[sensor];
 407              		.loc 1 1103 0
 408 0002 104B     		ldr	r3, .L30
 409 0004 1A5C     		ldrb	r2, [r3, r0]
 410              	.LVL42:
1104:.\Generated_Source\PSoC4/CapSense_2.c **** 
1105:.\Generated_Source\PSoC4/CapSense_2.c ****     *CapSense_2_prtSelTbl[port] &= ~(CapSense_2_CSD_HSIOM_MASK << pinHSIOMShift);
 411              		.loc 1 1105 0
 412 0006 1049     		ldr	r1, .L30+4
 413 0008 0B68     		ldr	r3, [r1]
 414 000a F020     		mov	r0, #240
 415              	.LVL43:
 416 000c 8343     		bic	r3, r0
 417 000e 0B60     		str	r3, [r1]
1106:.\Generated_Source\PSoC4/CapSense_2.c **** 
1107:.\Generated_Source\PSoC4/CapSense_2.c ****     #if(CapSense_2_IS_SHIELD_ENABLE != 0)
1108:.\Generated_Source\PSoC4/CapSense_2.c ****     if(sensorState != (uint32)CapSense_2__SHIELD)
1109:.\Generated_Source\PSoC4/CapSense_2.c ****     {
1110:.\Generated_Source\PSoC4/CapSense_2.c ****     #else
1111:.\Generated_Source\PSoC4/CapSense_2.c ****         /* Connected to Ground if shield is disabled */
1112:.\Generated_Source\PSoC4/CapSense_2.c ****         if(sensorState == (uint32)CapSense_2__SHIELD)
 418              		.loc 1 1112 0
 419 0010 022A     		cmp	r2, #2
 420 0012 00D1     		bne	.L26
1113:.\Generated_Source\PSoC4/CapSense_2.c ****         {
1114:.\Generated_Source\PSoC4/CapSense_2.c ****             sensorState = (uint32)CapSense_2__GROUND;
 421              		.loc 1 1114 0
 422 0014 0022     		mov	r2, #0
 423              	.LVL44:
 424              	.L26:
1115:.\Generated_Source\PSoC4/CapSense_2.c ****         }
ARM GAS  C:\Users\glenn\AppData\Local\Temp\ccPcZrmN.s 			page 28


1116:.\Generated_Source\PSoC4/CapSense_2.c ****     #endif /* (CapSense_2_IS_SHIELD_ENABLE) */
1117:.\Generated_Source\PSoC4/CapSense_2.c ****         if(sensorState != (uint32)CapSense_2__HIZ_ANALOG)
 425              		.loc 1 1117 0
 426 0016 012A     		cmp	r2, #1
 427 0018 01D1     		bne	.L29
1102:.\Generated_Source\PSoC4/CapSense_2.c ****     uint32 sensorState = CapSense_2_unscannedSnsDriveMode[sensor];
 428              		.loc 1 1102 0
 429 001a 0024     		mov	r4, #0
 430 001c 00E0     		b	.L27
 431              	.L29:
1118:.\Generated_Source\PSoC4/CapSense_2.c ****         {
1119:.\Generated_Source\PSoC4/CapSense_2.c ****             /* Connected to Ground */
1120:.\Generated_Source\PSoC4/CapSense_2.c ****             inactiveConnect = (uint32)CapSense_2_SNS_GROUND_CONNECT;
 432              		.loc 1 1120 0
 433 001e 0624     		mov	r4, #6
 434              	.L27:
 435              	.LVL45:
1121:.\Generated_Source\PSoC4/CapSense_2.c ****         }
1122:.\Generated_Source\PSoC4/CapSense_2.c **** 
1123:.\Generated_Source\PSoC4/CapSense_2.c ****         interruptState = CyEnterCriticalSection();
 436              		.loc 1 1123 0
 437 0020 FFF7FEFF 		bl	CyEnterCriticalSection
 438              	.LVL46:
1124:.\Generated_Source\PSoC4/CapSense_2.c **** 
1125:.\Generated_Source\PSoC4/CapSense_2.c ****         /* Set drive mode */
1126:.\Generated_Source\PSoC4/CapSense_2.c ****         newRegisterValue = *CapSense_2_prtCfgTbl[port];
 439              		.loc 1 1126 0
 440 0024 0949     		ldr	r1, .L30+8
 441 0026 0B68     		ldr	r3, [r1]
 442              	.LVL47:
1127:.\Generated_Source\PSoC4/CapSense_2.c ****         newRegisterValue &= ~(CapSense_2_CSD_PIN_MODE_MASK << pinModeShift);
 443              		.loc 1 1127 0
 444 0028 3822     		mov	r2, #56
 445 002a 9343     		bic	r3, r2
 446              	.LVL48:
 447 002c 1A1C     		mov	r2, r3
 448              	.LVL49:
1128:.\Generated_Source\PSoC4/CapSense_2.c ****         newRegisterValue |=  (uint32)(inactiveConnect << pinModeShift);
 449              		.loc 1 1128 0
 450 002e E300     		lsl	r3, r4, #3
 451 0030 1343     		orr	r3, r2
 452              	.LVL50:
1129:.\Generated_Source\PSoC4/CapSense_2.c ****         *CapSense_2_prtCfgTbl[port] =  newRegisterValue;
 453              		.loc 1 1129 0
 454 0032 0B60     		str	r3, [r1]
1130:.\Generated_Source\PSoC4/CapSense_2.c **** 
1131:.\Generated_Source\PSoC4/CapSense_2.c ****         CyExitCriticalSection(interruptState);
 455              		.loc 1 1131 0
 456 0034 FFF7FEFF 		bl	CyExitCriticalSection
 457              	.LVL51:
1132:.\Generated_Source\PSoC4/CapSense_2.c **** 
1133:.\Generated_Source\PSoC4/CapSense_2.c ****         *CapSense_2_prtDRTbl[port]  &=  (uint32)~(uint32)((uint32)1u << CapSense_2_pinShiftTbl[sens
 458              		.loc 1 1133 0
 459 0038 054A     		ldr	r2, .L30+12
 460 003a 1368     		ldr	r3, [r2]
 461 003c 0221     		mov	r1, #2
 462 003e 8B43     		bic	r3, r1
ARM GAS  C:\Users\glenn\AppData\Local\Temp\ccPcZrmN.s 			page 29


 463 0040 1360     		str	r3, [r2]
1134:.\Generated_Source\PSoC4/CapSense_2.c ****     #if(CapSense_2_IS_SHIELD_ENABLE != 0)
1135:.\Generated_Source\PSoC4/CapSense_2.c ****     }
1136:.\Generated_Source\PSoC4/CapSense_2.c ****     else
1137:.\Generated_Source\PSoC4/CapSense_2.c ****     {
1138:.\Generated_Source\PSoC4/CapSense_2.c ****         /* Connect to Shield */
1139:.\Generated_Source\PSoC4/CapSense_2.c ****         *CapSense_2_prtSelTbl[port] |= (CapSense_2_CSD_SHIELD_PORT_MODE << pinHSIOMShift);
1140:.\Generated_Source\PSoC4/CapSense_2.c ****     }
1141:.\Generated_Source\PSoC4/CapSense_2.c ****     #endif /* (CapSense_2_IS_SHIELD_ENABLE) */
1142:.\Generated_Source\PSoC4/CapSense_2.c **** }
 464              		.loc 1 1142 0
 465              		@ sp needed
 466              	.LVL52:
 467 0042 10BD     		pop	{r4, pc}
 468              	.L31:
 469              		.align	2
 470              	.L30:
 471 0044 00000000 		.word	CapSense_2_unscannedSnsDriveMode
 472 0048 00040240 		.word	1073873920
 473 004c 08040440 		.word	1074005000
 474 0050 00040440 		.word	1074004992
 475              		.cfi_endproc
 476              	.LFE49:
 477              		.size	CapSense_2_DisableSensor, .-CapSense_2_DisableSensor
 478              		.section	.text.CapSense_2_ClearSensors,"ax",%progbits
 479              		.align	2
 480              		.global	CapSense_2_ClearSensors
 481              		.code	16
 482              		.thumb_func
 483              		.type	CapSense_2_ClearSensors, %function
 484              	CapSense_2_ClearSensors:
 485              	.LFB47:
 883:.\Generated_Source\PSoC4/CapSense_2.c ****     uint32 snsIndex;
 486              		.loc 1 883 0
 487              		.cfi_startproc
 488 0000 10B5     		push	{r4, lr}
 489              		.cfi_def_cfa_offset 8
 490              		.cfi_offset 4, -8
 491              		.cfi_offset 14, -4
 492              	.LVL53:
 886:.\Generated_Source\PSoC4/CapSense_2.c ****     {
 493              		.loc 1 886 0
 494 0002 0024     		mov	r4, #0
 495 0004 03E0     		b	.L33
 496              	.LVL54:
 497              	.L34:
 888:.\Generated_Source\PSoC4/CapSense_2.c ****     }
 498              		.loc 1 888 0 discriminator 3
 499 0006 201C     		mov	r0, r4
 500 0008 FFF7FEFF 		bl	CapSense_2_DisableSensor
 501              	.LVL55:
 886:.\Generated_Source\PSoC4/CapSense_2.c ****     {
 502              		.loc 1 886 0 discriminator 3
 503 000c 0134     		add	r4, r4, #1
 504              	.LVL56:
 505              	.L33:
 886:.\Generated_Source\PSoC4/CapSense_2.c ****     {
ARM GAS  C:\Users\glenn\AppData\Local\Temp\ccPcZrmN.s 			page 30


 506              		.loc 1 886 0 is_stmt 0 discriminator 1
 507 000e 002C     		cmp	r4, #0
 508 0010 F9D0     		beq	.L34
 890:.\Generated_Source\PSoC4/CapSense_2.c **** 
 509              		.loc 1 890 0 is_stmt 1
 510              		@ sp needed
 511              	.LVL57:
 512 0012 10BD     		pop	{r4, pc}
 513              		.cfi_endproc
 514              	.LFE47:
 515              		.size	CapSense_2_ClearSensors, .-CapSense_2_ClearSensors
 516              		.section	.text.CapSense_2_SetPinDriveMode,"ax",%progbits
 517              		.align	2
 518              		.global	CapSense_2_SetPinDriveMode
 519              		.code	16
 520              		.thumb_func
 521              		.type	CapSense_2_SetPinDriveMode, %function
 522              	CapSense_2_SetPinDriveMode:
 523              	.LFB52:
1143:.\Generated_Source\PSoC4/CapSense_2.c **** 
1144:.\Generated_Source\PSoC4/CapSense_2.c **** 
1145:.\Generated_Source\PSoC4/CapSense_2.c **** /*******************************************************************************
1146:.\Generated_Source\PSoC4/CapSense_2.c **** * Function Name: CapSense_2_SetDriveModeAllPins
1147:.\Generated_Source\PSoC4/CapSense_2.c **** ********************************************************************************
1148:.\Generated_Source\PSoC4/CapSense_2.c **** *
1149:.\Generated_Source\PSoC4/CapSense_2.c **** * Summary:
1150:.\Generated_Source\PSoC4/CapSense_2.c **** * This API sets the drive mode of port pins used by the CapSense
1151:.\Generated_Source\PSoC4/CapSense_2.c **** * component (sensors, guard, shield, shield tank and Cmod) to drive the
1152:.\Generated_Source\PSoC4/CapSense_2.c **** * mode specified by the argument.
1153:.\Generated_Source\PSoC4/CapSense_2.c **** *
1154:.\Generated_Source\PSoC4/CapSense_2.c **** * Parameters:
1155:.\Generated_Source\PSoC4/CapSense_2.c **** *  driveMode:  Drive mode definition.
1156:.\Generated_Source\PSoC4/CapSense_2.c **** *
1157:.\Generated_Source\PSoC4/CapSense_2.c **** * Return:
1158:.\Generated_Source\PSoC4/CapSense_2.c **** *  None
1159:.\Generated_Source\PSoC4/CapSense_2.c **** *
1160:.\Generated_Source\PSoC4/CapSense_2.c **** * Global Variables:
1161:.\Generated_Source\PSoC4/CapSense_2.c **** *  CapSense_2_portTable[] - used to store the port number that pin
1162:.\Generated_Source\PSoC4/CapSense_2.c **** *  belongs to for each sensor.
1163:.\Generated_Source\PSoC4/CapSense_2.c **** *  CapSense_2_pinShiftTbl[] - used to store position of pin that
1164:.\Generated_Source\PSoC4/CapSense_2.c **** *  configured as a sensor in the port.
1165:.\Generated_Source\PSoC4/CapSense_2.c **** *
1166:.\Generated_Source\PSoC4/CapSense_2.c **** * Side Effects:
1167:.\Generated_Source\PSoC4/CapSense_2.c **** *  This API shall be called only after CapSense component is stopped.
1168:.\Generated_Source\PSoC4/CapSense_2.c **** *
1169:.\Generated_Source\PSoC4/CapSense_2.c **** *******************************************************************************/
1170:.\Generated_Source\PSoC4/CapSense_2.c **** void CapSense_2_SetDriveModeAllPins(uint32 driveMode)
1171:.\Generated_Source\PSoC4/CapSense_2.c **** {
1172:.\Generated_Source\PSoC4/CapSense_2.c ****     uint8 curSensor;
1173:.\Generated_Source\PSoC4/CapSense_2.c ****     #if (CapSense_2_IS_COMPLEX_SCANSLOTS)
1174:.\Generated_Source\PSoC4/CapSense_2.c ****         uint8 snsNumber;
1175:.\Generated_Source\PSoC4/CapSense_2.c ****         uint8 snsType;
1176:.\Generated_Source\PSoC4/CapSense_2.c ****     #endif  /* CapSense_2_IS_COMPLEX_SCANSLOTS */
1177:.\Generated_Source\PSoC4/CapSense_2.c ****     uint32 prtNumberTmp;
1178:.\Generated_Source\PSoC4/CapSense_2.c ****     uint32 pinNumberTmp;
1179:.\Generated_Source\PSoC4/CapSense_2.c **** 
1180:.\Generated_Source\PSoC4/CapSense_2.c ****     for(curSensor = 0u; curSensor < CapSense_2_TOTAL_SENSOR_COUNT; curSensor++)
ARM GAS  C:\Users\glenn\AppData\Local\Temp\ccPcZrmN.s 			page 31


1181:.\Generated_Source\PSoC4/CapSense_2.c ****     {
1182:.\Generated_Source\PSoC4/CapSense_2.c ****         #if (CapSense_2_IS_COMPLEX_SCANSLOTS)
1183:.\Generated_Source\PSoC4/CapSense_2.c ****             /* Read sensor type: single or complex */
1184:.\Generated_Source\PSoC4/CapSense_2.c ****             snsType = CapSense_2_portTable[curSensor];
1185:.\Generated_Source\PSoC4/CapSense_2.c **** 
1186:.\Generated_Source\PSoC4/CapSense_2.c ****             /* Check if sensor is complex */
1187:.\Generated_Source\PSoC4/CapSense_2.c ****             if ((snsType & CapSense_2_COMPLEX_SS_FLAG) == 0u)
1188:.\Generated_Source\PSoC4/CapSense_2.c ****             {
1189:.\Generated_Source\PSoC4/CapSense_2.c ****                 /* The sensor is not complex */
1190:.\Generated_Source\PSoC4/CapSense_2.c ****                 snsNumber = curSensor;
1191:.\Generated_Source\PSoC4/CapSense_2.c ****             }
1192:.\Generated_Source\PSoC4/CapSense_2.c ****             else
1193:.\Generated_Source\PSoC4/CapSense_2.c ****             {
1194:.\Generated_Source\PSoC4/CapSense_2.c ****                 /* Get dedicated sensor ID of the complex sensor */
1195:.\Generated_Source\PSoC4/CapSense_2.c ****                 snsType &= ~CapSense_2_COMPLEX_SS_FLAG;
1196:.\Generated_Source\PSoC4/CapSense_2.c ****                 snsNumber = CapSense_2_indexTable[snsType];
1197:.\Generated_Source\PSoC4/CapSense_2.c ****             }
1198:.\Generated_Source\PSoC4/CapSense_2.c **** 
1199:.\Generated_Source\PSoC4/CapSense_2.c ****             prtNumberTmp = CapSense_2_portTable[snsNumber];
1200:.\Generated_Source\PSoC4/CapSense_2.c ****             pinNumberTmp = CapSense_2_pinShiftTbl[snsNumber];
1201:.\Generated_Source\PSoC4/CapSense_2.c ****         #else
1202:.\Generated_Source\PSoC4/CapSense_2.c ****             prtNumberTmp = CapSense_2_portTable[curSensor];
1203:.\Generated_Source\PSoC4/CapSense_2.c ****             pinNumberTmp = CapSense_2_pinShiftTbl[curSensor];
1204:.\Generated_Source\PSoC4/CapSense_2.c ****         #endif  /* CapSense_2_IS_COMPLEX_SCANSLOTS */
1205:.\Generated_Source\PSoC4/CapSense_2.c **** 
1206:.\Generated_Source\PSoC4/CapSense_2.c ****         CapSense_2_SetPinDriveMode(driveMode, pinNumberTmp, prtNumberTmp);
1207:.\Generated_Source\PSoC4/CapSense_2.c ****     }
1208:.\Generated_Source\PSoC4/CapSense_2.c **** 
1209:.\Generated_Source\PSoC4/CapSense_2.c ****     CapSense_2_SetPinDriveMode(driveMode, (uint32)CapSense_2_CMOD_PIN_NUMBER, (uint32)CapSense_2_CM
1210:.\Generated_Source\PSoC4/CapSense_2.c **** 
1211:.\Generated_Source\PSoC4/CapSense_2.c ****     #if(0u != CapSense_2_CSH_TANK_ENABLE)
1212:.\Generated_Source\PSoC4/CapSense_2.c ****         CapSense_2_SetPinDriveMode(driveMode, (uint32)CapSense_2_CTANK_PIN_NUMBER, (uint32)CapSense
1213:.\Generated_Source\PSoC4/CapSense_2.c ****     #endif /* (0u != CapSense_2_CSH_TANK_ENABLE) */
1214:.\Generated_Source\PSoC4/CapSense_2.c **** 
1215:.\Generated_Source\PSoC4/CapSense_2.c ****     #if(0u != CapSense_2_IS_SHIELD_ENABLE)
1216:.\Generated_Source\PSoC4/CapSense_2.c ****         CapSense_2_SetPinDriveMode(driveMode, (uint32)CapSense_2_SHIELD_PIN_NUMBER, (uint32)CapSens
1217:.\Generated_Source\PSoC4/CapSense_2.c ****     #endif /* (0u != CapSense_2_IS_SHIELD_ENABLE) */
1218:.\Generated_Source\PSoC4/CapSense_2.c **** }
1219:.\Generated_Source\PSoC4/CapSense_2.c **** 
1220:.\Generated_Source\PSoC4/CapSense_2.c **** 
1221:.\Generated_Source\PSoC4/CapSense_2.c **** /*******************************************************************************
1222:.\Generated_Source\PSoC4/CapSense_2.c **** * Function Name: CapSense_2_RestoreDriveModeAllPins
1223:.\Generated_Source\PSoC4/CapSense_2.c **** ********************************************************************************
1224:.\Generated_Source\PSoC4/CapSense_2.c **** *
1225:.\Generated_Source\PSoC4/CapSense_2.c **** * Summary:
1226:.\Generated_Source\PSoC4/CapSense_2.c **** *  This API restores the drive for all the CapSense port pins to the original
1227:.\Generated_Source\PSoC4/CapSense_2.c **** *  state.
1228:.\Generated_Source\PSoC4/CapSense_2.c **** *
1229:.\Generated_Source\PSoC4/CapSense_2.c **** * Parameters:
1230:.\Generated_Source\PSoC4/CapSense_2.c **** *  None
1231:.\Generated_Source\PSoC4/CapSense_2.c **** *
1232:.\Generated_Source\PSoC4/CapSense_2.c **** * Return:
1233:.\Generated_Source\PSoC4/CapSense_2.c **** *  None
1234:.\Generated_Source\PSoC4/CapSense_2.c **** *
1235:.\Generated_Source\PSoC4/CapSense_2.c **** * Global Variables:
1236:.\Generated_Source\PSoC4/CapSense_2.c **** *  CapSense_2_prtSelTbl[] - Contains pointers to the HSIOM
1237:.\Generated_Source\PSoC4/CapSense_2.c **** *  registers for each port.
ARM GAS  C:\Users\glenn\AppData\Local\Temp\ccPcZrmN.s 			page 32


1238:.\Generated_Source\PSoC4/CapSense_2.c **** *
1239:.\Generated_Source\PSoC4/CapSense_2.c **** * Side Effects:
1240:.\Generated_Source\PSoC4/CapSense_2.c **** *  This API is called only after the CapSense component is stopped.
1241:.\Generated_Source\PSoC4/CapSense_2.c **** *
1242:.\Generated_Source\PSoC4/CapSense_2.c **** *******************************************************************************/
1243:.\Generated_Source\PSoC4/CapSense_2.c **** void CapSense_2_RestoreDriveModeAllPins(void)
1244:.\Generated_Source\PSoC4/CapSense_2.c **** {
1245:.\Generated_Source\PSoC4/CapSense_2.c ****     uint32 newRegisterValue;
1246:.\Generated_Source\PSoC4/CapSense_2.c **** 
1247:.\Generated_Source\PSoC4/CapSense_2.c ****     CapSense_2_SetDriveModeAllPins(CY_SYS_PINS_DM_ALG_HIZ);
1248:.\Generated_Source\PSoC4/CapSense_2.c **** 
1249:.\Generated_Source\PSoC4/CapSense_2.c ****     newRegisterValue = CapSense_2_CMOD_CONNECTION_REG;
1250:.\Generated_Source\PSoC4/CapSense_2.c ****     newRegisterValue &= ~(CapSense_2_CSD_CMOD_CONNECTION_MASK);
1251:.\Generated_Source\PSoC4/CapSense_2.c ****     newRegisterValue |= CapSense_2_CSD_CMOD_TO_AMUXBUS_A;
1252:.\Generated_Source\PSoC4/CapSense_2.c ****     CapSense_2_CMOD_CONNECTION_REG = newRegisterValue;
1253:.\Generated_Source\PSoC4/CapSense_2.c **** 
1254:.\Generated_Source\PSoC4/CapSense_2.c ****     #if(0u != CapSense_2_CSH_TANK_ENABLE)
1255:.\Generated_Source\PSoC4/CapSense_2.c ****         newRegisterValue = CapSense_2_CTANK_CONNECTION_REG;
1256:.\Generated_Source\PSoC4/CapSense_2.c ****         newRegisterValue &= ~(CapSense_2_CSD_CTANK_CONNECTION_MASK);
1257:.\Generated_Source\PSoC4/CapSense_2.c ****         newRegisterValue |= CapSense_2_CSD_CTANK_TO_AMUXBUS_B;
1258:.\Generated_Source\PSoC4/CapSense_2.c ****         CapSense_2_CTANK_CONNECTION_REG = newRegisterValue;
1259:.\Generated_Source\PSoC4/CapSense_2.c ****     #endif/* (0u != CapSense_2_CSH_TANK_ENABLE) */
1260:.\Generated_Source\PSoC4/CapSense_2.c **** 
1261:.\Generated_Source\PSoC4/CapSense_2.c ****     #if(0u != CapSense_2_IS_SHIELD_ENABLE)
1262:.\Generated_Source\PSoC4/CapSense_2.c ****         newRegisterValue = *CapSense_2_prtSelTbl[CapSense_2_SHIELD_PORT_NUMBER];
1263:.\Generated_Source\PSoC4/CapSense_2.c ****         newRegisterValue &= ~(CapSense_2_CSD_HSIOM_MASK << ((uint32)CapSense_2_SHIELD_PIN_NUMBER * 
1264:.\Generated_Source\PSoC4/CapSense_2.c ****         newRegisterValue |= (CapSense_2_CSD_SHIELD_PORT_MODE << ((uint32)CapSense_2_SHIELD_PIN_NUMB
1265:.\Generated_Source\PSoC4/CapSense_2.c ****         *CapSense_2_prtSelTbl[CapSense_2_SHIELD_PORT_NUMBER] = newRegisterValue;
1266:.\Generated_Source\PSoC4/CapSense_2.c ****     #endif /* (0u != CapSense_2_IS_SHIELD_ENABLE) */
1267:.\Generated_Source\PSoC4/CapSense_2.c **** }
1268:.\Generated_Source\PSoC4/CapSense_2.c **** 
1269:.\Generated_Source\PSoC4/CapSense_2.c **** 
1270:.\Generated_Source\PSoC4/CapSense_2.c **** /*******************************************************************************
1271:.\Generated_Source\PSoC4/CapSense_2.c **** * Function Name: CapSense_2_SetPinDriveMode
1272:.\Generated_Source\PSoC4/CapSense_2.c **** ********************************************************************************
1273:.\Generated_Source\PSoC4/CapSense_2.c **** *
1274:.\Generated_Source\PSoC4/CapSense_2.c **** * Summary:
1275:.\Generated_Source\PSoC4/CapSense_2.c **** * This API sets the drive mode for the appropriate port/pin.
1276:.\Generated_Source\PSoC4/CapSense_2.c **** *
1277:.\Generated_Source\PSoC4/CapSense_2.c **** * Parameters:
1278:.\Generated_Source\PSoC4/CapSense_2.c **** *  driveMode:  Drive mode definition.
1279:.\Generated_Source\PSoC4/CapSense_2.c **** *  portNumber: contains port number (0, 1, 2).
1280:.\Generated_Source\PSoC4/CapSense_2.c **** *  pinNumber: contains pin number (0, 1, 2, ... , 7).
1281:.\Generated_Source\PSoC4/CapSense_2.c **** *
1282:.\Generated_Source\PSoC4/CapSense_2.c **** * Return:
1283:.\Generated_Source\PSoC4/CapSense_2.c **** *  None
1284:.\Generated_Source\PSoC4/CapSense_2.c **** *
1285:.\Generated_Source\PSoC4/CapSense_2.c **** * Global Variables:
1286:.\Generated_Source\PSoC4/CapSense_2.c **** *  CapSense_2_prtSelTbl[] - Contains pointers to the HSIOM
1287:.\Generated_Source\PSoC4/CapSense_2.c **** *  registers for each port.
1288:.\Generated_Source\PSoC4/CapSense_2.c **** *  CapSense_2_prtCfgTb[] - Contains pointers to the port config
1289:.\Generated_Source\PSoC4/CapSense_2.c **** *  registers for each port.
1290:.\Generated_Source\PSoC4/CapSense_2.c **** *
1291:.\Generated_Source\PSoC4/CapSense_2.c **** * Side Effects:
1292:.\Generated_Source\PSoC4/CapSense_2.c **** *  This API is called only after CapSense component is stopped.
1293:.\Generated_Source\PSoC4/CapSense_2.c **** *
1294:.\Generated_Source\PSoC4/CapSense_2.c **** *******************************************************************************/
ARM GAS  C:\Users\glenn\AppData\Local\Temp\ccPcZrmN.s 			page 33


1295:.\Generated_Source\PSoC4/CapSense_2.c **** void CapSense_2_SetPinDriveMode(uint32 driveMode, uint32 pinNumber, uint32 portNumber)
1296:.\Generated_Source\PSoC4/CapSense_2.c **** {
 524              		.loc 1 1296 0
 525              		.cfi_startproc
 526              	.LVL58:
 527 0000 10B5     		push	{r4, lr}
 528              		.cfi_def_cfa_offset 8
 529              		.cfi_offset 4, -8
 530              		.cfi_offset 14, -4
1297:.\Generated_Source\PSoC4/CapSense_2.c ****     uint32  pinModeShift;
1298:.\Generated_Source\PSoC4/CapSense_2.c ****     uint32 newRegisterValue;
1299:.\Generated_Source\PSoC4/CapSense_2.c **** 
1300:.\Generated_Source\PSoC4/CapSense_2.c ****     pinModeShift  = pinNumber * CapSense_2_PC_PIN_CFG_SIZE;
 531              		.loc 1 1300 0
 532 0002 4B00     		lsl	r3, r1, #1
 533 0004 5918     		add	r1, r3, r1
 534              	.LVL59:
1301:.\Generated_Source\PSoC4/CapSense_2.c **** 
1302:.\Generated_Source\PSoC4/CapSense_2.c ****     newRegisterValue = *CapSense_2_prtCfgTbl[portNumber];
 535              		.loc 1 1302 0
 536 0006 9200     		lsl	r2, r2, #2
 537              	.LVL60:
 538 0008 044B     		ldr	r3, .L36
 539 000a D458     		ldr	r4, [r2, r3]
 540 000c 2368     		ldr	r3, [r4]
 541              	.LVL61:
1303:.\Generated_Source\PSoC4/CapSense_2.c ****     newRegisterValue &= ~(CapSense_2_CSD_PIN_MODE_MASK << pinModeShift);
 542              		.loc 1 1303 0
 543 000e 0722     		mov	r2, #7
 544 0010 8A40     		lsl	r2, r2, r1
 545 0012 9343     		bic	r3, r2
 546              	.LVL62:
1304:.\Generated_Source\PSoC4/CapSense_2.c ****     newRegisterValue |=  (uint32)((uint32)driveMode << pinModeShift);
 547              		.loc 1 1304 0
 548 0014 8840     		lsl	r0, r0, r1
 549              	.LVL63:
 550 0016 1843     		orr	r0, r3
 551              	.LVL64:
1305:.\Generated_Source\PSoC4/CapSense_2.c ****     *CapSense_2_prtCfgTbl[portNumber] =  newRegisterValue;
 552              		.loc 1 1305 0
 553 0018 2060     		str	r0, [r4]
1306:.\Generated_Source\PSoC4/CapSense_2.c **** }
 554              		.loc 1 1306 0
 555              		@ sp needed
 556 001a 10BD     		pop	{r4, pc}
 557              	.L37:
 558              		.align	2
 559              	.L36:
 560 001c 00000000 		.word	.LANCHOR1
 561              		.cfi_endproc
 562              	.LFE52:
 563              		.size	CapSense_2_SetPinDriveMode, .-CapSense_2_SetPinDriveMode
 564              		.section	.text.CapSense_2_SetDriveModeAllPins,"ax",%progbits
 565              		.align	2
 566              		.global	CapSense_2_SetDriveModeAllPins
 567              		.code	16
 568              		.thumb_func
ARM GAS  C:\Users\glenn\AppData\Local\Temp\ccPcZrmN.s 			page 34


 569              		.type	CapSense_2_SetDriveModeAllPins, %function
 570              	CapSense_2_SetDriveModeAllPins:
 571              	.LFB50:
1171:.\Generated_Source\PSoC4/CapSense_2.c ****     uint8 curSensor;
 572              		.loc 1 1171 0
 573              		.cfi_startproc
 574              	.LVL65:
 575 0000 38B5     		push	{r3, r4, r5, lr}
 576              		.cfi_def_cfa_offset 16
 577              		.cfi_offset 3, -16
 578              		.cfi_offset 4, -12
 579              		.cfi_offset 5, -8
 580              		.cfi_offset 14, -4
 581 0002 051C     		mov	r5, r0
 582              	.LVL66:
1180:.\Generated_Source\PSoC4/CapSense_2.c ****     {
 583              		.loc 1 1180 0
 584 0004 0024     		mov	r4, #0
 585 0006 06E0     		b	.L39
 586              	.LVL67:
 587              	.L40:
1206:.\Generated_Source\PSoC4/CapSense_2.c ****     }
 588              		.loc 1 1206 0 discriminator 3
 589 0008 281C     		mov	r0, r5
 590 000a 0121     		mov	r1, #1
 591 000c 0422     		mov	r2, #4
 592 000e FFF7FEFF 		bl	CapSense_2_SetPinDriveMode
 593              	.LVL68:
1180:.\Generated_Source\PSoC4/CapSense_2.c ****     {
 594              		.loc 1 1180 0 discriminator 3
 595 0012 0134     		add	r4, r4, #1
 596              	.LVL69:
 597 0014 E4B2     		uxtb	r4, r4
 598              	.LVL70:
 599              	.L39:
1180:.\Generated_Source\PSoC4/CapSense_2.c ****     {
 600              		.loc 1 1180 0 is_stmt 0 discriminator 1
 601 0016 002C     		cmp	r4, #0
 602 0018 F6D0     		beq	.L40
1209:.\Generated_Source\PSoC4/CapSense_2.c **** 
 603              		.loc 1 1209 0 is_stmt 1
 604 001a 281C     		mov	r0, r5
 605 001c 0221     		mov	r1, #2
 606 001e 0422     		mov	r2, #4
 607 0020 FFF7FEFF 		bl	CapSense_2_SetPinDriveMode
 608              	.LVL71:
1218:.\Generated_Source\PSoC4/CapSense_2.c **** 
 609              		.loc 1 1218 0
 610              		@ sp needed
 611              	.LVL72:
 612              	.LVL73:
 613 0024 38BD     		pop	{r3, r4, r5, pc}
 614              		.cfi_endproc
 615              	.LFE50:
 616              		.size	CapSense_2_SetDriveModeAllPins, .-CapSense_2_SetDriveModeAllPins
 617 0026 C046     		.section	.text.CapSense_2_RestoreDriveModeAllPins,"ax",%progbits
 618              		.align	2
ARM GAS  C:\Users\glenn\AppData\Local\Temp\ccPcZrmN.s 			page 35


 619              		.global	CapSense_2_RestoreDriveModeAllPins
 620              		.code	16
 621              		.thumb_func
 622              		.type	CapSense_2_RestoreDriveModeAllPins, %function
 623              	CapSense_2_RestoreDriveModeAllPins:
 624              	.LFB51:
1244:.\Generated_Source\PSoC4/CapSense_2.c ****     uint32 newRegisterValue;
 625              		.loc 1 1244 0
 626              		.cfi_startproc
 627 0000 08B5     		push	{r3, lr}
 628              		.cfi_def_cfa_offset 8
 629              		.cfi_offset 3, -8
 630              		.cfi_offset 14, -4
1247:.\Generated_Source\PSoC4/CapSense_2.c **** 
 631              		.loc 1 1247 0
 632 0002 0020     		mov	r0, #0
 633 0004 FFF7FEFF 		bl	CapSense_2_SetDriveModeAllPins
 634              	.LVL74:
1249:.\Generated_Source\PSoC4/CapSense_2.c ****     newRegisterValue &= ~(CapSense_2_CSD_CMOD_CONNECTION_MASK);
 635              		.loc 1 1249 0
 636 0008 044A     		ldr	r2, .L42
 637 000a 1168     		ldr	r1, [r2]
 638              	.LVL75:
1250:.\Generated_Source\PSoC4/CapSense_2.c ****     newRegisterValue |= CapSense_2_CSD_CMOD_TO_AMUXBUS_A;
 639              		.loc 1 1250 0
 640 000c 044B     		ldr	r3, .L42+4
 641 000e 0B40     		and	r3, r1
 642              	.LVL76:
1251:.\Generated_Source\PSoC4/CapSense_2.c ****     CapSense_2_CMOD_CONNECTION_REG = newRegisterValue;
 643              		.loc 1 1251 0
 644 0010 C021     		mov	r1, #192
 645 0012 C900     		lsl	r1, r1, #3
 646 0014 0B43     		orr	r3, r1
 647              	.LVL77:
1252:.\Generated_Source\PSoC4/CapSense_2.c **** 
 648              		.loc 1 1252 0
 649 0016 1360     		str	r3, [r2]
1267:.\Generated_Source\PSoC4/CapSense_2.c **** 
 650              		.loc 1 1267 0
 651              		@ sp needed
 652 0018 08BD     		pop	{r3, pc}
 653              	.L43:
 654 001a C046     		.align	2
 655              	.L42:
 656 001c 00040240 		.word	1073873920
 657 0020 FFF0FFFF 		.word	-3841
 658              		.cfi_endproc
 659              	.LFE51:
 660              		.size	CapSense_2_RestoreDriveModeAllPins, .-CapSense_2_RestoreDriveModeAllPins
 661              		.section	.text.CapSense_2_PreScan,"ax",%progbits
 662              		.align	2
 663              		.global	CapSense_2_PreScan
 664              		.code	16
 665              		.thumb_func
 666              		.type	CapSense_2_PreScan, %function
 667              	CapSense_2_PreScan:
 668              	.LFB53:
ARM GAS  C:\Users\glenn\AppData\Local\Temp\ccPcZrmN.s 			page 36


1307:.\Generated_Source\PSoC4/CapSense_2.c **** 
1308:.\Generated_Source\PSoC4/CapSense_2.c **** 
1309:.\Generated_Source\PSoC4/CapSense_2.c **** /*******************************************************************************
1310:.\Generated_Source\PSoC4/CapSense_2.c **** * Function Name: CapSense_2_PreScan
1311:.\Generated_Source\PSoC4/CapSense_2.c **** ********************************************************************************
1312:.\Generated_Source\PSoC4/CapSense_2.c **** *
1313:.\Generated_Source\PSoC4/CapSense_2.c **** * Summary:
1314:.\Generated_Source\PSoC4/CapSense_2.c **** *  Sets required settings, enables a sensor, removes Vref from AMUX and starts the
1315:.\Generated_Source\PSoC4/CapSense_2.c **** *  scanning process of the sensor.
1316:.\Generated_Source\PSoC4/CapSense_2.c **** *
1317:.\Generated_Source\PSoC4/CapSense_2.c **** * Parameters:
1318:.\Generated_Source\PSoC4/CapSense_2.c **** *  sensor:  Sensor number.
1319:.\Generated_Source\PSoC4/CapSense_2.c **** *
1320:.\Generated_Source\PSoC4/CapSense_2.c **** * Return:
1321:.\Generated_Source\PSoC4/CapSense_2.c **** *  None
1322:.\Generated_Source\PSoC4/CapSense_2.c **** *
1323:.\Generated_Source\PSoC4/CapSense_2.c **** * Global Variables:
1324:.\Generated_Source\PSoC4/CapSense_2.c **** * CapSense_2_widgetNumber[] - This array contains numbers of widgets for each sensor.
1325:.\Generated_Source\PSoC4/CapSense_2.c **** * CapSense_2_widgetResolution[] - Contains the widget resolution.
1326:.\Generated_Source\PSoC4/CapSense_2.c **** *
1327:.\Generated_Source\PSoC4/CapSense_2.c **** * Side Effects:
1328:.\Generated_Source\PSoC4/CapSense_2.c **** *  None
1329:.\Generated_Source\PSoC4/CapSense_2.c **** *
1330:.\Generated_Source\PSoC4/CapSense_2.c **** *******************************************************************************/
1331:.\Generated_Source\PSoC4/CapSense_2.c **** void CapSense_2_PreScan(uint32 sensor)
1332:.\Generated_Source\PSoC4/CapSense_2.c **** {
 669              		.loc 1 1332 0
 670              		.cfi_startproc
 671              	.LVL78:
 672 0000 70B5     		push	{r4, r5, r6, lr}
 673              		.cfi_def_cfa_offset 16
 674              		.cfi_offset 4, -16
 675              		.cfi_offset 5, -12
 676              		.cfi_offset 6, -8
 677              		.cfi_offset 14, -4
 678 0002 041C     		mov	r4, r0
 679              	.LVL79:
1333:.\Generated_Source\PSoC4/CapSense_2.c ****     uint8 widget;
1334:.\Generated_Source\PSoC4/CapSense_2.c ****     uint8 interruptState;
1335:.\Generated_Source\PSoC4/CapSense_2.c ****     uint32 newRegValue;
1336:.\Generated_Source\PSoC4/CapSense_2.c ****     uint32 counterResolution;
1337:.\Generated_Source\PSoC4/CapSense_2.c **** 
1338:.\Generated_Source\PSoC4/CapSense_2.c ****     #if(CapSense_2_PRS_OPTIONS == CapSense_2__PRS_AUTO)
1339:.\Generated_Source\PSoC4/CapSense_2.c ****         uint8 senseClkDivMath;
1340:.\Generated_Source\PSoC4/CapSense_2.c ****         uint8 sampleClkDivMath;
1341:.\Generated_Source\PSoC4/CapSense_2.c ****     #endif /* (CapSense_2_PRS_OPTIONS == CapSense_2__PRS_AUTO) */
1342:.\Generated_Source\PSoC4/CapSense_2.c **** 
1343:.\Generated_Source\PSoC4/CapSense_2.c ****     #if ((CapSense_2_TUNING_METHOD == CapSense_2__TUNING_AUTO) &&\
1344:.\Generated_Source\PSoC4/CapSense_2.c ****          (0 != CapSense_2_IS_OVERSAMPLING_EN))
1345:.\Generated_Source\PSoC4/CapSense_2.c ****         uint32 oversamplingFactor;
1346:.\Generated_Source\PSoC4/CapSense_2.c ****     #endif /* ((CapSense_2_TUNING_METHOD == CapSense_2__TUNING_AUTO) &&\
1347:.\Generated_Source\PSoC4/CapSense_2.c ****                (0 != CapSense_2_IS_OVERSAMPLING_EN)) */
1348:.\Generated_Source\PSoC4/CapSense_2.c **** 
1349:.\Generated_Source\PSoC4/CapSense_2.c ****     /* Define widget sensor belongs to */
1350:.\Generated_Source\PSoC4/CapSense_2.c ****     widget = CapSense_2_widgetNumber[sensor];
1351:.\Generated_Source\PSoC4/CapSense_2.c **** 
1352:.\Generated_Source\PSoC4/CapSense_2.c ****     /* Recalculate Counter Resolution to MSB 16 bits */
ARM GAS  C:\Users\glenn\AppData\Local\Temp\ccPcZrmN.s 			page 37


1353:.\Generated_Source\PSoC4/CapSense_2.c ****     counterResolution = CapSense_2_widgetResolution[widget];
1354:.\Generated_Source\PSoC4/CapSense_2.c **** 
1355:.\Generated_Source\PSoC4/CapSense_2.c ****     #if ((CapSense_2_TUNING_METHOD == CapSense_2__TUNING_AUTO) &&\
1356:.\Generated_Source\PSoC4/CapSense_2.c ****          (0 != CapSense_2_IS_OVERSAMPLING_EN))
1357:.\Generated_Source\PSoC4/CapSense_2.c ****         oversamplingFactor = CapSense_2_GetBitValue(CapSense_2_scanSpeedTbl, sensor);
1358:.\Generated_Source\PSoC4/CapSense_2.c **** 
1359:.\Generated_Source\PSoC4/CapSense_2.c ****         if(counterResolution < CapSense_2_RESOLUTION_16_BITS)
1360:.\Generated_Source\PSoC4/CapSense_2.c ****         {
1361:.\Generated_Source\PSoC4/CapSense_2.c ****             counterResolution <<= oversamplingFactor;
1362:.\Generated_Source\PSoC4/CapSense_2.c ****             counterResolution |= (uint32)(CapSense_2_RESOLUTION_8_BITS);
1363:.\Generated_Source\PSoC4/CapSense_2.c ****         }
1364:.\Generated_Source\PSoC4/CapSense_2.c ****     #endif /* ((CapSense_2_TUNING_METHOD == CapSense_2__TUNING_AUTO) &&\
1365:.\Generated_Source\PSoC4/CapSense_2.c ****                (0 != CapSense_2_IS_OVERSAMPLING_EN)) */
1366:.\Generated_Source\PSoC4/CapSense_2.c **** 
1367:.\Generated_Source\PSoC4/CapSense_2.c ****     #if (0u != CapSense_2_IS_M0S8PERI_BLOCK)
1368:.\Generated_Source\PSoC4/CapSense_2.c ****         CapSense_2_SenseClk_Stop();
 680              		.loc 1 1368 0
 681 0004 FFF7FEFF 		bl	CapSense_2_SenseClk_Stop
 682              	.LVL80:
1369:.\Generated_Source\PSoC4/CapSense_2.c ****         CapSense_2_SampleClk_Stop();
 683              		.loc 1 1369 0
 684 0008 FFF7FEFF 		bl	CapSense_2_SampleClk_Stop
 685              	.LVL81:
1370:.\Generated_Source\PSoC4/CapSense_2.c ****     #endif /* (0u != CapSense_2_IS_M0S8PERI_BLOCK) */
1371:.\Generated_Source\PSoC4/CapSense_2.c **** 
1372:.\Generated_Source\PSoC4/CapSense_2.c ****     #if (0u != CapSense_2_MULTIPLE_FREQUENCY_SET)
1373:.\Generated_Source\PSoC4/CapSense_2.c ****         CapSense_2_SampleClk_SetDividerValue((uint16)CapSense_2_sampleClkDividerVal[sensor]);
 686              		.loc 1 1373 0
 687 000c 0120     		mov	r0, #1
 688 000e 0021     		mov	r1, #0
 689 0010 FFF7FEFF 		bl	CapSense_2_SampleClk_SetFractionalDividerRegister
 690              	.LVL82:
1374:.\Generated_Source\PSoC4/CapSense_2.c ****         CapSense_2_SenseClk_SetDividerValue((uint16)CapSense_2_senseClkDividerVal[sensor]);
 691              		.loc 1 1374 0
 692 0014 0120     		mov	r0, #1
 693 0016 0021     		mov	r1, #0
 694 0018 FFF7FEFF 		bl	CapSense_2_SenseClk_SetFractionalDividerRegister
 695              	.LVL83:
1375:.\Generated_Source\PSoC4/CapSense_2.c ****     #else
1376:.\Generated_Source\PSoC4/CapSense_2.c ****         CapSense_2_SampleClk_SetDividerValue((uint16)CapSense_2_sampleClkDividerVal);
1377:.\Generated_Source\PSoC4/CapSense_2.c ****         CapSense_2_SenseClk_SetDividerValue((uint16)CapSense_2_senseClkDividerVal);
1378:.\Generated_Source\PSoC4/CapSense_2.c ****     #endif /* (0u != CapSense_2_MULTIPLE_FREQUENCY_SET) */
1379:.\Generated_Source\PSoC4/CapSense_2.c **** 
1380:.\Generated_Source\PSoC4/CapSense_2.c ****     #if (0u != CapSense_2_IS_M0S8PERI_BLOCK)
1381:.\Generated_Source\PSoC4/CapSense_2.c ****         CapSense_2_SampleClk_Start();
 696              		.loc 1 1381 0
 697 001c FF20     		mov	r0, #255
 698 001e FFF7FEFF 		bl	CapSense_2_SampleClk_StartEx
 699              	.LVL84:
1382:.\Generated_Source\PSoC4/CapSense_2.c ****         CapSense_2_SenseClk_StartEx(CapSense_2_SampleClk__DIV_ID);
 700              		.loc 1 1382 0
 701 0022 4020     		mov	r0, #64
 702 0024 FFF7FEFF 		bl	CapSense_2_SenseClk_StartEx
 703              	.LVL85:
1383:.\Generated_Source\PSoC4/CapSense_2.c **** 
1384:.\Generated_Source\PSoC4/CapSense_2.c ****         #if(CapSense_2_PRS_OPTIONS == CapSense_2__PRS_NONE)
1385:.\Generated_Source\PSoC4/CapSense_2.c ****             CyIntDisable(CapSense_2_ISR_NUMBER);
ARM GAS  C:\Users\glenn\AppData\Local\Temp\ccPcZrmN.s 			page 38


 704              		.loc 1 1385 0
 705 0028 1120     		mov	r0, #17
 706 002a FFF7FEFF 		bl	CyIntDisable
 707              	.LVL86:
1386:.\Generated_Source\PSoC4/CapSense_2.c ****             CapSense_2_CSD_CNT_REG = CapSense_2_ONE_CYCLE;
 708              		.loc 1 1386 0
 709 002e 8022     		mov	r2, #128
 710 0030 5202     		lsl	r2, r2, #9
 711 0032 194B     		ldr	r3, .L46
 712 0034 1A60     		str	r2, [r3]
 713              	.L45:
1387:.\Generated_Source\PSoC4/CapSense_2.c ****             while(0u != (CapSense_2_CSD_CNT_REG & CapSense_2_RESOLUTION_16_BITS))
 714              		.loc 1 1387 0 discriminator 1
 715 0036 184B     		ldr	r3, .L46
 716 0038 1B68     		ldr	r3, [r3]
 717 003a 1B0C     		lsr	r3, r3, #16
 718 003c FBD1     		bne	.L45
1388:.\Generated_Source\PSoC4/CapSense_2.c ****             {
1389:.\Generated_Source\PSoC4/CapSense_2.c ****             /* Wait until scanning is complete */
1390:.\Generated_Source\PSoC4/CapSense_2.c ****             }
1391:.\Generated_Source\PSoC4/CapSense_2.c ****             CapSense_2_CSD_INTR_REG = 1u;
 719              		.loc 1 1391 0
 720 003e 0122     		mov	r2, #1
 721 0040 164B     		ldr	r3, .L46+4
 722 0042 1A60     		str	r2, [r3]
1392:.\Generated_Source\PSoC4/CapSense_2.c ****             CyIntClearPending(CapSense_2_ISR_NUMBER);
 723              		.loc 1 1392 0
 724 0044 1120     		mov	r0, #17
 725 0046 FFF7FEFF 		bl	CyIntClearPending
 726              	.LVL87:
1393:.\Generated_Source\PSoC4/CapSense_2.c ****             CyIntEnable(CapSense_2_ISR_NUMBER);
 727              		.loc 1 1393 0
 728 004a 1120     		mov	r0, #17
 729 004c FFF7FEFF 		bl	CyIntEnable
 730              	.LVL88:
1394:.\Generated_Source\PSoC4/CapSense_2.c ****         #endif /* CapSense_2_PRS_OPTIONS == CapSense_2__PRS_NONE */
1395:.\Generated_Source\PSoC4/CapSense_2.c ****     #endif /* (0u != CapSense_2_IS_M0S8PERI_BLOCK) */
1396:.\Generated_Source\PSoC4/CapSense_2.c **** 
1397:.\Generated_Source\PSoC4/CapSense_2.c **** #if(CapSense_2_PRS_OPTIONS != CapSense_2__PRS_NONE)
1398:.\Generated_Source\PSoC4/CapSense_2.c **** 
1399:.\Generated_Source\PSoC4/CapSense_2.c ****     #if(CapSense_2_TUNING_METHOD == CapSense_2__TUNING_AUTO)
1400:.\Generated_Source\PSoC4/CapSense_2.c ****         if(CapSense_2_prescalersTuningDone != 0u)
1401:.\Generated_Source\PSoC4/CapSense_2.c ****         {
1402:.\Generated_Source\PSoC4/CapSense_2.c ****     #endif /* (CapSense_2_TUNING_METHOD == CapSense_2__TUNING_AUTO) */
1403:.\Generated_Source\PSoC4/CapSense_2.c **** 
1404:.\Generated_Source\PSoC4/CapSense_2.c ****             CyIntDisable(CapSense_2_ISR_NUMBER);
1405:.\Generated_Source\PSoC4/CapSense_2.c **** 
1406:.\Generated_Source\PSoC4/CapSense_2.c ****             newRegValue = CapSense_2_CSD_CFG_REG;
1407:.\Generated_Source\PSoC4/CapSense_2.c ****             newRegValue |= CapSense_2_CSD_CFG_PRS_SELECT;
1408:.\Generated_Source\PSoC4/CapSense_2.c **** 
1409:.\Generated_Source\PSoC4/CapSense_2.c ****             #if(CapSense_2_PRS_OPTIONS == CapSense_2__PRS_AUTO)
1410:.\Generated_Source\PSoC4/CapSense_2.c **** 
1411:.\Generated_Source\PSoC4/CapSense_2.c ****                 newRegValue &= ~(CapSense_2_PRS_MODE_MASK);
1412:.\Generated_Source\PSoC4/CapSense_2.c **** 
1413:.\Generated_Source\PSoC4/CapSense_2.c ****                 #if (0u != CapSense_2_MULTIPLE_FREQUENCY_SET)
1414:.\Generated_Source\PSoC4/CapSense_2.c ****                     senseClkDivMath = CapSense_2_senseClkDividerVal[sensor];
1415:.\Generated_Source\PSoC4/CapSense_2.c ****                     sampleClkDivMath = CapSense_2_sampleClkDividerVal[sensor];
ARM GAS  C:\Users\glenn\AppData\Local\Temp\ccPcZrmN.s 			page 39


1416:.\Generated_Source\PSoC4/CapSense_2.c ****                 #else
1417:.\Generated_Source\PSoC4/CapSense_2.c ****                     senseClkDivMath = CapSense_2_senseClkDividerVal;
1418:.\Generated_Source\PSoC4/CapSense_2.c ****                     sampleClkDivMath = CapSense_2_sampleClkDividerVal;
1419:.\Generated_Source\PSoC4/CapSense_2.c ****                 #endif /* ( CapSense_2_MULTIPLE_FREQUENCY_SET) */
1420:.\Generated_Source\PSoC4/CapSense_2.c **** 
1421:.\Generated_Source\PSoC4/CapSense_2.c ****                 #if(0u == CapSense_2_IS_M0S8PERI_BLOCK)
1422:.\Generated_Source\PSoC4/CapSense_2.c ****                     senseClkDivMath *= sampleClkDivMath;
1423:.\Generated_Source\PSoC4/CapSense_2.c ****                 #endif /* (0u == CapSense_2_IS_M0S8PERI_BLOCK) */
1424:.\Generated_Source\PSoC4/CapSense_2.c **** 
1425:.\Generated_Source\PSoC4/CapSense_2.c ****                 if((senseClkDivMath * CapSense_2_RESOLUTION_12_BITS) <
1426:.\Generated_Source\PSoC4/CapSense_2.c ****                    (sampleClkDivMath * CapSense_2_widgetResolution[widget]))
1427:.\Generated_Source\PSoC4/CapSense_2.c ****                 {
1428:.\Generated_Source\PSoC4/CapSense_2.c ****                     newRegValue |= CapSense_2_CSD_PRS_12_BIT;
1429:.\Generated_Source\PSoC4/CapSense_2.c ****                 }
1430:.\Generated_Source\PSoC4/CapSense_2.c ****             #endif /* (CapSense_2_PRS_OPTIONS == CapSense_2__PRS_AUTO) */
1431:.\Generated_Source\PSoC4/CapSense_2.c **** 
1432:.\Generated_Source\PSoC4/CapSense_2.c ****             CapSense_2_CSD_CFG_REG = newRegValue;
1433:.\Generated_Source\PSoC4/CapSense_2.c **** 
1434:.\Generated_Source\PSoC4/CapSense_2.c ****             CyIntEnable(CapSense_2_ISR_NUMBER);
1435:.\Generated_Source\PSoC4/CapSense_2.c **** 
1436:.\Generated_Source\PSoC4/CapSense_2.c ****     #if(CapSense_2_TUNING_METHOD == CapSense_2__TUNING_AUTO)
1437:.\Generated_Source\PSoC4/CapSense_2.c ****         }
1438:.\Generated_Source\PSoC4/CapSense_2.c ****     #endif /* (CapSense_2_PRS_OPTIONS != CapSense_2__PRS_NONE) */
1439:.\Generated_Source\PSoC4/CapSense_2.c **** 
1440:.\Generated_Source\PSoC4/CapSense_2.c **** #endif /* (CapSense_2_PRS_OPTIONS == CapSense_2__PRS_NONE) */
1441:.\Generated_Source\PSoC4/CapSense_2.c **** 
1442:.\Generated_Source\PSoC4/CapSense_2.c ****     /* Set Idac Value */
1443:.\Generated_Source\PSoC4/CapSense_2.c ****     CyIntDisable(CapSense_2_ISR_NUMBER);
 731              		.loc 1 1443 0
 732 0050 1120     		mov	r0, #17
 733 0052 FFF7FEFF 		bl	CyIntDisable
 734              	.LVL89:
1444:.\Generated_Source\PSoC4/CapSense_2.c ****     newRegValue = CapSense_2_CSD_IDAC_REG;
 735              		.loc 1 1444 0
 736 0056 124A     		ldr	r2, .L46+8
 737 0058 1168     		ldr	r1, [r2]
 738              	.LVL90:
1445:.\Generated_Source\PSoC4/CapSense_2.c **** 
1446:.\Generated_Source\PSoC4/CapSense_2.c **** #if (CapSense_2_IDAC_CNT == 1u)
1447:.\Generated_Source\PSoC4/CapSense_2.c ****     newRegValue &= ~(CapSense_2_CSD_IDAC1_DATA_MASK);
1448:.\Generated_Source\PSoC4/CapSense_2.c ****     newRegValue |= CapSense_2_modulationIDAC[sensor];
1449:.\Generated_Source\PSoC4/CapSense_2.c **** #else
1450:.\Generated_Source\PSoC4/CapSense_2.c ****     newRegValue &= ~(CapSense_2_CSD_IDAC1_DATA_MASK | CapSense_2_CSD_IDAC2_DATA_MASK);
 739              		.loc 1 1450 0
 740 005a 124B     		ldr	r3, .L46+12
 741 005c 0B40     		and	r3, r1
 742              	.LVL91:
1451:.\Generated_Source\PSoC4/CapSense_2.c ****     newRegValue |= (CapSense_2_modulationIDAC[sensor] |
 743              		.loc 1 1451 0
 744 005e 1249     		ldr	r1, .L46+16
 745 0060 0B43     		orr	r3, r1
 746              	.LVL92:
1452:.\Generated_Source\PSoC4/CapSense_2.c ****                             (uint32)((uint32)CapSense_2_compensationIDAC[sensor] <<
1453:.\Generated_Source\PSoC4/CapSense_2.c ****                             CapSense_2_CSD_IDAC2_DATA_OFFSET));
1454:.\Generated_Source\PSoC4/CapSense_2.c **** #endif /* (CapSense_2_IDAC_CNT == 1u) */
1455:.\Generated_Source\PSoC4/CapSense_2.c **** 
1456:.\Generated_Source\PSoC4/CapSense_2.c ****     CapSense_2_CSD_IDAC_REG = newRegValue;
ARM GAS  C:\Users\glenn\AppData\Local\Temp\ccPcZrmN.s 			page 40


 747              		.loc 1 1456 0
 748 0062 1360     		str	r3, [r2]
1457:.\Generated_Source\PSoC4/CapSense_2.c **** 
1458:.\Generated_Source\PSoC4/CapSense_2.c **** #if(CapSense_2_CMOD_PREGARGE_OPTION == CapSense_2__CAPPRIOBUF)
1459:.\Generated_Source\PSoC4/CapSense_2.c ****     newRegValue = CapSense_2_CMOD_CONNECTION_REG;
1460:.\Generated_Source\PSoC4/CapSense_2.c ****     newRegValue &= ~(CapSense_2_CSD_CMOD_CONNECTION_MASK);
1461:.\Generated_Source\PSoC4/CapSense_2.c ****     newRegValue |= CapSense_2_CSD_CMOD_TO_AMUXBUS_A;
1462:.\Generated_Source\PSoC4/CapSense_2.c ****     CapSense_2_CMOD_CONNECTION_REG = newRegValue;
1463:.\Generated_Source\PSoC4/CapSense_2.c **** 
1464:.\Generated_Source\PSoC4/CapSense_2.c ****     newRegValue = CapSense_2_CMOD_PORT_PC_REG;
1465:.\Generated_Source\PSoC4/CapSense_2.c ****     newRegValue &= ~(CapSense_2_CSD_CMOD_PC_MASK);
1466:.\Generated_Source\PSoC4/CapSense_2.c ****     newRegValue |= CapSense_2_CMOD_PC_HIGH_Z_MODE;
1467:.\Generated_Source\PSoC4/CapSense_2.c ****     CapSense_2_CMOD_PORT_PC_REG = newRegValue;
1468:.\Generated_Source\PSoC4/CapSense_2.c **** #endif /* (CapSense_2_CMOD_PREGARGE_OPTION == CapSense_2__CAPPRIOBUF) */
1469:.\Generated_Source\PSoC4/CapSense_2.c **** 
1470:.\Generated_Source\PSoC4/CapSense_2.c ****     /* Disconnect Vref Buffer from AMUX */
1471:.\Generated_Source\PSoC4/CapSense_2.c ****     newRegValue = CapSense_2_CSD_CFG_REG;
 749              		.loc 1 1471 0
 750 0064 114E     		ldr	r6, .L46+20
 751 0066 3568     		ldr	r5, [r6]
 752              	.LVL93:
1472:.\Generated_Source\PSoC4/CapSense_2.c ****     newRegValue &= ~(CapSense_2_PRECHARGE_CONFIG_MASK);
 753              		.loc 1 1472 0
 754 0068 114B     		ldr	r3, .L46+24
 755 006a 1D40     		and	r5, r3
 756              	.LVL94:
1473:.\Generated_Source\PSoC4/CapSense_2.c ****     newRegValue |= CapSense_2_CTANK_PRECHARGE_CONFIG;
 757              		.loc 1 1473 0
 758 006c 114B     		ldr	r3, .L46+28
 759 006e 1D43     		orr	r5, r3
 760              	.LVL95:
1474:.\Generated_Source\PSoC4/CapSense_2.c **** 
1475:.\Generated_Source\PSoC4/CapSense_2.c ****     CyIntEnable(CapSense_2_ISR_NUMBER);
 761              		.loc 1 1475 0
 762 0070 1120     		mov	r0, #17
 763 0072 FFF7FEFF 		bl	CyIntEnable
 764              	.LVL96:
1476:.\Generated_Source\PSoC4/CapSense_2.c **** 
1477:.\Generated_Source\PSoC4/CapSense_2.c ****     /* Enable Sensor */
1478:.\Generated_Source\PSoC4/CapSense_2.c ****     CapSense_2_EnableScanSlot(sensor);
 765              		.loc 1 1478 0
 766 0076 201C     		mov	r0, r4
 767 0078 FFF7FEFF 		bl	CapSense_2_EnableSensor
 768              	.LVL97:
1479:.\Generated_Source\PSoC4/CapSense_2.c **** 
1480:.\Generated_Source\PSoC4/CapSense_2.c ****     interruptState = CyEnterCriticalSection();
 769              		.loc 1 1480 0
 770 007c FFF7FEFF 		bl	CyEnterCriticalSection
 771              	.LVL98:
 772 0080 041C     		mov	r4, r0
 773              	.LVL99:
1481:.\Generated_Source\PSoC4/CapSense_2.c ****     CapSense_2_CSD_CFG_REG = newRegValue;
 774              		.loc 1 1481 0
 775 0082 3560     		str	r5, [r6]
1482:.\Generated_Source\PSoC4/CapSense_2.c **** 
1483:.\Generated_Source\PSoC4/CapSense_2.c ****     /* `#START CapSense_2_PreSettlingDelay_Debug` */
1484:.\Generated_Source\PSoC4/CapSense_2.c **** 
ARM GAS  C:\Users\glenn\AppData\Local\Temp\ccPcZrmN.s 			page 41


1485:.\Generated_Source\PSoC4/CapSense_2.c ****     /* `#END` */
1486:.\Generated_Source\PSoC4/CapSense_2.c **** 
1487:.\Generated_Source\PSoC4/CapSense_2.c **** #ifdef CapSense_2_PRE_SCAN_PRE_SETTLING_DELAY_DEBUG_CALLBACK
1488:.\Generated_Source\PSoC4/CapSense_2.c ****     CapSense_2_PreScan_Pre_SettlingDelay_Debug_Callback();
1489:.\Generated_Source\PSoC4/CapSense_2.c **** #endif /* CapSense_2_PRE_SCAN_PRE_SETTLING_DELAY_DEBUG_CALLBACK */
1490:.\Generated_Source\PSoC4/CapSense_2.c **** 
1491:.\Generated_Source\PSoC4/CapSense_2.c ****     CyDelayCycles(CapSense_2_GLITCH_ELIMINATION_CYCLES);
 776              		.loc 1 1491 0
 777 0084 0020     		mov	r0, #0
 778 0086 FFF7FEFF 		bl	CyDelayCycles
 779              	.LVL100:
1492:.\Generated_Source\PSoC4/CapSense_2.c **** 
1493:.\Generated_Source\PSoC4/CapSense_2.c ****     /* `#START CapSense_2_PreScan_Debug` */
1494:.\Generated_Source\PSoC4/CapSense_2.c **** 
1495:.\Generated_Source\PSoC4/CapSense_2.c ****     /* `#END` */
1496:.\Generated_Source\PSoC4/CapSense_2.c **** 
1497:.\Generated_Source\PSoC4/CapSense_2.c **** #ifdef CapSense_2_PRE_SCAN_DEBUG_CALLBACK
1498:.\Generated_Source\PSoC4/CapSense_2.c ****     CapSense_2_PreScan_Debug_Callback();
1499:.\Generated_Source\PSoC4/CapSense_2.c **** #endif /* CapSense_2_PRE_SCAN_DEBUG_CALLBACK */
1500:.\Generated_Source\PSoC4/CapSense_2.c **** 
1501:.\Generated_Source\PSoC4/CapSense_2.c ****     CapSense_2_CSD_CNT_REG = counterResolution;
 780              		.loc 1 1501 0
 781 008a 0B4A     		ldr	r2, .L46+32
 782 008c 024B     		ldr	r3, .L46
 783 008e 1A60     		str	r2, [r3]
1502:.\Generated_Source\PSoC4/CapSense_2.c ****     CyExitCriticalSection(interruptState);
 784              		.loc 1 1502 0
 785 0090 201C     		mov	r0, r4
 786 0092 FFF7FEFF 		bl	CyExitCriticalSection
 787              	.LVL101:
1503:.\Generated_Source\PSoC4/CapSense_2.c **** }
 788              		.loc 1 1503 0
 789              		@ sp needed
 790              	.LVL102:
 791              	.LVL103:
 792 0096 70BD     		pop	{r4, r5, r6, pc}
 793              	.L47:
 794              		.align	2
 795              	.L46:
 796 0098 0C002840 		.word	1076363276
 797 009c 14002840 		.word	1076363284
 798 00a0 08002840 		.word	1076363272
 799 00a4 00FF80FF 		.word	-8323328
 800 00a8 50005000 		.word	5242960
 801 00ac 04002840 		.word	1076363268
 802 00b0 FF1FDFFF 		.word	-2154497
 803 00b4 20002000 		.word	2097184
 804 00b8 0000FFFF 		.word	-65536
 805              		.cfi_endproc
 806              	.LFE53:
 807              		.size	CapSense_2_PreScan, .-CapSense_2_PreScan
 808              		.section	.text.CapSense_2_ScanSensor,"ax",%progbits
 809              		.align	2
 810              		.global	CapSense_2_ScanSensor
 811              		.code	16
 812              		.thumb_func
 813              		.type	CapSense_2_ScanSensor, %function
ARM GAS  C:\Users\glenn\AppData\Local\Temp\ccPcZrmN.s 			page 42


 814              	CapSense_2_ScanSensor:
 815              	.LFB41:
 551:.\Generated_Source\PSoC4/CapSense_2.c ****     /* Clears status/control variable and set sensorIndex */
 816              		.loc 1 551 0
 817              		.cfi_startproc
 818              	.LVL104:
 819 0000 08B5     		push	{r3, lr}
 820              		.cfi_def_cfa_offset 8
 821              		.cfi_offset 3, -8
 822              		.cfi_offset 14, -4
 553:.\Generated_Source\PSoC4/CapSense_2.c ****     CapSense_2_sensorIndex = (uint8)sensor;
 823              		.loc 1 553 0
 824 0002 054B     		ldr	r3, .L49
 825 0004 0022     		mov	r2, #0
 826 0006 1A70     		strb	r2, [r3]
 554:.\Generated_Source\PSoC4/CapSense_2.c **** 
 827              		.loc 1 554 0
 828 0008 C2B2     		uxtb	r2, r0
 829 000a 9A71     		strb	r2, [r3, #6]
 557:.\Generated_Source\PSoC4/CapSense_2.c ****     CapSense_2_PreScan(sensor);
 830              		.loc 1 557 0
 831 000c 8122     		mov	r2, #129
 832 000e 1A70     		strb	r2, [r3]
 558:.\Generated_Source\PSoC4/CapSense_2.c **** }
 833              		.loc 1 558 0
 834 0010 FFF7FEFF 		bl	CapSense_2_PreScan
 835              	.LVL105:
 559:.\Generated_Source\PSoC4/CapSense_2.c **** 
 836              		.loc 1 559 0
 837              		@ sp needed
 838 0014 08BD     		pop	{r3, pc}
 839              	.L50:
 840 0016 C046     		.align	2
 841              	.L49:
 842 0018 00000000 		.word	.LANCHOR0
 843              		.cfi_endproc
 844              	.LFE41:
 845              		.size	CapSense_2_ScanSensor, .-CapSense_2_ScanSensor
 846              		.section	.text.CapSense_2_PostScan,"ax",%progbits
 847              		.align	2
 848              		.global	CapSense_2_PostScan
 849              		.code	16
 850              		.thumb_func
 851              		.type	CapSense_2_PostScan, %function
 852              	CapSense_2_PostScan:
 853              	.LFB54:
1504:.\Generated_Source\PSoC4/CapSense_2.c **** 
1505:.\Generated_Source\PSoC4/CapSense_2.c **** 
1506:.\Generated_Source\PSoC4/CapSense_2.c **** /*******************************************************************************
1507:.\Generated_Source\PSoC4/CapSense_2.c **** * Function Name: CapSense_2_PostScan
1508:.\Generated_Source\PSoC4/CapSense_2.c **** ********************************************************************************
1509:.\Generated_Source\PSoC4/CapSense_2.c **** *
1510:.\Generated_Source\PSoC4/CapSense_2.c **** * Summary:
1511:.\Generated_Source\PSoC4/CapSense_2.c **** *  Stores the results of measurement in the CapSense_2_sensorRaw[] array,
1512:.\Generated_Source\PSoC4/CapSense_2.c **** *  sets the scanning sensor in the non-sampling state, turns off Idac(Current Source IDAC),
1513:.\Generated_Source\PSoC4/CapSense_2.c **** *  disconnects the IDAC(Sink mode), and applies Vref on AMUX.
1514:.\Generated_Source\PSoC4/CapSense_2.c **** *
ARM GAS  C:\Users\glenn\AppData\Local\Temp\ccPcZrmN.s 			page 43


1515:.\Generated_Source\PSoC4/CapSense_2.c **** * Parameters:
1516:.\Generated_Source\PSoC4/CapSense_2.c **** *  sensor:  Sensor number.
1517:.\Generated_Source\PSoC4/CapSense_2.c **** *
1518:.\Generated_Source\PSoC4/CapSense_2.c **** * Return:
1519:.\Generated_Source\PSoC4/CapSense_2.c **** *  None
1520:.\Generated_Source\PSoC4/CapSense_2.c **** *
1521:.\Generated_Source\PSoC4/CapSense_2.c **** * Global Variables:
1522:.\Generated_Source\PSoC4/CapSense_2.c **** *  CapSense_2_sensorRaw[] - used to store sensors raw data.
1523:.\Generated_Source\PSoC4/CapSense_2.c **** *
1524:.\Generated_Source\PSoC4/CapSense_2.c **** * Side Effects:
1525:.\Generated_Source\PSoC4/CapSense_2.c **** *  None
1526:.\Generated_Source\PSoC4/CapSense_2.c **** *
1527:.\Generated_Source\PSoC4/CapSense_2.c **** *******************************************************************************/
1528:.\Generated_Source\PSoC4/CapSense_2.c **** void CapSense_2_PostScan(uint32 sensor)
1529:.\Generated_Source\PSoC4/CapSense_2.c **** {
 854              		.loc 1 1529 0
 855              		.cfi_startproc
 856              	.LVL106:
 857 0000 08B5     		push	{r3, lr}
 858              		.cfi_def_cfa_offset 8
 859              		.cfi_offset 3, -8
 860              		.cfi_offset 14, -4
1530:.\Generated_Source\PSoC4/CapSense_2.c ****     uint32 newRegValue;
1531:.\Generated_Source\PSoC4/CapSense_2.c **** #if ((CapSense_2_TUNING_METHOD == CapSense_2__TUNING_AUTO) &&\
1532:.\Generated_Source\PSoC4/CapSense_2.c ****      (0 != CapSense_2_IS_OVERSAMPLING_EN))
1533:.\Generated_Source\PSoC4/CapSense_2.c ****     uint32 oversamplingFactor;
1534:.\Generated_Source\PSoC4/CapSense_2.c ****     uint32 widget;
1535:.\Generated_Source\PSoC4/CapSense_2.c **** #endif /* ((CapSense_2_TUNING_METHOD == CapSense_2__TUNING_AUTO) &&\
1536:.\Generated_Source\PSoC4/CapSense_2.c ****            (0 != CapSense_2_IS_OVERSAMPLING_EN)) */
1537:.\Generated_Source\PSoC4/CapSense_2.c **** 
1538:.\Generated_Source\PSoC4/CapSense_2.c ****     /* `#START CapSense_2_PostScan_Debug` */
1539:.\Generated_Source\PSoC4/CapSense_2.c **** 
1540:.\Generated_Source\PSoC4/CapSense_2.c ****     /* `#END` */
1541:.\Generated_Source\PSoC4/CapSense_2.c **** 
1542:.\Generated_Source\PSoC4/CapSense_2.c **** #ifdef CapSense_2_POST_SCAN_DEBUG_CALLBACK
1543:.\Generated_Source\PSoC4/CapSense_2.c ****     CapSense_2_PostScan_Debug_Callback();
1544:.\Generated_Source\PSoC4/CapSense_2.c **** #endif /* CapSense_2_POST_SCAN_DEBUG_Callback */
1545:.\Generated_Source\PSoC4/CapSense_2.c **** 
1546:.\Generated_Source\PSoC4/CapSense_2.c ****     /* Read SlotResult from Raw Counter */
1547:.\Generated_Source\PSoC4/CapSense_2.c ****     CapSense_2_sensorRaw[sensor]  = (uint16)CapSense_2_CSD_CNT_REG;
 861              		.loc 1 1547 0
 862 0002 0E4B     		ldr	r3, .L52
 863 0004 1A68     		ldr	r2, [r3]
 864 0006 4300     		lsl	r3, r0, #1
 865 0008 0D49     		ldr	r1, .L52+4
 866 000a CB18     		add	r3, r1, r3
 867 000c 9A80     		strh	r2, [r3, #4]
1548:.\Generated_Source\PSoC4/CapSense_2.c **** 
1549:.\Generated_Source\PSoC4/CapSense_2.c **** #if ((CapSense_2_TUNING_METHOD == CapSense_2__TUNING_AUTO) &&\
1550:.\Generated_Source\PSoC4/CapSense_2.c ****      (0 != CapSense_2_IS_OVERSAMPLING_EN))
1551:.\Generated_Source\PSoC4/CapSense_2.c ****     widget = CapSense_2_widgetNumber[sensor];
1552:.\Generated_Source\PSoC4/CapSense_2.c ****     if(CapSense_2_widgetResolution[widget] < CapSense_2_RESOLUTION_16_BITS)
1553:.\Generated_Source\PSoC4/CapSense_2.c ****     {
1554:.\Generated_Source\PSoC4/CapSense_2.c ****         oversamplingFactor = CapSense_2_GetBitValue(CapSense_2_scanSpeedTbl, sensor);
1555:.\Generated_Source\PSoC4/CapSense_2.c ****         CapSense_2_sensorRaw[sensor] >>= oversamplingFactor;
1556:.\Generated_Source\PSoC4/CapSense_2.c ****     }
1557:.\Generated_Source\PSoC4/CapSense_2.c **** #endif /* ((CapSense_2_TUNING_METHOD == CapSense_2__TUNING_AUTO) &&\
ARM GAS  C:\Users\glenn\AppData\Local\Temp\ccPcZrmN.s 			page 44


1558:.\Generated_Source\PSoC4/CapSense_2.c ****            (0 != CapSense_2_IS_OVERSAMPLING_EN)) */
1559:.\Generated_Source\PSoC4/CapSense_2.c **** 
1560:.\Generated_Source\PSoC4/CapSense_2.c ****     /* Disable Sensor */
1561:.\Generated_Source\PSoC4/CapSense_2.c ****     CapSense_2_DisableScanSlot(sensor);
 868              		.loc 1 1561 0
 869 000e FFF7FEFF 		bl	CapSense_2_DisableSensor
 870              	.LVL107:
1562:.\Generated_Source\PSoC4/CapSense_2.c **** 
1563:.\Generated_Source\PSoC4/CapSense_2.c ****     CyIntDisable(CapSense_2_ISR_NUMBER);
 871              		.loc 1 1563 0
 872 0012 1120     		mov	r0, #17
 873 0014 FFF7FEFF 		bl	CyIntDisable
 874              	.LVL108:
1564:.\Generated_Source\PSoC4/CapSense_2.c **** 
1565:.\Generated_Source\PSoC4/CapSense_2.c **** #if(CapSense_2_CMOD_PREGARGE_OPTION == CapSense_2__CAPPRIOBUF)
1566:.\Generated_Source\PSoC4/CapSense_2.c ****     newRegValue = CapSense_2_CMOD_CONNECTION_REG;
1567:.\Generated_Source\PSoC4/CapSense_2.c ****     newRegValue &= ~(CapSense_2_CSD_CMOD_CONNECTION_MASK);
1568:.\Generated_Source\PSoC4/CapSense_2.c ****     newRegValue |= CapSense_2_CSD_CMOD_TO_AMUXBUS_B;
1569:.\Generated_Source\PSoC4/CapSense_2.c ****     CapSense_2_CMOD_CONNECTION_REG = newRegValue;
1570:.\Generated_Source\PSoC4/CapSense_2.c **** 
1571:.\Generated_Source\PSoC4/CapSense_2.c ****     newRegValue = CapSense_2_CMOD_PORT_PC_REG;
1572:.\Generated_Source\PSoC4/CapSense_2.c ****     newRegValue &= ~(CapSense_2_CSD_CMOD_PC_MASK);
1573:.\Generated_Source\PSoC4/CapSense_2.c ****     newRegValue |= CapSense_2_CMOD_PC_STRONG_MODE;
1574:.\Generated_Source\PSoC4/CapSense_2.c ****     CapSense_2_CMOD_PORT_PC_REG = newRegValue;
1575:.\Generated_Source\PSoC4/CapSense_2.c **** 
1576:.\Generated_Source\PSoC4/CapSense_2.c ****     newRegValue = CapSense_2_CMOD_PORT_DR_REG;
1577:.\Generated_Source\PSoC4/CapSense_2.c ****     newRegValue &= ~(CapSense_2_CMOD_DR_MASK);
1578:.\Generated_Source\PSoC4/CapSense_2.c ****     newRegValue |= CapSense_2_CMOD_DR_CONFIG;
1579:.\Generated_Source\PSoC4/CapSense_2.c ****     CapSense_2_CMOD_PORT_DR_REG = newRegValue;
1580:.\Generated_Source\PSoC4/CapSense_2.c **** #endif /* (CapSense_2_CMOD_PREGARGE_OPTION == CapSense_2__CAPPRIOBUF) */
1581:.\Generated_Source\PSoC4/CapSense_2.c **** 
1582:.\Generated_Source\PSoC4/CapSense_2.c ****     /* Connect Vref Buffer to AMUX bus  */
1583:.\Generated_Source\PSoC4/CapSense_2.c ****     newRegValue = CapSense_2_CSD_CFG_REG;
 875              		.loc 1 1583 0
 876 0018 0A4A     		ldr	r2, .L52+8
 877 001a 1168     		ldr	r1, [r2]
 878              	.LVL109:
1584:.\Generated_Source\PSoC4/CapSense_2.c ****     newRegValue &= ~(CapSense_2_PRECHARGE_CONFIG_MASK);
 879              		.loc 1 1584 0
 880 001c 0A4B     		ldr	r3, .L52+12
 881 001e 0B40     		and	r3, r1
 882              	.LVL110:
1585:.\Generated_Source\PSoC4/CapSense_2.c ****     newRegValue |= CapSense_2_CMOD_PRECHARGE_CONFIG;
 883              		.loc 1 1585 0
 884 0020 A021     		mov	r1, #160
 885 0022 0902     		lsl	r1, r1, #8
 886 0024 0B43     		orr	r3, r1
 887              	.LVL111:
1586:.\Generated_Source\PSoC4/CapSense_2.c ****     CapSense_2_CSD_CFG_REG = newRegValue;
 888              		.loc 1 1586 0
 889 0026 1360     		str	r3, [r2]
1587:.\Generated_Source\PSoC4/CapSense_2.c **** 
1588:.\Generated_Source\PSoC4/CapSense_2.c ****     /* Set Idac Value = 0 */
1589:.\Generated_Source\PSoC4/CapSense_2.c **** #if (CapSense_2_IDAC_CNT == 1u)
1590:.\Generated_Source\PSoC4/CapSense_2.c ****     CapSense_2_CSD_IDAC_REG &= ~(CapSense_2_CSD_IDAC1_DATA_MASK);
1591:.\Generated_Source\PSoC4/CapSense_2.c **** #else
1592:.\Generated_Source\PSoC4/CapSense_2.c ****     CapSense_2_CSD_IDAC_REG &= ~(CapSense_2_CSD_IDAC1_DATA_MASK | CapSense_2_CSD_IDAC2_DATA_MASK);
ARM GAS  C:\Users\glenn\AppData\Local\Temp\ccPcZrmN.s 			page 45


 890              		.loc 1 1592 0
 891 0028 084A     		ldr	r2, .L52+16
 892 002a 1168     		ldr	r1, [r2]
 893 002c 084B     		ldr	r3, .L52+20
 894              	.LVL112:
 895 002e 0B40     		and	r3, r1
 896 0030 1360     		str	r3, [r2]
 897              	.LVL113:
1593:.\Generated_Source\PSoC4/CapSense_2.c **** #endif /* (CapSense_2_IDAC_CNT == 1u) */
1594:.\Generated_Source\PSoC4/CapSense_2.c **** 
1595:.\Generated_Source\PSoC4/CapSense_2.c ****     CyIntEnable(CapSense_2_ISR_NUMBER);
 898              		.loc 1 1595 0
 899 0032 1120     		mov	r0, #17
 900 0034 FFF7FEFF 		bl	CyIntEnable
 901              	.LVL114:
1596:.\Generated_Source\PSoC4/CapSense_2.c **** }
 902              		.loc 1 1596 0
 903              		@ sp needed
 904 0038 08BD     		pop	{r3, pc}
 905              	.L53:
 906 003a C046     		.align	2
 907              	.L52:
 908 003c 0C002840 		.word	1076363276
 909 0040 00000000 		.word	.LANCHOR0
 910 0044 04002840 		.word	1076363268
 911 0048 FF1FDFFF 		.word	-2154497
 912 004c 08002840 		.word	1076363272
 913 0050 00FF80FF 		.word	-8323328
 914              		.cfi_endproc
 915              	.LFE54:
 916              		.size	CapSense_2_PostScan, .-CapSense_2_PostScan
 917              		.section	.text.CapSense_2_EnableShieldElectrode,"ax",%progbits
 918              		.align	2
 919              		.global	CapSense_2_EnableShieldElectrode
 920              		.code	16
 921              		.thumb_func
 922              		.type	CapSense_2_EnableShieldElectrode, %function
 923              	CapSense_2_EnableShieldElectrode:
 924              	.LFB55:
1597:.\Generated_Source\PSoC4/CapSense_2.c **** 
1598:.\Generated_Source\PSoC4/CapSense_2.c **** 
1599:.\Generated_Source\PSoC4/CapSense_2.c **** /*******************************************************************************
1600:.\Generated_Source\PSoC4/CapSense_2.c **** * Function Name: CapSense_2_EnableShieldElectrode
1601:.\Generated_Source\PSoC4/CapSense_2.c **** ********************************************************************************
1602:.\Generated_Source\PSoC4/CapSense_2.c **** *
1603:.\Generated_Source\PSoC4/CapSense_2.c **** * Summary:
1604:.\Generated_Source\PSoC4/CapSense_2.c **** *  This API enables or disables the shield electrode on a specified port pin.
1605:.\Generated_Source\PSoC4/CapSense_2.c **** *
1606:.\Generated_Source\PSoC4/CapSense_2.c **** * Parameters:
1607:.\Generated_Source\PSoC4/CapSense_2.c **** *  portNumber: contains the shield electrode port number (0, 1, 2).
1608:.\Generated_Source\PSoC4/CapSense_2.c **** *  pinNumber: contains the shield electrode pin number (0, 1, 2, ... , 7).
1609:.\Generated_Source\PSoC4/CapSense_2.c **** *
1610:.\Generated_Source\PSoC4/CapSense_2.c **** * Return:
1611:.\Generated_Source\PSoC4/CapSense_2.c **** *  None
1612:.\Generated_Source\PSoC4/CapSense_2.c **** *
1613:.\Generated_Source\PSoC4/CapSense_2.c **** * Global Variables:
1614:.\Generated_Source\PSoC4/CapSense_2.c **** *  CapSense_2_prtCfgTbl[] - Contains pointers to the port config registers for each port.
ARM GAS  C:\Users\glenn\AppData\Local\Temp\ccPcZrmN.s 			page 46


1615:.\Generated_Source\PSoC4/CapSense_2.c **** *  CapSense_2_prtSelTbl[] - Contains pointers to the HSIOM registers for each port.
1616:.\Generated_Source\PSoC4/CapSense_2.c **** *
1617:.\Generated_Source\PSoC4/CapSense_2.c **** * Side Effects:
1618:.\Generated_Source\PSoC4/CapSense_2.c **** *  None
1619:.\Generated_Source\PSoC4/CapSense_2.c **** *
1620:.\Generated_Source\PSoC4/CapSense_2.c **** *******************************************************************************/
1621:.\Generated_Source\PSoC4/CapSense_2.c **** void CapSense_2_EnableShieldElectrode(uint32 pinNumber, uint32 portNumber)
1622:.\Generated_Source\PSoC4/CapSense_2.c **** {
 925              		.loc 1 1622 0
 926              		.cfi_startproc
 927              	.LVL115:
 928 0000 70B5     		push	{r4, r5, r6, lr}
 929              		.cfi_def_cfa_offset 16
 930              		.cfi_offset 4, -16
 931              		.cfi_offset 5, -12
 932              		.cfi_offset 6, -8
 933              		.cfi_offset 14, -4
1623:.\Generated_Source\PSoC4/CapSense_2.c ****     uint32 newRegValue;
1624:.\Generated_Source\PSoC4/CapSense_2.c **** 
1625:.\Generated_Source\PSoC4/CapSense_2.c ****     *CapSense_2_prtCfgTbl[portNumber] &= ~(CapSense_2_CSD_PIN_MODE_MASK << (pinNumber * CapSense_2_
 934              		.loc 1 1625 0
 935 0002 0B4D     		ldr	r5, .L55
 936 0004 8900     		lsl	r1, r1, #2
 937              	.LVL116:
 938 0006 4E59     		ldr	r6, [r1, r5]
 939 0008 3368     		ldr	r3, [r6]
 940 000a 4200     		lsl	r2, r0, #1
 941 000c 1218     		add	r2, r2, r0
 942 000e 0724     		mov	r4, #7
 943 0010 9440     		lsl	r4, r4, r2
 944 0012 A343     		bic	r3, r4
 945 0014 3360     		str	r3, [r6]
1626:.\Generated_Source\PSoC4/CapSense_2.c ****     newRegValue = *CapSense_2_prtSelTbl[portNumber];
 946              		.loc 1 1626 0
 947 0016 6918     		add	r1, r5, r1
 948 0018 096A     		ldr	r1, [r1, #32]
 949 001a 0B68     		ldr	r3, [r1]
 950              	.LVL117:
1627:.\Generated_Source\PSoC4/CapSense_2.c ****     newRegValue &= ~(CapSense_2_CSD_HSIOM_MASK << (pinNumber * CapSense_2_HSIOM_PIN_CFG_SIZE));
 951              		.loc 1 1627 0
 952 001c 8000     		lsl	r0, r0, #2
 953              	.LVL118:
 954 001e 0F22     		mov	r2, #15
 955 0020 8240     		lsl	r2, r2, r0
 956 0022 9343     		bic	r3, r2
 957              	.LVL119:
1628:.\Generated_Source\PSoC4/CapSense_2.c ****     newRegValue |= (CapSense_2_CSD_SHIELD_PORT_MODE << (pinNumber * CapSense_2_HSIOM_PIN_CFG_SIZE))
 958              		.loc 1 1628 0
 959 0024 0522     		mov	r2, #5
 960 0026 8240     		lsl	r2, r2, r0
 961 0028 101C     		mov	r0, r2
 962 002a 1843     		orr	r0, r3
 963              	.LVL120:
1629:.\Generated_Source\PSoC4/CapSense_2.c ****     *CapSense_2_prtSelTbl[portNumber] = newRegValue;
 964              		.loc 1 1629 0
 965 002c 0860     		str	r0, [r1]
1630:.\Generated_Source\PSoC4/CapSense_2.c **** }
ARM GAS  C:\Users\glenn\AppData\Local\Temp\ccPcZrmN.s 			page 47


 966              		.loc 1 1630 0
 967              		@ sp needed
 968 002e 70BD     		pop	{r4, r5, r6, pc}
 969              	.L56:
 970              		.align	2
 971              	.L55:
 972 0030 00000000 		.word	.LANCHOR1
 973              		.cfi_endproc
 974              	.LFE55:
 975              		.size	CapSense_2_EnableShieldElectrode, .-CapSense_2_EnableShieldElectrode
 976              		.section	.text.CapSense_2_SetShieldDelay,"ax",%progbits
 977              		.align	2
 978              		.global	CapSense_2_SetShieldDelay
 979              		.code	16
 980              		.thumb_func
 981              		.type	CapSense_2_SetShieldDelay, %function
 982              	CapSense_2_SetShieldDelay:
 983              	.LFB56:
1631:.\Generated_Source\PSoC4/CapSense_2.c **** 
1632:.\Generated_Source\PSoC4/CapSense_2.c **** 
1633:.\Generated_Source\PSoC4/CapSense_2.c **** /*******************************************************************************
1634:.\Generated_Source\PSoC4/CapSense_2.c **** * Function Name: CapSense_2_SetShieldDelay
1635:.\Generated_Source\PSoC4/CapSense_2.c **** ********************************************************************************
1636:.\Generated_Source\PSoC4/CapSense_2.c **** *
1637:.\Generated_Source\PSoC4/CapSense_2.c **** * Summary:
1638:.\Generated_Source\PSoC4/CapSense_2.c **** *  This API sets a shield delay.
1639:.\Generated_Source\PSoC4/CapSense_2.c **** *
1640:.\Generated_Source\PSoC4/CapSense_2.c **** * Parameters:
1641:.\Generated_Source\PSoC4/CapSense_2.c **** *  delay:  shield delay value:
1642:.\Generated_Source\PSoC4/CapSense_2.c **** *                               0 - no delay
1643:.\Generated_Source\PSoC4/CapSense_2.c **** *                               1 - 1 cycle delay
1644:.\Generated_Source\PSoC4/CapSense_2.c **** *                               2 - 2 cycles delay
1645:.\Generated_Source\PSoC4/CapSense_2.c **** *
1646:.\Generated_Source\PSoC4/CapSense_2.c **** * Return:
1647:.\Generated_Source\PSoC4/CapSense_2.c **** *  None
1648:.\Generated_Source\PSoC4/CapSense_2.c **** *
1649:.\Generated_Source\PSoC4/CapSense_2.c **** * Global Variables:
1650:.\Generated_Source\PSoC4/CapSense_2.c **** *  None
1651:.\Generated_Source\PSoC4/CapSense_2.c **** *
1652:.\Generated_Source\PSoC4/CapSense_2.c **** * Side Effects:
1653:.\Generated_Source\PSoC4/CapSense_2.c **** *  None
1654:.\Generated_Source\PSoC4/CapSense_2.c **** *
1655:.\Generated_Source\PSoC4/CapSense_2.c **** *******************************************************************************/
1656:.\Generated_Source\PSoC4/CapSense_2.c **** void CapSense_2_SetShieldDelay(uint32 delay)
1657:.\Generated_Source\PSoC4/CapSense_2.c **** {
 984              		.loc 1 1657 0
 985              		.cfi_startproc
 986              	.LVL121:
1658:.\Generated_Source\PSoC4/CapSense_2.c ****     uint32 newRegValue;
1659:.\Generated_Source\PSoC4/CapSense_2.c **** 
1660:.\Generated_Source\PSoC4/CapSense_2.c ****     delay &= 0x03u;
 987              		.loc 1 1660 0
 988 0000 0323     		mov	r3, #3
 989 0002 1840     		and	r0, r3
 990              	.LVL122:
1661:.\Generated_Source\PSoC4/CapSense_2.c **** 
1662:.\Generated_Source\PSoC4/CapSense_2.c ****     newRegValue = CapSense_2_CSD_CFG_REG;
ARM GAS  C:\Users\glenn\AppData\Local\Temp\ccPcZrmN.s 			page 48


 991              		.loc 1 1662 0
 992 0004 024B     		ldr	r3, .L58
 993 0006 1A68     		ldr	r2, [r3]
 994              	.LVL123:
1663:.\Generated_Source\PSoC4/CapSense_2.c ****     newRegValue &= (uint32)(~(uint32)CapSense_2_SHIELD_DELAY);
1664:.\Generated_Source\PSoC4/CapSense_2.c ****     newRegValue |= (delay << CapSense_2_CSD_CFG_SHIELD_DELAY_POS);
 995              		.loc 1 1664 0
 996 0008 4002     		lsl	r0, r0, #9
 997              	.LVL124:
 998 000a 1043     		orr	r0, r2
 999              	.LVL125:
1665:.\Generated_Source\PSoC4/CapSense_2.c ****     CapSense_2_CSD_CFG_REG = newRegValue;
 1000              		.loc 1 1665 0
 1001 000c 1860     		str	r0, [r3]
1666:.\Generated_Source\PSoC4/CapSense_2.c **** }
 1002              		.loc 1 1666 0
 1003              		@ sp needed
 1004 000e 7047     		bx	lr
 1005              	.L59:
 1006              		.align	2
 1007              	.L58:
 1008 0010 04002840 		.word	1076363268
 1009              		.cfi_endproc
 1010              	.LFE56:
 1011              		.size	CapSense_2_SetShieldDelay, .-CapSense_2_SetShieldDelay
 1012              		.section	.text.CapSense_2_ReadCurrentScanningSensor,"ax",%progbits
 1013              		.align	2
 1014              		.global	CapSense_2_ReadCurrentScanningSensor
 1015              		.code	16
 1016              		.thumb_func
 1017              		.type	CapSense_2_ReadCurrentScanningSensor, %function
 1018              	CapSense_2_ReadCurrentScanningSensor:
 1019              	.LFB57:
1667:.\Generated_Source\PSoC4/CapSense_2.c **** 
1668:.\Generated_Source\PSoC4/CapSense_2.c **** 
1669:.\Generated_Source\PSoC4/CapSense_2.c **** /*******************************************************************************
1670:.\Generated_Source\PSoC4/CapSense_2.c **** * Function Name: CapSense_2_ReadCurrentScanningSensor
1671:.\Generated_Source\PSoC4/CapSense_2.c **** ********************************************************************************
1672:.\Generated_Source\PSoC4/CapSense_2.c **** *
1673:.\Generated_Source\PSoC4/CapSense_2.c **** * Summary:
1674:.\Generated_Source\PSoC4/CapSense_2.c **** *  This API returns scanning sensor number when sensor scan is in progress.
1675:.\Generated_Source\PSoC4/CapSense_2.c **** *  When sensor scan is completed the API returns
1676:.\Generated_Source\PSoC4/CapSense_2.c **** *  $INSTANCE_NAME`_NOT_SENSOR (0xFFFFFFFF) (when no sensor is scanned).
1677:.\Generated_Source\PSoC4/CapSense_2.c **** *
1678:.\Generated_Source\PSoC4/CapSense_2.c **** * Parameters:
1679:.\Generated_Source\PSoC4/CapSense_2.c **** *   None.
1680:.\Generated_Source\PSoC4/CapSense_2.c **** *
1681:.\Generated_Source\PSoC4/CapSense_2.c **** * Return:
1682:.\Generated_Source\PSoC4/CapSense_2.c **** *  Returns Sensor number if sensor is being scanned and
1683:.\Generated_Source\PSoC4/CapSense_2.c **** *  $INSTANCE_NAME`_NOT_SENSOR (0xFFFFFFFF) if scanning is complete.
1684:.\Generated_Source\PSoC4/CapSense_2.c **** *
1685:.\Generated_Source\PSoC4/CapSense_2.c **** * Global Variables:
1686:.\Generated_Source\PSoC4/CapSense_2.c **** *  CapSense_2_sensorIndex - the sensor number is being scanned.
1687:.\Generated_Source\PSoC4/CapSense_2.c **** *
1688:.\Generated_Source\PSoC4/CapSense_2.c **** * Side Effects:
1689:.\Generated_Source\PSoC4/CapSense_2.c **** *  None
1690:.\Generated_Source\PSoC4/CapSense_2.c **** *
ARM GAS  C:\Users\glenn\AppData\Local\Temp\ccPcZrmN.s 			page 49


1691:.\Generated_Source\PSoC4/CapSense_2.c **** *******************************************************************************/
1692:.\Generated_Source\PSoC4/CapSense_2.c **** uint32 CapSense_2_ReadCurrentScanningSensor(void)
1693:.\Generated_Source\PSoC4/CapSense_2.c **** {
 1020              		.loc 1 1693 0
 1021              		.cfi_startproc
1694:.\Generated_Source\PSoC4/CapSense_2.c ****     return ((uint32)(( 0u != (CapSense_2_csdStatusVar & CapSense_2_SW_STS_BUSY)) ?
 1022              		.loc 1 1694 0
 1023 0000 054B     		ldr	r3, .L63
 1024 0002 1B78     		ldrb	r3, [r3]
 1025 0004 DB07     		lsl	r3, r3, #31
 1026 0006 03D5     		bpl	.L62
 1027              		.loc 1 1694 0 is_stmt 0 discriminator 1
 1028 0008 034B     		ldr	r3, .L63
 1029 000a 9879     		ldrb	r0, [r3, #6]
 1030 000c C0B2     		uxtb	r0, r0
 1031 000e 01E0     		b	.L61
 1032              	.L62:
 1033              		.loc 1 1694 0
 1034 0010 0120     		mov	r0, #1
 1035 0012 4042     		neg	r0, r0
 1036              	.L61:
1695:.\Generated_Source\PSoC4/CapSense_2.c ****                      CapSense_2_sensorIndex : CapSense_2_NOT_SENSOR));
1696:.\Generated_Source\PSoC4/CapSense_2.c **** }
 1037              		.loc 1 1696 0 is_stmt 1 discriminator 4
 1038              		@ sp needed
 1039 0014 7047     		bx	lr
 1040              	.L64:
 1041 0016 C046     		.align	2
 1042              	.L63:
 1043 0018 00000000 		.word	.LANCHOR0
 1044              		.cfi_endproc
 1045              	.LFE57:
 1046              		.size	CapSense_2_ReadCurrentScanningSensor, .-CapSense_2_ReadCurrentScanningSensor
 1047              		.section	.text.CapSense_2_GetBitValue,"ax",%progbits
 1048              		.align	2
 1049              		.global	CapSense_2_GetBitValue
 1050              		.code	16
 1051              		.thumb_func
 1052              		.type	CapSense_2_GetBitValue, %function
 1053              	CapSense_2_GetBitValue:
 1054              	.LFB58:
1697:.\Generated_Source\PSoC4/CapSense_2.c **** 
1698:.\Generated_Source\PSoC4/CapSense_2.c **** 
1699:.\Generated_Source\PSoC4/CapSense_2.c **** /*******************************************************************************
1700:.\Generated_Source\PSoC4/CapSense_2.c **** * Function Name: CapSense_2_GetBitValue
1701:.\Generated_Source\PSoC4/CapSense_2.c **** ********************************************************************************
1702:.\Generated_Source\PSoC4/CapSense_2.c **** *
1703:.\Generated_Source\PSoC4/CapSense_2.c **** * Summary:
1704:.\Generated_Source\PSoC4/CapSense_2.c **** *  The API returns a bit status of the bit in the table array which contains the masks.
1705:.\Generated_Source\PSoC4/CapSense_2.c **** *
1706:.\Generated_Source\PSoC4/CapSense_2.c **** * Parameters:
1707:.\Generated_Source\PSoC4/CapSense_2.c **** *  table[] - array with bit masks.
1708:.\Generated_Source\PSoC4/CapSense_2.c **** *  position - position of bit in the table[] array.
1709:.\Generated_Source\PSoC4/CapSense_2.c **** *
1710:.\Generated_Source\PSoC4/CapSense_2.c **** * Return:
1711:.\Generated_Source\PSoC4/CapSense_2.c **** *  0 - bit is not set; 1 - bit is set.
1712:.\Generated_Source\PSoC4/CapSense_2.c **** *
ARM GAS  C:\Users\glenn\AppData\Local\Temp\ccPcZrmN.s 			page 50


1713:.\Generated_Source\PSoC4/CapSense_2.c **** * Global Variables:
1714:.\Generated_Source\PSoC4/CapSense_2.c **** *  None
1715:.\Generated_Source\PSoC4/CapSense_2.c **** *
1716:.\Generated_Source\PSoC4/CapSense_2.c **** * Side Effects:
1717:.\Generated_Source\PSoC4/CapSense_2.c **** *  None
1718:.\Generated_Source\PSoC4/CapSense_2.c **** *
1719:.\Generated_Source\PSoC4/CapSense_2.c **** *******************************************************************************/
1720:.\Generated_Source\PSoC4/CapSense_2.c **** uint32 CapSense_2_GetBitValue(const uint8 table[], uint32 position)
1721:.\Generated_Source\PSoC4/CapSense_2.c **** {
 1055              		.loc 1 1721 0
 1056              		.cfi_startproc
 1057              	.LVL126:
1722:.\Generated_Source\PSoC4/CapSense_2.c ****     uint32 offset;
1723:.\Generated_Source\PSoC4/CapSense_2.c ****     uint8 enMask;
1724:.\Generated_Source\PSoC4/CapSense_2.c **** 
1725:.\Generated_Source\PSoC4/CapSense_2.c ****     /* position is divided by 8 to calculate the element of the
1726:.\Generated_Source\PSoC4/CapSense_2.c ****        table[] array that contains the enable bit
1727:.\Generated_Source\PSoC4/CapSense_2.c ****        for an appropriate sensor.
1728:.\Generated_Source\PSoC4/CapSense_2.c ****     */
1729:.\Generated_Source\PSoC4/CapSense_2.c ****     offset = (position >> 3u);
 1058              		.loc 1 1729 0
 1059 0000 CA08     		lsr	r2, r1, #3
 1060              	.LVL127:
1730:.\Generated_Source\PSoC4/CapSense_2.c **** 
1731:.\Generated_Source\PSoC4/CapSense_2.c ****     /* The enMask calculation for the appropriate sensor. Operation (position & 0x07u)
1732:.\Generated_Source\PSoC4/CapSense_2.c ****        intends to calculate the enable bit offset for the 8-bit element of the
1733:.\Generated_Source\PSoC4/CapSense_2.c ****        table[] array.
1734:.\Generated_Source\PSoC4/CapSense_2.c ****     */
1735:.\Generated_Source\PSoC4/CapSense_2.c ****     enMask = 0x01u << (position & 0x07u);
 1061              		.loc 1 1735 0
 1062 0002 0723     		mov	r3, #7
 1063 0004 1940     		and	r1, r3
 1064              	.LVL128:
 1065 0006 063B     		sub	r3, r3, #6
 1066 0008 8B40     		lsl	r3, r3, r1
 1067 000a 191C     		mov	r1, r3
 1068              	.LVL129:
1736:.\Generated_Source\PSoC4/CapSense_2.c **** 
1737:.\Generated_Source\PSoC4/CapSense_2.c ****     return ((0u !=(table[offset] & enMask)) ? 1Lu : 0Lu);
 1069              		.loc 1 1737 0
 1070 000c 835C     		ldrb	r3, [r0, r2]
 1071 000e 1942     		tst	r1, r3
 1072 0010 01D0     		beq	.L67
 1073 0012 0120     		mov	r0, #1
 1074              	.LVL130:
 1075 0014 00E0     		b	.L66
 1076              	.LVL131:
 1077              	.L67:
 1078 0016 0020     		mov	r0, #0
 1079              	.LVL132:
 1080              	.L66:
1738:.\Generated_Source\PSoC4/CapSense_2.c **** }
 1081              		.loc 1 1738 0 discriminator 4
 1082              		@ sp needed
 1083 0018 7047     		bx	lr
 1084              		.cfi_endproc
 1085              	.LFE58:
ARM GAS  C:\Users\glenn\AppData\Local\Temp\ccPcZrmN.s 			page 51


 1086              		.size	CapSense_2_GetBitValue, .-CapSense_2_GetBitValue
 1087 001a C046     		.section	.text.CapSense_2_FindNextSensor,"ax",%progbits
 1088              		.align	2
 1089              		.global	CapSense_2_FindNextSensor
 1090              		.code	16
 1091              		.thumb_func
 1092              		.type	CapSense_2_FindNextSensor, %function
 1093              	CapSense_2_FindNextSensor:
 1094              	.LFB40:
 503:.\Generated_Source\PSoC4/CapSense_2.c ****     uint32 enableFlag;
 1095              		.loc 1 503 0
 1096              		.cfi_startproc
 1097              	.LVL133:
 1098 0000 10B5     		push	{r4, lr}
 1099              		.cfi_def_cfa_offset 8
 1100              		.cfi_offset 4, -8
 1101              		.cfi_offset 14, -4
 1102 0002 041C     		mov	r4, r0
 1103              	.LVL134:
 1104              	.L70:
 510:.\Generated_Source\PSoC4/CapSense_2.c ****         if(snsIndex == CapSense_2_TOTAL_SENSOR_COUNT)
 1105              		.loc 1 510 0
 1106 0004 0134     		add	r4, r4, #1
 1107              	.LVL135:
 1108 0006 E4B2     		uxtb	r4, r4
 1109              	.LVL136:
 511:.\Generated_Source\PSoC4/CapSense_2.c ****         {
 1110              		.loc 1 511 0
 1111 0008 012C     		cmp	r4, #1
 1112 000a 05D0     		beq	.L69
 515:.\Generated_Source\PSoC4/CapSense_2.c ****     }
 1113              		.loc 1 515 0
 1114 000c 0348     		ldr	r0, .L71
 1115 000e 211C     		mov	r1, r4
 1116 0010 FFF7FEFF 		bl	CapSense_2_GetBitValue
 1117              	.LVL137:
 517:.\Generated_Source\PSoC4/CapSense_2.c **** 
 1118              		.loc 1 517 0
 1119 0014 0028     		cmp	r0, #0
 1120 0016 F5D0     		beq	.L70
 1121              	.LVL138:
 1122              	.L69:
 520:.\Generated_Source\PSoC4/CapSense_2.c **** 
 1123              		.loc 1 520 0
 1124 0018 201C     		mov	r0, r4
 1125              		@ sp needed
 1126              	.LVL139:
 1127 001a 10BD     		pop	{r4, pc}
 1128              	.L72:
 1129              		.align	2
 1130              	.L71:
 1131 001c 00000000 		.word	.LANCHOR2
 1132              		.cfi_endproc
 1133              	.LFE40:
 1134              		.size	CapSense_2_FindNextSensor, .-CapSense_2_FindNextSensor
 1135              		.section	.text.CapSense_2_ScanEnabledWidgets,"ax",%progbits
 1136              		.align	2
ARM GAS  C:\Users\glenn\AppData\Local\Temp\ccPcZrmN.s 			page 52


 1137              		.global	CapSense_2_ScanEnabledWidgets
 1138              		.code	16
 1139              		.thumb_func
 1140              		.type	CapSense_2_ScanEnabledWidgets, %function
 1141              	CapSense_2_ScanEnabledWidgets:
 1142              	.LFB42:
 675:.\Generated_Source\PSoC4/CapSense_2.c ****     /* Clears status/control variable and set sensorIndex */
 1143              		.loc 1 675 0
 1144              		.cfi_startproc
 1145 0000 10B5     		push	{r4, lr}
 1146              		.cfi_def_cfa_offset 8
 1147              		.cfi_offset 4, -8
 1148              		.cfi_offset 14, -4
 677:.\Generated_Source\PSoC4/CapSense_2.c ****     CapSense_2_sensorIndex = 0xFFu;
 1149              		.loc 1 677 0
 1150 0002 0B4C     		ldr	r4, .L75
 1151 0004 0023     		mov	r3, #0
 1152 0006 2370     		strb	r3, [r4]
 678:.\Generated_Source\PSoC4/CapSense_2.c **** 
 1153              		.loc 1 678 0
 1154 0008 FF33     		add	r3, r3, #255
 1155 000a A371     		strb	r3, [r4, #6]
 681:.\Generated_Source\PSoC4/CapSense_2.c **** 
 1156              		.loc 1 681 0
 1157 000c A079     		ldrb	r0, [r4, #6]
 1158 000e C0B2     		uxtb	r0, r0
 1159 0010 FFF7FEFF 		bl	CapSense_2_FindNextSensor
 1160              	.LVL140:
 1161 0014 A071     		strb	r0, [r4, #6]
 684:.\Generated_Source\PSoC4/CapSense_2.c ****     {
 1162              		.loc 1 684 0
 1163 0016 A379     		ldrb	r3, [r4, #6]
 1164 0018 002B     		cmp	r3, #0
 1165 001a 07D1     		bne	.L73
 686:.\Generated_Source\PSoC4/CapSense_2.c ****         CapSense_2_PreScan((uint32)CapSense_2_sensorIndex);
 1166              		.loc 1 686 0
 1167 001c 2178     		ldrb	r1, [r4]
 1168 001e 0122     		mov	r2, #1
 1169 0020 0A43     		orr	r2, r1
 1170 0022 2270     		strb	r2, [r4]
 687:.\Generated_Source\PSoC4/CapSense_2.c ****     }
 1171              		.loc 1 687 0
 1172 0024 A079     		ldrb	r0, [r4, #6]
 1173 0026 C0B2     		uxtb	r0, r0
 1174 0028 FFF7FEFF 		bl	CapSense_2_PreScan
 1175              	.LVL141:
 1176              	.L73:
 689:.\Generated_Source\PSoC4/CapSense_2.c **** 
 1177              		.loc 1 689 0
 1178              		@ sp needed
 1179 002c 10BD     		pop	{r4, pc}
 1180              	.L76:
 1181 002e C046     		.align	2
 1182              	.L75:
 1183 0030 00000000 		.word	.LANCHOR0
 1184              		.cfi_endproc
 1185              	.LFE42:
ARM GAS  C:\Users\glenn\AppData\Local\Temp\ccPcZrmN.s 			page 53


 1186              		.size	CapSense_2_ScanEnabledWidgets, .-CapSense_2_ScanEnabledWidgets
 1187              		.section	.text.CapSense_2_SetBitValue,"ax",%progbits
 1188              		.align	2
 1189              		.global	CapSense_2_SetBitValue
 1190              		.code	16
 1191              		.thumb_func
 1192              		.type	CapSense_2_SetBitValue, %function
 1193              	CapSense_2_SetBitValue:
 1194              	.LFB59:
1739:.\Generated_Source\PSoC4/CapSense_2.c **** 
1740:.\Generated_Source\PSoC4/CapSense_2.c **** 
1741:.\Generated_Source\PSoC4/CapSense_2.c **** /*******************************************************************************
1742:.\Generated_Source\PSoC4/CapSense_2.c **** * Function Name: CapSense_2_SetBitValue
1743:.\Generated_Source\PSoC4/CapSense_2.c **** ********************************************************************************
1744:.\Generated_Source\PSoC4/CapSense_2.c **** *
1745:.\Generated_Source\PSoC4/CapSense_2.c **** * Summary:
1746:.\Generated_Source\PSoC4/CapSense_2.c **** *  The API sets a bit status of the bit in the table array which contains masks.
1747:.\Generated_Source\PSoC4/CapSense_2.c **** *
1748:.\Generated_Source\PSoC4/CapSense_2.c **** * Parameters:
1749:.\Generated_Source\PSoC4/CapSense_2.c **** *  table[] - array with bit masks.
1750:.\Generated_Source\PSoC4/CapSense_2.c **** *  position - position of bit in the table[] array.
1751:.\Generated_Source\PSoC4/CapSense_2.c **** *  value: 0 - bit is not set; 1 - bit is set.
1752:.\Generated_Source\PSoC4/CapSense_2.c **** *
1753:.\Generated_Source\PSoC4/CapSense_2.c **** * Return:
1754:.\Generated_Source\PSoC4/CapSense_2.c **** *  None
1755:.\Generated_Source\PSoC4/CapSense_2.c **** *
1756:.\Generated_Source\PSoC4/CapSense_2.c **** * Global Variables:
1757:.\Generated_Source\PSoC4/CapSense_2.c **** *  None
1758:.\Generated_Source\PSoC4/CapSense_2.c **** *
1759:.\Generated_Source\PSoC4/CapSense_2.c **** * Side Effects:
1760:.\Generated_Source\PSoC4/CapSense_2.c **** *  None
1761:.\Generated_Source\PSoC4/CapSense_2.c **** *
1762:.\Generated_Source\PSoC4/CapSense_2.c **** *******************************************************************************/
1763:.\Generated_Source\PSoC4/CapSense_2.c **** void CapSense_2_SetBitValue(uint8 table[], uint32 position, uint32 value)
1764:.\Generated_Source\PSoC4/CapSense_2.c **** {
 1195              		.loc 1 1764 0
 1196              		.cfi_startproc
 1197              	.LVL142:
 1198 0000 10B5     		push	{r4, lr}
 1199              		.cfi_def_cfa_offset 8
 1200              		.cfi_offset 4, -8
 1201              		.cfi_offset 14, -4
1765:.\Generated_Source\PSoC4/CapSense_2.c ****     uint32 offset;
1766:.\Generated_Source\PSoC4/CapSense_2.c ****     uint8 enMask;
1767:.\Generated_Source\PSoC4/CapSense_2.c **** 
1768:.\Generated_Source\PSoC4/CapSense_2.c ****     /* position is divided by 8 to calculate the element of the
1769:.\Generated_Source\PSoC4/CapSense_2.c ****        table[] array that contains the enable bit
1770:.\Generated_Source\PSoC4/CapSense_2.c ****        for an appropriate sensor.
1771:.\Generated_Source\PSoC4/CapSense_2.c ****     */
1772:.\Generated_Source\PSoC4/CapSense_2.c ****     offset = (position >> 3u);
 1202              		.loc 1 1772 0
 1203 0002 CC08     		lsr	r4, r1, #3
 1204              	.LVL143:
1773:.\Generated_Source\PSoC4/CapSense_2.c **** 
1774:.\Generated_Source\PSoC4/CapSense_2.c ****     /* The enMask calculation for the appropriate sensor. Operation (position & 0x07u)
1775:.\Generated_Source\PSoC4/CapSense_2.c ****        intends to calculate the enable bit offset for the 8-bit element of the
1776:.\Generated_Source\PSoC4/CapSense_2.c ****        table[] array.
ARM GAS  C:\Users\glenn\AppData\Local\Temp\ccPcZrmN.s 			page 54


1777:.\Generated_Source\PSoC4/CapSense_2.c ****     */
1778:.\Generated_Source\PSoC4/CapSense_2.c ****     enMask = 0x01u << (position & 0x07u);
 1205              		.loc 1 1778 0
 1206 0004 0723     		mov	r3, #7
 1207 0006 1940     		and	r1, r3
 1208              	.LVL144:
 1209 0008 063B     		sub	r3, r3, #6
 1210 000a 8B40     		lsl	r3, r3, r1
 1211 000c D9B2     		uxtb	r1, r3
 1212              	.LVL145:
1779:.\Generated_Source\PSoC4/CapSense_2.c **** 
1780:.\Generated_Source\PSoC4/CapSense_2.c ****     if(0u != value)
 1213              		.loc 1 1780 0
 1214 000e 002A     		cmp	r2, #0
 1215 0010 04D0     		beq	.L78
1781:.\Generated_Source\PSoC4/CapSense_2.c ****     {
1782:.\Generated_Source\PSoC4/CapSense_2.c ****         table[offset] |= enMask;
 1216              		.loc 1 1782 0
 1217 0012 0419     		add	r4, r0, r4
 1218              	.LVL146:
 1219 0014 2378     		ldrb	r3, [r4]
 1220 0016 1943     		orr	r1, r3
 1221              	.LVL147:
 1222 0018 2170     		strb	r1, [r4]
 1223 001a 03E0     		b	.L77
 1224              	.LVL148:
 1225              	.L78:
1783:.\Generated_Source\PSoC4/CapSense_2.c ****     }
1784:.\Generated_Source\PSoC4/CapSense_2.c ****     else
1785:.\Generated_Source\PSoC4/CapSense_2.c ****     {
1786:.\Generated_Source\PSoC4/CapSense_2.c ****         table[offset] &= (uint8)~(enMask);
 1226              		.loc 1 1786 0
 1227 001c 0419     		add	r4, r0, r4
 1228              	.LVL149:
 1229 001e 2378     		ldrb	r3, [r4]
 1230 0020 8B43     		bic	r3, r1
 1231 0022 2370     		strb	r3, [r4]
 1232              	.LVL150:
 1233              	.L77:
1787:.\Generated_Source\PSoC4/CapSense_2.c ****     }
1788:.\Generated_Source\PSoC4/CapSense_2.c **** }
 1234              		.loc 1 1788 0
 1235              		@ sp needed
 1236 0024 10BD     		pop	{r4, pc}
 1237              		.cfi_endproc
 1238              	.LFE59:
 1239              		.size	CapSense_2_SetBitValue, .-CapSense_2_SetBitValue
 1240 0026 C046     		.section	.text.CapSense_2_GetSenseClkDivider,"ax",%progbits
 1241              		.align	2
 1242              		.global	CapSense_2_GetSenseClkDivider
 1243              		.code	16
 1244              		.thumb_func
 1245              		.type	CapSense_2_GetSenseClkDivider, %function
 1246              	CapSense_2_GetSenseClkDivider:
 1247              	.LFB60:
1789:.\Generated_Source\PSoC4/CapSense_2.c **** 
1790:.\Generated_Source\PSoC4/CapSense_2.c **** 
ARM GAS  C:\Users\glenn\AppData\Local\Temp\ccPcZrmN.s 			page 55


1791:.\Generated_Source\PSoC4/CapSense_2.c **** 
1792:.\Generated_Source\PSoC4/CapSense_2.c **** /*******************************************************************************
1793:.\Generated_Source\PSoC4/CapSense_2.c **** * Function Name: CapSense_2_GetSenseClkDivider
1794:.\Generated_Source\PSoC4/CapSense_2.c **** ********************************************************************************
1795:.\Generated_Source\PSoC4/CapSense_2.c **** *
1796:.\Generated_Source\PSoC4/CapSense_2.c **** * Summary:
1797:.\Generated_Source\PSoC4/CapSense_2.c **** *  This API returns a value of the sense clock divider for the  sensor.
1798:.\Generated_Source\PSoC4/CapSense_2.c **** *
1799:.\Generated_Source\PSoC4/CapSense_2.c **** * Parameters:
1800:.\Generated_Source\PSoC4/CapSense_2.c **** *  sensor: sensor index. The index value can be
1801:.\Generated_Source\PSoC4/CapSense_2.c **** *  from 0 to (CapSense_2_TOTAL_SENSOR_COUNT-1).
1802:.\Generated_Source\PSoC4/CapSense_2.c **** *
1803:.\Generated_Source\PSoC4/CapSense_2.c **** * Return:
1804:.\Generated_Source\PSoC4/CapSense_2.c **** *  This API returns the sense clock divider of the sensor.
1805:.\Generated_Source\PSoC4/CapSense_2.c **** *
1806:.\Generated_Source\PSoC4/CapSense_2.c **** * Global Variables:
1807:.\Generated_Source\PSoC4/CapSense_2.c **** *  CapSense_2_senseClkDividerVal[] - stores the sense clock divider values.
1808:.\Generated_Source\PSoC4/CapSense_2.c **** *
1809:.\Generated_Source\PSoC4/CapSense_2.c **** * Side Effects:
1810:.\Generated_Source\PSoC4/CapSense_2.c **** *  None
1811:.\Generated_Source\PSoC4/CapSense_2.c **** *
1812:.\Generated_Source\PSoC4/CapSense_2.c **** *******************************************************************************/
1813:.\Generated_Source\PSoC4/CapSense_2.c **** uint32 CapSense_2_GetSenseClkDivider(uint32 sensor)
1814:.\Generated_Source\PSoC4/CapSense_2.c **** {
 1248              		.loc 1 1814 0
 1249              		.cfi_startproc
 1250              	.LVL151:
1815:.\Generated_Source\PSoC4/CapSense_2.c ****     #if(0u != CapSense_2_MULTIPLE_FREQUENCY_SET)
1816:.\Generated_Source\PSoC4/CapSense_2.c ****         return((uint32)CapSense_2_senseClkDividerVal[sensor]);
1817:.\Generated_Source\PSoC4/CapSense_2.c ****     #else
1818:.\Generated_Source\PSoC4/CapSense_2.c ****         return((uint32)CapSense_2_senseClkDividerVal);
1819:.\Generated_Source\PSoC4/CapSense_2.c ****     #endif /* (0u != CapSense_2_MULTIPLE_FREQUENCY_SET) */
1820:.\Generated_Source\PSoC4/CapSense_2.c **** }
 1251              		.loc 1 1820 0
 1252 0000 0220     		mov	r0, #2
 1253              	.LVL152:
 1254              		@ sp needed
 1255 0002 7047     		bx	lr
 1256              		.cfi_endproc
 1257              	.LFE60:
 1258              		.size	CapSense_2_GetSenseClkDivider, .-CapSense_2_GetSenseClkDivider
 1259              		.section	.text.CapSense_2_GetModulatorClkDivider,"ax",%progbits
 1260              		.align	2
 1261              		.global	CapSense_2_GetModulatorClkDivider
 1262              		.code	16
 1263              		.thumb_func
 1264              		.type	CapSense_2_GetModulatorClkDivider, %function
 1265              	CapSense_2_GetModulatorClkDivider:
 1266              	.LFB61:
1821:.\Generated_Source\PSoC4/CapSense_2.c **** 
1822:.\Generated_Source\PSoC4/CapSense_2.c **** #if (CapSense_2_TUNING_METHOD != CapSense_2__TUNING_NONE)
1823:.\Generated_Source\PSoC4/CapSense_2.c ****     /*******************************************************************************
1824:.\Generated_Source\PSoC4/CapSense_2.c ****     * Function Name: CapSense_2_SetSenseClkDivider
1825:.\Generated_Source\PSoC4/CapSense_2.c ****     ********************************************************************************
1826:.\Generated_Source\PSoC4/CapSense_2.c ****     *
1827:.\Generated_Source\PSoC4/CapSense_2.c ****     * Summary:
1828:.\Generated_Source\PSoC4/CapSense_2.c ****     *  This API sets a value of the sense clock divider for the  sensor.
ARM GAS  C:\Users\glenn\AppData\Local\Temp\ccPcZrmN.s 			page 56


1829:.\Generated_Source\PSoC4/CapSense_2.c ****     *
1830:.\Generated_Source\PSoC4/CapSense_2.c ****     * Parameters:
1831:.\Generated_Source\PSoC4/CapSense_2.c ****     *  sensor:  Sensor index.
1832:.\Generated_Source\PSoC4/CapSense_2.c ****     *  senseClk: represents the sense clock value.
1833:.\Generated_Source\PSoC4/CapSense_2.c ****     *
1834:.\Generated_Source\PSoC4/CapSense_2.c ****     * Return:
1835:.\Generated_Source\PSoC4/CapSense_2.c ****     *  None.
1836:.\Generated_Source\PSoC4/CapSense_2.c ****     *
1837:.\Generated_Source\PSoC4/CapSense_2.c ****     * Global Variables:
1838:.\Generated_Source\PSoC4/CapSense_2.c ****     *  CapSense_2_senseClkDividerVal[] - stores the sense clock divider values.
1839:.\Generated_Source\PSoC4/CapSense_2.c ****     *
1840:.\Generated_Source\PSoC4/CapSense_2.c ****     * Side Effects:
1841:.\Generated_Source\PSoC4/CapSense_2.c ****     *  None
1842:.\Generated_Source\PSoC4/CapSense_2.c ****     *
1843:.\Generated_Source\PSoC4/CapSense_2.c ****     *******************************************************************************/
1844:.\Generated_Source\PSoC4/CapSense_2.c ****     void CapSense_2_SetSenseClkDivider(uint32 sensor, uint32 senseClk)
1845:.\Generated_Source\PSoC4/CapSense_2.c ****     {
1846:.\Generated_Source\PSoC4/CapSense_2.c ****         #if(0u != CapSense_2_MULTIPLE_FREQUENCY_SET)
1847:.\Generated_Source\PSoC4/CapSense_2.c ****             CapSense_2_senseClkDividerVal[sensor] = (uint8)senseClk;
1848:.\Generated_Source\PSoC4/CapSense_2.c ****         #else
1849:.\Generated_Source\PSoC4/CapSense_2.c ****             CapSense_2_senseClkDividerVal = (uint8)senseClk;
1850:.\Generated_Source\PSoC4/CapSense_2.c ****         #endif /* (0u != CapSense_2_MULTIPLE_FREQUENCY_SET) */
1851:.\Generated_Source\PSoC4/CapSense_2.c ****     }
1852:.\Generated_Source\PSoC4/CapSense_2.c **** #endif /* (CapSense_2_TUNING_METHOD != CapSense_2__TUNING_NONE) */
1853:.\Generated_Source\PSoC4/CapSense_2.c **** 
1854:.\Generated_Source\PSoC4/CapSense_2.c **** 
1855:.\Generated_Source\PSoC4/CapSense_2.c **** /*******************************************************************************
1856:.\Generated_Source\PSoC4/CapSense_2.c **** * Function Name: CapSense_2_GetModulatorClkDivider
1857:.\Generated_Source\PSoC4/CapSense_2.c **** ********************************************************************************
1858:.\Generated_Source\PSoC4/CapSense_2.c **** *
1859:.\Generated_Source\PSoC4/CapSense_2.c **** * Summary:
1860:.\Generated_Source\PSoC4/CapSense_2.c **** *  This API returns a value of the modulator sample clock divider for the  sensor.
1861:.\Generated_Source\PSoC4/CapSense_2.c **** *
1862:.\Generated_Source\PSoC4/CapSense_2.c **** * Parameters:
1863:.\Generated_Source\PSoC4/CapSense_2.c **** *  sensor: sensor index. The value of index can be
1864:.\Generated_Source\PSoC4/CapSense_2.c **** *  from 0 to (CapSense_2_TOTAL_SENSOR_COUNT-1).
1865:.\Generated_Source\PSoC4/CapSense_2.c **** *
1866:.\Generated_Source\PSoC4/CapSense_2.c **** * Return:
1867:.\Generated_Source\PSoC4/CapSense_2.c **** *  This API returns the modulator sample clock divider for the  sensor.
1868:.\Generated_Source\PSoC4/CapSense_2.c **** *
1869:.\Generated_Source\PSoC4/CapSense_2.c **** * Global Variables:
1870:.\Generated_Source\PSoC4/CapSense_2.c **** *  CapSense_2_sampleClkDividerVal[] - stores the modulator sample divider values.
1871:.\Generated_Source\PSoC4/CapSense_2.c **** *
1872:.\Generated_Source\PSoC4/CapSense_2.c **** * Side Effects:
1873:.\Generated_Source\PSoC4/CapSense_2.c **** *  None
1874:.\Generated_Source\PSoC4/CapSense_2.c **** *
1875:.\Generated_Source\PSoC4/CapSense_2.c **** *******************************************************************************/
1876:.\Generated_Source\PSoC4/CapSense_2.c **** uint32 CapSense_2_GetModulatorClkDivider(uint32 sensor)
1877:.\Generated_Source\PSoC4/CapSense_2.c **** {
 1267              		.loc 1 1877 0
 1268              		.cfi_startproc
 1269              	.LVL153:
1878:.\Generated_Source\PSoC4/CapSense_2.c ****     #if(0u != CapSense_2_MULTIPLE_FREQUENCY_SET)
1879:.\Generated_Source\PSoC4/CapSense_2.c ****         return((uint32)CapSense_2_sampleClkDividerVal[sensor]);
1880:.\Generated_Source\PSoC4/CapSense_2.c ****     #else
1881:.\Generated_Source\PSoC4/CapSense_2.c ****         return((uint32)CapSense_2_sampleClkDividerVal);
1882:.\Generated_Source\PSoC4/CapSense_2.c ****     #endif /* (0u != CapSense_2_MULTIPLE_FREQUENCY_SET) */
ARM GAS  C:\Users\glenn\AppData\Local\Temp\ccPcZrmN.s 			page 57


1883:.\Generated_Source\PSoC4/CapSense_2.c **** }
 1270              		.loc 1 1883 0
 1271 0000 0220     		mov	r0, #2
 1272              	.LVL154:
 1273              		@ sp needed
 1274 0002 7047     		bx	lr
 1275              		.cfi_endproc
 1276              	.LFE61:
 1277              		.size	CapSense_2_GetModulatorClkDivider, .-CapSense_2_GetModulatorClkDivider
 1278              		.section	.text.CapSense_2_GetModulationIDAC,"ax",%progbits
 1279              		.align	2
 1280              		.global	CapSense_2_GetModulationIDAC
 1281              		.code	16
 1282              		.thumb_func
 1283              		.type	CapSense_2_GetModulationIDAC, %function
 1284              	CapSense_2_GetModulationIDAC:
 1285              	.LFB62:
1884:.\Generated_Source\PSoC4/CapSense_2.c **** 
1885:.\Generated_Source\PSoC4/CapSense_2.c **** #if (CapSense_2_TUNING_METHOD != CapSense_2__TUNING_NONE)
1886:.\Generated_Source\PSoC4/CapSense_2.c ****     /*******************************************************************************
1887:.\Generated_Source\PSoC4/CapSense_2.c ****     * Function Name: CapSense_2_SetModulatorClkDivider
1888:.\Generated_Source\PSoC4/CapSense_2.c ****     ********************************************************************************
1889:.\Generated_Source\PSoC4/CapSense_2.c ****     *
1890:.\Generated_Source\PSoC4/CapSense_2.c ****     * Summary:
1891:.\Generated_Source\PSoC4/CapSense_2.c ****     *  This API sets a value of the modulator sample clock divider for the  sensor.
1892:.\Generated_Source\PSoC4/CapSense_2.c ****     *
1893:.\Generated_Source\PSoC4/CapSense_2.c ****     * Parameters:
1894:.\Generated_Source\PSoC4/CapSense_2.c ****     *  sensor:  Sensor index.
1895:.\Generated_Source\PSoC4/CapSense_2.c ****     *  modulatorClk: represents the modulator sample clock value.
1896:.\Generated_Source\PSoC4/CapSense_2.c ****     *
1897:.\Generated_Source\PSoC4/CapSense_2.c ****     * Return:
1898:.\Generated_Source\PSoC4/CapSense_2.c ****     *  None.
1899:.\Generated_Source\PSoC4/CapSense_2.c ****     *
1900:.\Generated_Source\PSoC4/CapSense_2.c ****     * Global Variables:
1901:.\Generated_Source\PSoC4/CapSense_2.c ****     *  CapSense_2_sampleClkDividerVal[] - stores the modulator sample divider values.
1902:.\Generated_Source\PSoC4/CapSense_2.c ****     *
1903:.\Generated_Source\PSoC4/CapSense_2.c ****     * Side Effects:
1904:.\Generated_Source\PSoC4/CapSense_2.c ****     *  None
1905:.\Generated_Source\PSoC4/CapSense_2.c ****     *
1906:.\Generated_Source\PSoC4/CapSense_2.c ****     *******************************************************************************/
1907:.\Generated_Source\PSoC4/CapSense_2.c ****     void CapSense_2_SetModulatorClkDivider(uint32 sensor, uint32 modulatorClk)
1908:.\Generated_Source\PSoC4/CapSense_2.c ****     {
1909:.\Generated_Source\PSoC4/CapSense_2.c ****         #if(0u != CapSense_2_MULTIPLE_FREQUENCY_SET)
1910:.\Generated_Source\PSoC4/CapSense_2.c ****             CapSense_2_sampleClkDividerVal[sensor] = (uint8)modulatorClk;
1911:.\Generated_Source\PSoC4/CapSense_2.c ****         #else
1912:.\Generated_Source\PSoC4/CapSense_2.c ****             CapSense_2_sampleClkDividerVal = (uint8)modulatorClk;
1913:.\Generated_Source\PSoC4/CapSense_2.c ****         #endif /* (0u != CapSense_2_MULTIPLE_FREQUENCY_SET) */
1914:.\Generated_Source\PSoC4/CapSense_2.c ****     }
1915:.\Generated_Source\PSoC4/CapSense_2.c **** #endif /* (CapSense_2_TUNING_METHOD != CapSense_2__TUNING_NONE) */
1916:.\Generated_Source\PSoC4/CapSense_2.c **** 
1917:.\Generated_Source\PSoC4/CapSense_2.c **** /*******************************************************************************
1918:.\Generated_Source\PSoC4/CapSense_2.c **** * Function Name: CapSense_2_GetModulationIDAC
1919:.\Generated_Source\PSoC4/CapSense_2.c **** ********************************************************************************
1920:.\Generated_Source\PSoC4/CapSense_2.c **** *
1921:.\Generated_Source\PSoC4/CapSense_2.c **** * Summary:
1922:.\Generated_Source\PSoC4/CapSense_2.c **** *  This API returns a value of the modulation IDAC for the  sensor.
1923:.\Generated_Source\PSoC4/CapSense_2.c **** *
ARM GAS  C:\Users\glenn\AppData\Local\Temp\ccPcZrmN.s 			page 58


1924:.\Generated_Source\PSoC4/CapSense_2.c **** * Parameters:
1925:.\Generated_Source\PSoC4/CapSense_2.c **** *  sensor: sensor index. The index value can be
1926:.\Generated_Source\PSoC4/CapSense_2.c **** *  from 0 to (CapSense_2_TOTAL_SENSOR_COUNT-1).
1927:.\Generated_Source\PSoC4/CapSense_2.c **** *
1928:.\Generated_Source\PSoC4/CapSense_2.c **** * Return:
1929:.\Generated_Source\PSoC4/CapSense_2.c **** *  This API returns the modulation IDAC of the sensor.
1930:.\Generated_Source\PSoC4/CapSense_2.c **** *
1931:.\Generated_Source\PSoC4/CapSense_2.c **** * Global Variables:
1932:.\Generated_Source\PSoC4/CapSense_2.c **** *  CapSense_2_modulationIDAC[] - stores modulation IDAC values.
1933:.\Generated_Source\PSoC4/CapSense_2.c **** *
1934:.\Generated_Source\PSoC4/CapSense_2.c **** * Side Effects:
1935:.\Generated_Source\PSoC4/CapSense_2.c **** *  None
1936:.\Generated_Source\PSoC4/CapSense_2.c **** *
1937:.\Generated_Source\PSoC4/CapSense_2.c **** *******************************************************************************/
1938:.\Generated_Source\PSoC4/CapSense_2.c **** uint32 CapSense_2_GetModulationIDAC(uint32 sensor)
1939:.\Generated_Source\PSoC4/CapSense_2.c **** {
 1286              		.loc 1 1939 0
 1287              		.cfi_startproc
 1288              	.LVL155:
1940:.\Generated_Source\PSoC4/CapSense_2.c ****         return((uint32)CapSense_2_modulationIDAC[sensor]);
1941:.\Generated_Source\PSoC4/CapSense_2.c **** }
 1289              		.loc 1 1941 0
 1290 0000 5020     		mov	r0, #80
 1291              	.LVL156:
 1292              		@ sp needed
 1293 0002 7047     		bx	lr
 1294              		.cfi_endproc
 1295              	.LFE62:
 1296              		.size	CapSense_2_GetModulationIDAC, .-CapSense_2_GetModulationIDAC
 1297              		.section	.text.CapSense_2_GetCompensationIDAC,"ax",%progbits
 1298              		.align	2
 1299              		.global	CapSense_2_GetCompensationIDAC
 1300              		.code	16
 1301              		.thumb_func
 1302              		.type	CapSense_2_GetCompensationIDAC, %function
 1303              	CapSense_2_GetCompensationIDAC:
 1304              	.LFB63:
1942:.\Generated_Source\PSoC4/CapSense_2.c **** 
1943:.\Generated_Source\PSoC4/CapSense_2.c **** #if (CapSense_2_TUNING_METHOD != CapSense_2__TUNING_NONE)
1944:.\Generated_Source\PSoC4/CapSense_2.c ****     /*******************************************************************************
1945:.\Generated_Source\PSoC4/CapSense_2.c ****     * Function Name: CapSense_2_SetModulationIDAC
1946:.\Generated_Source\PSoC4/CapSense_2.c ****     ********************************************************************************
1947:.\Generated_Source\PSoC4/CapSense_2.c ****     *
1948:.\Generated_Source\PSoC4/CapSense_2.c ****     * Summary:
1949:.\Generated_Source\PSoC4/CapSense_2.c ****     *  This API sets a value of the modulation IDAC for the  sensor.
1950:.\Generated_Source\PSoC4/CapSense_2.c ****     *
1951:.\Generated_Source\PSoC4/CapSense_2.c ****     * Parameters:
1952:.\Generated_Source\PSoC4/CapSense_2.c ****     *  sensor:  Sensor index.
1953:.\Generated_Source\PSoC4/CapSense_2.c ****     *  compIdacValue: represents the modulation IDAC data register value.
1954:.\Generated_Source\PSoC4/CapSense_2.c ****     *
1955:.\Generated_Source\PSoC4/CapSense_2.c ****     * Return:
1956:.\Generated_Source\PSoC4/CapSense_2.c ****     *  None.
1957:.\Generated_Source\PSoC4/CapSense_2.c ****     *
1958:.\Generated_Source\PSoC4/CapSense_2.c ****     * Global Variables:
1959:.\Generated_Source\PSoC4/CapSense_2.c ****     *  CapSense_2_modulationIDAC[] - array with modulation IDAC values
1960:.\Generated_Source\PSoC4/CapSense_2.c ****     *
1961:.\Generated_Source\PSoC4/CapSense_2.c ****     * Side Effects:
ARM GAS  C:\Users\glenn\AppData\Local\Temp\ccPcZrmN.s 			page 59


1962:.\Generated_Source\PSoC4/CapSense_2.c ****     *  None
1963:.\Generated_Source\PSoC4/CapSense_2.c ****     *
1964:.\Generated_Source\PSoC4/CapSense_2.c ****     *******************************************************************************/
1965:.\Generated_Source\PSoC4/CapSense_2.c ****     void CapSense_2_SetModulationIDAC(uint32 sensor, uint32 modIdacValue)
1966:.\Generated_Source\PSoC4/CapSense_2.c ****     {
1967:.\Generated_Source\PSoC4/CapSense_2.c ****         CapSense_2_modulationIDAC[sensor] = (uint8)modIdacValue;
1968:.\Generated_Source\PSoC4/CapSense_2.c ****     }
1969:.\Generated_Source\PSoC4/CapSense_2.c **** #endif /* (CapSense_2_TUNING_METHOD != CapSense_2__TUNING_NONE) */
1970:.\Generated_Source\PSoC4/CapSense_2.c **** 
1971:.\Generated_Source\PSoC4/CapSense_2.c **** 
1972:.\Generated_Source\PSoC4/CapSense_2.c **** #if(CapSense_2_IDAC_CNT > 1u)
1973:.\Generated_Source\PSoC4/CapSense_2.c ****     /*******************************************************************************
1974:.\Generated_Source\PSoC4/CapSense_2.c ****     * Function Name: CapSense_2_GetCompensationIDAC
1975:.\Generated_Source\PSoC4/CapSense_2.c ****     ********************************************************************************
1976:.\Generated_Source\PSoC4/CapSense_2.c ****     *
1977:.\Generated_Source\PSoC4/CapSense_2.c ****     * Summary:
1978:.\Generated_Source\PSoC4/CapSense_2.c ****     *  This API returns a value of the compensation IDAC for the  sensor.
1979:.\Generated_Source\PSoC4/CapSense_2.c ****     *
1980:.\Generated_Source\PSoC4/CapSense_2.c ****     * Parameters:
1981:.\Generated_Source\PSoC4/CapSense_2.c ****     *  sensor: sensor index. The index value can be
1982:.\Generated_Source\PSoC4/CapSense_2.c ****     *  from 0 to (CapSense_2_TOTAL_SENSOR_COUNT-1).
1983:.\Generated_Source\PSoC4/CapSense_2.c ****     *
1984:.\Generated_Source\PSoC4/CapSense_2.c ****     * Return:
1985:.\Generated_Source\PSoC4/CapSense_2.c ****     *  This API returns the compensation IDAC of the sensor.
1986:.\Generated_Source\PSoC4/CapSense_2.c ****     *
1987:.\Generated_Source\PSoC4/CapSense_2.c ****     * Global Variables:
1988:.\Generated_Source\PSoC4/CapSense_2.c ****     *  CapSense_2_compensationIDAC[] - stores the compensation IDAC values.
1989:.\Generated_Source\PSoC4/CapSense_2.c ****     *
1990:.\Generated_Source\PSoC4/CapSense_2.c ****     * Side Effects:
1991:.\Generated_Source\PSoC4/CapSense_2.c ****     *  None
1992:.\Generated_Source\PSoC4/CapSense_2.c ****     *
1993:.\Generated_Source\PSoC4/CapSense_2.c ****     *******************************************************************************/
1994:.\Generated_Source\PSoC4/CapSense_2.c ****     uint32 CapSense_2_GetCompensationIDAC(uint32 sensor)
1995:.\Generated_Source\PSoC4/CapSense_2.c ****     {
 1305              		.loc 1 1995 0
 1306              		.cfi_startproc
 1307              	.LVL157:
1996:.\Generated_Source\PSoC4/CapSense_2.c ****         return((uint32)CapSense_2_compensationIDAC[sensor]);
1997:.\Generated_Source\PSoC4/CapSense_2.c ****     }
 1308              		.loc 1 1997 0
 1309 0000 5020     		mov	r0, #80
 1310              	.LVL158:
 1311              		@ sp needed
 1312 0002 7047     		bx	lr
 1313              		.cfi_endproc
 1314              	.LFE63:
 1315              		.size	CapSense_2_GetCompensationIDAC, .-CapSense_2_GetCompensationIDAC
 1316              		.section	.text.CapSense_2_GetIDACRange,"ax",%progbits
 1317              		.align	2
 1318              		.global	CapSense_2_GetIDACRange
 1319              		.code	16
 1320              		.thumb_func
 1321              		.type	CapSense_2_GetIDACRange, %function
 1322              	CapSense_2_GetIDACRange:
 1323              	.LFB64:
1998:.\Generated_Source\PSoC4/CapSense_2.c **** #endif /* (CapSense_2_IDAC_CNT > 1u) */
1999:.\Generated_Source\PSoC4/CapSense_2.c **** 
ARM GAS  C:\Users\glenn\AppData\Local\Temp\ccPcZrmN.s 			page 60


2000:.\Generated_Source\PSoC4/CapSense_2.c **** 
2001:.\Generated_Source\PSoC4/CapSense_2.c **** #if((CapSense_2_TUNING_METHOD != CapSense_2__TUNING_NONE) && (CapSense_2_IDAC_CNT > 1u))
2002:.\Generated_Source\PSoC4/CapSense_2.c ****     /*******************************************************************************
2003:.\Generated_Source\PSoC4/CapSense_2.c ****     * Function Name: CapSense_2_SetCompensationIDAC
2004:.\Generated_Source\PSoC4/CapSense_2.c ****     ********************************************************************************
2005:.\Generated_Source\PSoC4/CapSense_2.c ****     *
2006:.\Generated_Source\PSoC4/CapSense_2.c ****     * Summary:
2007:.\Generated_Source\PSoC4/CapSense_2.c ****     *  This API sets a value of compensation IDAC for the  sensor.
2008:.\Generated_Source\PSoC4/CapSense_2.c ****     *
2009:.\Generated_Source\PSoC4/CapSense_2.c ****     * Parameters:
2010:.\Generated_Source\PSoC4/CapSense_2.c ****     *  sensor:  Sensor index.
2011:.\Generated_Source\PSoC4/CapSense_2.c ****     *  compIdacValue: represents the compensation IDAC data register value.
2012:.\Generated_Source\PSoC4/CapSense_2.c ****     *
2013:.\Generated_Source\PSoC4/CapSense_2.c ****     * Return:
2014:.\Generated_Source\PSoC4/CapSense_2.c ****     *  None.
2015:.\Generated_Source\PSoC4/CapSense_2.c ****     *
2016:.\Generated_Source\PSoC4/CapSense_2.c ****     * Global Variables:
2017:.\Generated_Source\PSoC4/CapSense_2.c ****     *  CapSense_2_compensationIDAC[] - an array with compensation IDAC values
2018:.\Generated_Source\PSoC4/CapSense_2.c ****     *
2019:.\Generated_Source\PSoC4/CapSense_2.c ****     * Side Effects:
2020:.\Generated_Source\PSoC4/CapSense_2.c ****     *  None
2021:.\Generated_Source\PSoC4/CapSense_2.c ****     *
2022:.\Generated_Source\PSoC4/CapSense_2.c ****     *******************************************************************************/
2023:.\Generated_Source\PSoC4/CapSense_2.c ****     void CapSense_2_SetCompensationIDAC(uint32 sensor, uint32 compIdacValue)
2024:.\Generated_Source\PSoC4/CapSense_2.c ****     {
2025:.\Generated_Source\PSoC4/CapSense_2.c ****         CapSense_2_compensationIDAC[sensor] = (uint8)compIdacValue;
2026:.\Generated_Source\PSoC4/CapSense_2.c ****     }
2027:.\Generated_Source\PSoC4/CapSense_2.c **** #endif /* ((CapSense_2_TUNING_METHOD != CapSense_2__TUNING_NONE) && (CapSense_2_IDAC_CNT > 1u)) */
2028:.\Generated_Source\PSoC4/CapSense_2.c **** 
2029:.\Generated_Source\PSoC4/CapSense_2.c **** /*******************************************************************************
2030:.\Generated_Source\PSoC4/CapSense_2.c **** * Function Name: CapSense_2_GetIDACRange
2031:.\Generated_Source\PSoC4/CapSense_2.c **** ********************************************************************************
2032:.\Generated_Source\PSoC4/CapSense_2.c **** *
2033:.\Generated_Source\PSoC4/CapSense_2.c **** * Summary:
2034:.\Generated_Source\PSoC4/CapSense_2.c **** *  This API returns a value that indicates the IDAC range used by the
2035:.\Generated_Source\PSoC4/CapSense_2.c **** *  component to scan sensors. The IDAC range is common for all the sensors.
2036:.\Generated_Source\PSoC4/CapSense_2.c **** *
2037:.\Generated_Source\PSoC4/CapSense_2.c **** * Parameters:
2038:.\Generated_Source\PSoC4/CapSense_2.c **** *  None
2039:.\Generated_Source\PSoC4/CapSense_2.c **** *
2040:.\Generated_Source\PSoC4/CapSense_2.c **** * Return:
2041:.\Generated_Source\PSoC4/CapSense_2.c **** *  This API Returns a value that indicates the IDAC range:
2042:.\Generated_Source\PSoC4/CapSense_2.c **** *      0 - IDAC range set to 4x
2043:.\Generated_Source\PSoC4/CapSense_2.c **** *      1 - IDAC range set to 8x
2044:.\Generated_Source\PSoC4/CapSense_2.c **** *
2045:.\Generated_Source\PSoC4/CapSense_2.c **** * Global Variables:
2046:.\Generated_Source\PSoC4/CapSense_2.c **** *  None
2047:.\Generated_Source\PSoC4/CapSense_2.c **** *
2048:.\Generated_Source\PSoC4/CapSense_2.c **** * Side Effects:
2049:.\Generated_Source\PSoC4/CapSense_2.c **** *  None
2050:.\Generated_Source\PSoC4/CapSense_2.c **** *
2051:.\Generated_Source\PSoC4/CapSense_2.c **** *******************************************************************************/
2052:.\Generated_Source\PSoC4/CapSense_2.c **** uint32 CapSense_2_GetIDACRange(void)
2053:.\Generated_Source\PSoC4/CapSense_2.c **** {
 1324              		.loc 1 2053 0
 1325              		.cfi_startproc
2054:.\Generated_Source\PSoC4/CapSense_2.c ****     return((0u != (CapSense_2_CSD_IDAC_REG & CapSense_2_CSD_IDAC1_RANGE_8X)) ? 1uL : 0uL);
ARM GAS  C:\Users\glenn\AppData\Local\Temp\ccPcZrmN.s 			page 61


 1326              		.loc 1 2054 0
 1327 0000 034B     		ldr	r3, .L86
 1328 0002 1868     		ldr	r0, [r3]
 1329 0004 8023     		mov	r3, #128
 1330 0006 DB00     		lsl	r3, r3, #3
 1331 0008 1840     		and	r0, r3
 1332 000a 00D0     		beq	.L85
 1333 000c 0120     		mov	r0, #1
 1334              	.L85:
2055:.\Generated_Source\PSoC4/CapSense_2.c **** }
 1335              		.loc 1 2055 0 discriminator 4
 1336              		@ sp needed
 1337 000e 7047     		bx	lr
 1338              	.L87:
 1339              		.align	2
 1340              	.L86:
 1341 0010 08002840 		.word	1076363272
 1342              		.cfi_endproc
 1343              	.LFE64:
 1344              		.size	CapSense_2_GetIDACRange, .-CapSense_2_GetIDACRange
 1345              		.section	.text.CapSense_2_SetUnscannedSensorState,"ax",%progbits
 1346              		.align	2
 1347              		.global	CapSense_2_SetUnscannedSensorState
 1348              		.code	16
 1349              		.thumb_func
 1350              		.type	CapSense_2_SetUnscannedSensorState, %function
 1351              	CapSense_2_SetUnscannedSensorState:
 1352              	.LFB65:
2056:.\Generated_Source\PSoC4/CapSense_2.c **** 
2057:.\Generated_Source\PSoC4/CapSense_2.c **** #if (CapSense_2_TUNING_METHOD != CapSense_2__TUNING_NONE)
2058:.\Generated_Source\PSoC4/CapSense_2.c ****     /*******************************************************************************
2059:.\Generated_Source\PSoC4/CapSense_2.c ****     * Function Name: CapSense_2_SetIDACRange
2060:.\Generated_Source\PSoC4/CapSense_2.c ****     ********************************************************************************
2061:.\Generated_Source\PSoC4/CapSense_2.c ****     *
2062:.\Generated_Source\PSoC4/CapSense_2.c ****     * Summary:
2063:.\Generated_Source\PSoC4/CapSense_2.c ****     *  This API sets the IDAC range to the 4x (1.2uA/bit) or 8x (2.4uA/bit) mode.
2064:.\Generated_Source\PSoC4/CapSense_2.c ****     *  The IDAC range is common for all the sensors and common for the modulation and
2065:.\Generated_Source\PSoC4/CapSense_2.c ****     *  compensation IDACs.
2066:.\Generated_Source\PSoC4/CapSense_2.c ****     *
2067:.\Generated_Source\PSoC4/CapSense_2.c ****     * Parameters:
2068:.\Generated_Source\PSoC4/CapSense_2.c ****     *  iDacRange:  represents value for IDAC range
2069:.\Generated_Source\PSoC4/CapSense_2.c ****     *  0 -  IDAC range set to 4x (1.2uA/bit)
2070:.\Generated_Source\PSoC4/CapSense_2.c ****     *  1 or >1 - IDAC range set to 8x (2.4uA/bit)
2071:.\Generated_Source\PSoC4/CapSense_2.c ****     *
2072:.\Generated_Source\PSoC4/CapSense_2.c ****     * Return:
2073:.\Generated_Source\PSoC4/CapSense_2.c ****     *  None.
2074:.\Generated_Source\PSoC4/CapSense_2.c ****     *
2075:.\Generated_Source\PSoC4/CapSense_2.c ****     * Global Variables:
2076:.\Generated_Source\PSoC4/CapSense_2.c ****     *  None
2077:.\Generated_Source\PSoC4/CapSense_2.c ****     *
2078:.\Generated_Source\PSoC4/CapSense_2.c ****     * Side Effects:
2079:.\Generated_Source\PSoC4/CapSense_2.c ****     *  None
2080:.\Generated_Source\PSoC4/CapSense_2.c ****     *
2081:.\Generated_Source\PSoC4/CapSense_2.c ****     *******************************************************************************/
2082:.\Generated_Source\PSoC4/CapSense_2.c ****     void CapSense_2_SetIDACRange(uint32 iDacRange)
2083:.\Generated_Source\PSoC4/CapSense_2.c ****     {
2084:.\Generated_Source\PSoC4/CapSense_2.c ****         if(iDacRange != 0u)
ARM GAS  C:\Users\glenn\AppData\Local\Temp\ccPcZrmN.s 			page 62


2085:.\Generated_Source\PSoC4/CapSense_2.c ****         {
2086:.\Generated_Source\PSoC4/CapSense_2.c ****             /*  IDAC range = 8x (2.4uA/bit) */
2087:.\Generated_Source\PSoC4/CapSense_2.c ****             CapSense_2_CSD_IDAC_REG |= (CapSense_2_CSD_IDAC1_RANGE_8X |\
2088:.\Generated_Source\PSoC4/CapSense_2.c ****                                               CapSense_2_CSD_IDAC2_RANGE_8X);
2089:.\Generated_Source\PSoC4/CapSense_2.c ****         }
2090:.\Generated_Source\PSoC4/CapSense_2.c ****         else
2091:.\Generated_Source\PSoC4/CapSense_2.c ****         {
2092:.\Generated_Source\PSoC4/CapSense_2.c ****             /*  IDAC range = 4x (1.2uA/bit) */
2093:.\Generated_Source\PSoC4/CapSense_2.c ****             /*  IDAC range = 8x (2.4uA/bit) */
2094:.\Generated_Source\PSoC4/CapSense_2.c ****             CapSense_2_CSD_IDAC_REG &= ~(CapSense_2_CSD_IDAC1_RANGE_8X |\
2095:.\Generated_Source\PSoC4/CapSense_2.c ****                                                CapSense_2_CSD_IDAC2_RANGE_8X);
2096:.\Generated_Source\PSoC4/CapSense_2.c ****         }
2097:.\Generated_Source\PSoC4/CapSense_2.c ****     }
2098:.\Generated_Source\PSoC4/CapSense_2.c **** #endif /* (CapSense_2_TUNING_METHOD != CapSense_2__TUNING_NONE) */
2099:.\Generated_Source\PSoC4/CapSense_2.c **** 
2100:.\Generated_Source\PSoC4/CapSense_2.c **** 
2101:.\Generated_Source\PSoC4/CapSense_2.c **** #if((0u != CapSense_2_AUTOCALIBRATION_ENABLE) || (CapSense_2_TUNING_METHOD == CapSense_2__TUNING_AU
2102:.\Generated_Source\PSoC4/CapSense_2.c ****     /*******************************************************************************
2103:.\Generated_Source\PSoC4/CapSense_2.c ****     * Function Name: CapSense_2_GetSensorRaw
2104:.\Generated_Source\PSoC4/CapSense_2.c ****     ********************************************************************************
2105:.\Generated_Source\PSoC4/CapSense_2.c ****     *
2106:.\Generated_Source\PSoC4/CapSense_2.c ****     * Summary:
2107:.\Generated_Source\PSoC4/CapSense_2.c ****     *  The API updates and gets uprated raw data from the sensor.
2108:.\Generated_Source\PSoC4/CapSense_2.c ****     *
2109:.\Generated_Source\PSoC4/CapSense_2.c ****     * Parameters:
2110:.\Generated_Source\PSoC4/CapSense_2.c ****     *  sensor - Sensor number.
2111:.\Generated_Source\PSoC4/CapSense_2.c ****     *
2112:.\Generated_Source\PSoC4/CapSense_2.c ****     * Return:
2113:.\Generated_Source\PSoC4/CapSense_2.c ****     *  Returns the current raw data value for a defined sensor number.
2114:.\Generated_Source\PSoC4/CapSense_2.c ****     *
2115:.\Generated_Source\PSoC4/CapSense_2.c ****     * Global Variables:
2116:.\Generated_Source\PSoC4/CapSense_2.c ****     *  None
2117:.\Generated_Source\PSoC4/CapSense_2.c ****     *
2118:.\Generated_Source\PSoC4/CapSense_2.c ****     * Side Effects:
2119:.\Generated_Source\PSoC4/CapSense_2.c ****     *  None
2120:.\Generated_Source\PSoC4/CapSense_2.c ****     *
2121:.\Generated_Source\PSoC4/CapSense_2.c ****     *******************************************************************************/
2122:.\Generated_Source\PSoC4/CapSense_2.c ****     uint16  CapSense_2_GetSensorRaw(uint32 sensor)
2123:.\Generated_Source\PSoC4/CapSense_2.c ****     {
2124:.\Generated_Source\PSoC4/CapSense_2.c ****         uint32 curSample;
2125:.\Generated_Source\PSoC4/CapSense_2.c ****         uint32 avgVal = 0u;
2126:.\Generated_Source\PSoC4/CapSense_2.c **** 
2127:.\Generated_Source\PSoC4/CapSense_2.c ****         for(curSample = 0u; curSample < CapSense_2_AVG_SAMPLES_NUM; curSample++)
2128:.\Generated_Source\PSoC4/CapSense_2.c ****         {
2129:.\Generated_Source\PSoC4/CapSense_2.c **** 
2130:.\Generated_Source\PSoC4/CapSense_2.c ****             CapSense_2_ScanSensor((uint32)sensor);
2131:.\Generated_Source\PSoC4/CapSense_2.c ****             while(CapSense_2_IsBusy() == 1u)
2132:.\Generated_Source\PSoC4/CapSense_2.c ****             {
2133:.\Generated_Source\PSoC4/CapSense_2.c ****                 /* Wait while sensor is busy */
2134:.\Generated_Source\PSoC4/CapSense_2.c ****             }
2135:.\Generated_Source\PSoC4/CapSense_2.c ****             avgVal += CapSense_2_ReadSensorRaw((uint32)sensor);
2136:.\Generated_Source\PSoC4/CapSense_2.c ****         }
2137:.\Generated_Source\PSoC4/CapSense_2.c **** 
2138:.\Generated_Source\PSoC4/CapSense_2.c ****         return((uint16)(avgVal / CapSense_2_AVG_SAMPLES_NUM));
2139:.\Generated_Source\PSoC4/CapSense_2.c ****     }
2140:.\Generated_Source\PSoC4/CapSense_2.c **** #endif /* ((0u != CapSense_2_AUTOCALIBRATION_ENABLE) && (CapSense_2_TUNING_METHOD == CapSense_2__TU
2141:.\Generated_Source\PSoC4/CapSense_2.c **** 
ARM GAS  C:\Users\glenn\AppData\Local\Temp\ccPcZrmN.s 			page 63


2142:.\Generated_Source\PSoC4/CapSense_2.c **** 
2143:.\Generated_Source\PSoC4/CapSense_2.c **** #if((0u != CapSense_2_AUTOCALIBRATION_ENABLE) && (CapSense_2_TUNING_METHOD != CapSense_2__TUNING_AU
2144:.\Generated_Source\PSoC4/CapSense_2.c ****     /*******************************************************************************
2145:.\Generated_Source\PSoC4/CapSense_2.c ****     * Function Name: CapSense_2_CalibrateSensor
2146:.\Generated_Source\PSoC4/CapSense_2.c ****     ********************************************************************************
2147:.\Generated_Source\PSoC4/CapSense_2.c ****     *
2148:.\Generated_Source\PSoC4/CapSense_2.c ****     * Summary:
2149:.\Generated_Source\PSoC4/CapSense_2.c ****     *  Computes the one sensor IDAC value, which provides the raw signal on
2150:.\Generated_Source\PSoC4/CapSense_2.c ****     *  a specified level, with a specified prescaler, speed, and resolution.
2151:.\Generated_Source\PSoC4/CapSense_2.c ****     *
2152:.\Generated_Source\PSoC4/CapSense_2.c ****     * Parameters:
2153:.\Generated_Source\PSoC4/CapSense_2.c ****     *  sensor - Sensor Number.
2154:.\Generated_Source\PSoC4/CapSense_2.c ****     *
2155:.\Generated_Source\PSoC4/CapSense_2.c ****     *  rawLevel -  Raw data level which should be reached during the calibration
2156:.\Generated_Source\PSoC4/CapSense_2.c ****     *              procedure.
2157:.\Generated_Source\PSoC4/CapSense_2.c ****     *
2158:.\Generated_Source\PSoC4/CapSense_2.c ****     *  idacLevelsTbl - Pointer to the modulatorIdac data register configuration table.
2159:.\Generated_Source\PSoC4/CapSense_2.c ****     *
2160:.\Generated_Source\PSoC4/CapSense_2.c ****     * Return:
2161:.\Generated_Source\PSoC4/CapSense_2.c ****     *  None
2162:.\Generated_Source\PSoC4/CapSense_2.c ****     *
2163:.\Generated_Source\PSoC4/CapSense_2.c ****     *******************************************************************************/
2164:.\Generated_Source\PSoC4/CapSense_2.c ****     void CapSense_2_CalibrateSensor(uint32 sensor, uint32 rawLevel, uint8 idacLevelsTbl[])
2165:.\Generated_Source\PSoC4/CapSense_2.c ****     {
2166:.\Generated_Source\PSoC4/CapSense_2.c ****         uint8 mask;
2167:.\Generated_Source\PSoC4/CapSense_2.c ****         uint16 rawData;
2168:.\Generated_Source\PSoC4/CapSense_2.c **** 
2169:.\Generated_Source\PSoC4/CapSense_2.c ****         rawData = 0u;
2170:.\Generated_Source\PSoC4/CapSense_2.c **** 
2171:.\Generated_Source\PSoC4/CapSense_2.c ****         mask = 0x80u;
2172:.\Generated_Source\PSoC4/CapSense_2.c ****         /* Init IDAC for null Channel */
2173:.\Generated_Source\PSoC4/CapSense_2.c ****         idacLevelsTbl[sensor] = 0x00u;
2174:.\Generated_Source\PSoC4/CapSense_2.c **** 
2175:.\Generated_Source\PSoC4/CapSense_2.c ****         do
2176:.\Generated_Source\PSoC4/CapSense_2.c ****         {
2177:.\Generated_Source\PSoC4/CapSense_2.c ****             /* Set bit for null Channel */
2178:.\Generated_Source\PSoC4/CapSense_2.c ****             idacLevelsTbl[sensor] |= mask;
2179:.\Generated_Source\PSoC4/CapSense_2.c **** 
2180:.\Generated_Source\PSoC4/CapSense_2.c ****             /* Scan null Channel and get Rawdata */
2181:.\Generated_Source\PSoC4/CapSense_2.c ****             rawData = CapSense_2_GetSensorRaw(sensor);
2182:.\Generated_Source\PSoC4/CapSense_2.c **** 
2183:.\Generated_Source\PSoC4/CapSense_2.c ****             /* Decrease IDAC until Rawdata reaches rawLevel */
2184:.\Generated_Source\PSoC4/CapSense_2.c ****             if(rawData < rawLevel)
2185:.\Generated_Source\PSoC4/CapSense_2.c ****             {
2186:.\Generated_Source\PSoC4/CapSense_2.c ****                 /* Reset bit for null Channel  */
2187:.\Generated_Source\PSoC4/CapSense_2.c ****                 idacLevelsTbl[sensor] &= (uint8)~mask;
2188:.\Generated_Source\PSoC4/CapSense_2.c ****             }
2189:.\Generated_Source\PSoC4/CapSense_2.c **** 
2190:.\Generated_Source\PSoC4/CapSense_2.c ****             mask >>= 1u;
2191:.\Generated_Source\PSoC4/CapSense_2.c ****         }
2192:.\Generated_Source\PSoC4/CapSense_2.c ****         while(mask > 0u);
2193:.\Generated_Source\PSoC4/CapSense_2.c **** 
2194:.\Generated_Source\PSoC4/CapSense_2.c ****     }
2195:.\Generated_Source\PSoC4/CapSense_2.c **** #endif /* ((0u != CapSense_2_AUTOCALIBRATION_ENABLE) && (CapSense_2_TUNING_METHOD != CapSense_2__TU
2196:.\Generated_Source\PSoC4/CapSense_2.c **** 
2197:.\Generated_Source\PSoC4/CapSense_2.c **** 
2198:.\Generated_Source\PSoC4/CapSense_2.c **** /*******************************************************************************
ARM GAS  C:\Users\glenn\AppData\Local\Temp\ccPcZrmN.s 			page 64


2199:.\Generated_Source\PSoC4/CapSense_2.c **** * Function Name: CapSense_2_SetUnscannedSensorState
2200:.\Generated_Source\PSoC4/CapSense_2.c **** ********************************************************************************
2201:.\Generated_Source\PSoC4/CapSense_2.c **** *
2202:.\Generated_Source\PSoC4/CapSense_2.c **** * Summary:
2203:.\Generated_Source\PSoC4/CapSense_2.c **** *  This API sets a state for un-scanned sensors.
2204:.\Generated_Source\PSoC4/CapSense_2.c **** *  It is possible to set the state to Ground, High-Z, or the shield electrode.
2205:.\Generated_Source\PSoC4/CapSense_2.c **** *  The un-scanned sensor can be connected to a shield electrode only if the shield is
2206:.\Generated_Source\PSoC4/CapSense_2.c **** *  enabled. If the shield is disabled and this API is called with the parameter which
2207:.\Generated_Source\PSoC4/CapSense_2.c **** *  indicates the shield state, the un-scanned sensor will be connected to Ground.
2208:.\Generated_Source\PSoC4/CapSense_2.c **** *
2209:.\Generated_Source\PSoC4/CapSense_2.c **** * Parameters:
2210:.\Generated_Source\PSoC4/CapSense_2.c **** *  sensor - Sensor Number.
2211:.\Generated_Source\PSoC4/CapSense_2.c **** *  sensorState: This parameter indicates un-scanned sensor state:
2212:.\Generated_Source\PSoC4/CapSense_2.c **** *
2213:.\Generated_Source\PSoC4/CapSense_2.c **** *     CapSense_2__GROUND 0
2214:.\Generated_Source\PSoC4/CapSense_2.c **** *     CapSense_2__HIZ_ANALOG 1
2215:.\Generated_Source\PSoC4/CapSense_2.c **** *     CapSense_2__SHIELD 2
2216:.\Generated_Source\PSoC4/CapSense_2.c **** *
2217:.\Generated_Source\PSoC4/CapSense_2.c **** * Return:
2218:.\Generated_Source\PSoC4/CapSense_2.c **** *  None.
2219:.\Generated_Source\PSoC4/CapSense_2.c **** *
2220:.\Generated_Source\PSoC4/CapSense_2.c **** * Global Variables:
2221:.\Generated_Source\PSoC4/CapSense_2.c **** *  CapSense_2_unscannedSnsDriveMode[] - used to store the state for
2222:.\Generated_Source\PSoC4/CapSense_2.c **** *  un-scanned sensors.
2223:.\Generated_Source\PSoC4/CapSense_2.c **** *
2224:.\Generated_Source\PSoC4/CapSense_2.c **** * Side Effects:
2225:.\Generated_Source\PSoC4/CapSense_2.c **** *  None
2226:.\Generated_Source\PSoC4/CapSense_2.c **** *
2227:.\Generated_Source\PSoC4/CapSense_2.c **** *******************************************************************************/
2228:.\Generated_Source\PSoC4/CapSense_2.c **** void CapSense_2_SetUnscannedSensorState(uint32 sensor, uint32 sensorState)
2229:.\Generated_Source\PSoC4/CapSense_2.c **** {
 1353              		.loc 1 2229 0
 1354              		.cfi_startproc
 1355              	.LVL159:
2230:.\Generated_Source\PSoC4/CapSense_2.c ****     #if(CapSense_2_IS_COMPLEX_SCANSLOTS)
2231:.\Generated_Source\PSoC4/CapSense_2.c ****         uint8 snsType;
2232:.\Generated_Source\PSoC4/CapSense_2.c ****         uint8 curSensor;
2233:.\Generated_Source\PSoC4/CapSense_2.c ****         uint16 snsNumber;
2234:.\Generated_Source\PSoC4/CapSense_2.c **** 
2235:.\Generated_Source\PSoC4/CapSense_2.c ****         /* Read sensor type: single or complex */
2236:.\Generated_Source\PSoC4/CapSense_2.c ****         snsType = CapSense_2_portTable[sensor];
2237:.\Generated_Source\PSoC4/CapSense_2.c **** 
2238:.\Generated_Source\PSoC4/CapSense_2.c ****         /* Check if sensor is complex */
2239:.\Generated_Source\PSoC4/CapSense_2.c ****         if(0u != (snsType & CapSense_2_COMPLEX_SS_FLAG))
2240:.\Generated_Source\PSoC4/CapSense_2.c ****         {
2241:.\Generated_Source\PSoC4/CapSense_2.c ****             snsType &= (uint8)~CapSense_2_COMPLEX_SS_FLAG;
2242:.\Generated_Source\PSoC4/CapSense_2.c ****             snsNumber = (uint16)CapSense_2_maskTable[sensor];
2243:.\Generated_Source\PSoC4/CapSense_2.c **** 
2244:.\Generated_Source\PSoC4/CapSense_2.c ****             for (curSensor=0u; curSensor < snsNumber; curSensor++)
2245:.\Generated_Source\PSoC4/CapSense_2.c ****             {
2246:.\Generated_Source\PSoC4/CapSense_2.c ****                 sensor = CapSense_2_indexTable[snsType + curSensor];
2247:.\Generated_Source\PSoC4/CapSense_2.c ****                 CapSense_2_unscannedSnsDriveMode[sensor] = (uint8)sensorState;
2248:.\Generated_Source\PSoC4/CapSense_2.c ****             }
2249:.\Generated_Source\PSoC4/CapSense_2.c ****         }
2250:.\Generated_Source\PSoC4/CapSense_2.c ****         else
2251:.\Generated_Source\PSoC4/CapSense_2.c ****         {
2252:.\Generated_Source\PSoC4/CapSense_2.c ****             CapSense_2_unscannedSnsDriveMode[sensor] = (uint8)sensorState;
ARM GAS  C:\Users\glenn\AppData\Local\Temp\ccPcZrmN.s 			page 65


2253:.\Generated_Source\PSoC4/CapSense_2.c ****         }
2254:.\Generated_Source\PSoC4/CapSense_2.c ****     #else
2255:.\Generated_Source\PSoC4/CapSense_2.c ****         CapSense_2_unscannedSnsDriveMode[sensor] = (uint8)sensorState;
 1356              		.loc 1 2255 0
 1357 0000 014B     		ldr	r3, .L89
 1358 0002 1954     		strb	r1, [r3, r0]
2256:.\Generated_Source\PSoC4/CapSense_2.c ****     #endif /* (CapSense_2_IS_COMPLEX_SCANSLOTS) */
2257:.\Generated_Source\PSoC4/CapSense_2.c **** }
 1359              		.loc 1 2257 0
 1360              		@ sp needed
 1361 0004 7047     		bx	lr
 1362              	.L90:
 1363 0006 C046     		.align	2
 1364              	.L89:
 1365 0008 00000000 		.word	CapSense_2_unscannedSnsDriveMode
 1366              		.cfi_endproc
 1367              	.LFE65:
 1368              		.size	CapSense_2_SetUnscannedSensorState, .-CapSense_2_SetUnscannedSensorState
 1369              		.section	.text.CapSense_2_Init,"ax",%progbits
 1370              		.align	2
 1371              		.global	CapSense_2_Init
 1372              		.code	16
 1373              		.thumb_func
 1374              		.type	CapSense_2_Init, %function
 1375              	CapSense_2_Init:
 1376              	.LFB35:
 164:.\Generated_Source\PSoC4/CapSense_2.c ****     uint32 curSensor;
 1377              		.loc 1 164 0
 1378              		.cfi_startproc
 1379 0000 10B5     		push	{r4, lr}
 1380              		.cfi_def_cfa_offset 8
 1381              		.cfi_offset 4, -8
 1382              		.cfi_offset 14, -4
 1383              	.LVL160:
 195:.\Generated_Source\PSoC4/CapSense_2.c ****     {
 1384              		.loc 1 195 0
 1385 0002 0024     		mov	r4, #0
 1386 0004 04E0     		b	.L92
 1387              	.LVL161:
 1388              	.L93:
 197:.\Generated_Source\PSoC4/CapSense_2.c ****     }
 1389              		.loc 1 197 0 discriminator 3
 1390 0006 201C     		mov	r0, r4
 1391 0008 0021     		mov	r1, #0
 1392 000a FFF7FEFF 		bl	CapSense_2_SetUnscannedSensorState
 1393              	.LVL162:
 195:.\Generated_Source\PSoC4/CapSense_2.c ****     {
 1394              		.loc 1 195 0 discriminator 3
 1395 000e 0134     		add	r4, r4, #1
 1396              	.LVL163:
 1397              	.L92:
 195:.\Generated_Source\PSoC4/CapSense_2.c ****     {
 1398              		.loc 1 195 0 is_stmt 0 discriminator 1
 1399 0010 002C     		cmp	r4, #0
 1400 0012 F8D0     		beq	.L93
 200:.\Generated_Source\PSoC4/CapSense_2.c ****     CapSense_2_SetShieldDelay(CapSense_2_SHIELD_DELAY );
 1401              		.loc 1 200 0 is_stmt 1
ARM GAS  C:\Users\glenn\AppData\Local\Temp\ccPcZrmN.s 			page 66


 1402 0014 FFF7FEFF 		bl	CapSense_2_CsdHwBlockInit
 1403              	.LVL164:
 201:.\Generated_Source\PSoC4/CapSense_2.c **** 
 1404              		.loc 1 201 0
 1405 0018 0020     		mov	r0, #0
 1406 001a FFF7FEFF 		bl	CapSense_2_SetShieldDelay
 1407              	.LVL165:
 204:.\Generated_Source\PSoC4/CapSense_2.c **** }
 1408              		.loc 1 204 0
 1409 001e FFF7FEFF 		bl	CapSense_2_ClearSensors
 1410              	.LVL166:
 205:.\Generated_Source\PSoC4/CapSense_2.c **** 
 1411              		.loc 1 205 0
 1412              		@ sp needed
 1413              	.LVL167:
 1414 0022 10BD     		pop	{r4, pc}
 1415              		.cfi_endproc
 1416              	.LFE35:
 1417              		.size	CapSense_2_Init, .-CapSense_2_Init
 1418              		.section	.text.CapSense_2_Start,"ax",%progbits
 1419              		.align	2
 1420              		.global	CapSense_2_Start
 1421              		.code	16
 1422              		.thumb_func
 1423              		.type	CapSense_2_Start, %function
 1424              	CapSense_2_Start:
 1425              	.LFB38:
 373:.\Generated_Source\PSoC4/CapSense_2.c **** 
 1426              		.loc 1 373 0
 1427              		.cfi_startproc
 1428 0000 08B5     		push	{r3, lr}
 1429              		.cfi_def_cfa_offset 8
 1430              		.cfi_offset 3, -8
 1431              		.cfi_offset 14, -4
 383:.\Generated_Source\PSoC4/CapSense_2.c ****     {
 1432              		.loc 1 383 0
 1433 0002 094B     		ldr	r3, .L96
 1434 0004 DB79     		ldrb	r3, [r3, #7]
 1435 0006 002B     		cmp	r3, #0
 1436 0008 04D1     		bne	.L95
 385:.\Generated_Source\PSoC4/CapSense_2.c ****         CapSense_2_initVar = 1u;
 1437              		.loc 1 385 0
 1438 000a FFF7FEFF 		bl	CapSense_2_Init
 1439              	.LVL168:
 386:.\Generated_Source\PSoC4/CapSense_2.c ****     }
 1440              		.loc 1 386 0
 1441 000e 0122     		mov	r2, #1
 1442 0010 054B     		ldr	r3, .L96
 1443 0012 DA71     		strb	r2, [r3, #7]
 1444              	.L95:
 388:.\Generated_Source\PSoC4/CapSense_2.c **** 
 1445              		.loc 1 388 0
 1446 0014 FFF7FEFF 		bl	CapSense_2_Enable
 1447              	.LVL169:
 437:.\Generated_Source\PSoC4/CapSense_2.c **** }
 1448              		.loc 1 437 0
 1449 0018 044A     		ldr	r2, .L96+4
ARM GAS  C:\Users\glenn\AppData\Local\Temp\ccPcZrmN.s 			page 67


 1450 001a 1368     		ldr	r3, [r2]
 1451 001c 8021     		mov	r1, #128
 1452 001e C903     		lsl	r1, r1, #15
 1453 0020 0B43     		orr	r3, r1
 1454 0022 1360     		str	r3, [r2]
 438:.\Generated_Source\PSoC4/CapSense_2.c **** 
 1455              		.loc 1 438 0
 1456              		@ sp needed
 1457 0024 08BD     		pop	{r3, pc}
 1458              	.L97:
 1459 0026 C046     		.align	2
 1460              	.L96:
 1461 0028 00000000 		.word	.LANCHOR0
 1462 002c 04002840 		.word	1076363268
 1463              		.cfi_endproc
 1464              	.LFE38:
 1465              		.size	CapSense_2_Start, .-CapSense_2_Start
 1466              		.global	CapSense_2_prtDRTbl
 1467              		.global	CapSense_2_prtCfgTbl
 1468              		.global	CapSense_2_prtSelTbl
 1469              		.global	CapSense_2_widgetNumber
 1470              		.global	CapSense_2_sampleClkDividerVal
 1471              		.global	CapSense_2_senseClkDividerVal
 1472              		.global	CapSense_2_widgetResolution
 1473              		.global	CapSense_2_compensationIDAC
 1474              		.global	CapSense_2_modulationIDAC
 1475              		.global	CapSense_2_pinShiftTbl
 1476              		.global	CapSense_2_maskTable
 1477              		.global	CapSense_2_portTable
 1478              		.global	CapSense_2_pcTable
 1479              		.global	CapSense_2_sensorEnableMask
 1480              		.comm	CapSense_2_sensorEnableMaskBackup,1,4
 1481              		.comm	CapSense_2_unscannedSnsDriveMode,1,4
 1482              		.comm	CapSense_2_csdTrim1,1,1
 1483              		.global	CapSense_2_sensorRaw
 1484              		.global	CapSense_2_sensorIndex
 1485              		.global	CapSense_2_csdStatusVar
 1486              		.section	.rodata
 1487              		.align	2
 1488              		.set	.LANCHOR1,. + 0
 1489              		.type	CapSense_2_prtCfgTbl, %object
 1490              		.size	CapSense_2_prtCfgTbl, 32
 1491              	CapSense_2_prtCfgTbl:
 1492 0000 08000440 		.word	1074003976
 1493 0004 08010440 		.word	1074004232
 1494 0008 08020440 		.word	1074004488
 1495 000c 08030440 		.word	1074004744
 1496 0010 08040440 		.word	1074005000
 1497 0014 08050440 		.word	1074005256
 1498 0018 08060440 		.word	1074005512
 1499 001c 08070440 		.word	1074005768
 1500              		.type	CapSense_2_prtSelTbl, %object
 1501              		.size	CapSense_2_prtSelTbl, 32
 1502              	CapSense_2_prtSelTbl:
 1503 0020 00000240 		.word	1073872896
 1504 0024 00010240 		.word	1073873152
 1505 0028 00020240 		.word	1073873408
ARM GAS  C:\Users\glenn\AppData\Local\Temp\ccPcZrmN.s 			page 68


 1506 002c 00030240 		.word	1073873664
 1507 0030 00040240 		.word	1073873920
 1508 0034 00050240 		.word	1073874176
 1509 0038 00060240 		.word	1073874432
 1510 003c 00070240 		.word	1073874688
 1511              		.type	CapSense_2_prtDRTbl, %object
 1512              		.size	CapSense_2_prtDRTbl, 32
 1513              	CapSense_2_prtDRTbl:
 1514 0040 00000440 		.word	1074003968
 1515 0044 00010440 		.word	1074004224
 1516 0048 00020440 		.word	1074004480
 1517 004c 00030440 		.word	1074004736
 1518 0050 00040440 		.word	1074004992
 1519 0054 00050440 		.word	1074005248
 1520 0058 00060440 		.word	1074005504
 1521 005c 00070440 		.word	1074005760
 1522              		.type	CapSense_2_widgetNumber, %object
 1523              		.size	CapSense_2_widgetNumber, 1
 1524              	CapSense_2_widgetNumber:
 1525 0060 00       		.space	1
 1526 0061 000000   		.space	3
 1527              		.type	CapSense_2_sampleClkDividerVal, %object
 1528              		.size	CapSense_2_sampleClkDividerVal, 1
 1529              	CapSense_2_sampleClkDividerVal:
 1530 0064 02       		.byte	2
 1531 0065 000000   		.space	3
 1532              		.type	CapSense_2_senseClkDividerVal, %object
 1533              		.size	CapSense_2_senseClkDividerVal, 1
 1534              	CapSense_2_senseClkDividerVal:
 1535 0068 02       		.byte	2
 1536 0069 000000   		.space	3
 1537              		.type	CapSense_2_widgetResolution, %object
 1538              		.size	CapSense_2_widgetResolution, 4
 1539              	CapSense_2_widgetResolution:
 1540 006c 0000FFFF 		.word	-65536
 1541              		.type	CapSense_2_compensationIDAC, %object
 1542              		.size	CapSense_2_compensationIDAC, 1
 1543              	CapSense_2_compensationIDAC:
 1544 0070 50       		.byte	80
 1545 0071 000000   		.space	3
 1546              		.type	CapSense_2_modulationIDAC, %object
 1547              		.size	CapSense_2_modulationIDAC, 1
 1548              	CapSense_2_modulationIDAC:
 1549 0074 50       		.byte	80
 1550 0075 000000   		.space	3
 1551              		.type	CapSense_2_pinShiftTbl, %object
 1552              		.size	CapSense_2_pinShiftTbl, 1
 1553              	CapSense_2_pinShiftTbl:
 1554 0078 01       		.byte	1
 1555 0079 000000   		.space	3
 1556              		.type	CapSense_2_maskTable, %object
 1557              		.size	CapSense_2_maskTable, 4
 1558              	CapSense_2_maskTable:
 1559 007c 02000000 		.word	2
 1560              		.type	CapSense_2_portTable, %object
 1561              		.size	CapSense_2_portTable, 1
 1562              	CapSense_2_portTable:
ARM GAS  C:\Users\glenn\AppData\Local\Temp\ccPcZrmN.s 			page 69


 1563 0080 04       		.byte	4
 1564 0081 000000   		.data
 1565              		.align	2
 1566              		.set	.LANCHOR2,. + 0
 1567              		.type	CapSense_2_sensorEnableMask, %object
 1568              		.size	CapSense_2_sensorEnableMask, 1
 1569              	CapSense_2_sensorEnableMask:
 1570 0000 01       		.byte	1
 1571 0001 000000   		.space	3
 1572              		.type	CapSense_2_pcTable, %object
 1573              		.size	CapSense_2_pcTable, 4
 1574              	CapSense_2_pcTable:
 1575 0004 08040440 		.word	1074005000
 1576              		.bss
 1577              		.align	2
 1578              		.set	.LANCHOR0,. + 0
 1579              		.type	CapSense_2_csdStatusVar, %object
 1580              		.size	CapSense_2_csdStatusVar, 1
 1581              	CapSense_2_csdStatusVar:
 1582 0000 00       		.space	1
 1583 0001 000000   		.space	3
 1584              		.type	CapSense_2_sensorRaw, %object
 1585              		.size	CapSense_2_sensorRaw, 2
 1586              	CapSense_2_sensorRaw:
 1587 0004 0000     		.space	2
 1588              		.type	CapSense_2_sensorIndex, %object
 1589              		.size	CapSense_2_sensorIndex, 1
 1590              	CapSense_2_sensorIndex:
 1591 0006 00       		.space	1
 1592              		.type	CapSense_2_initVar.5178, %object
 1593              		.size	CapSense_2_initVar.5178, 1
 1594              	CapSense_2_initVar.5178:
 1595 0007 00       		.space	1
 1596              		.text
 1597              	.Letext0:
 1598              		.file 2 ".\\Generated_Source\\PSoC4\\cytypes.h"
 1599              		.file 3 ".\\Generated_Source\\PSoC4\\CyLib.h"
 1600              		.file 4 ".\\Generated_Source\\PSoC4\\CapSense_2_SenseClk.h"
 1601              		.file 5 ".\\Generated_Source\\PSoC4\\CapSense_2_SampleClk.h"
 1602              		.section	.debug_info,"",%progbits
 1603              	.Ldebug_info0:
 1604 0000 8E0D0000 		.4byte	0xd8e
 1605 0004 0400     		.2byte	0x4
 1606 0006 00000000 		.4byte	.Ldebug_abbrev0
 1607 000a 04       		.byte	0x4
 1608 000b 01       		.uleb128 0x1
 1609 000c 02030000 		.4byte	.LASF107
 1610 0010 01       		.byte	0x1
 1611 0011 90030000 		.4byte	.LASF108
 1612 0015 A6050000 		.4byte	.LASF109
 1613 0019 00000000 		.4byte	.Ldebug_ranges0+0
 1614 001d 00000000 		.4byte	0
 1615 0021 00000000 		.4byte	.Ldebug_line0
 1616 0025 02       		.uleb128 0x2
 1617 0026 01       		.byte	0x1
 1618 0027 06       		.byte	0x6
 1619 0028 04040000 		.4byte	.LASF0
ARM GAS  C:\Users\glenn\AppData\Local\Temp\ccPcZrmN.s 			page 70


 1620 002c 02       		.uleb128 0x2
 1621 002d 01       		.byte	0x1
 1622 002e 08       		.byte	0x8
 1623 002f CB030000 		.4byte	.LASF1
 1624 0033 02       		.uleb128 0x2
 1625 0034 02       		.byte	0x2
 1626 0035 05       		.byte	0x5
 1627 0036 F2000000 		.4byte	.LASF2
 1628 003a 02       		.uleb128 0x2
 1629 003b 02       		.byte	0x2
 1630 003c 07       		.byte	0x7
 1631 003d 22050000 		.4byte	.LASF3
 1632 0041 02       		.uleb128 0x2
 1633 0042 04       		.byte	0x4
 1634 0043 05       		.byte	0x5
 1635 0044 90020000 		.4byte	.LASF4
 1636 0048 02       		.uleb128 0x2
 1637 0049 04       		.byte	0x4
 1638 004a 07       		.byte	0x7
 1639 004b CF060000 		.4byte	.LASF5
 1640 004f 02       		.uleb128 0x2
 1641 0050 08       		.byte	0x8
 1642 0051 05       		.byte	0x5
 1643 0052 48020000 		.4byte	.LASF6
 1644 0056 02       		.uleb128 0x2
 1645 0057 08       		.byte	0x8
 1646 0058 07       		.byte	0x7
 1647 0059 10040000 		.4byte	.LASF7
 1648 005d 03       		.uleb128 0x3
 1649 005e 04       		.byte	0x4
 1650 005f 05       		.byte	0x5
 1651 0060 696E7400 		.ascii	"int\000"
 1652 0064 02       		.uleb128 0x2
 1653 0065 04       		.byte	0x4
 1654 0066 07       		.byte	0x7
 1655 0067 44040000 		.4byte	.LASF8
 1656 006b 04       		.uleb128 0x4
 1657 006c 3E060000 		.4byte	.LASF9
 1658 0070 02       		.byte	0x2
 1659 0071 9801     		.2byte	0x198
 1660 0073 2C000000 		.4byte	0x2c
 1661 0077 04       		.uleb128 0x4
 1662 0078 69010000 		.4byte	.LASF10
 1663 007c 02       		.byte	0x2
 1664 007d 9901     		.2byte	0x199
 1665 007f 3A000000 		.4byte	0x3a
 1666 0083 04       		.uleb128 0x4
 1667 0084 A0060000 		.4byte	.LASF11
 1668 0088 02       		.byte	0x2
 1669 0089 9A01     		.2byte	0x19a
 1670 008b 48000000 		.4byte	0x48
 1671 008f 02       		.uleb128 0x2
 1672 0090 04       		.byte	0x4
 1673 0091 04       		.byte	0x4
 1674 0092 36020000 		.4byte	.LASF12
 1675 0096 02       		.uleb128 0x2
 1676 0097 08       		.byte	0x8
ARM GAS  C:\Users\glenn\AppData\Local\Temp\ccPcZrmN.s 			page 71


 1677 0098 04       		.byte	0x4
 1678 0099 E1060000 		.4byte	.LASF13
 1679 009d 02       		.uleb128 0x2
 1680 009e 01       		.byte	0x1
 1681 009f 08       		.byte	0x8
 1682 00a0 40050000 		.4byte	.LASF14
 1683 00a4 04       		.uleb128 0x4
 1684 00a5 CA060000 		.4byte	.LASF15
 1685 00a9 02       		.byte	0x2
 1686 00aa 4202     		.2byte	0x242
 1687 00ac B0000000 		.4byte	0xb0
 1688 00b0 05       		.uleb128 0x5
 1689 00b1 6B000000 		.4byte	0x6b
 1690 00b5 04       		.uleb128 0x4
 1691 00b6 F2040000 		.4byte	.LASF16
 1692 00ba 02       		.byte	0x2
 1693 00bb 4402     		.2byte	0x244
 1694 00bd C1000000 		.4byte	0xc1
 1695 00c1 05       		.uleb128 0x5
 1696 00c2 83000000 		.4byte	0x83
 1697 00c6 04       		.uleb128 0x4
 1698 00c7 D9030000 		.4byte	.LASF17
 1699 00cb 02       		.byte	0x2
 1700 00cc 5402     		.2byte	0x254
 1701 00ce D2000000 		.4byte	0xd2
 1702 00d2 06       		.uleb128 0x6
 1703 00d3 04       		.byte	0x4
 1704 00d4 D8000000 		.4byte	0xd8
 1705 00d8 07       		.uleb128 0x7
 1706 00d9 02       		.uleb128 0x2
 1707 00da 04       		.byte	0x4
 1708 00db 07       		.byte	0x7
 1709 00dc 03010000 		.4byte	.LASF18
 1710 00e0 06       		.uleb128 0x6
 1711 00e1 04       		.byte	0x4
 1712 00e2 6B000000 		.4byte	0x6b
 1713 00e6 06       		.uleb128 0x6
 1714 00e7 04       		.byte	0x4
 1715 00e8 EC000000 		.4byte	0xec
 1716 00ec 08       		.uleb128 0x8
 1717 00ed 6B000000 		.4byte	0x6b
 1718 00f1 09       		.uleb128 0x9
 1719 00f2 8C050000 		.4byte	.LASF19
 1720 00f6 01       		.byte	0x1
 1721 00f7 E4       		.byte	0xe4
 1722 00f8 00000000 		.4byte	.LFB36
 1723 00fc 88000000 		.4byte	.LFE36-.LFB36
 1724 0100 01       		.uleb128 0x1
 1725 0101 9C       		.byte	0x9c
 1726 0102 50010000 		.4byte	0x150
 1727 0106 0A       		.uleb128 0xa
 1728 0107 51040000 		.4byte	.LASF21
 1729 010b 01       		.byte	0x1
 1730 010c E6       		.byte	0xe6
 1731 010d 83000000 		.4byte	0x83
 1732 0111 00000000 		.4byte	.LLST0
 1733 0115 0B       		.uleb128 0xb
ARM GAS  C:\Users\glenn\AppData\Local\Temp\ccPcZrmN.s 			page 72


 1734 0116 4C000000 		.4byte	.LVL12
 1735 011a A90C0000 		.4byte	0xca9
 1736 011e 28010000 		.4byte	0x128
 1737 0122 0C       		.uleb128 0xc
 1738 0123 01       		.uleb128 0x1
 1739 0124 50       		.byte	0x50
 1740 0125 01       		.uleb128 0x1
 1741 0126 41       		.byte	0x41
 1742 0127 00       		.byte	0
 1743 0128 0B       		.uleb128 0xb
 1744 0129 54000000 		.4byte	.LVL13
 1745 012d BA0C0000 		.4byte	0xcba
 1746 0131 3B010000 		.4byte	0x13b
 1747 0135 0C       		.uleb128 0xc
 1748 0136 01       		.uleb128 0x1
 1749 0137 50       		.byte	0x50
 1750 0138 01       		.uleb128 0x1
 1751 0139 41       		.byte	0x41
 1752 013a 00       		.byte	0
 1753 013b 0D       		.uleb128 0xd
 1754 013c 5C000000 		.4byte	.LVL14
 1755 0140 D40C0000 		.4byte	0xcd4
 1756 0144 0C       		.uleb128 0xc
 1757 0145 01       		.uleb128 0x1
 1758 0146 51       		.byte	0x51
 1759 0147 01       		.uleb128 0x1
 1760 0148 33       		.byte	0x33
 1761 0149 0C       		.uleb128 0xc
 1762 014a 01       		.uleb128 0x1
 1763 014b 50       		.byte	0x50
 1764 014c 01       		.uleb128 0x1
 1765 014d 41       		.byte	0x41
 1766 014e 00       		.byte	0
 1767 014f 00       		.byte	0
 1768 0150 0E       		.uleb128 0xe
 1769 0151 57010000 		.4byte	.LASF20
 1770 0155 01       		.byte	0x1
 1771 0156 3901     		.2byte	0x139
 1772 0158 00000000 		.4byte	.LFB37
 1773 015c 40000000 		.4byte	.LFE37-.LFB37
 1774 0160 01       		.uleb128 0x1
 1775 0161 9C       		.byte	0x9c
 1776 0162 F0010000 		.4byte	0x1f0
 1777 0166 0F       		.uleb128 0xf
 1778 0167 51040000 		.4byte	.LASF21
 1779 016b 01       		.byte	0x1
 1780 016c 3B01     		.2byte	0x13b
 1781 016e 83000000 		.4byte	0x83
 1782 0172 61000000 		.4byte	.LLST1
 1783 0176 10       		.uleb128 0x10
 1784 0177 06000000 		.4byte	.LVL15
 1785 017b EA0C0000 		.4byte	0xcea
 1786 017f 10       		.uleb128 0x10
 1787 0180 0A000000 		.4byte	.LVL16
 1788 0184 F10C0000 		.4byte	0xcf1
 1789 0188 0B       		.uleb128 0xb
 1790 0189 12000000 		.4byte	.LVL17
ARM GAS  C:\Users\glenn\AppData\Local\Temp\ccPcZrmN.s 			page 73


 1791 018d F80C0000 		.4byte	0xcf8
 1792 0191 A0010000 		.4byte	0x1a0
 1793 0195 0C       		.uleb128 0xc
 1794 0196 01       		.uleb128 0x1
 1795 0197 51       		.byte	0x51
 1796 0198 01       		.uleb128 0x1
 1797 0199 30       		.byte	0x30
 1798 019a 0C       		.uleb128 0xc
 1799 019b 01       		.uleb128 0x1
 1800 019c 50       		.byte	0x50
 1801 019d 01       		.uleb128 0x1
 1802 019e 30       		.byte	0x30
 1803 019f 00       		.byte	0
 1804 01a0 0B       		.uleb128 0xb
 1805 01a1 1A000000 		.4byte	.LVL18
 1806 01a5 0E0D0000 		.4byte	0xd0e
 1807 01a9 B8010000 		.4byte	0x1b8
 1808 01ad 0C       		.uleb128 0xc
 1809 01ae 01       		.uleb128 0x1
 1810 01af 51       		.byte	0x51
 1811 01b0 01       		.uleb128 0x1
 1812 01b1 30       		.byte	0x30
 1813 01b2 0C       		.uleb128 0xc
 1814 01b3 01       		.uleb128 0x1
 1815 01b4 50       		.byte	0x50
 1816 01b5 01       		.uleb128 0x1
 1817 01b6 30       		.byte	0x30
 1818 01b7 00       		.byte	0
 1819 01b8 0B       		.uleb128 0xb
 1820 01b9 20000000 		.4byte	.LVL19
 1821 01bd 240D0000 		.4byte	0xd24
 1822 01c1 CC010000 		.4byte	0x1cc
 1823 01c5 0C       		.uleb128 0xc
 1824 01c6 01       		.uleb128 0x1
 1825 01c7 50       		.byte	0x50
 1826 01c8 02       		.uleb128 0x2
 1827 01c9 08       		.byte	0x8
 1828 01ca FF       		.byte	0xff
 1829 01cb 00       		.byte	0
 1830 01cc 0B       		.uleb128 0xb
 1831 01cd 26000000 		.4byte	.LVL20
 1832 01d1 350D0000 		.4byte	0xd35
 1833 01d5 E0010000 		.4byte	0x1e0
 1834 01d9 0C       		.uleb128 0xc
 1835 01da 01       		.uleb128 0x1
 1836 01db 50       		.byte	0x50
 1837 01dc 02       		.uleb128 0x2
 1838 01dd 08       		.byte	0x8
 1839 01de 40       		.byte	0x40
 1840 01df 00       		.byte	0
 1841 01e0 0D       		.uleb128 0xd
 1842 01e1 36000000 		.4byte	.LVL23
 1843 01e5 460D0000 		.4byte	0xd46
 1844 01e9 0C       		.uleb128 0xc
 1845 01ea 01       		.uleb128 0x1
 1846 01eb 50       		.byte	0x50
 1847 01ec 01       		.uleb128 0x1
ARM GAS  C:\Users\glenn\AppData\Local\Temp\ccPcZrmN.s 			page 74


 1848 01ed 41       		.byte	0x41
 1849 01ee 00       		.byte	0
 1850 01ef 00       		.byte	0
 1851 01f0 0E       		.uleb128 0xe
 1852 01f1 AA020000 		.4byte	.LASF22
 1853 01f5 01       		.byte	0x1
 1854 01f6 D001     		.2byte	0x1d0
 1855 01f8 00000000 		.4byte	.LFB39
 1856 01fc 2C000000 		.4byte	.LFE39-.LFB39
 1857 0200 01       		.uleb128 0x1
 1858 0201 9C       		.byte	0x9c
 1859 0202 2C020000 		.4byte	0x22c
 1860 0206 0B       		.uleb128 0xb
 1861 0207 08000000 		.4byte	.LVL24
 1862 020b A90C0000 		.4byte	0xca9
 1863 020f 19020000 		.4byte	0x219
 1864 0213 0C       		.uleb128 0xc
 1865 0214 01       		.uleb128 0x1
 1866 0215 50       		.byte	0x50
 1867 0216 01       		.uleb128 0x1
 1868 0217 41       		.byte	0x41
 1869 0218 00       		.byte	0
 1870 0219 10       		.uleb128 0x10
 1871 021a 1E000000 		.4byte	.LVL25
 1872 021e EA0C0000 		.4byte	0xcea
 1873 0222 10       		.uleb128 0x10
 1874 0223 22000000 		.4byte	.LVL26
 1875 0227 F10C0000 		.4byte	0xcf1
 1876 022b 00       		.byte	0
 1877 022c 11       		.uleb128 0x11
 1878 022d 22010000 		.4byte	.LASF56
 1879 0231 01       		.byte	0x1
 1880 0232 CB02     		.2byte	0x2cb
 1881 0234 83000000 		.4byte	0x83
 1882 0238 00000000 		.4byte	.LFB43
 1883 023c 10000000 		.4byte	.LFE43-.LFB43
 1884 0240 01       		.uleb128 0x1
 1885 0241 9C       		.byte	0x9c
 1886 0242 12       		.uleb128 0x12
 1887 0243 D1070000 		.4byte	.LASF26
 1888 0247 01       		.byte	0x1
 1889 0248 E902     		.2byte	0x2e9
 1890 024a 77000000 		.4byte	0x77
 1891 024e 00000000 		.4byte	.LFB44
 1892 0252 10000000 		.4byte	.LFE44-.LFB44
 1893 0256 01       		.uleb128 0x1
 1894 0257 9C       		.byte	0x9c
 1895 0258 6D020000 		.4byte	0x26d
 1896 025c 13       		.uleb128 0x13
 1897 025d FC000000 		.4byte	.LASF24
 1898 0261 01       		.byte	0x1
 1899 0262 E902     		.2byte	0x2e9
 1900 0264 83000000 		.4byte	0x83
 1901 0268 74000000 		.4byte	.LLST2
 1902 026c 00       		.byte	0
 1903 026d 0E       		.uleb128 0xe
 1904 026e EA070000 		.4byte	.LASF23
ARM GAS  C:\Users\glenn\AppData\Local\Temp\ccPcZrmN.s 			page 75


 1905 0272 01       		.byte	0x1
 1906 0273 0403     		.2byte	0x304
 1907 0275 00000000 		.4byte	.LFB45
 1908 0279 10000000 		.4byte	.LFE45-.LFB45
 1909 027d 01       		.uleb128 0x1
 1910 027e 9C       		.byte	0x9c
 1911 027f A2020000 		.4byte	0x2a2
 1912 0283 13       		.uleb128 0x13
 1913 0284 FC000000 		.4byte	.LASF24
 1914 0288 01       		.byte	0x1
 1915 0289 0403     		.2byte	0x304
 1916 028b 83000000 		.4byte	0x83
 1917 028f 95000000 		.4byte	.LLST3
 1918 0293 14       		.uleb128 0x14
 1919 0294 51010000 		.4byte	.LASF25
 1920 0298 01       		.byte	0x1
 1921 0299 0403     		.2byte	0x304
 1922 029b 77000000 		.4byte	0x77
 1923 029f 01       		.uleb128 0x1
 1924 02a0 51       		.byte	0x51
 1925 02a1 00       		.byte	0
 1926 02a2 12       		.uleb128 0x12
 1927 02a3 27040000 		.4byte	.LASF27
 1928 02a7 01       		.byte	0x1
 1929 02a8 5703     		.2byte	0x357
 1930 02aa 83000000 		.4byte	0x83
 1931 02ae 00000000 		.4byte	.LFB46
 1932 02b2 08000000 		.4byte	.LFE46-.LFB46
 1933 02b6 01       		.uleb128 0x1
 1934 02b7 9C       		.byte	0x9c
 1935 02b8 CD020000 		.4byte	0x2cd
 1936 02bc 13       		.uleb128 0x13
 1937 02bd 9A010000 		.4byte	.LASF28
 1938 02c1 01       		.byte	0x1
 1939 02c2 5703     		.2byte	0x357
 1940 02c4 83000000 		.4byte	0x83
 1941 02c8 B6000000 		.4byte	.LLST4
 1942 02cc 00       		.byte	0
 1943 02cd 0E       		.uleb128 0xe
 1944 02ce 56020000 		.4byte	.LASF29
 1945 02d2 01       		.byte	0x1
 1946 02d3 1004     		.2byte	0x410
 1947 02d5 00000000 		.4byte	.LFB48
 1948 02d9 2C000000 		.4byte	.LFE48-.LFB48
 1949 02dd 01       		.uleb128 0x1
 1950 02de 9C       		.byte	0x9c
 1951 02df 4D030000 		.4byte	0x34d
 1952 02e3 13       		.uleb128 0x13
 1953 02e4 FC000000 		.4byte	.LASF24
 1954 02e8 01       		.byte	0x1
 1955 02e9 1004     		.2byte	0x410
 1956 02eb 83000000 		.4byte	0x83
 1957 02ef D7000000 		.4byte	.LLST5
 1958 02f3 15       		.uleb128 0x15
 1959 02f4 8D010000 		.4byte	.LASF30
 1960 02f8 01       		.byte	0x1
 1961 02f9 1204     		.2byte	0x412
ARM GAS  C:\Users\glenn\AppData\Local\Temp\ccPcZrmN.s 			page 76


 1962 02fb 6B000000 		.4byte	0x6b
 1963 02ff 03       		.byte	0x3
 1964 0300 15       		.uleb128 0x15
 1965 0301 5D080000 		.4byte	.LASF31
 1966 0305 01       		.byte	0x1
 1967 0306 1304     		.2byte	0x413
 1968 0308 6B000000 		.4byte	0x6b
 1969 030c 04       		.byte	0x4
 1970 030d 0F       		.uleb128 0xf
 1971 030e 91060000 		.4byte	.LASF32
 1972 0312 01       		.byte	0x1
 1973 0313 1404     		.2byte	0x414
 1974 0315 6B000000 		.4byte	0x6b
 1975 0319 F8000000 		.4byte	.LLST6
 1976 031d 0F       		.uleb128 0xf
 1977 031e E1080000 		.4byte	.LASF33
 1978 0322 01       		.byte	0x1
 1979 0323 1504     		.2byte	0x415
 1980 0325 83000000 		.4byte	0x83
 1981 0329 0B010000 		.4byte	.LLST7
 1982 032d 15       		.uleb128 0x15
 1983 032e 70060000 		.4byte	.LASF34
 1984 0332 01       		.byte	0x1
 1985 0333 1604     		.2byte	0x416
 1986 0335 83000000 		.4byte	0x83
 1987 0339 04       		.byte	0x4
 1988 033a 10       		.uleb128 0x10
 1989 033b 06000000 		.4byte	.LVL35
 1990 033f 570D0000 		.4byte	0xd57
 1991 0343 10       		.uleb128 0x10
 1992 0344 22000000 		.4byte	.LVL39
 1993 0348 620D0000 		.4byte	0xd62
 1994 034c 00       		.byte	0
 1995 034d 0E       		.uleb128 0xe
 1996 034e 1F090000 		.4byte	.LASF35
 1997 0352 01       		.byte	0x1
 1998 0353 4504     		.2byte	0x445
 1999 0355 00000000 		.4byte	.LFB49
 2000 0359 54000000 		.4byte	.LFE49-.LFB49
 2001 035d 01       		.uleb128 0x1
 2002 035e 9C       		.byte	0x9c
 2003 035f ED030000 		.4byte	0x3ed
 2004 0363 13       		.uleb128 0x13
 2005 0364 FC000000 		.4byte	.LASF24
 2006 0368 01       		.byte	0x1
 2007 0369 4504     		.2byte	0x445
 2008 036b 83000000 		.4byte	0x83
 2009 036f 1E010000 		.4byte	.LLST8
 2010 0373 0F       		.uleb128 0xf
 2011 0374 91060000 		.4byte	.LASF32
 2012 0378 01       		.byte	0x1
 2013 0379 4704     		.2byte	0x447
 2014 037b 6B000000 		.4byte	0x6b
 2015 037f 3F010000 		.4byte	.LLST9
 2016 0383 0F       		.uleb128 0xf
 2017 0384 E1080000 		.4byte	.LASF33
 2018 0388 01       		.byte	0x1
ARM GAS  C:\Users\glenn\AppData\Local\Temp\ccPcZrmN.s 			page 77


 2019 0389 4804     		.2byte	0x448
 2020 038b 83000000 		.4byte	0x83
 2021 038f 52010000 		.4byte	.LLST10
 2022 0393 15       		.uleb128 0x15
 2023 0394 70060000 		.4byte	.LASF34
 2024 0398 01       		.byte	0x1
 2025 0399 4A04     		.2byte	0x44a
 2026 039b 83000000 		.4byte	0x83
 2027 039f 04       		.byte	0x4
 2028 03a0 15       		.uleb128 0x15
 2029 03a1 5D080000 		.4byte	.LASF31
 2030 03a5 01       		.byte	0x1
 2031 03a6 4B04     		.2byte	0x44b
 2032 03a8 6B000000 		.4byte	0x6b
 2033 03ac 04       		.byte	0x4
 2034 03ad 15       		.uleb128 0x15
 2035 03ae 8D010000 		.4byte	.LASF30
 2036 03b2 01       		.byte	0x1
 2037 03b3 4C04     		.2byte	0x44c
 2038 03b5 6B000000 		.4byte	0x6b
 2039 03b9 03       		.byte	0x3
 2040 03ba 0F       		.uleb128 0xf
 2041 03bb F8040000 		.4byte	.LASF36
 2042 03bf 01       		.byte	0x1
 2043 03c0 4E04     		.2byte	0x44e
 2044 03c2 83000000 		.4byte	0x83
 2045 03c6 7B010000 		.4byte	.LLST11
 2046 03ca 0F       		.uleb128 0xf
 2047 03cb 3C020000 		.4byte	.LASF37
 2048 03cf 01       		.byte	0x1
 2049 03d0 4F04     		.2byte	0x44f
 2050 03d2 83000000 		.4byte	0x83
 2051 03d6 9A010000 		.4byte	.LLST12
 2052 03da 10       		.uleb128 0x10
 2053 03db 24000000 		.4byte	.LVL46
 2054 03df 570D0000 		.4byte	0xd57
 2055 03e3 10       		.uleb128 0x10
 2056 03e4 38000000 		.4byte	.LVL51
 2057 03e8 620D0000 		.4byte	0xd62
 2058 03ec 00       		.byte	0
 2059 03ed 0E       		.uleb128 0xe
 2060 03ee 9F040000 		.4byte	.LASF38
 2061 03f2 01       		.byte	0x1
 2062 03f3 7203     		.2byte	0x372
 2063 03f5 00000000 		.4byte	.LFB47
 2064 03f9 14000000 		.4byte	.LFE47-.LFB47
 2065 03fd 01       		.uleb128 0x1
 2066 03fe 9C       		.byte	0x9c
 2067 03ff 24040000 		.4byte	0x424
 2068 0403 0F       		.uleb128 0xf
 2069 0404 96040000 		.4byte	.LASF39
 2070 0408 01       		.byte	0x1
 2071 0409 7403     		.2byte	0x374
 2072 040b 83000000 		.4byte	0x83
 2073 040f AD010000 		.4byte	.LLST13
 2074 0413 0D       		.uleb128 0xd
 2075 0414 0C000000 		.4byte	.LVL55
ARM GAS  C:\Users\glenn\AppData\Local\Temp\ccPcZrmN.s 			page 78


 2076 0418 4D030000 		.4byte	0x34d
 2077 041c 0C       		.uleb128 0xc
 2078 041d 01       		.uleb128 0x1
 2079 041e 50       		.byte	0x50
 2080 041f 02       		.uleb128 0x2
 2081 0420 74       		.byte	0x74
 2082 0421 00       		.sleb128 0
 2083 0422 00       		.byte	0
 2084 0423 00       		.byte	0
 2085 0424 0E       		.uleb128 0xe
 2086 0425 39080000 		.4byte	.LASF40
 2087 0429 01       		.byte	0x1
 2088 042a 0F05     		.2byte	0x50f
 2089 042c 00000000 		.4byte	.LFB52
 2090 0430 20000000 		.4byte	.LFE52-.LFB52
 2091 0434 01       		.uleb128 0x1
 2092 0435 9C       		.byte	0x9c
 2093 0436 89040000 		.4byte	0x489
 2094 043a 13       		.uleb128 0x13
 2095 043b 44060000 		.4byte	.LASF41
 2096 043f 01       		.byte	0x1
 2097 0440 0F05     		.2byte	0x50f
 2098 0442 83000000 		.4byte	0x83
 2099 0446 CC010000 		.4byte	.LLST14
 2100 044a 13       		.uleb128 0x13
 2101 044b 66060000 		.4byte	.LASF42
 2102 044f 01       		.byte	0x1
 2103 0450 0F05     		.2byte	0x50f
 2104 0452 83000000 		.4byte	0x83
 2105 0456 ED010000 		.4byte	.LLST15
 2106 045a 13       		.uleb128 0x13
 2107 045b 35050000 		.4byte	.LASF43
 2108 045f 01       		.byte	0x1
 2109 0460 0F05     		.2byte	0x50f
 2110 0462 83000000 		.4byte	0x83
 2111 0466 0E020000 		.4byte	.LLST16
 2112 046a 16       		.uleb128 0x16
 2113 046b 8D010000 		.4byte	.LASF30
 2114 046f 01       		.byte	0x1
 2115 0470 1105     		.2byte	0x511
 2116 0472 83000000 		.4byte	0x83
 2117 0476 01       		.uleb128 0x1
 2118 0477 51       		.byte	0x51
 2119 0478 0F       		.uleb128 0xf
 2120 0479 E1080000 		.4byte	.LASF33
 2121 047d 01       		.byte	0x1
 2122 047e 1205     		.2byte	0x512
 2123 0480 83000000 		.4byte	0x83
 2124 0484 2F020000 		.4byte	.LLST17
 2125 0488 00       		.byte	0
 2126 0489 0E       		.uleb128 0xe
 2127 048a 6B070000 		.4byte	.LASF44
 2128 048e 01       		.byte	0x1
 2129 048f 9204     		.2byte	0x492
 2130 0491 00000000 		.4byte	.LFB50
 2131 0495 26000000 		.4byte	.LFE50-.LFB50
 2132 0499 01       		.uleb128 0x1
ARM GAS  C:\Users\glenn\AppData\Local\Temp\ccPcZrmN.s 			page 79


 2133 049a 9C       		.byte	0x9c
 2134 049b 18050000 		.4byte	0x518
 2135 049f 13       		.uleb128 0x13
 2136 04a0 44060000 		.4byte	.LASF41
 2137 04a4 01       		.byte	0x1
 2138 04a5 9204     		.2byte	0x492
 2139 04a7 83000000 		.4byte	0x83
 2140 04ab 4D020000 		.4byte	.LLST18
 2141 04af 0F       		.uleb128 0xf
 2142 04b0 99020000 		.4byte	.LASF45
 2143 04b4 01       		.byte	0x1
 2144 04b5 9404     		.2byte	0x494
 2145 04b7 6B000000 		.4byte	0x6b
 2146 04bb 79020000 		.4byte	.LLST19
 2147 04bf 0F       		.uleb128 0xf
 2148 04c0 B8010000 		.4byte	.LASF46
 2149 04c4 01       		.byte	0x1
 2150 04c5 9904     		.2byte	0x499
 2151 04c7 83000000 		.4byte	0x83
 2152 04cb A3020000 		.4byte	.LLST20
 2153 04cf 0F       		.uleb128 0xf
 2154 04d0 6B080000 		.4byte	.LASF47
 2155 04d4 01       		.byte	0x1
 2156 04d5 9A04     		.2byte	0x49a
 2157 04d7 83000000 		.4byte	0x83
 2158 04db B7020000 		.4byte	.LLST21
 2159 04df 0B       		.uleb128 0xb
 2160 04e0 12000000 		.4byte	.LVL68
 2161 04e4 24040000 		.4byte	0x424
 2162 04e8 FD040000 		.4byte	0x4fd
 2163 04ec 0C       		.uleb128 0xc
 2164 04ed 01       		.uleb128 0x1
 2165 04ee 52       		.byte	0x52
 2166 04ef 01       		.uleb128 0x1
 2167 04f0 34       		.byte	0x34
 2168 04f1 0C       		.uleb128 0xc
 2169 04f2 01       		.uleb128 0x1
 2170 04f3 51       		.byte	0x51
 2171 04f4 01       		.uleb128 0x1
 2172 04f5 31       		.byte	0x31
 2173 04f6 0C       		.uleb128 0xc
 2174 04f7 01       		.uleb128 0x1
 2175 04f8 50       		.byte	0x50
 2176 04f9 02       		.uleb128 0x2
 2177 04fa 75       		.byte	0x75
 2178 04fb 00       		.sleb128 0
 2179 04fc 00       		.byte	0
 2180 04fd 0D       		.uleb128 0xd
 2181 04fe 24000000 		.4byte	.LVL71
 2182 0502 24040000 		.4byte	0x424
 2183 0506 0C       		.uleb128 0xc
 2184 0507 01       		.uleb128 0x1
 2185 0508 52       		.byte	0x52
 2186 0509 01       		.uleb128 0x1
 2187 050a 34       		.byte	0x34
 2188 050b 0C       		.uleb128 0xc
 2189 050c 01       		.uleb128 0x1
ARM GAS  C:\Users\glenn\AppData\Local\Temp\ccPcZrmN.s 			page 80


 2190 050d 51       		.byte	0x51
 2191 050e 01       		.uleb128 0x1
 2192 050f 32       		.byte	0x32
 2193 0510 0C       		.uleb128 0xc
 2194 0511 01       		.uleb128 0x1
 2195 0512 50       		.byte	0x50
 2196 0513 02       		.uleb128 0x2
 2197 0514 75       		.byte	0x75
 2198 0515 00       		.sleb128 0
 2199 0516 00       		.byte	0
 2200 0517 00       		.byte	0
 2201 0518 0E       		.uleb128 0xe
 2202 0519 F5010000 		.4byte	.LASF48
 2203 051d 01       		.byte	0x1
 2204 051e DB04     		.2byte	0x4db
 2205 0520 00000000 		.4byte	.LFB51
 2206 0524 24000000 		.4byte	.LFE51-.LFB51
 2207 0528 01       		.uleb128 0x1
 2208 0529 9C       		.byte	0x9c
 2209 052a 4E050000 		.4byte	0x54e
 2210 052e 0F       		.uleb128 0xf
 2211 052f E1080000 		.4byte	.LASF33
 2212 0533 01       		.byte	0x1
 2213 0534 DD04     		.2byte	0x4dd
 2214 0536 83000000 		.4byte	0x83
 2215 053a CB020000 		.4byte	.LLST22
 2216 053e 0D       		.uleb128 0xd
 2217 053f 08000000 		.4byte	.LVL74
 2218 0543 89040000 		.4byte	0x489
 2219 0547 0C       		.uleb128 0xc
 2220 0548 01       		.uleb128 0x1
 2221 0549 50       		.byte	0x50
 2222 054a 01       		.uleb128 0x1
 2223 054b 30       		.byte	0x30
 2224 054c 00       		.byte	0
 2225 054d 00       		.byte	0
 2226 054e 0E       		.uleb128 0xe
 2227 054f A9070000 		.4byte	.LASF49
 2228 0553 01       		.byte	0x1
 2229 0554 3305     		.2byte	0x533
 2230 0556 00000000 		.4byte	.LFB53
 2231 055a BC000000 		.4byte	.LFE53-.LFB53
 2232 055e 01       		.uleb128 0x1
 2233 055f 9C       		.byte	0x9c
 2234 0560 BA060000 		.4byte	0x6ba
 2235 0564 13       		.uleb128 0x13
 2236 0565 FC000000 		.4byte	.LASF24
 2237 0569 01       		.byte	0x1
 2238 056a 3305     		.2byte	0x533
 2239 056c 83000000 		.4byte	0x83
 2240 0570 E9020000 		.4byte	.LLST23
 2241 0574 15       		.uleb128 0x15
 2242 0575 9A010000 		.4byte	.LASF28
 2243 0579 01       		.byte	0x1
 2244 057a 3505     		.2byte	0x535
 2245 057c 6B000000 		.4byte	0x6b
 2246 0580 00       		.byte	0
ARM GAS  C:\Users\glenn\AppData\Local\Temp\ccPcZrmN.s 			page 81


 2247 0581 0F       		.uleb128 0xf
 2248 0582 91060000 		.4byte	.LASF32
 2249 0586 01       		.byte	0x1
 2250 0587 3605     		.2byte	0x536
 2251 0589 6B000000 		.4byte	0x6b
 2252 058d 15030000 		.4byte	.LLST24
 2253 0591 0F       		.uleb128 0xf
 2254 0592 51040000 		.4byte	.LASF21
 2255 0596 01       		.byte	0x1
 2256 0597 3705     		.2byte	0x537
 2257 0599 83000000 		.4byte	0x83
 2258 059d 28030000 		.4byte	.LLST25
 2259 05a1 17       		.uleb128 0x17
 2260 05a2 C5010000 		.4byte	.LASF50
 2261 05a6 01       		.byte	0x1
 2262 05a7 3805     		.2byte	0x538
 2263 05a9 83000000 		.4byte	0x83
 2264 05ad 80807C   		.sleb128 -65536
 2265 05b0 10       		.uleb128 0x10
 2266 05b1 08000000 		.4byte	.LVL80
 2267 05b5 EA0C0000 		.4byte	0xcea
 2268 05b9 10       		.uleb128 0x10
 2269 05ba 0C000000 		.4byte	.LVL81
 2270 05be F10C0000 		.4byte	0xcf1
 2271 05c2 0B       		.uleb128 0xb
 2272 05c3 14000000 		.4byte	.LVL82
 2273 05c7 F80C0000 		.4byte	0xcf8
 2274 05cb DA050000 		.4byte	0x5da
 2275 05cf 0C       		.uleb128 0xc
 2276 05d0 01       		.uleb128 0x1
 2277 05d1 51       		.byte	0x51
 2278 05d2 01       		.uleb128 0x1
 2279 05d3 30       		.byte	0x30
 2280 05d4 0C       		.uleb128 0xc
 2281 05d5 01       		.uleb128 0x1
 2282 05d6 50       		.byte	0x50
 2283 05d7 01       		.uleb128 0x1
 2284 05d8 31       		.byte	0x31
 2285 05d9 00       		.byte	0
 2286 05da 0B       		.uleb128 0xb
 2287 05db 1C000000 		.4byte	.LVL83
 2288 05df 0E0D0000 		.4byte	0xd0e
 2289 05e3 F2050000 		.4byte	0x5f2
 2290 05e7 0C       		.uleb128 0xc
 2291 05e8 01       		.uleb128 0x1
 2292 05e9 51       		.byte	0x51
 2293 05ea 01       		.uleb128 0x1
 2294 05eb 30       		.byte	0x30
 2295 05ec 0C       		.uleb128 0xc
 2296 05ed 01       		.uleb128 0x1
 2297 05ee 50       		.byte	0x50
 2298 05ef 01       		.uleb128 0x1
 2299 05f0 31       		.byte	0x31
 2300 05f1 00       		.byte	0
 2301 05f2 0B       		.uleb128 0xb
 2302 05f3 22000000 		.4byte	.LVL84
 2303 05f7 240D0000 		.4byte	0xd24
ARM GAS  C:\Users\glenn\AppData\Local\Temp\ccPcZrmN.s 			page 82


 2304 05fb 06060000 		.4byte	0x606
 2305 05ff 0C       		.uleb128 0xc
 2306 0600 01       		.uleb128 0x1
 2307 0601 50       		.byte	0x50
 2308 0602 02       		.uleb128 0x2
 2309 0603 08       		.byte	0x8
 2310 0604 FF       		.byte	0xff
 2311 0605 00       		.byte	0
 2312 0606 0B       		.uleb128 0xb
 2313 0607 28000000 		.4byte	.LVL85
 2314 060b 350D0000 		.4byte	0xd35
 2315 060f 1A060000 		.4byte	0x61a
 2316 0613 0C       		.uleb128 0xc
 2317 0614 01       		.uleb128 0x1
 2318 0615 50       		.byte	0x50
 2319 0616 02       		.uleb128 0x2
 2320 0617 08       		.byte	0x8
 2321 0618 40       		.byte	0x40
 2322 0619 00       		.byte	0
 2323 061a 0B       		.uleb128 0xb
 2324 061b 2E000000 		.4byte	.LVL86
 2325 061f A90C0000 		.4byte	0xca9
 2326 0623 2D060000 		.4byte	0x62d
 2327 0627 0C       		.uleb128 0xc
 2328 0628 01       		.uleb128 0x1
 2329 0629 50       		.byte	0x50
 2330 062a 01       		.uleb128 0x1
 2331 062b 41       		.byte	0x41
 2332 062c 00       		.byte	0
 2333 062d 0B       		.uleb128 0xb
 2334 062e 4A000000 		.4byte	.LVL87
 2335 0632 730D0000 		.4byte	0xd73
 2336 0636 40060000 		.4byte	0x640
 2337 063a 0C       		.uleb128 0xc
 2338 063b 01       		.uleb128 0x1
 2339 063c 50       		.byte	0x50
 2340 063d 01       		.uleb128 0x1
 2341 063e 41       		.byte	0x41
 2342 063f 00       		.byte	0
 2343 0640 0B       		.uleb128 0xb
 2344 0641 50000000 		.4byte	.LVL88
 2345 0645 460D0000 		.4byte	0xd46
 2346 0649 53060000 		.4byte	0x653
 2347 064d 0C       		.uleb128 0xc
 2348 064e 01       		.uleb128 0x1
 2349 064f 50       		.byte	0x50
 2350 0650 01       		.uleb128 0x1
 2351 0651 41       		.byte	0x41
 2352 0652 00       		.byte	0
 2353 0653 0B       		.uleb128 0xb
 2354 0654 56000000 		.4byte	.LVL89
 2355 0658 A90C0000 		.4byte	0xca9
 2356 065c 66060000 		.4byte	0x666
 2357 0660 0C       		.uleb128 0xc
 2358 0661 01       		.uleb128 0x1
 2359 0662 50       		.byte	0x50
 2360 0663 01       		.uleb128 0x1
ARM GAS  C:\Users\glenn\AppData\Local\Temp\ccPcZrmN.s 			page 83


 2361 0664 41       		.byte	0x41
 2362 0665 00       		.byte	0
 2363 0666 0B       		.uleb128 0xb
 2364 0667 76000000 		.4byte	.LVL96
 2365 066b 460D0000 		.4byte	0xd46
 2366 066f 79060000 		.4byte	0x679
 2367 0673 0C       		.uleb128 0xc
 2368 0674 01       		.uleb128 0x1
 2369 0675 50       		.byte	0x50
 2370 0676 01       		.uleb128 0x1
 2371 0677 41       		.byte	0x41
 2372 0678 00       		.byte	0
 2373 0679 0B       		.uleb128 0xb
 2374 067a 7C000000 		.4byte	.LVL97
 2375 067e CD020000 		.4byte	0x2cd
 2376 0682 8D060000 		.4byte	0x68d
 2377 0686 0C       		.uleb128 0xc
 2378 0687 01       		.uleb128 0x1
 2379 0688 50       		.byte	0x50
 2380 0689 02       		.uleb128 0x2
 2381 068a 74       		.byte	0x74
 2382 068b 00       		.sleb128 0
 2383 068c 00       		.byte	0
 2384 068d 10       		.uleb128 0x10
 2385 068e 80000000 		.4byte	.LVL98
 2386 0692 570D0000 		.4byte	0xd57
 2387 0696 0B       		.uleb128 0xb
 2388 0697 8A000000 		.4byte	.LVL100
 2389 069b 840D0000 		.4byte	0xd84
 2390 069f A9060000 		.4byte	0x6a9
 2391 06a3 0C       		.uleb128 0xc
 2392 06a4 01       		.uleb128 0x1
 2393 06a5 50       		.byte	0x50
 2394 06a6 01       		.uleb128 0x1
 2395 06a7 30       		.byte	0x30
 2396 06a8 00       		.byte	0
 2397 06a9 0D       		.uleb128 0xd
 2398 06aa 96000000 		.4byte	.LVL101
 2399 06ae 620D0000 		.4byte	0xd62
 2400 06b2 0C       		.uleb128 0xc
 2401 06b3 01       		.uleb128 0x1
 2402 06b4 50       		.byte	0x50
 2403 06b5 02       		.uleb128 0x2
 2404 06b6 74       		.byte	0x74
 2405 06b7 00       		.sleb128 0
 2406 06b8 00       		.byte	0
 2407 06b9 00       		.byte	0
 2408 06ba 0E       		.uleb128 0xe
 2409 06bb 0C010000 		.4byte	.LASF51
 2410 06bf 01       		.byte	0x1
 2411 06c0 2602     		.2byte	0x226
 2412 06c2 00000000 		.4byte	.LFB41
 2413 06c6 1C000000 		.4byte	.LFE41-.LFB41
 2414 06ca 01       		.uleb128 0x1
 2415 06cb 9C       		.byte	0x9c
 2416 06cc F2060000 		.4byte	0x6f2
 2417 06d0 13       		.uleb128 0x13
ARM GAS  C:\Users\glenn\AppData\Local\Temp\ccPcZrmN.s 			page 84


 2418 06d1 FC000000 		.4byte	.LASF24
 2419 06d5 01       		.byte	0x1
 2420 06d6 2602     		.2byte	0x226
 2421 06d8 83000000 		.4byte	0x83
 2422 06dc 51030000 		.4byte	.LLST26
 2423 06e0 0D       		.uleb128 0xd
 2424 06e1 14000000 		.4byte	.LVL105
 2425 06e5 4E050000 		.4byte	0x54e
 2426 06e9 0C       		.uleb128 0xc
 2427 06ea 01       		.uleb128 0x1
 2428 06eb 50       		.byte	0x50
 2429 06ec 03       		.uleb128 0x3
 2430 06ed F3       		.byte	0xf3
 2431 06ee 01       		.uleb128 0x1
 2432 06ef 50       		.byte	0x50
 2433 06f0 00       		.byte	0
 2434 06f1 00       		.byte	0
 2435 06f2 0E       		.uleb128 0xe
 2436 06f3 D7020000 		.4byte	.LASF52
 2437 06f7 01       		.byte	0x1
 2438 06f8 F805     		.2byte	0x5f8
 2439 06fa 00000000 		.4byte	.LFB54
 2440 06fe 54000000 		.4byte	.LFE54-.LFB54
 2441 0702 01       		.uleb128 0x1
 2442 0703 9C       		.byte	0x9c
 2443 0704 60070000 		.4byte	0x760
 2444 0708 13       		.uleb128 0x13
 2445 0709 FC000000 		.4byte	.LASF24
 2446 070d 01       		.byte	0x1
 2447 070e F805     		.2byte	0x5f8
 2448 0710 83000000 		.4byte	0x83
 2449 0714 72030000 		.4byte	.LLST27
 2450 0718 0F       		.uleb128 0xf
 2451 0719 51040000 		.4byte	.LASF21
 2452 071d 01       		.byte	0x1
 2453 071e FA05     		.2byte	0x5fa
 2454 0720 83000000 		.4byte	0x83
 2455 0724 93030000 		.4byte	.LLST28
 2456 0728 0B       		.uleb128 0xb
 2457 0729 12000000 		.4byte	.LVL107
 2458 072d 4D030000 		.4byte	0x34d
 2459 0731 3D070000 		.4byte	0x73d
 2460 0735 0C       		.uleb128 0xc
 2461 0736 01       		.uleb128 0x1
 2462 0737 50       		.byte	0x50
 2463 0738 03       		.uleb128 0x3
 2464 0739 F3       		.byte	0xf3
 2465 073a 01       		.uleb128 0x1
 2466 073b 50       		.byte	0x50
 2467 073c 00       		.byte	0
 2468 073d 0B       		.uleb128 0xb
 2469 073e 18000000 		.4byte	.LVL108
 2470 0742 A90C0000 		.4byte	0xca9
 2471 0746 50070000 		.4byte	0x750
 2472 074a 0C       		.uleb128 0xc
 2473 074b 01       		.uleb128 0x1
 2474 074c 50       		.byte	0x50
ARM GAS  C:\Users\glenn\AppData\Local\Temp\ccPcZrmN.s 			page 85


 2475 074d 01       		.uleb128 0x1
 2476 074e 41       		.byte	0x41
 2477 074f 00       		.byte	0
 2478 0750 0D       		.uleb128 0xd
 2479 0751 38000000 		.4byte	.LVL114
 2480 0755 460D0000 		.4byte	0xd46
 2481 0759 0C       		.uleb128 0xc
 2482 075a 01       		.uleb128 0x1
 2483 075b 50       		.byte	0x50
 2484 075c 01       		.uleb128 0x1
 2485 075d 41       		.byte	0x41
 2486 075e 00       		.byte	0
 2487 075f 00       		.byte	0
 2488 0760 0E       		.uleb128 0xe
 2489 0761 1D060000 		.4byte	.LASF53
 2490 0765 01       		.byte	0x1
 2491 0766 5506     		.2byte	0x655
 2492 0768 00000000 		.4byte	.LFB55
 2493 076c 34000000 		.4byte	.LFE55-.LFB55
 2494 0770 01       		.uleb128 0x1
 2495 0771 9C       		.byte	0x9c
 2496 0772 A7070000 		.4byte	0x7a7
 2497 0776 13       		.uleb128 0x13
 2498 0777 66060000 		.4byte	.LASF42
 2499 077b 01       		.byte	0x1
 2500 077c 5506     		.2byte	0x655
 2501 077e 83000000 		.4byte	0x83
 2502 0782 C0030000 		.4byte	.LLST29
 2503 0786 13       		.uleb128 0x13
 2504 0787 35050000 		.4byte	.LASF43
 2505 078b 01       		.byte	0x1
 2506 078c 5506     		.2byte	0x655
 2507 078e 83000000 		.4byte	0x83
 2508 0792 E1030000 		.4byte	.LLST30
 2509 0796 0F       		.uleb128 0xf
 2510 0797 51040000 		.4byte	.LASF21
 2511 079b 01       		.byte	0x1
 2512 079c 5706     		.2byte	0x657
 2513 079e 83000000 		.4byte	0x83
 2514 07a2 02040000 		.4byte	.LLST31
 2515 07a6 00       		.byte	0
 2516 07a7 0E       		.uleb128 0xe
 2517 07a8 08050000 		.4byte	.LASF54
 2518 07ac 01       		.byte	0x1
 2519 07ad 7806     		.2byte	0x678
 2520 07af 00000000 		.4byte	.LFB56
 2521 07b3 14000000 		.4byte	.LFE56-.LFB56
 2522 07b7 01       		.uleb128 0x1
 2523 07b8 9C       		.byte	0x9c
 2524 07b9 DE070000 		.4byte	0x7de
 2525 07bd 13       		.uleb128 0x13
 2526 07be 34010000 		.4byte	.LASF55
 2527 07c2 01       		.byte	0x1
 2528 07c3 7806     		.2byte	0x678
 2529 07c5 83000000 		.4byte	0x83
 2530 07c9 20040000 		.4byte	.LLST32
 2531 07cd 0F       		.uleb128 0xf
ARM GAS  C:\Users\glenn\AppData\Local\Temp\ccPcZrmN.s 			page 86


 2532 07ce 51040000 		.4byte	.LASF21
 2533 07d2 01       		.byte	0x1
 2534 07d3 7A06     		.2byte	0x67a
 2535 07d5 83000000 		.4byte	0x83
 2536 07d9 4E040000 		.4byte	.LLST33
 2537 07dd 00       		.byte	0
 2538 07de 11       		.uleb128 0x11
 2539 07df 78080000 		.4byte	.LASF57
 2540 07e3 01       		.byte	0x1
 2541 07e4 9C06     		.2byte	0x69c
 2542 07e6 83000000 		.4byte	0x83
 2543 07ea 00000000 		.4byte	.LFB57
 2544 07ee 1C000000 		.4byte	.LFE57-.LFB57
 2545 07f2 01       		.uleb128 0x1
 2546 07f3 9C       		.byte	0x9c
 2547 07f4 12       		.uleb128 0x12
 2548 07f5 3A010000 		.4byte	.LASF58
 2549 07f9 01       		.byte	0x1
 2550 07fa B806     		.2byte	0x6b8
 2551 07fc 83000000 		.4byte	0x83
 2552 0800 00000000 		.4byte	.LFB58
 2553 0804 1A000000 		.4byte	.LFE58-.LFB58
 2554 0808 01       		.uleb128 0x1
 2555 0809 9C       		.byte	0x9c
 2556 080a 4B080000 		.4byte	0x84b
 2557 080e 13       		.uleb128 0x13
 2558 080f B2010000 		.4byte	.LASF59
 2559 0813 01       		.byte	0x1
 2560 0814 B806     		.2byte	0x6b8
 2561 0816 E6000000 		.4byte	0xe6
 2562 081a 6C040000 		.4byte	.LLST34
 2563 081e 13       		.uleb128 0x13
 2564 081f 54080000 		.4byte	.LASF60
 2565 0823 01       		.byte	0x1
 2566 0824 B806     		.2byte	0x6b8
 2567 0826 83000000 		.4byte	0x83
 2568 082a A6040000 		.4byte	.LLST35
 2569 082e 16       		.uleb128 0x16
 2570 082f A3020000 		.4byte	.LASF61
 2571 0833 01       		.byte	0x1
 2572 0834 BA06     		.2byte	0x6ba
 2573 0836 83000000 		.4byte	0x83
 2574 083a 01       		.uleb128 0x1
 2575 083b 52       		.byte	0x52
 2576 083c 16       		.uleb128 0x16
 2577 083d B1000000 		.4byte	.LASF62
 2578 0841 01       		.byte	0x1
 2579 0842 BB06     		.2byte	0x6bb
 2580 0844 6B000000 		.4byte	0x6b
 2581 0848 01       		.uleb128 0x1
 2582 0849 51       		.byte	0x51
 2583 084a 00       		.byte	0
 2584 084b 12       		.uleb128 0x12
 2585 084c 7C040000 		.4byte	.LASF63
 2586 0850 01       		.byte	0x1
 2587 0851 F601     		.2byte	0x1f6
 2588 0853 6B000000 		.4byte	0x6b
ARM GAS  C:\Users\glenn\AppData\Local\Temp\ccPcZrmN.s 			page 87


 2589 0857 00000000 		.4byte	.LFB40
 2590 085b 20000000 		.4byte	.LFE40-.LFB40
 2591 085f 01       		.uleb128 0x1
 2592 0860 9C       		.byte	0x9c
 2593 0861 9F080000 		.4byte	0x89f
 2594 0865 13       		.uleb128 0x13
 2595 0866 96040000 		.4byte	.LASF39
 2596 086a 01       		.byte	0x1
 2597 086b F601     		.2byte	0x1f6
 2598 086d 6B000000 		.4byte	0x6b
 2599 0871 C7040000 		.4byte	.LLST36
 2600 0875 0F       		.uleb128 0xf
 2601 0876 2E080000 		.4byte	.LASF64
 2602 087a 01       		.byte	0x1
 2603 087b F801     		.2byte	0x1f8
 2604 087d 83000000 		.4byte	0x83
 2605 0881 FB040000 		.4byte	.LLST37
 2606 0885 0D       		.uleb128 0xd
 2607 0886 14000000 		.4byte	.LVL137
 2608 088a F4070000 		.4byte	0x7f4
 2609 088e 0C       		.uleb128 0xc
 2610 088f 01       		.uleb128 0x1
 2611 0890 51       		.byte	0x51
 2612 0891 02       		.uleb128 0x2
 2613 0892 74       		.byte	0x74
 2614 0893 00       		.sleb128 0
 2615 0894 0C       		.uleb128 0xc
 2616 0895 01       		.uleb128 0x1
 2617 0896 50       		.byte	0x50
 2618 0897 05       		.uleb128 0x5
 2619 0898 03       		.byte	0x3
 2620 0899 00000000 		.4byte	.LANCHOR2
 2621 089d 00       		.byte	0
 2622 089e 00       		.byte	0
 2623 089f 0E       		.uleb128 0xe
 2624 08a0 D7010000 		.4byte	.LASF65
 2625 08a4 01       		.byte	0x1
 2626 08a5 A202     		.2byte	0x2a2
 2627 08a7 00000000 		.4byte	.LFB42
 2628 08ab 34000000 		.4byte	.LFE42-.LFB42
 2629 08af 01       		.uleb128 0x1
 2630 08b0 9C       		.byte	0x9c
 2631 08b1 C8080000 		.4byte	0x8c8
 2632 08b5 10       		.uleb128 0x10
 2633 08b6 14000000 		.4byte	.LVL140
 2634 08ba 4B080000 		.4byte	0x84b
 2635 08be 10       		.uleb128 0x10
 2636 08bf 2C000000 		.4byte	.LVL141
 2637 08c3 4E050000 		.4byte	0x54e
 2638 08c7 00       		.byte	0
 2639 08c8 0E       		.uleb128 0xe
 2640 08c9 15000000 		.4byte	.LASF66
 2641 08cd 01       		.byte	0x1
 2642 08ce E306     		.2byte	0x6e3
 2643 08d0 00000000 		.4byte	.LFB59
 2644 08d4 26000000 		.4byte	.LFE59-.LFB59
 2645 08d8 01       		.uleb128 0x1
ARM GAS  C:\Users\glenn\AppData\Local\Temp\ccPcZrmN.s 			page 88


 2646 08d9 9C       		.byte	0x9c
 2647 08da 2B090000 		.4byte	0x92b
 2648 08de 14       		.uleb128 0x14
 2649 08df B2010000 		.4byte	.LASF59
 2650 08e3 01       		.byte	0x1
 2651 08e4 E306     		.2byte	0x6e3
 2652 08e6 E0000000 		.4byte	0xe0
 2653 08ea 01       		.uleb128 0x1
 2654 08eb 50       		.byte	0x50
 2655 08ec 13       		.uleb128 0x13
 2656 08ed 54080000 		.4byte	.LASF60
 2657 08f1 01       		.byte	0x1
 2658 08f2 E306     		.2byte	0x6e3
 2659 08f4 83000000 		.4byte	0x83
 2660 08f8 0E050000 		.4byte	.LLST38
 2661 08fc 14       		.uleb128 0x14
 2662 08fd 51010000 		.4byte	.LASF25
 2663 0901 01       		.byte	0x1
 2664 0902 E306     		.2byte	0x6e3
 2665 0904 83000000 		.4byte	0x83
 2666 0908 01       		.uleb128 0x1
 2667 0909 52       		.byte	0x52
 2668 090a 0F       		.uleb128 0xf
 2669 090b A3020000 		.4byte	.LASF61
 2670 090f 01       		.byte	0x1
 2671 0910 E506     		.2byte	0x6e5
 2672 0912 83000000 		.4byte	0x83
 2673 0916 2F050000 		.4byte	.LLST39
 2674 091a 0F       		.uleb128 0xf
 2675 091b B1000000 		.4byte	.LASF62
 2676 091f 01       		.byte	0x1
 2677 0920 E606     		.2byte	0x6e6
 2678 0922 6B000000 		.4byte	0x6b
 2679 0926 6D050000 		.4byte	.LLST40
 2680 092a 00       		.byte	0
 2681 092b 12       		.uleb128 0x12
 2682 092c 18020000 		.4byte	.LASF67
 2683 0930 01       		.byte	0x1
 2684 0931 1507     		.2byte	0x715
 2685 0933 83000000 		.4byte	0x83
 2686 0937 00000000 		.4byte	.LFB60
 2687 093b 04000000 		.4byte	.LFE60-.LFB60
 2688 093f 01       		.uleb128 0x1
 2689 0940 9C       		.byte	0x9c
 2690 0941 56090000 		.4byte	0x956
 2691 0945 13       		.uleb128 0x13
 2692 0946 FC000000 		.4byte	.LASF24
 2693 094a 01       		.byte	0x1
 2694 094b 1507     		.2byte	0x715
 2695 094d 83000000 		.4byte	0x83
 2696 0951 AF050000 		.4byte	.LLST41
 2697 0955 00       		.byte	0
 2698 0956 12       		.uleb128 0x12
 2699 0957 8F000000 		.4byte	.LASF68
 2700 095b 01       		.byte	0x1
 2701 095c 5407     		.2byte	0x754
 2702 095e 83000000 		.4byte	0x83
ARM GAS  C:\Users\glenn\AppData\Local\Temp\ccPcZrmN.s 			page 89


 2703 0962 00000000 		.4byte	.LFB61
 2704 0966 04000000 		.4byte	.LFE61-.LFB61
 2705 096a 01       		.uleb128 0x1
 2706 096b 9C       		.byte	0x9c
 2707 096c 81090000 		.4byte	0x981
 2708 0970 13       		.uleb128 0x13
 2709 0971 FC000000 		.4byte	.LASF24
 2710 0975 01       		.byte	0x1
 2711 0976 5407     		.2byte	0x754
 2712 0978 83000000 		.4byte	0x83
 2713 097c D0050000 		.4byte	.LLST42
 2714 0980 00       		.byte	0
 2715 0981 12       		.uleb128 0x12
 2716 0982 BA020000 		.4byte	.LASF69
 2717 0986 01       		.byte	0x1
 2718 0987 9207     		.2byte	0x792
 2719 0989 83000000 		.4byte	0x83
 2720 098d 00000000 		.4byte	.LFB62
 2721 0991 04000000 		.4byte	.LFE62-.LFB62
 2722 0995 01       		.uleb128 0x1
 2723 0996 9C       		.byte	0x9c
 2724 0997 AC090000 		.4byte	0x9ac
 2725 099b 13       		.uleb128 0x13
 2726 099c FC000000 		.4byte	.LASF24
 2727 09a0 01       		.byte	0x1
 2728 09a1 9207     		.2byte	0x792
 2729 09a3 83000000 		.4byte	0x83
 2730 09a7 F1050000 		.4byte	.LLST43
 2731 09ab 00       		.byte	0
 2732 09ac 12       		.uleb128 0x12
 2733 09ad 5D040000 		.4byte	.LASF70
 2734 09b1 01       		.byte	0x1
 2735 09b2 CA07     		.2byte	0x7ca
 2736 09b4 83000000 		.4byte	0x83
 2737 09b8 00000000 		.4byte	.LFB63
 2738 09bc 04000000 		.4byte	.LFE63-.LFB63
 2739 09c0 01       		.uleb128 0x1
 2740 09c1 9C       		.byte	0x9c
 2741 09c2 D7090000 		.4byte	0x9d7
 2742 09c6 13       		.uleb128 0x13
 2743 09c7 FC000000 		.4byte	.LASF24
 2744 09cb 01       		.byte	0x1
 2745 09cc CA07     		.2byte	0x7ca
 2746 09ce 83000000 		.4byte	0x83
 2747 09d2 12060000 		.4byte	.LLST44
 2748 09d6 00       		.byte	0
 2749 09d7 11       		.uleb128 0x11
 2750 09d8 4E060000 		.4byte	.LASF71
 2751 09dc 01       		.byte	0x1
 2752 09dd 0408     		.2byte	0x804
 2753 09df 83000000 		.4byte	0x83
 2754 09e3 00000000 		.4byte	.LFB64
 2755 09e7 14000000 		.4byte	.LFE64-.LFB64
 2756 09eb 01       		.uleb128 0x1
 2757 09ec 9C       		.byte	0x9c
 2758 09ed 0E       		.uleb128 0xe
 2759 09ee A7060000 		.4byte	.LASF72
ARM GAS  C:\Users\glenn\AppData\Local\Temp\ccPcZrmN.s 			page 90


 2760 09f2 01       		.byte	0x1
 2761 09f3 B408     		.2byte	0x8b4
 2762 09f5 00000000 		.4byte	.LFB65
 2763 09f9 0C000000 		.4byte	.LFE65-.LFB65
 2764 09fd 01       		.uleb128 0x1
 2765 09fe 9C       		.byte	0x9c
 2766 09ff 200A0000 		.4byte	0xa20
 2767 0a03 14       		.uleb128 0x14
 2768 0a04 FC000000 		.4byte	.LASF24
 2769 0a08 01       		.byte	0x1
 2770 0a09 B408     		.2byte	0x8b4
 2771 0a0b 83000000 		.4byte	0x83
 2772 0a0f 01       		.uleb128 0x1
 2773 0a10 50       		.byte	0x50
 2774 0a11 14       		.uleb128 0x14
 2775 0a12 3C020000 		.4byte	.LASF37
 2776 0a16 01       		.byte	0x1
 2777 0a17 B408     		.2byte	0x8b4
 2778 0a19 83000000 		.4byte	0x83
 2779 0a1d 01       		.uleb128 0x1
 2780 0a1e 51       		.byte	0x51
 2781 0a1f 00       		.byte	0
 2782 0a20 09       		.uleb128 0x9
 2783 0a21 9D080000 		.4byte	.LASF73
 2784 0a25 01       		.byte	0x1
 2785 0a26 A3       		.byte	0xa3
 2786 0a27 00000000 		.4byte	.LFB35
 2787 0a2b 24000000 		.4byte	.LFE35-.LFB35
 2788 0a2f 01       		.uleb128 0x1
 2789 0a30 9C       		.byte	0x9c
 2790 0a31 830A0000 		.4byte	0xa83
 2791 0a35 0A       		.uleb128 0xa
 2792 0a36 99020000 		.4byte	.LASF45
 2793 0a3a 01       		.byte	0x1
 2794 0a3b A5       		.byte	0xa5
 2795 0a3c 83000000 		.4byte	0x83
 2796 0a40 33060000 		.4byte	.LLST45
 2797 0a44 0B       		.uleb128 0xb
 2798 0a45 0E000000 		.4byte	.LVL162
 2799 0a49 ED090000 		.4byte	0x9ed
 2800 0a4d 5D0A0000 		.4byte	0xa5d
 2801 0a51 0C       		.uleb128 0xc
 2802 0a52 01       		.uleb128 0x1
 2803 0a53 51       		.byte	0x51
 2804 0a54 01       		.uleb128 0x1
 2805 0a55 30       		.byte	0x30
 2806 0a56 0C       		.uleb128 0xc
 2807 0a57 01       		.uleb128 0x1
 2808 0a58 50       		.byte	0x50
 2809 0a59 02       		.uleb128 0x2
 2810 0a5a 74       		.byte	0x74
 2811 0a5b 00       		.sleb128 0
 2812 0a5c 00       		.byte	0
 2813 0a5d 10       		.uleb128 0x10
 2814 0a5e 18000000 		.4byte	.LVL164
 2815 0a62 F1000000 		.4byte	0xf1
 2816 0a66 0B       		.uleb128 0xb
ARM GAS  C:\Users\glenn\AppData\Local\Temp\ccPcZrmN.s 			page 91


 2817 0a67 1E000000 		.4byte	.LVL165
 2818 0a6b A7070000 		.4byte	0x7a7
 2819 0a6f 790A0000 		.4byte	0xa79
 2820 0a73 0C       		.uleb128 0xc
 2821 0a74 01       		.uleb128 0x1
 2822 0a75 50       		.byte	0x50
 2823 0a76 01       		.uleb128 0x1
 2824 0a77 30       		.byte	0x30
 2825 0a78 00       		.byte	0
 2826 0a79 10       		.uleb128 0x10
 2827 0a7a 22000000 		.4byte	.LVL166
 2828 0a7e ED030000 		.4byte	0x3ed
 2829 0a82 00       		.byte	0
 2830 0a83 0E       		.uleb128 0xe
 2831 0a84 98070000 		.4byte	.LASF74
 2832 0a88 01       		.byte	0x1
 2833 0a89 7401     		.2byte	0x174
 2834 0a8b 00000000 		.4byte	.LFB38
 2835 0a8f 30000000 		.4byte	.LFE38-.LFB38
 2836 0a93 01       		.uleb128 0x1
 2837 0a94 9C       		.byte	0x9c
 2838 0a95 BE0A0000 		.4byte	0xabe
 2839 0a99 16       		.uleb128 0x16
 2840 0a9a 1B080000 		.4byte	.LASF75
 2841 0a9e 01       		.byte	0x1
 2842 0a9f 7701     		.2byte	0x177
 2843 0aa1 6B000000 		.4byte	0x6b
 2844 0aa5 05       		.uleb128 0x5
 2845 0aa6 03       		.byte	0x3
 2846 0aa7 07000000 		.4byte	CapSense_2_initVar.5178
 2847 0aab 10       		.uleb128 0x10
 2848 0aac 0E000000 		.4byte	.LVL168
 2849 0ab0 200A0000 		.4byte	0xa20
 2850 0ab4 10       		.uleb128 0x10
 2851 0ab5 18000000 		.4byte	.LVL169
 2852 0ab9 50010000 		.4byte	0x150
 2853 0abd 00       		.byte	0
 2854 0abe 18       		.uleb128 0x18
 2855 0abf 46000000 		.4byte	.LASF76
 2856 0ac3 01       		.byte	0x1
 2857 0ac4 2D       		.byte	0x2d
 2858 0ac5 B0000000 		.4byte	0xb0
 2859 0ac9 05       		.uleb128 0x5
 2860 0aca 03       		.byte	0x3
 2861 0acb 00000000 		.4byte	CapSense_2_csdStatusVar
 2862 0acf 18       		.uleb128 0x18
 2863 0ad0 04080000 		.4byte	.LASF77
 2864 0ad4 01       		.byte	0x1
 2865 0ad5 2E       		.byte	0x2e
 2866 0ad6 B0000000 		.4byte	0xb0
 2867 0ada 05       		.uleb128 0x5
 2868 0adb 03       		.byte	0x3
 2869 0adc 00000000 		.4byte	CapSense_2_sensorIndex
 2870 0ae0 19       		.uleb128 0x19
 2871 0ae1 77000000 		.4byte	0x77
 2872 0ae5 F00A0000 		.4byte	0xaf0
 2873 0ae9 1A       		.uleb128 0x1a
ARM GAS  C:\Users\glenn\AppData\Local\Temp\ccPcZrmN.s 			page 92


 2874 0aea D9000000 		.4byte	0xd9
 2875 0aee 00       		.byte	0
 2876 0aef 00       		.byte	0
 2877 0af0 18       		.uleb128 0x18
 2878 0af1 00000000 		.4byte	.LASF78
 2879 0af5 01       		.byte	0x1
 2880 0af6 31       		.byte	0x31
 2881 0af7 E00A0000 		.4byte	0xae0
 2882 0afb 05       		.uleb128 0x5
 2883 0afc 03       		.byte	0x3
 2884 0afd 00000000 		.4byte	CapSense_2_sensorRaw
 2885 0b01 19       		.uleb128 0x19
 2886 0b02 6B000000 		.4byte	0x6b
 2887 0b06 110B0000 		.4byte	0xb11
 2888 0b0a 1A       		.uleb128 0x1a
 2889 0b0b D9000000 		.4byte	0xd9
 2890 0b0f 00       		.byte	0
 2891 0b10 00       		.byte	0
 2892 0b11 18       		.uleb128 0x18
 2893 0b12 FC050000 		.4byte	.LASF79
 2894 0b16 01       		.byte	0x1
 2895 0b17 3B       		.byte	0x3b
 2896 0b18 010B0000 		.4byte	0xb01
 2897 0b1c 05       		.uleb128 0x5
 2898 0b1d 03       		.byte	0x3
 2899 0b1e 00000000 		.4byte	CapSense_2_unscannedSnsDriveMode
 2900 0b22 18       		.uleb128 0x18
 2901 0b23 6E020000 		.4byte	.LASF80
 2902 0b27 01       		.byte	0x1
 2903 0b28 3E       		.byte	0x3e
 2904 0b29 010B0000 		.4byte	0xb01
 2905 0b2d 05       		.uleb128 0x5
 2906 0b2e 03       		.byte	0x3
 2907 0b2f 00000000 		.4byte	CapSense_2_sensorEnableMaskBackup
 2908 0b33 18       		.uleb128 0x18
 2909 0b34 0E070000 		.4byte	.LASF81
 2910 0b38 01       		.byte	0x1
 2911 0b39 41       		.byte	0x41
 2912 0b3a 010B0000 		.4byte	0xb01
 2913 0b3e 05       		.uleb128 0x5
 2914 0b3f 03       		.byte	0x3
 2915 0b40 00000000 		.4byte	CapSense_2_sensorEnableMask
 2916 0b44 18       		.uleb128 0x18
 2917 0b45 F4060000 		.4byte	.LASF82
 2918 0b49 01       		.byte	0x1
 2919 0b4a 54       		.byte	0x54
 2920 0b4b 550B0000 		.4byte	0xb55
 2921 0b4f 05       		.uleb128 0x5
 2922 0b50 03       		.byte	0x3
 2923 0b51 00000000 		.4byte	CapSense_2_modulationIDAC
 2924 0b55 08       		.uleb128 0x8
 2925 0b56 010B0000 		.4byte	0xb01
 2926 0b5a 18       		.uleb128 0x18
 2927 0b5b D6040000 		.4byte	.LASF83
 2928 0b5f 01       		.byte	0x1
 2929 0b60 57       		.byte	0x57
 2930 0b61 6B0B0000 		.4byte	0xb6b
ARM GAS  C:\Users\glenn\AppData\Local\Temp\ccPcZrmN.s 			page 93


 2931 0b65 05       		.uleb128 0x5
 2932 0b66 03       		.byte	0x3
 2933 0b67 00000000 		.4byte	CapSense_2_compensationIDAC
 2934 0b6b 08       		.uleb128 0x8
 2935 0b6c 010B0000 		.4byte	0xb01
 2936 0b70 19       		.uleb128 0x19
 2937 0b71 83000000 		.4byte	0x83
 2938 0b75 800B0000 		.4byte	0xb80
 2939 0b79 1A       		.uleb128 0x1a
 2940 0b7a D9000000 		.4byte	0xd9
 2941 0b7e 00       		.byte	0
 2942 0b7f 00       		.byte	0
 2943 0b80 18       		.uleb128 0x18
 2944 0b81 75060000 		.4byte	.LASF84
 2945 0b85 01       		.byte	0x1
 2946 0b86 5B       		.byte	0x5b
 2947 0b87 910B0000 		.4byte	0xb91
 2948 0b8b 05       		.uleb128 0x5
 2949 0b8c 03       		.byte	0x3
 2950 0b8d 00000000 		.4byte	CapSense_2_widgetResolution
 2951 0b91 08       		.uleb128 0x8
 2952 0b92 700B0000 		.4byte	0xb70
 2953 0b96 18       		.uleb128 0x18
 2954 0b97 E6030000 		.4byte	.LASF85
 2955 0b9b 01       		.byte	0x1
 2956 0b9c 5F       		.byte	0x5f
 2957 0b9d A70B0000 		.4byte	0xba7
 2958 0ba1 05       		.uleb128 0x5
 2959 0ba2 03       		.byte	0x3
 2960 0ba3 00000000 		.4byte	CapSense_2_senseClkDividerVal
 2961 0ba7 08       		.uleb128 0x8
 2962 0ba8 010B0000 		.4byte	0xb01
 2963 0bac 18       		.uleb128 0x18
 2964 0bad B7040000 		.4byte	.LASF86
 2965 0bb1 01       		.byte	0x1
 2966 0bb2 62       		.byte	0x62
 2967 0bb3 BD0B0000 		.4byte	0xbbd
 2968 0bb7 05       		.uleb128 0x5
 2969 0bb8 03       		.byte	0x3
 2970 0bb9 00000000 		.4byte	CapSense_2_sampleClkDividerVal
 2971 0bbd 08       		.uleb128 0x8
 2972 0bbe 010B0000 		.4byte	0xb01
 2973 0bc2 18       		.uleb128 0x18
 2974 0bc3 3F070000 		.4byte	.LASF87
 2975 0bc7 01       		.byte	0x1
 2976 0bc8 67       		.byte	0x67
 2977 0bc9 D30B0000 		.4byte	0xbd3
 2978 0bcd 05       		.uleb128 0x5
 2979 0bce 03       		.byte	0x3
 2980 0bcf 00000000 		.4byte	CapSense_2_widgetNumber
 2981 0bd3 08       		.uleb128 0x8
 2982 0bd4 010B0000 		.4byte	0xb01
 2983 0bd8 19       		.uleb128 0x19
 2984 0bd9 E80B0000 		.4byte	0xbe8
 2985 0bdd E80B0000 		.4byte	0xbe8
 2986 0be1 1A       		.uleb128 0x1a
 2987 0be2 D9000000 		.4byte	0xd9
ARM GAS  C:\Users\glenn\AppData\Local\Temp\ccPcZrmN.s 			page 94


 2988 0be6 07       		.byte	0x7
 2989 0be7 00       		.byte	0
 2990 0be8 06       		.uleb128 0x6
 2991 0be9 04       		.byte	0x4
 2992 0bea EE0B0000 		.4byte	0xbee
 2993 0bee 05       		.uleb128 0x5
 2994 0bef 48000000 		.4byte	0x48
 2995 0bf3 18       		.uleb128 0x18
 2996 0bf4 2A070000 		.4byte	.LASF88
 2997 0bf8 01       		.byte	0x1
 2998 0bf9 6B       		.byte	0x6b
 2999 0bfa 040C0000 		.4byte	0xc04
 3000 0bfe 05       		.uleb128 0x5
 3001 0bff 03       		.byte	0x3
 3002 0c00 00000000 		.4byte	CapSense_2_prtSelTbl
 3003 0c04 08       		.uleb128 0x8
 3004 0c05 D80B0000 		.4byte	0xbd8
 3005 0c09 18       		.uleb128 0x18
 3006 0c0a B6030000 		.4byte	.LASF89
 3007 0c0e 01       		.byte	0x1
 3008 0c0f 76       		.byte	0x76
 3009 0c10 1A0C0000 		.4byte	0xc1a
 3010 0c14 05       		.uleb128 0x5
 3011 0c15 03       		.byte	0x3
 3012 0c16 00000000 		.4byte	CapSense_2_prtCfgTbl
 3013 0c1a 08       		.uleb128 0x8
 3014 0c1b D80B0000 		.4byte	0xbd8
 3015 0c1f 18       		.uleb128 0x18
 3016 0c20 F2080000 		.4byte	.LASF90
 3017 0c24 01       		.byte	0x1
 3018 0c25 81       		.byte	0x81
 3019 0c26 300C0000 		.4byte	0xc30
 3020 0c2a 05       		.uleb128 0x5
 3021 0c2b 03       		.byte	0x3
 3022 0c2c 00000000 		.4byte	CapSense_2_prtDRTbl
 3023 0c30 08       		.uleb128 0x8
 3024 0c31 D80B0000 		.4byte	0xbd8
 3025 0c35 19       		.uleb128 0x19
 3026 0c36 E80B0000 		.4byte	0xbe8
 3027 0c3a 450C0000 		.4byte	0xc45
 3028 0c3e 1A       		.uleb128 0x1a
 3029 0c3f D9000000 		.4byte	0xd9
 3030 0c43 00       		.byte	0
 3031 0c44 00       		.byte	0
 3032 0c45 18       		.uleb128 0x18
 3033 0c46 AD080000 		.4byte	.LASF91
 3034 0c4a 01       		.byte	0x1
 3035 0c4b 44       		.byte	0x44
 3036 0c4c 350C0000 		.4byte	0xc35
 3037 0c50 05       		.uleb128 0x5
 3038 0c51 03       		.byte	0x3
 3039 0c52 00000000 		.4byte	CapSense_2_pcTable
 3040 0c56 18       		.uleb128 0x18
 3041 0c57 45050000 		.4byte	.LASF92
 3042 0c5b 01       		.byte	0x1
 3043 0c5c 48       		.byte	0x48
 3044 0c5d 670C0000 		.4byte	0xc67
ARM GAS  C:\Users\glenn\AppData\Local\Temp\ccPcZrmN.s 			page 95


 3045 0c61 05       		.uleb128 0x5
 3046 0c62 03       		.byte	0x3
 3047 0c63 00000000 		.4byte	CapSense_2_portTable
 3048 0c67 08       		.uleb128 0x8
 3049 0c68 010B0000 		.4byte	0xb01
 3050 0c6c 18       		.uleb128 0x18
 3051 0c6d BC070000 		.4byte	.LASF93
 3052 0c71 01       		.byte	0x1
 3053 0c72 4C       		.byte	0x4c
 3054 0c73 7D0C0000 		.4byte	0xc7d
 3055 0c77 05       		.uleb128 0x5
 3056 0c78 03       		.byte	0x3
 3057 0c79 00000000 		.4byte	CapSense_2_maskTable
 3058 0c7d 08       		.uleb128 0x8
 3059 0c7e 700B0000 		.4byte	0xb70
 3060 0c82 18       		.uleb128 0x18
 3061 0c83 EB020000 		.4byte	.LASF94
 3062 0c87 01       		.byte	0x1
 3063 0c88 50       		.byte	0x50
 3064 0c89 930C0000 		.4byte	0xc93
 3065 0c8d 05       		.uleb128 0x5
 3066 0c8e 03       		.byte	0x3
 3067 0c8f 00000000 		.4byte	CapSense_2_pinShiftTbl
 3068 0c93 08       		.uleb128 0x8
 3069 0c94 010B0000 		.4byte	0xb01
 3070 0c98 18       		.uleb128 0x18
 3071 0c99 57070000 		.4byte	.LASF95
 3072 0c9d 01       		.byte	0x1
 3073 0c9e 37       		.byte	0x37
 3074 0c9f 6B000000 		.4byte	0x6b
 3075 0ca3 05       		.uleb128 0x5
 3076 0ca4 03       		.byte	0x3
 3077 0ca5 00000000 		.4byte	CapSense_2_csdTrim1
 3078 0ca9 1B       		.uleb128 0x1b
 3079 0caa E5000000 		.4byte	.LASF96
 3080 0cae 03       		.byte	0x3
 3081 0caf C3       		.byte	0xc3
 3082 0cb0 BA0C0000 		.4byte	0xcba
 3083 0cb4 1C       		.uleb128 0x1c
 3084 0cb5 6B000000 		.4byte	0x6b
 3085 0cb9 00       		.byte	0
 3086 0cba 1D       		.uleb128 0x1d
 3087 0cbb C0080000 		.4byte	.LASF110
 3088 0cbf 03       		.byte	0x3
 3089 0cc0 BB       		.byte	0xbb
 3090 0cc1 C6000000 		.4byte	0xc6
 3091 0cc5 D40C0000 		.4byte	0xcd4
 3092 0cc9 1C       		.uleb128 0x1c
 3093 0cca 6B000000 		.4byte	0x6b
 3094 0cce 1C       		.uleb128 0x1c
 3095 0ccf C6000000 		.4byte	0xc6
 3096 0cd3 00       		.byte	0
 3097 0cd4 1B       		.uleb128 0x1b
 3098 0cd5 A1010000 		.4byte	.LASF97
 3099 0cd9 03       		.byte	0x3
 3100 0cda BE       		.byte	0xbe
 3101 0cdb EA0C0000 		.4byte	0xcea
ARM GAS  C:\Users\glenn\AppData\Local\Temp\ccPcZrmN.s 			page 96


 3102 0cdf 1C       		.uleb128 0x1c
 3103 0ce0 6B000000 		.4byte	0x6b
 3104 0ce4 1C       		.uleb128 0x1c
 3105 0ce5 6B000000 		.4byte	0x6b
 3106 0ce9 00       		.byte	0
 3107 0cea 1E       		.uleb128 0x1e
 3108 0ceb 06090000 		.4byte	.LASF98
 3109 0cef 04       		.byte	0x4
 3110 0cf0 27       		.byte	0x27
 3111 0cf1 1E       		.uleb128 0x1e
 3112 0cf2 2C000000 		.4byte	.LASF99
 3113 0cf6 05       		.byte	0x5
 3114 0cf7 27       		.byte	0x27
 3115 0cf8 1B       		.uleb128 0x1b
 3116 0cf9 5A050000 		.4byte	.LASF100
 3117 0cfd 05       		.byte	0x5
 3118 0cfe 29       		.byte	0x29
 3119 0cff 0E0D0000 		.4byte	0xd0e
 3120 0d03 1C       		.uleb128 0x1c
 3121 0d04 77000000 		.4byte	0x77
 3122 0d08 1C       		.uleb128 0x1c
 3123 0d09 6B000000 		.4byte	0x6b
 3124 0d0d 00       		.byte	0
 3125 0d0e 1B       		.uleb128 0x1b
 3126 0d0f 5E000000 		.4byte	.LASF101
 3127 0d13 04       		.byte	0x4
 3128 0d14 29       		.byte	0x29
 3129 0d15 240D0000 		.4byte	0xd24
 3130 0d19 1C       		.uleb128 0x1c
 3131 0d1a 77000000 		.4byte	0x77
 3132 0d1e 1C       		.uleb128 0x1c
 3133 0d1f 6B000000 		.4byte	0x6b
 3134 0d23 00       		.byte	0
 3135 0d24 1B       		.uleb128 0x1b
 3136 0d25 70010000 		.4byte	.LASF102
 3137 0d29 05       		.byte	0x5
 3138 0d2a 1D       		.byte	0x1d
 3139 0d2b 350D0000 		.4byte	0xd35
 3140 0d2f 1C       		.uleb128 0x1c
 3141 0d30 83000000 		.4byte	0x83
 3142 0d34 00       		.byte	0
 3143 0d35 1B       		.uleb128 0x1b
 3144 0d36 38090000 		.4byte	.LASF103
 3145 0d3a 04       		.byte	0x4
 3146 0d3b 1D       		.byte	0x1d
 3147 0d3c 460D0000 		.4byte	0xd46
 3148 0d40 1C       		.uleb128 0x1c
 3149 0d41 83000000 		.4byte	0x83
 3150 0d45 00       		.byte	0
 3151 0d46 1B       		.uleb128 0x1b
 3152 0d47 E8060000 		.4byte	.LASF104
 3153 0d4b 03       		.byte	0x3
 3154 0d4c C1       		.byte	0xc1
 3155 0d4d 570D0000 		.4byte	0xd57
 3156 0d51 1C       		.uleb128 0x1c
 3157 0d52 6B000000 		.4byte	0x6b
 3158 0d56 00       		.byte	0
ARM GAS  C:\Users\glenn\AppData\Local\Temp\ccPcZrmN.s 			page 97


 3159 0d57 1F       		.uleb128 0x1f
 3160 0d58 CE000000 		.4byte	.LASF111
 3161 0d5c 03       		.byte	0x3
 3162 0d5d E3       		.byte	0xe3
 3163 0d5e 6B000000 		.4byte	0x6b
 3164 0d62 1B       		.uleb128 0x1b
 3165 0d63 B8000000 		.4byte	.LASF105
 3166 0d67 03       		.byte	0x3
 3167 0d68 E4       		.byte	0xe4
 3168 0d69 730D0000 		.4byte	0xd73
 3169 0d6d 1C       		.uleb128 0x1c
 3170 0d6e 6B000000 		.4byte	0x6b
 3171 0d72 00       		.byte	0
 3172 0d73 1B       		.uleb128 0x1b
 3173 0d74 CF080000 		.4byte	.LASF106
 3174 0d78 03       		.byte	0x3
 3175 0d79 C6       		.byte	0xc6
 3176 0d7a 840D0000 		.4byte	0xd84
 3177 0d7e 1C       		.uleb128 0x1c
 3178 0d7f 6B000000 		.4byte	0x6b
 3179 0d83 00       		.byte	0
 3180 0d84 20       		.uleb128 0x20
 3181 0d85 8A070000 		.4byte	.LASF112
 3182 0d89 03       		.byte	0x3
 3183 0d8a DA       		.byte	0xda
 3184 0d8b 1C       		.uleb128 0x1c
 3185 0d8c 83000000 		.4byte	0x83
 3186 0d90 00       		.byte	0
 3187 0d91 00       		.byte	0
 3188              		.section	.debug_abbrev,"",%progbits
 3189              	.Ldebug_abbrev0:
 3190 0000 01       		.uleb128 0x1
 3191 0001 11       		.uleb128 0x11
 3192 0002 01       		.byte	0x1
 3193 0003 25       		.uleb128 0x25
 3194 0004 0E       		.uleb128 0xe
 3195 0005 13       		.uleb128 0x13
 3196 0006 0B       		.uleb128 0xb
 3197 0007 03       		.uleb128 0x3
 3198 0008 0E       		.uleb128 0xe
 3199 0009 1B       		.uleb128 0x1b
 3200 000a 0E       		.uleb128 0xe
 3201 000b 55       		.uleb128 0x55
 3202 000c 17       		.uleb128 0x17
 3203 000d 11       		.uleb128 0x11
 3204 000e 01       		.uleb128 0x1
 3205 000f 10       		.uleb128 0x10
 3206 0010 17       		.uleb128 0x17
 3207 0011 00       		.byte	0
 3208 0012 00       		.byte	0
 3209 0013 02       		.uleb128 0x2
 3210 0014 24       		.uleb128 0x24
 3211 0015 00       		.byte	0
 3212 0016 0B       		.uleb128 0xb
 3213 0017 0B       		.uleb128 0xb
 3214 0018 3E       		.uleb128 0x3e
 3215 0019 0B       		.uleb128 0xb
ARM GAS  C:\Users\glenn\AppData\Local\Temp\ccPcZrmN.s 			page 98


 3216 001a 03       		.uleb128 0x3
 3217 001b 0E       		.uleb128 0xe
 3218 001c 00       		.byte	0
 3219 001d 00       		.byte	0
 3220 001e 03       		.uleb128 0x3
 3221 001f 24       		.uleb128 0x24
 3222 0020 00       		.byte	0
 3223 0021 0B       		.uleb128 0xb
 3224 0022 0B       		.uleb128 0xb
 3225 0023 3E       		.uleb128 0x3e
 3226 0024 0B       		.uleb128 0xb
 3227 0025 03       		.uleb128 0x3
 3228 0026 08       		.uleb128 0x8
 3229 0027 00       		.byte	0
 3230 0028 00       		.byte	0
 3231 0029 04       		.uleb128 0x4
 3232 002a 16       		.uleb128 0x16
 3233 002b 00       		.byte	0
 3234 002c 03       		.uleb128 0x3
 3235 002d 0E       		.uleb128 0xe
 3236 002e 3A       		.uleb128 0x3a
 3237 002f 0B       		.uleb128 0xb
 3238 0030 3B       		.uleb128 0x3b
 3239 0031 05       		.uleb128 0x5
 3240 0032 49       		.uleb128 0x49
 3241 0033 13       		.uleb128 0x13
 3242 0034 00       		.byte	0
 3243 0035 00       		.byte	0
 3244 0036 05       		.uleb128 0x5
 3245 0037 35       		.uleb128 0x35
 3246 0038 00       		.byte	0
 3247 0039 49       		.uleb128 0x49
 3248 003a 13       		.uleb128 0x13
 3249 003b 00       		.byte	0
 3250 003c 00       		.byte	0
 3251 003d 06       		.uleb128 0x6
 3252 003e 0F       		.uleb128 0xf
 3253 003f 00       		.byte	0
 3254 0040 0B       		.uleb128 0xb
 3255 0041 0B       		.uleb128 0xb
 3256 0042 49       		.uleb128 0x49
 3257 0043 13       		.uleb128 0x13
 3258 0044 00       		.byte	0
 3259 0045 00       		.byte	0
 3260 0046 07       		.uleb128 0x7
 3261 0047 15       		.uleb128 0x15
 3262 0048 00       		.byte	0
 3263 0049 27       		.uleb128 0x27
 3264 004a 19       		.uleb128 0x19
 3265 004b 00       		.byte	0
 3266 004c 00       		.byte	0
 3267 004d 08       		.uleb128 0x8
 3268 004e 26       		.uleb128 0x26
 3269 004f 00       		.byte	0
 3270 0050 49       		.uleb128 0x49
 3271 0051 13       		.uleb128 0x13
 3272 0052 00       		.byte	0
ARM GAS  C:\Users\glenn\AppData\Local\Temp\ccPcZrmN.s 			page 99


 3273 0053 00       		.byte	0
 3274 0054 09       		.uleb128 0x9
 3275 0055 2E       		.uleb128 0x2e
 3276 0056 01       		.byte	0x1
 3277 0057 3F       		.uleb128 0x3f
 3278 0058 19       		.uleb128 0x19
 3279 0059 03       		.uleb128 0x3
 3280 005a 0E       		.uleb128 0xe
 3281 005b 3A       		.uleb128 0x3a
 3282 005c 0B       		.uleb128 0xb
 3283 005d 3B       		.uleb128 0x3b
 3284 005e 0B       		.uleb128 0xb
 3285 005f 27       		.uleb128 0x27
 3286 0060 19       		.uleb128 0x19
 3287 0061 11       		.uleb128 0x11
 3288 0062 01       		.uleb128 0x1
 3289 0063 12       		.uleb128 0x12
 3290 0064 06       		.uleb128 0x6
 3291 0065 40       		.uleb128 0x40
 3292 0066 18       		.uleb128 0x18
 3293 0067 9742     		.uleb128 0x2117
 3294 0069 19       		.uleb128 0x19
 3295 006a 01       		.uleb128 0x1
 3296 006b 13       		.uleb128 0x13
 3297 006c 00       		.byte	0
 3298 006d 00       		.byte	0
 3299 006e 0A       		.uleb128 0xa
 3300 006f 34       		.uleb128 0x34
 3301 0070 00       		.byte	0
 3302 0071 03       		.uleb128 0x3
 3303 0072 0E       		.uleb128 0xe
 3304 0073 3A       		.uleb128 0x3a
 3305 0074 0B       		.uleb128 0xb
 3306 0075 3B       		.uleb128 0x3b
 3307 0076 0B       		.uleb128 0xb
 3308 0077 49       		.uleb128 0x49
 3309 0078 13       		.uleb128 0x13
 3310 0079 02       		.uleb128 0x2
 3311 007a 17       		.uleb128 0x17
 3312 007b 00       		.byte	0
 3313 007c 00       		.byte	0
 3314 007d 0B       		.uleb128 0xb
 3315 007e 898201   		.uleb128 0x4109
 3316 0081 01       		.byte	0x1
 3317 0082 11       		.uleb128 0x11
 3318 0083 01       		.uleb128 0x1
 3319 0084 31       		.uleb128 0x31
 3320 0085 13       		.uleb128 0x13
 3321 0086 01       		.uleb128 0x1
 3322 0087 13       		.uleb128 0x13
 3323 0088 00       		.byte	0
 3324 0089 00       		.byte	0
 3325 008a 0C       		.uleb128 0xc
 3326 008b 8A8201   		.uleb128 0x410a
 3327 008e 00       		.byte	0
 3328 008f 02       		.uleb128 0x2
 3329 0090 18       		.uleb128 0x18
ARM GAS  C:\Users\glenn\AppData\Local\Temp\ccPcZrmN.s 			page 100


 3330 0091 9142     		.uleb128 0x2111
 3331 0093 18       		.uleb128 0x18
 3332 0094 00       		.byte	0
 3333 0095 00       		.byte	0
 3334 0096 0D       		.uleb128 0xd
 3335 0097 898201   		.uleb128 0x4109
 3336 009a 01       		.byte	0x1
 3337 009b 11       		.uleb128 0x11
 3338 009c 01       		.uleb128 0x1
 3339 009d 31       		.uleb128 0x31
 3340 009e 13       		.uleb128 0x13
 3341 009f 00       		.byte	0
 3342 00a0 00       		.byte	0
 3343 00a1 0E       		.uleb128 0xe
 3344 00a2 2E       		.uleb128 0x2e
 3345 00a3 01       		.byte	0x1
 3346 00a4 3F       		.uleb128 0x3f
 3347 00a5 19       		.uleb128 0x19
 3348 00a6 03       		.uleb128 0x3
 3349 00a7 0E       		.uleb128 0xe
 3350 00a8 3A       		.uleb128 0x3a
 3351 00a9 0B       		.uleb128 0xb
 3352 00aa 3B       		.uleb128 0x3b
 3353 00ab 05       		.uleb128 0x5
 3354 00ac 27       		.uleb128 0x27
 3355 00ad 19       		.uleb128 0x19
 3356 00ae 11       		.uleb128 0x11
 3357 00af 01       		.uleb128 0x1
 3358 00b0 12       		.uleb128 0x12
 3359 00b1 06       		.uleb128 0x6
 3360 00b2 40       		.uleb128 0x40
 3361 00b3 18       		.uleb128 0x18
 3362 00b4 9742     		.uleb128 0x2117
 3363 00b6 19       		.uleb128 0x19
 3364 00b7 01       		.uleb128 0x1
 3365 00b8 13       		.uleb128 0x13
 3366 00b9 00       		.byte	0
 3367 00ba 00       		.byte	0
 3368 00bb 0F       		.uleb128 0xf
 3369 00bc 34       		.uleb128 0x34
 3370 00bd 00       		.byte	0
 3371 00be 03       		.uleb128 0x3
 3372 00bf 0E       		.uleb128 0xe
 3373 00c0 3A       		.uleb128 0x3a
 3374 00c1 0B       		.uleb128 0xb
 3375 00c2 3B       		.uleb128 0x3b
 3376 00c3 05       		.uleb128 0x5
 3377 00c4 49       		.uleb128 0x49
 3378 00c5 13       		.uleb128 0x13
 3379 00c6 02       		.uleb128 0x2
 3380 00c7 17       		.uleb128 0x17
 3381 00c8 00       		.byte	0
 3382 00c9 00       		.byte	0
 3383 00ca 10       		.uleb128 0x10
 3384 00cb 898201   		.uleb128 0x4109
 3385 00ce 00       		.byte	0
 3386 00cf 11       		.uleb128 0x11
ARM GAS  C:\Users\glenn\AppData\Local\Temp\ccPcZrmN.s 			page 101


 3387 00d0 01       		.uleb128 0x1
 3388 00d1 31       		.uleb128 0x31
 3389 00d2 13       		.uleb128 0x13
 3390 00d3 00       		.byte	0
 3391 00d4 00       		.byte	0
 3392 00d5 11       		.uleb128 0x11
 3393 00d6 2E       		.uleb128 0x2e
 3394 00d7 00       		.byte	0
 3395 00d8 3F       		.uleb128 0x3f
 3396 00d9 19       		.uleb128 0x19
 3397 00da 03       		.uleb128 0x3
 3398 00db 0E       		.uleb128 0xe
 3399 00dc 3A       		.uleb128 0x3a
 3400 00dd 0B       		.uleb128 0xb
 3401 00de 3B       		.uleb128 0x3b
 3402 00df 05       		.uleb128 0x5
 3403 00e0 27       		.uleb128 0x27
 3404 00e1 19       		.uleb128 0x19
 3405 00e2 49       		.uleb128 0x49
 3406 00e3 13       		.uleb128 0x13
 3407 00e4 11       		.uleb128 0x11
 3408 00e5 01       		.uleb128 0x1
 3409 00e6 12       		.uleb128 0x12
 3410 00e7 06       		.uleb128 0x6
 3411 00e8 40       		.uleb128 0x40
 3412 00e9 18       		.uleb128 0x18
 3413 00ea 9742     		.uleb128 0x2117
 3414 00ec 19       		.uleb128 0x19
 3415 00ed 00       		.byte	0
 3416 00ee 00       		.byte	0
 3417 00ef 12       		.uleb128 0x12
 3418 00f0 2E       		.uleb128 0x2e
 3419 00f1 01       		.byte	0x1
 3420 00f2 3F       		.uleb128 0x3f
 3421 00f3 19       		.uleb128 0x19
 3422 00f4 03       		.uleb128 0x3
 3423 00f5 0E       		.uleb128 0xe
 3424 00f6 3A       		.uleb128 0x3a
 3425 00f7 0B       		.uleb128 0xb
 3426 00f8 3B       		.uleb128 0x3b
 3427 00f9 05       		.uleb128 0x5
 3428 00fa 27       		.uleb128 0x27
 3429 00fb 19       		.uleb128 0x19
 3430 00fc 49       		.uleb128 0x49
 3431 00fd 13       		.uleb128 0x13
 3432 00fe 11       		.uleb128 0x11
 3433 00ff 01       		.uleb128 0x1
 3434 0100 12       		.uleb128 0x12
 3435 0101 06       		.uleb128 0x6
 3436 0102 40       		.uleb128 0x40
 3437 0103 18       		.uleb128 0x18
 3438 0104 9742     		.uleb128 0x2117
 3439 0106 19       		.uleb128 0x19
 3440 0107 01       		.uleb128 0x1
 3441 0108 13       		.uleb128 0x13
 3442 0109 00       		.byte	0
 3443 010a 00       		.byte	0
ARM GAS  C:\Users\glenn\AppData\Local\Temp\ccPcZrmN.s 			page 102


 3444 010b 13       		.uleb128 0x13
 3445 010c 05       		.uleb128 0x5
 3446 010d 00       		.byte	0
 3447 010e 03       		.uleb128 0x3
 3448 010f 0E       		.uleb128 0xe
 3449 0110 3A       		.uleb128 0x3a
 3450 0111 0B       		.uleb128 0xb
 3451 0112 3B       		.uleb128 0x3b
 3452 0113 05       		.uleb128 0x5
 3453 0114 49       		.uleb128 0x49
 3454 0115 13       		.uleb128 0x13
 3455 0116 02       		.uleb128 0x2
 3456 0117 17       		.uleb128 0x17
 3457 0118 00       		.byte	0
 3458 0119 00       		.byte	0
 3459 011a 14       		.uleb128 0x14
 3460 011b 05       		.uleb128 0x5
 3461 011c 00       		.byte	0
 3462 011d 03       		.uleb128 0x3
 3463 011e 0E       		.uleb128 0xe
 3464 011f 3A       		.uleb128 0x3a
 3465 0120 0B       		.uleb128 0xb
 3466 0121 3B       		.uleb128 0x3b
 3467 0122 05       		.uleb128 0x5
 3468 0123 49       		.uleb128 0x49
 3469 0124 13       		.uleb128 0x13
 3470 0125 02       		.uleb128 0x2
 3471 0126 18       		.uleb128 0x18
 3472 0127 00       		.byte	0
 3473 0128 00       		.byte	0
 3474 0129 15       		.uleb128 0x15
 3475 012a 34       		.uleb128 0x34
 3476 012b 00       		.byte	0
 3477 012c 03       		.uleb128 0x3
 3478 012d 0E       		.uleb128 0xe
 3479 012e 3A       		.uleb128 0x3a
 3480 012f 0B       		.uleb128 0xb
 3481 0130 3B       		.uleb128 0x3b
 3482 0131 05       		.uleb128 0x5
 3483 0132 49       		.uleb128 0x49
 3484 0133 13       		.uleb128 0x13
 3485 0134 1C       		.uleb128 0x1c
 3486 0135 0B       		.uleb128 0xb
 3487 0136 00       		.byte	0
 3488 0137 00       		.byte	0
 3489 0138 16       		.uleb128 0x16
 3490 0139 34       		.uleb128 0x34
 3491 013a 00       		.byte	0
 3492 013b 03       		.uleb128 0x3
 3493 013c 0E       		.uleb128 0xe
 3494 013d 3A       		.uleb128 0x3a
 3495 013e 0B       		.uleb128 0xb
 3496 013f 3B       		.uleb128 0x3b
 3497 0140 05       		.uleb128 0x5
 3498 0141 49       		.uleb128 0x49
 3499 0142 13       		.uleb128 0x13
 3500 0143 02       		.uleb128 0x2
ARM GAS  C:\Users\glenn\AppData\Local\Temp\ccPcZrmN.s 			page 103


 3501 0144 18       		.uleb128 0x18
 3502 0145 00       		.byte	0
 3503 0146 00       		.byte	0
 3504 0147 17       		.uleb128 0x17
 3505 0148 34       		.uleb128 0x34
 3506 0149 00       		.byte	0
 3507 014a 03       		.uleb128 0x3
 3508 014b 0E       		.uleb128 0xe
 3509 014c 3A       		.uleb128 0x3a
 3510 014d 0B       		.uleb128 0xb
 3511 014e 3B       		.uleb128 0x3b
 3512 014f 05       		.uleb128 0x5
 3513 0150 49       		.uleb128 0x49
 3514 0151 13       		.uleb128 0x13
 3515 0152 1C       		.uleb128 0x1c
 3516 0153 0D       		.uleb128 0xd
 3517 0154 00       		.byte	0
 3518 0155 00       		.byte	0
 3519 0156 18       		.uleb128 0x18
 3520 0157 34       		.uleb128 0x34
 3521 0158 00       		.byte	0
 3522 0159 03       		.uleb128 0x3
 3523 015a 0E       		.uleb128 0xe
 3524 015b 3A       		.uleb128 0x3a
 3525 015c 0B       		.uleb128 0xb
 3526 015d 3B       		.uleb128 0x3b
 3527 015e 0B       		.uleb128 0xb
 3528 015f 49       		.uleb128 0x49
 3529 0160 13       		.uleb128 0x13
 3530 0161 3F       		.uleb128 0x3f
 3531 0162 19       		.uleb128 0x19
 3532 0163 02       		.uleb128 0x2
 3533 0164 18       		.uleb128 0x18
 3534 0165 00       		.byte	0
 3535 0166 00       		.byte	0
 3536 0167 19       		.uleb128 0x19
 3537 0168 01       		.uleb128 0x1
 3538 0169 01       		.byte	0x1
 3539 016a 49       		.uleb128 0x49
 3540 016b 13       		.uleb128 0x13
 3541 016c 01       		.uleb128 0x1
 3542 016d 13       		.uleb128 0x13
 3543 016e 00       		.byte	0
 3544 016f 00       		.byte	0
 3545 0170 1A       		.uleb128 0x1a
 3546 0171 21       		.uleb128 0x21
 3547 0172 00       		.byte	0
 3548 0173 49       		.uleb128 0x49
 3549 0174 13       		.uleb128 0x13
 3550 0175 2F       		.uleb128 0x2f
 3551 0176 0B       		.uleb128 0xb
 3552 0177 00       		.byte	0
 3553 0178 00       		.byte	0
 3554 0179 1B       		.uleb128 0x1b
 3555 017a 2E       		.uleb128 0x2e
 3556 017b 01       		.byte	0x1
 3557 017c 3F       		.uleb128 0x3f
ARM GAS  C:\Users\glenn\AppData\Local\Temp\ccPcZrmN.s 			page 104


 3558 017d 19       		.uleb128 0x19
 3559 017e 03       		.uleb128 0x3
 3560 017f 0E       		.uleb128 0xe
 3561 0180 3A       		.uleb128 0x3a
 3562 0181 0B       		.uleb128 0xb
 3563 0182 3B       		.uleb128 0x3b
 3564 0183 0B       		.uleb128 0xb
 3565 0184 27       		.uleb128 0x27
 3566 0185 19       		.uleb128 0x19
 3567 0186 3C       		.uleb128 0x3c
 3568 0187 19       		.uleb128 0x19
 3569 0188 01       		.uleb128 0x1
 3570 0189 13       		.uleb128 0x13
 3571 018a 00       		.byte	0
 3572 018b 00       		.byte	0
 3573 018c 1C       		.uleb128 0x1c
 3574 018d 05       		.uleb128 0x5
 3575 018e 00       		.byte	0
 3576 018f 49       		.uleb128 0x49
 3577 0190 13       		.uleb128 0x13
 3578 0191 00       		.byte	0
 3579 0192 00       		.byte	0
 3580 0193 1D       		.uleb128 0x1d
 3581 0194 2E       		.uleb128 0x2e
 3582 0195 01       		.byte	0x1
 3583 0196 3F       		.uleb128 0x3f
 3584 0197 19       		.uleb128 0x19
 3585 0198 03       		.uleb128 0x3
 3586 0199 0E       		.uleb128 0xe
 3587 019a 3A       		.uleb128 0x3a
 3588 019b 0B       		.uleb128 0xb
 3589 019c 3B       		.uleb128 0x3b
 3590 019d 0B       		.uleb128 0xb
 3591 019e 27       		.uleb128 0x27
 3592 019f 19       		.uleb128 0x19
 3593 01a0 49       		.uleb128 0x49
 3594 01a1 13       		.uleb128 0x13
 3595 01a2 3C       		.uleb128 0x3c
 3596 01a3 19       		.uleb128 0x19
 3597 01a4 01       		.uleb128 0x1
 3598 01a5 13       		.uleb128 0x13
 3599 01a6 00       		.byte	0
 3600 01a7 00       		.byte	0
 3601 01a8 1E       		.uleb128 0x1e
 3602 01a9 2E       		.uleb128 0x2e
 3603 01aa 00       		.byte	0
 3604 01ab 3F       		.uleb128 0x3f
 3605 01ac 19       		.uleb128 0x19
 3606 01ad 03       		.uleb128 0x3
 3607 01ae 0E       		.uleb128 0xe
 3608 01af 3A       		.uleb128 0x3a
 3609 01b0 0B       		.uleb128 0xb
 3610 01b1 3B       		.uleb128 0x3b
 3611 01b2 0B       		.uleb128 0xb
 3612 01b3 27       		.uleb128 0x27
 3613 01b4 19       		.uleb128 0x19
 3614 01b5 3C       		.uleb128 0x3c
ARM GAS  C:\Users\glenn\AppData\Local\Temp\ccPcZrmN.s 			page 105


 3615 01b6 19       		.uleb128 0x19
 3616 01b7 00       		.byte	0
 3617 01b8 00       		.byte	0
 3618 01b9 1F       		.uleb128 0x1f
 3619 01ba 2E       		.uleb128 0x2e
 3620 01bb 00       		.byte	0
 3621 01bc 3F       		.uleb128 0x3f
 3622 01bd 19       		.uleb128 0x19
 3623 01be 03       		.uleb128 0x3
 3624 01bf 0E       		.uleb128 0xe
 3625 01c0 3A       		.uleb128 0x3a
 3626 01c1 0B       		.uleb128 0xb
 3627 01c2 3B       		.uleb128 0x3b
 3628 01c3 0B       		.uleb128 0xb
 3629 01c4 27       		.uleb128 0x27
 3630 01c5 19       		.uleb128 0x19
 3631 01c6 49       		.uleb128 0x49
 3632 01c7 13       		.uleb128 0x13
 3633 01c8 3C       		.uleb128 0x3c
 3634 01c9 19       		.uleb128 0x19
 3635 01ca 00       		.byte	0
 3636 01cb 00       		.byte	0
 3637 01cc 20       		.uleb128 0x20
 3638 01cd 2E       		.uleb128 0x2e
 3639 01ce 01       		.byte	0x1
 3640 01cf 3F       		.uleb128 0x3f
 3641 01d0 19       		.uleb128 0x19
 3642 01d1 03       		.uleb128 0x3
 3643 01d2 0E       		.uleb128 0xe
 3644 01d3 3A       		.uleb128 0x3a
 3645 01d4 0B       		.uleb128 0xb
 3646 01d5 3B       		.uleb128 0x3b
 3647 01d6 0B       		.uleb128 0xb
 3648 01d7 27       		.uleb128 0x27
 3649 01d8 19       		.uleb128 0x19
 3650 01d9 3C       		.uleb128 0x3c
 3651 01da 19       		.uleb128 0x19
 3652 01db 00       		.byte	0
 3653 01dc 00       		.byte	0
 3654 01dd 00       		.byte	0
 3655              		.section	.debug_loc,"",%progbits
 3656              	.Ldebug_loc0:
 3657              	.LLST0:
 3658 0000 0C000000 		.4byte	.LVL0
 3659 0004 10000000 		.4byte	.LVL1
 3660 0008 0100     		.2byte	0x1
 3661 000a 53       		.byte	0x53
 3662 000b 12000000 		.4byte	.LVL2
 3663 000f 1C000000 		.4byte	.LVL3
 3664 0013 0100     		.2byte	0x1
 3665 0015 51       		.byte	0x51
 3666 0016 1C000000 		.4byte	.LVL3
 3667 001a 20000000 		.4byte	.LVL4
 3668 001e 0100     		.2byte	0x1
 3669 0020 53       		.byte	0x53
 3670 0021 22000000 		.4byte	.LVL5
 3671 0025 28000000 		.4byte	.LVL6
ARM GAS  C:\Users\glenn\AppData\Local\Temp\ccPcZrmN.s 			page 106


 3672 0029 0100     		.2byte	0x1
 3673 002b 52       		.byte	0x52
 3674 002c 28000000 		.4byte	.LVL6
 3675 0030 2E000000 		.4byte	.LVL7
 3676 0034 0100     		.2byte	0x1
 3677 0036 53       		.byte	0x53
 3678 0037 2E000000 		.4byte	.LVL7
 3679 003b 30000000 		.4byte	.LVL8
 3680 003f 0200     		.2byte	0x2
 3681 0041 70       		.byte	0x70
 3682 0042 00       		.sleb128 0
 3683 0043 3A000000 		.4byte	.LVL9
 3684 0047 3E000000 		.4byte	.LVL10
 3685 004b 0100     		.2byte	0x1
 3686 004d 51       		.byte	0x51
 3687 004e 3E000000 		.4byte	.LVL10
 3688 0052 4B000000 		.4byte	.LVL12-1
 3689 0056 0100     		.2byte	0x1
 3690 0058 53       		.byte	0x53
 3691 0059 00000000 		.4byte	0
 3692 005d 00000000 		.4byte	0
 3693              	.LLST1:
 3694 0061 2A000000 		.4byte	.LVL21
 3695 0065 35000000 		.4byte	.LVL23-1
 3696 0069 0100     		.2byte	0x1
 3697 006b 53       		.byte	0x53
 3698 006c 00000000 		.4byte	0
 3699 0070 00000000 		.4byte	0
 3700              	.LLST2:
 3701 0074 00000000 		.4byte	.LVL27
 3702 0078 02000000 		.4byte	.LVL28
 3703 007c 0100     		.2byte	0x1
 3704 007e 50       		.byte	0x50
 3705 007f 02000000 		.4byte	.LVL28
 3706 0083 10000000 		.4byte	.LFE44
 3707 0087 0400     		.2byte	0x4
 3708 0089 F3       		.byte	0xf3
 3709 008a 01       		.uleb128 0x1
 3710 008b 50       		.byte	0x50
 3711 008c 9F       		.byte	0x9f
 3712 008d 00000000 		.4byte	0
 3713 0091 00000000 		.4byte	0
 3714              	.LLST3:
 3715 0095 00000000 		.4byte	.LVL29
 3716 0099 02000000 		.4byte	.LVL30
 3717 009d 0100     		.2byte	0x1
 3718 009f 50       		.byte	0x50
 3719 00a0 02000000 		.4byte	.LVL30
 3720 00a4 10000000 		.4byte	.LFE45
 3721 00a8 0400     		.2byte	0x4
 3722 00aa F3       		.byte	0xf3
 3723 00ab 01       		.uleb128 0x1
 3724 00ac 50       		.byte	0x50
 3725 00ad 9F       		.byte	0x9f
 3726 00ae 00000000 		.4byte	0
 3727 00b2 00000000 		.4byte	0
 3728              	.LLST4:
ARM GAS  C:\Users\glenn\AppData\Local\Temp\ccPcZrmN.s 			page 107


 3729 00b6 00000000 		.4byte	.LVL31
 3730 00ba 02000000 		.4byte	.LVL32
 3731 00be 0100     		.2byte	0x1
 3732 00c0 50       		.byte	0x50
 3733 00c1 02000000 		.4byte	.LVL32
 3734 00c5 08000000 		.4byte	.LFE46
 3735 00c9 0400     		.2byte	0x4
 3736 00cb F3       		.byte	0xf3
 3737 00cc 01       		.uleb128 0x1
 3738 00cd 50       		.byte	0x50
 3739 00ce 9F       		.byte	0x9f
 3740 00cf 00000000 		.4byte	0
 3741 00d3 00000000 		.4byte	0
 3742              	.LLST5:
 3743 00d7 00000000 		.4byte	.LVL33
 3744 00db 05000000 		.4byte	.LVL35-1
 3745 00df 0100     		.2byte	0x1
 3746 00e1 50       		.byte	0x50
 3747 00e2 05000000 		.4byte	.LVL35-1
 3748 00e6 2C000000 		.4byte	.LFE48
 3749 00ea 0400     		.2byte	0x4
 3750 00ec F3       		.byte	0xf3
 3751 00ed 01       		.uleb128 0x1
 3752 00ee 50       		.byte	0x50
 3753 00ef 9F       		.byte	0x9f
 3754 00f0 00000000 		.4byte	0
 3755 00f4 00000000 		.4byte	0
 3756              	.LLST6:
 3757 00f8 06000000 		.4byte	.LVL35
 3758 00fc 21000000 		.4byte	.LVL39-1
 3759 0100 0100     		.2byte	0x1
 3760 0102 50       		.byte	0x50
 3761 0103 00000000 		.4byte	0
 3762 0107 00000000 		.4byte	0
 3763              	.LLST7:
 3764 010b 0A000000 		.4byte	.LVL36
 3765 010f 21000000 		.4byte	.LVL39-1
 3766 0113 0100     		.2byte	0x1
 3767 0115 53       		.byte	0x53
 3768 0116 00000000 		.4byte	0
 3769 011a 00000000 		.4byte	0
 3770              	.LLST8:
 3771 011e 00000000 		.4byte	.LVL40
 3772 0122 0C000000 		.4byte	.LVL43
 3773 0126 0100     		.2byte	0x1
 3774 0128 50       		.byte	0x50
 3775 0129 0C000000 		.4byte	.LVL43
 3776 012d 54000000 		.4byte	.LFE49
 3777 0131 0400     		.2byte	0x4
 3778 0133 F3       		.byte	0xf3
 3779 0134 01       		.uleb128 0x1
 3780 0135 50       		.byte	0x50
 3781 0136 9F       		.byte	0x9f
 3782 0137 00000000 		.4byte	0
 3783 013b 00000000 		.4byte	0
 3784              	.LLST9:
 3785 013f 24000000 		.4byte	.LVL46
ARM GAS  C:\Users\glenn\AppData\Local\Temp\ccPcZrmN.s 			page 108


 3786 0143 37000000 		.4byte	.LVL51-1
 3787 0147 0100     		.2byte	0x1
 3788 0149 50       		.byte	0x50
 3789 014a 00000000 		.4byte	0
 3790 014e 00000000 		.4byte	0
 3791              	.LLST10:
 3792 0152 28000000 		.4byte	.LVL47
 3793 0156 2C000000 		.4byte	.LVL48
 3794 015a 0100     		.2byte	0x1
 3795 015c 53       		.byte	0x53
 3796 015d 2E000000 		.4byte	.LVL49
 3797 0161 32000000 		.4byte	.LVL50
 3798 0165 0100     		.2byte	0x1
 3799 0167 52       		.byte	0x52
 3800 0168 32000000 		.4byte	.LVL50
 3801 016c 37000000 		.4byte	.LVL51-1
 3802 0170 0100     		.2byte	0x1
 3803 0172 53       		.byte	0x53
 3804 0173 00000000 		.4byte	0
 3805 0177 00000000 		.4byte	0
 3806              	.LLST11:
 3807 017b 02000000 		.4byte	.LVL41
 3808 017f 20000000 		.4byte	.LVL45
 3809 0183 0200     		.2byte	0x2
 3810 0185 30       		.byte	0x30
 3811 0186 9F       		.byte	0x9f
 3812 0187 20000000 		.4byte	.LVL45
 3813 018b 42000000 		.4byte	.LVL52
 3814 018f 0100     		.2byte	0x1
 3815 0191 54       		.byte	0x54
 3816 0192 00000000 		.4byte	0
 3817 0196 00000000 		.4byte	0
 3818              	.LLST12:
 3819 019a 06000000 		.4byte	.LVL42
 3820 019e 23000000 		.4byte	.LVL46-1
 3821 01a2 0100     		.2byte	0x1
 3822 01a4 52       		.byte	0x52
 3823 01a5 00000000 		.4byte	0
 3824 01a9 00000000 		.4byte	0
 3825              	.LLST13:
 3826 01ad 02000000 		.4byte	.LVL53
 3827 01b1 06000000 		.4byte	.LVL54
 3828 01b5 0200     		.2byte	0x2
 3829 01b7 30       		.byte	0x30
 3830 01b8 9F       		.byte	0x9f
 3831 01b9 06000000 		.4byte	.LVL54
 3832 01bd 12000000 		.4byte	.LVL57
 3833 01c1 0100     		.2byte	0x1
 3834 01c3 54       		.byte	0x54
 3835 01c4 00000000 		.4byte	0
 3836 01c8 00000000 		.4byte	0
 3837              	.LLST14:
 3838 01cc 00000000 		.4byte	.LVL58
 3839 01d0 16000000 		.4byte	.LVL63
 3840 01d4 0100     		.2byte	0x1
 3841 01d6 50       		.byte	0x50
 3842 01d7 16000000 		.4byte	.LVL63
ARM GAS  C:\Users\glenn\AppData\Local\Temp\ccPcZrmN.s 			page 109


 3843 01db 20000000 		.4byte	.LFE52
 3844 01df 0400     		.2byte	0x4
 3845 01e1 F3       		.byte	0xf3
 3846 01e2 01       		.uleb128 0x1
 3847 01e3 50       		.byte	0x50
 3848 01e4 9F       		.byte	0x9f
 3849 01e5 00000000 		.4byte	0
 3850 01e9 00000000 		.4byte	0
 3851              	.LLST15:
 3852 01ed 00000000 		.4byte	.LVL58
 3853 01f1 06000000 		.4byte	.LVL59
 3854 01f5 0100     		.2byte	0x1
 3855 01f7 51       		.byte	0x51
 3856 01f8 06000000 		.4byte	.LVL59
 3857 01fc 20000000 		.4byte	.LFE52
 3858 0200 0400     		.2byte	0x4
 3859 0202 F3       		.byte	0xf3
 3860 0203 01       		.uleb128 0x1
 3861 0204 51       		.byte	0x51
 3862 0205 9F       		.byte	0x9f
 3863 0206 00000000 		.4byte	0
 3864 020a 00000000 		.4byte	0
 3865              	.LLST16:
 3866 020e 00000000 		.4byte	.LVL58
 3867 0212 08000000 		.4byte	.LVL60
 3868 0216 0100     		.2byte	0x1
 3869 0218 52       		.byte	0x52
 3870 0219 08000000 		.4byte	.LVL60
 3871 021d 20000000 		.4byte	.LFE52
 3872 0221 0400     		.2byte	0x4
 3873 0223 F3       		.byte	0xf3
 3874 0224 01       		.uleb128 0x1
 3875 0225 52       		.byte	0x52
 3876 0226 9F       		.byte	0x9f
 3877 0227 00000000 		.4byte	0
 3878 022b 00000000 		.4byte	0
 3879              	.LLST17:
 3880 022f 0E000000 		.4byte	.LVL61
 3881 0233 18000000 		.4byte	.LVL64
 3882 0237 0100     		.2byte	0x1
 3883 0239 53       		.byte	0x53
 3884 023a 18000000 		.4byte	.LVL64
 3885 023e 20000000 		.4byte	.LFE52
 3886 0242 0100     		.2byte	0x1
 3887 0244 50       		.byte	0x50
 3888 0245 00000000 		.4byte	0
 3889 0249 00000000 		.4byte	0
 3890              	.LLST18:
 3891 024d 00000000 		.4byte	.LVL65
 3892 0251 08000000 		.4byte	.LVL67
 3893 0255 0100     		.2byte	0x1
 3894 0257 50       		.byte	0x50
 3895 0258 08000000 		.4byte	.LVL67
 3896 025c 24000000 		.4byte	.LVL73
 3897 0260 0100     		.2byte	0x1
 3898 0262 55       		.byte	0x55
 3899 0263 24000000 		.4byte	.LVL73
ARM GAS  C:\Users\glenn\AppData\Local\Temp\ccPcZrmN.s 			page 110


 3900 0267 26000000 		.4byte	.LFE50
 3901 026b 0400     		.2byte	0x4
 3902 026d F3       		.byte	0xf3
 3903 026e 01       		.uleb128 0x1
 3904 026f 50       		.byte	0x50
 3905 0270 9F       		.byte	0x9f
 3906 0271 00000000 		.4byte	0
 3907 0275 00000000 		.4byte	0
 3908              	.LLST19:
 3909 0279 04000000 		.4byte	.LVL66
 3910 027d 08000000 		.4byte	.LVL67
 3911 0281 0200     		.2byte	0x2
 3912 0283 30       		.byte	0x30
 3913 0284 9F       		.byte	0x9f
 3914 0285 08000000 		.4byte	.LVL67
 3915 0289 14000000 		.4byte	.LVL69
 3916 028d 0100     		.2byte	0x1
 3917 028f 54       		.byte	0x54
 3918 0290 16000000 		.4byte	.LVL70
 3919 0294 24000000 		.4byte	.LVL72
 3920 0298 0100     		.2byte	0x1
 3921 029a 54       		.byte	0x54
 3922 029b 00000000 		.4byte	0
 3923 029f 00000000 		.4byte	0
 3924              	.LLST20:
 3925 02a3 08000000 		.4byte	.LVL67
 3926 02a7 16000000 		.4byte	.LVL70
 3927 02ab 0200     		.2byte	0x2
 3928 02ad 34       		.byte	0x34
 3929 02ae 9F       		.byte	0x9f
 3930 02af 00000000 		.4byte	0
 3931 02b3 00000000 		.4byte	0
 3932              	.LLST21:
 3933 02b7 08000000 		.4byte	.LVL67
 3934 02bb 16000000 		.4byte	.LVL70
 3935 02bf 0200     		.2byte	0x2
 3936 02c1 31       		.byte	0x31
 3937 02c2 9F       		.byte	0x9f
 3938 02c3 00000000 		.4byte	0
 3939 02c7 00000000 		.4byte	0
 3940              	.LLST22:
 3941 02cb 0C000000 		.4byte	.LVL75
 3942 02cf 10000000 		.4byte	.LVL76
 3943 02d3 0100     		.2byte	0x1
 3944 02d5 51       		.byte	0x51
 3945 02d6 10000000 		.4byte	.LVL76
 3946 02da 24000000 		.4byte	.LFE51
 3947 02de 0100     		.2byte	0x1
 3948 02e0 53       		.byte	0x53
 3949 02e1 00000000 		.4byte	0
 3950 02e5 00000000 		.4byte	0
 3951              	.LLST23:
 3952 02e9 00000000 		.4byte	.LVL78
 3953 02ed 07000000 		.4byte	.LVL80-1
 3954 02f1 0100     		.2byte	0x1
 3955 02f3 50       		.byte	0x50
 3956 02f4 07000000 		.4byte	.LVL80-1
ARM GAS  C:\Users\glenn\AppData\Local\Temp\ccPcZrmN.s 			page 111


 3957 02f8 82000000 		.4byte	.LVL99
 3958 02fc 0100     		.2byte	0x1
 3959 02fe 54       		.byte	0x54
 3960 02ff 82000000 		.4byte	.LVL99
 3961 0303 BC000000 		.4byte	.LFE53
 3962 0307 0400     		.2byte	0x4
 3963 0309 F3       		.byte	0xf3
 3964 030a 01       		.uleb128 0x1
 3965 030b 50       		.byte	0x50
 3966 030c 9F       		.byte	0x9f
 3967 030d 00000000 		.4byte	0
 3968 0311 00000000 		.4byte	0
 3969              	.LLST24:
 3970 0315 82000000 		.4byte	.LVL99
 3971 0319 96000000 		.4byte	.LVL102
 3972 031d 0100     		.2byte	0x1
 3973 031f 54       		.byte	0x54
 3974 0320 00000000 		.4byte	0
 3975 0324 00000000 		.4byte	0
 3976              	.LLST25:
 3977 0328 5A000000 		.4byte	.LVL90
 3978 032c 5E000000 		.4byte	.LVL91
 3979 0330 0100     		.2byte	0x1
 3980 0332 51       		.byte	0x51
 3981 0333 5E000000 		.4byte	.LVL91
 3982 0337 68000000 		.4byte	.LVL93
 3983 033b 0100     		.2byte	0x1
 3984 033d 53       		.byte	0x53
 3985 033e 68000000 		.4byte	.LVL93
 3986 0342 96000000 		.4byte	.LVL103
 3987 0346 0100     		.2byte	0x1
 3988 0348 55       		.byte	0x55
 3989 0349 00000000 		.4byte	0
 3990 034d 00000000 		.4byte	0
 3991              	.LLST26:
 3992 0351 00000000 		.4byte	.LVL104
 3993 0355 13000000 		.4byte	.LVL105-1
 3994 0359 0100     		.2byte	0x1
 3995 035b 50       		.byte	0x50
 3996 035c 13000000 		.4byte	.LVL105-1
 3997 0360 1C000000 		.4byte	.LFE41
 3998 0364 0400     		.2byte	0x4
 3999 0366 F3       		.byte	0xf3
 4000 0367 01       		.uleb128 0x1
 4001 0368 50       		.byte	0x50
 4002 0369 9F       		.byte	0x9f
 4003 036a 00000000 		.4byte	0
 4004 036e 00000000 		.4byte	0
 4005              	.LLST27:
 4006 0372 00000000 		.4byte	.LVL106
 4007 0376 11000000 		.4byte	.LVL107-1
 4008 037a 0100     		.2byte	0x1
 4009 037c 50       		.byte	0x50
 4010 037d 11000000 		.4byte	.LVL107-1
 4011 0381 54000000 		.4byte	.LFE54
 4012 0385 0400     		.2byte	0x4
 4013 0387 F3       		.byte	0xf3
ARM GAS  C:\Users\glenn\AppData\Local\Temp\ccPcZrmN.s 			page 112


 4014 0388 01       		.uleb128 0x1
 4015 0389 50       		.byte	0x50
 4016 038a 9F       		.byte	0x9f
 4017 038b 00000000 		.4byte	0
 4018 038f 00000000 		.4byte	0
 4019              	.LLST28:
 4020 0393 1C000000 		.4byte	.LVL109
 4021 0397 20000000 		.4byte	.LVL110
 4022 039b 0100     		.2byte	0x1
 4023 039d 51       		.byte	0x51
 4024 039e 20000000 		.4byte	.LVL110
 4025 03a2 2E000000 		.4byte	.LVL112
 4026 03a6 0100     		.2byte	0x1
 4027 03a8 53       		.byte	0x53
 4028 03a9 2E000000 		.4byte	.LVL112
 4029 03ad 32000000 		.4byte	.LVL113
 4030 03b1 0500     		.2byte	0x5
 4031 03b3 0C       		.byte	0xc
 4032 03b4 04002840 		.4byte	0x40280004
 4033 03b8 00000000 		.4byte	0
 4034 03bc 00000000 		.4byte	0
 4035              	.LLST29:
 4036 03c0 00000000 		.4byte	.LVL115
 4037 03c4 1E000000 		.4byte	.LVL118
 4038 03c8 0100     		.2byte	0x1
 4039 03ca 50       		.byte	0x50
 4040 03cb 1E000000 		.4byte	.LVL118
 4041 03cf 34000000 		.4byte	.LFE55
 4042 03d3 0400     		.2byte	0x4
 4043 03d5 F3       		.byte	0xf3
 4044 03d6 01       		.uleb128 0x1
 4045 03d7 50       		.byte	0x50
 4046 03d8 9F       		.byte	0x9f
 4047 03d9 00000000 		.4byte	0
 4048 03dd 00000000 		.4byte	0
 4049              	.LLST30:
 4050 03e1 00000000 		.4byte	.LVL115
 4051 03e5 06000000 		.4byte	.LVL116
 4052 03e9 0100     		.2byte	0x1
 4053 03eb 51       		.byte	0x51
 4054 03ec 06000000 		.4byte	.LVL116
 4055 03f0 34000000 		.4byte	.LFE55
 4056 03f4 0400     		.2byte	0x4
 4057 03f6 F3       		.byte	0xf3
 4058 03f7 01       		.uleb128 0x1
 4059 03f8 51       		.byte	0x51
 4060 03f9 9F       		.byte	0x9f
 4061 03fa 00000000 		.4byte	0
 4062 03fe 00000000 		.4byte	0
 4063              	.LLST31:
 4064 0402 1C000000 		.4byte	.LVL117
 4065 0406 2C000000 		.4byte	.LVL120
 4066 040a 0100     		.2byte	0x1
 4067 040c 53       		.byte	0x53
 4068 040d 2C000000 		.4byte	.LVL120
 4069 0411 34000000 		.4byte	.LFE55
 4070 0415 0100     		.2byte	0x1
ARM GAS  C:\Users\glenn\AppData\Local\Temp\ccPcZrmN.s 			page 113


 4071 0417 50       		.byte	0x50
 4072 0418 00000000 		.4byte	0
 4073 041c 00000000 		.4byte	0
 4074              	.LLST32:
 4075 0420 00000000 		.4byte	.LVL121
 4076 0424 04000000 		.4byte	.LVL122
 4077 0428 0100     		.2byte	0x1
 4078 042a 50       		.byte	0x50
 4079 042b 04000000 		.4byte	.LVL122
 4080 042f 0A000000 		.4byte	.LVL124
 4081 0433 0100     		.2byte	0x1
 4082 0435 50       		.byte	0x50
 4083 0436 0A000000 		.4byte	.LVL124
 4084 043a 14000000 		.4byte	.LFE56
 4085 043e 0600     		.2byte	0x6
 4086 0440 F3       		.byte	0xf3
 4087 0441 01       		.uleb128 0x1
 4088 0442 50       		.byte	0x50
 4089 0443 33       		.byte	0x33
 4090 0444 1A       		.byte	0x1a
 4091 0445 9F       		.byte	0x9f
 4092 0446 00000000 		.4byte	0
 4093 044a 00000000 		.4byte	0
 4094              	.LLST33:
 4095 044e 08000000 		.4byte	.LVL123
 4096 0452 0C000000 		.4byte	.LVL125
 4097 0456 0100     		.2byte	0x1
 4098 0458 52       		.byte	0x52
 4099 0459 0C000000 		.4byte	.LVL125
 4100 045d 14000000 		.4byte	.LFE56
 4101 0461 0100     		.2byte	0x1
 4102 0463 50       		.byte	0x50
 4103 0464 00000000 		.4byte	0
 4104 0468 00000000 		.4byte	0
 4105              	.LLST34:
 4106 046c 00000000 		.4byte	.LVL126
 4107 0470 14000000 		.4byte	.LVL130
 4108 0474 0100     		.2byte	0x1
 4109 0476 50       		.byte	0x50
 4110 0477 14000000 		.4byte	.LVL130
 4111 047b 16000000 		.4byte	.LVL131
 4112 047f 0400     		.2byte	0x4
 4113 0481 F3       		.byte	0xf3
 4114 0482 01       		.uleb128 0x1
 4115 0483 50       		.byte	0x50
 4116 0484 9F       		.byte	0x9f
 4117 0485 16000000 		.4byte	.LVL131
 4118 0489 18000000 		.4byte	.LVL132
 4119 048d 0100     		.2byte	0x1
 4120 048f 50       		.byte	0x50
 4121 0490 18000000 		.4byte	.LVL132
 4122 0494 1A000000 		.4byte	.LFE58
 4123 0498 0400     		.2byte	0x4
 4124 049a F3       		.byte	0xf3
 4125 049b 01       		.uleb128 0x1
 4126 049c 50       		.byte	0x50
 4127 049d 9F       		.byte	0x9f
ARM GAS  C:\Users\glenn\AppData\Local\Temp\ccPcZrmN.s 			page 114


 4128 049e 00000000 		.4byte	0
 4129 04a2 00000000 		.4byte	0
 4130              	.LLST35:
 4131 04a6 00000000 		.4byte	.LVL126
 4132 04aa 06000000 		.4byte	.LVL128
 4133 04ae 0100     		.2byte	0x1
 4134 04b0 51       		.byte	0x51
 4135 04b1 06000000 		.4byte	.LVL128
 4136 04b5 1A000000 		.4byte	.LFE58
 4137 04b9 0400     		.2byte	0x4
 4138 04bb F3       		.byte	0xf3
 4139 04bc 01       		.uleb128 0x1
 4140 04bd 51       		.byte	0x51
 4141 04be 9F       		.byte	0x9f
 4142 04bf 00000000 		.4byte	0
 4143 04c3 00000000 		.4byte	0
 4144              	.LLST36:
 4145 04c7 00000000 		.4byte	.LVL133
 4146 04cb 04000000 		.4byte	.LVL134
 4147 04cf 0100     		.2byte	0x1
 4148 04d1 50       		.byte	0x50
 4149 04d2 04000000 		.4byte	.LVL134
 4150 04d6 06000000 		.4byte	.LVL135
 4151 04da 0100     		.2byte	0x1
 4152 04dc 54       		.byte	0x54
 4153 04dd 08000000 		.4byte	.LVL136
 4154 04e1 1A000000 		.4byte	.LVL139
 4155 04e5 0100     		.2byte	0x1
 4156 04e7 54       		.byte	0x54
 4157 04e8 1A000000 		.4byte	.LVL139
 4158 04ec 20000000 		.4byte	.LFE40
 4159 04f0 0100     		.2byte	0x1
 4160 04f2 50       		.byte	0x50
 4161 04f3 00000000 		.4byte	0
 4162 04f7 00000000 		.4byte	0
 4163              	.LLST37:
 4164 04fb 14000000 		.4byte	.LVL137
 4165 04ff 18000000 		.4byte	.LVL138
 4166 0503 0100     		.2byte	0x1
 4167 0505 50       		.byte	0x50
 4168 0506 00000000 		.4byte	0
 4169 050a 00000000 		.4byte	0
 4170              	.LLST38:
 4171 050e 00000000 		.4byte	.LVL142
 4172 0512 08000000 		.4byte	.LVL144
 4173 0516 0100     		.2byte	0x1
 4174 0518 51       		.byte	0x51
 4175 0519 08000000 		.4byte	.LVL144
 4176 051d 26000000 		.4byte	.LFE59
 4177 0521 0400     		.2byte	0x4
 4178 0523 F3       		.byte	0xf3
 4179 0524 01       		.uleb128 0x1
 4180 0525 51       		.byte	0x51
 4181 0526 9F       		.byte	0x9f
 4182 0527 00000000 		.4byte	0
 4183 052b 00000000 		.4byte	0
 4184              	.LLST39:
ARM GAS  C:\Users\glenn\AppData\Local\Temp\ccPcZrmN.s 			page 115


 4185 052f 04000000 		.4byte	.LVL143
 4186 0533 14000000 		.4byte	.LVL146
 4187 0537 0100     		.2byte	0x1
 4188 0539 54       		.byte	0x54
 4189 053a 14000000 		.4byte	.LVL146
 4190 053e 1C000000 		.4byte	.LVL148
 4191 0542 0600     		.2byte	0x6
 4192 0544 F3       		.byte	0xf3
 4193 0545 01       		.uleb128 0x1
 4194 0546 51       		.byte	0x51
 4195 0547 33       		.byte	0x33
 4196 0548 25       		.byte	0x25
 4197 0549 9F       		.byte	0x9f
 4198 054a 1C000000 		.4byte	.LVL148
 4199 054e 1E000000 		.4byte	.LVL149
 4200 0552 0100     		.2byte	0x1
 4201 0554 54       		.byte	0x54
 4202 0555 1E000000 		.4byte	.LVL149
 4203 0559 26000000 		.4byte	.LFE59
 4204 055d 0600     		.2byte	0x6
 4205 055f F3       		.byte	0xf3
 4206 0560 01       		.uleb128 0x1
 4207 0561 51       		.byte	0x51
 4208 0562 33       		.byte	0x33
 4209 0563 25       		.byte	0x25
 4210 0564 9F       		.byte	0x9f
 4211 0565 00000000 		.4byte	0
 4212 0569 00000000 		.4byte	0
 4213              	.LLST40:
 4214 056d 0E000000 		.4byte	.LVL145
 4215 0571 18000000 		.4byte	.LVL147
 4216 0575 0100     		.2byte	0x1
 4217 0577 51       		.byte	0x51
 4218 0578 18000000 		.4byte	.LVL147
 4219 057c 1C000000 		.4byte	.LVL148
 4220 0580 0800     		.2byte	0x8
 4221 0582 31       		.byte	0x31
 4222 0583 F3       		.byte	0xf3
 4223 0584 01       		.uleb128 0x1
 4224 0585 51       		.byte	0x51
 4225 0586 37       		.byte	0x37
 4226 0587 1A       		.byte	0x1a
 4227 0588 24       		.byte	0x24
 4228 0589 9F       		.byte	0x9f
 4229 058a 1C000000 		.4byte	.LVL148
 4230 058e 24000000 		.4byte	.LVL150
 4231 0592 0100     		.2byte	0x1
 4232 0594 51       		.byte	0x51
 4233 0595 24000000 		.4byte	.LVL150
 4234 0599 26000000 		.4byte	.LFE59
 4235 059d 0800     		.2byte	0x8
 4236 059f 31       		.byte	0x31
 4237 05a0 F3       		.byte	0xf3
 4238 05a1 01       		.uleb128 0x1
 4239 05a2 51       		.byte	0x51
 4240 05a3 37       		.byte	0x37
 4241 05a4 1A       		.byte	0x1a
ARM GAS  C:\Users\glenn\AppData\Local\Temp\ccPcZrmN.s 			page 116


 4242 05a5 24       		.byte	0x24
 4243 05a6 9F       		.byte	0x9f
 4244 05a7 00000000 		.4byte	0
 4245 05ab 00000000 		.4byte	0
 4246              	.LLST41:
 4247 05af 00000000 		.4byte	.LVL151
 4248 05b3 02000000 		.4byte	.LVL152
 4249 05b7 0100     		.2byte	0x1
 4250 05b9 50       		.byte	0x50
 4251 05ba 02000000 		.4byte	.LVL152
 4252 05be 04000000 		.4byte	.LFE60
 4253 05c2 0400     		.2byte	0x4
 4254 05c4 F3       		.byte	0xf3
 4255 05c5 01       		.uleb128 0x1
 4256 05c6 50       		.byte	0x50
 4257 05c7 9F       		.byte	0x9f
 4258 05c8 00000000 		.4byte	0
 4259 05cc 00000000 		.4byte	0
 4260              	.LLST42:
 4261 05d0 00000000 		.4byte	.LVL153
 4262 05d4 02000000 		.4byte	.LVL154
 4263 05d8 0100     		.2byte	0x1
 4264 05da 50       		.byte	0x50
 4265 05db 02000000 		.4byte	.LVL154
 4266 05df 04000000 		.4byte	.LFE61
 4267 05e3 0400     		.2byte	0x4
 4268 05e5 F3       		.byte	0xf3
 4269 05e6 01       		.uleb128 0x1
 4270 05e7 50       		.byte	0x50
 4271 05e8 9F       		.byte	0x9f
 4272 05e9 00000000 		.4byte	0
 4273 05ed 00000000 		.4byte	0
 4274              	.LLST43:
 4275 05f1 00000000 		.4byte	.LVL155
 4276 05f5 02000000 		.4byte	.LVL156
 4277 05f9 0100     		.2byte	0x1
 4278 05fb 50       		.byte	0x50
 4279 05fc 02000000 		.4byte	.LVL156
 4280 0600 04000000 		.4byte	.LFE62
 4281 0604 0400     		.2byte	0x4
 4282 0606 F3       		.byte	0xf3
 4283 0607 01       		.uleb128 0x1
 4284 0608 50       		.byte	0x50
 4285 0609 9F       		.byte	0x9f
 4286 060a 00000000 		.4byte	0
 4287 060e 00000000 		.4byte	0
 4288              	.LLST44:
 4289 0612 00000000 		.4byte	.LVL157
 4290 0616 02000000 		.4byte	.LVL158
 4291 061a 0100     		.2byte	0x1
 4292 061c 50       		.byte	0x50
 4293 061d 02000000 		.4byte	.LVL158
 4294 0621 04000000 		.4byte	.LFE63
 4295 0625 0400     		.2byte	0x4
 4296 0627 F3       		.byte	0xf3
 4297 0628 01       		.uleb128 0x1
 4298 0629 50       		.byte	0x50
ARM GAS  C:\Users\glenn\AppData\Local\Temp\ccPcZrmN.s 			page 117


 4299 062a 9F       		.byte	0x9f
 4300 062b 00000000 		.4byte	0
 4301 062f 00000000 		.4byte	0
 4302              	.LLST45:
 4303 0633 02000000 		.4byte	.LVL160
 4304 0637 06000000 		.4byte	.LVL161
 4305 063b 0200     		.2byte	0x2
 4306 063d 30       		.byte	0x30
 4307 063e 9F       		.byte	0x9f
 4308 063f 06000000 		.4byte	.LVL161
 4309 0643 22000000 		.4byte	.LVL167
 4310 0647 0100     		.2byte	0x1
 4311 0649 54       		.byte	0x54
 4312 064a 00000000 		.4byte	0
 4313 064e 00000000 		.4byte	0
 4314              		.section	.debug_aranges,"",%progbits
 4315 0000 0C010000 		.4byte	0x10c
 4316 0004 0200     		.2byte	0x2
 4317 0006 00000000 		.4byte	.Ldebug_info0
 4318 000a 04       		.byte	0x4
 4319 000b 00       		.byte	0
 4320 000c 0000     		.2byte	0
 4321 000e 0000     		.2byte	0
 4322 0010 00000000 		.4byte	.LFB36
 4323 0014 88000000 		.4byte	.LFE36-.LFB36
 4324 0018 00000000 		.4byte	.LFB37
 4325 001c 40000000 		.4byte	.LFE37-.LFB37
 4326 0020 00000000 		.4byte	.LFB39
 4327 0024 2C000000 		.4byte	.LFE39-.LFB39
 4328 0028 00000000 		.4byte	.LFB43
 4329 002c 10000000 		.4byte	.LFE43-.LFB43
 4330 0030 00000000 		.4byte	.LFB44
 4331 0034 10000000 		.4byte	.LFE44-.LFB44
 4332 0038 00000000 		.4byte	.LFB45
 4333 003c 10000000 		.4byte	.LFE45-.LFB45
 4334 0040 00000000 		.4byte	.LFB46
 4335 0044 08000000 		.4byte	.LFE46-.LFB46
 4336 0048 00000000 		.4byte	.LFB48
 4337 004c 2C000000 		.4byte	.LFE48-.LFB48
 4338 0050 00000000 		.4byte	.LFB49
 4339 0054 54000000 		.4byte	.LFE49-.LFB49
 4340 0058 00000000 		.4byte	.LFB47
 4341 005c 14000000 		.4byte	.LFE47-.LFB47
 4342 0060 00000000 		.4byte	.LFB52
 4343 0064 20000000 		.4byte	.LFE52-.LFB52
 4344 0068 00000000 		.4byte	.LFB50
 4345 006c 26000000 		.4byte	.LFE50-.LFB50
 4346 0070 00000000 		.4byte	.LFB51
 4347 0074 24000000 		.4byte	.LFE51-.LFB51
 4348 0078 00000000 		.4byte	.LFB53
 4349 007c BC000000 		.4byte	.LFE53-.LFB53
 4350 0080 00000000 		.4byte	.LFB41
 4351 0084 1C000000 		.4byte	.LFE41-.LFB41
 4352 0088 00000000 		.4byte	.LFB54
 4353 008c 54000000 		.4byte	.LFE54-.LFB54
 4354 0090 00000000 		.4byte	.LFB55
 4355 0094 34000000 		.4byte	.LFE55-.LFB55
ARM GAS  C:\Users\glenn\AppData\Local\Temp\ccPcZrmN.s 			page 118


 4356 0098 00000000 		.4byte	.LFB56
 4357 009c 14000000 		.4byte	.LFE56-.LFB56
 4358 00a0 00000000 		.4byte	.LFB57
 4359 00a4 1C000000 		.4byte	.LFE57-.LFB57
 4360 00a8 00000000 		.4byte	.LFB58
 4361 00ac 1A000000 		.4byte	.LFE58-.LFB58
 4362 00b0 00000000 		.4byte	.LFB40
 4363 00b4 20000000 		.4byte	.LFE40-.LFB40
 4364 00b8 00000000 		.4byte	.LFB42
 4365 00bc 34000000 		.4byte	.LFE42-.LFB42
 4366 00c0 00000000 		.4byte	.LFB59
 4367 00c4 26000000 		.4byte	.LFE59-.LFB59
 4368 00c8 00000000 		.4byte	.LFB60
 4369 00cc 04000000 		.4byte	.LFE60-.LFB60
 4370 00d0 00000000 		.4byte	.LFB61
 4371 00d4 04000000 		.4byte	.LFE61-.LFB61
 4372 00d8 00000000 		.4byte	.LFB62
 4373 00dc 04000000 		.4byte	.LFE62-.LFB62
 4374 00e0 00000000 		.4byte	.LFB63
 4375 00e4 04000000 		.4byte	.LFE63-.LFB63
 4376 00e8 00000000 		.4byte	.LFB64
 4377 00ec 14000000 		.4byte	.LFE64-.LFB64
 4378 00f0 00000000 		.4byte	.LFB65
 4379 00f4 0C000000 		.4byte	.LFE65-.LFB65
 4380 00f8 00000000 		.4byte	.LFB35
 4381 00fc 24000000 		.4byte	.LFE35-.LFB35
 4382 0100 00000000 		.4byte	.LFB38
 4383 0104 30000000 		.4byte	.LFE38-.LFB38
 4384 0108 00000000 		.4byte	0
 4385 010c 00000000 		.4byte	0
 4386              		.section	.debug_ranges,"",%progbits
 4387              	.Ldebug_ranges0:
 4388 0000 00000000 		.4byte	.LFB36
 4389 0004 88000000 		.4byte	.LFE36
 4390 0008 00000000 		.4byte	.LFB37
 4391 000c 40000000 		.4byte	.LFE37
 4392 0010 00000000 		.4byte	.LFB39
 4393 0014 2C000000 		.4byte	.LFE39
 4394 0018 00000000 		.4byte	.LFB43
 4395 001c 10000000 		.4byte	.LFE43
 4396 0020 00000000 		.4byte	.LFB44
 4397 0024 10000000 		.4byte	.LFE44
 4398 0028 00000000 		.4byte	.LFB45
 4399 002c 10000000 		.4byte	.LFE45
 4400 0030 00000000 		.4byte	.LFB46
 4401 0034 08000000 		.4byte	.LFE46
 4402 0038 00000000 		.4byte	.LFB48
 4403 003c 2C000000 		.4byte	.LFE48
 4404 0040 00000000 		.4byte	.LFB49
 4405 0044 54000000 		.4byte	.LFE49
 4406 0048 00000000 		.4byte	.LFB47
 4407 004c 14000000 		.4byte	.LFE47
 4408 0050 00000000 		.4byte	.LFB52
 4409 0054 20000000 		.4byte	.LFE52
 4410 0058 00000000 		.4byte	.LFB50
 4411 005c 26000000 		.4byte	.LFE50
 4412 0060 00000000 		.4byte	.LFB51
ARM GAS  C:\Users\glenn\AppData\Local\Temp\ccPcZrmN.s 			page 119


 4413 0064 24000000 		.4byte	.LFE51
 4414 0068 00000000 		.4byte	.LFB53
 4415 006c BC000000 		.4byte	.LFE53
 4416 0070 00000000 		.4byte	.LFB41
 4417 0074 1C000000 		.4byte	.LFE41
 4418 0078 00000000 		.4byte	.LFB54
 4419 007c 54000000 		.4byte	.LFE54
 4420 0080 00000000 		.4byte	.LFB55
 4421 0084 34000000 		.4byte	.LFE55
 4422 0088 00000000 		.4byte	.LFB56
 4423 008c 14000000 		.4byte	.LFE56
 4424 0090 00000000 		.4byte	.LFB57
 4425 0094 1C000000 		.4byte	.LFE57
 4426 0098 00000000 		.4byte	.LFB58
 4427 009c 1A000000 		.4byte	.LFE58
 4428 00a0 00000000 		.4byte	.LFB40
 4429 00a4 20000000 		.4byte	.LFE40
 4430 00a8 00000000 		.4byte	.LFB42
 4431 00ac 34000000 		.4byte	.LFE42
 4432 00b0 00000000 		.4byte	.LFB59
 4433 00b4 26000000 		.4byte	.LFE59
 4434 00b8 00000000 		.4byte	.LFB60
 4435 00bc 04000000 		.4byte	.LFE60
 4436 00c0 00000000 		.4byte	.LFB61
 4437 00c4 04000000 		.4byte	.LFE61
 4438 00c8 00000000 		.4byte	.LFB62
 4439 00cc 04000000 		.4byte	.LFE62
 4440 00d0 00000000 		.4byte	.LFB63
 4441 00d4 04000000 		.4byte	.LFE63
 4442 00d8 00000000 		.4byte	.LFB64
 4443 00dc 14000000 		.4byte	.LFE64
 4444 00e0 00000000 		.4byte	.LFB65
 4445 00e4 0C000000 		.4byte	.LFE65
 4446 00e8 00000000 		.4byte	.LFB35
 4447 00ec 24000000 		.4byte	.LFE35
 4448 00f0 00000000 		.4byte	.LFB38
 4449 00f4 30000000 		.4byte	.LFE38
 4450 00f8 00000000 		.4byte	0
 4451 00fc 00000000 		.4byte	0
 4452              		.section	.debug_line,"",%progbits
 4453              	.Ldebug_line0:
 4454 0000 AB030000 		.section	.debug_str,"MS",%progbits,1
 4454      02008700 
 4454      00000201 
 4454      FB0E0D00 
 4454      01010101 
 4455              	.LASF78:
 4456 0000 43617053 		.ascii	"CapSense_2_sensorRaw\000"
 4456      656E7365 
 4456      5F325F73 
 4456      656E736F 
 4456      72526177 
 4457              	.LASF66:
 4458 0015 43617053 		.ascii	"CapSense_2_SetBitValue\000"
 4458      656E7365 
 4458      5F325F53 
 4458      65744269 
ARM GAS  C:\Users\glenn\AppData\Local\Temp\ccPcZrmN.s 			page 120


 4458      7456616C 
 4459              	.LASF99:
 4460 002c 43617053 		.ascii	"CapSense_2_SampleClk_Stop\000"
 4460      656E7365 
 4460      5F325F53 
 4460      616D706C 
 4460      65436C6B 
 4461              	.LASF76:
 4462 0046 43617053 		.ascii	"CapSense_2_csdStatusVar\000"
 4462      656E7365 
 4462      5F325F63 
 4462      73645374 
 4462      61747573 
 4463              	.LASF101:
 4464 005e 43617053 		.ascii	"CapSense_2_SenseClk_SetFractionalDividerRegister\000"
 4464      656E7365 
 4464      5F325F53 
 4464      656E7365 
 4464      436C6B5F 
 4465              	.LASF68:
 4466 008f 43617053 		.ascii	"CapSense_2_GetModulatorClkDivider\000"
 4466      656E7365 
 4466      5F325F47 
 4466      65744D6F 
 4466      64756C61 
 4467              	.LASF62:
 4468 00b1 656E4D61 		.ascii	"enMask\000"
 4468      736B00
 4469              	.LASF105:
 4470 00b8 43794578 		.ascii	"CyExitCriticalSection\000"
 4470      69744372 
 4470      69746963 
 4470      616C5365 
 4470      6374696F 
 4471              	.LASF111:
 4472 00ce 4379456E 		.ascii	"CyEnterCriticalSection\000"
 4472      74657243 
 4472      72697469 
 4472      63616C53 
 4472      65637469 
 4473              	.LASF96:
 4474 00e5 4379496E 		.ascii	"CyIntDisable\000"
 4474      74446973 
 4474      61626C65 
 4474      00
 4475              	.LASF2:
 4476 00f2 73686F72 		.ascii	"short int\000"
 4476      7420696E 
 4476      7400
 4477              	.LASF24:
 4478 00fc 73656E73 		.ascii	"sensor\000"
 4478      6F7200
 4479              	.LASF18:
 4480 0103 73697A65 		.ascii	"sizetype\000"
 4480      74797065 
 4480      00
 4481              	.LASF51:
ARM GAS  C:\Users\glenn\AppData\Local\Temp\ccPcZrmN.s 			page 121


 4482 010c 43617053 		.ascii	"CapSense_2_ScanSensor\000"
 4482      656E7365 
 4482      5F325F53 
 4482      63616E53 
 4482      656E736F 
 4483              	.LASF56:
 4484 0122 43617053 		.ascii	"CapSense_2_IsBusy\000"
 4484      656E7365 
 4484      5F325F49 
 4484      73427573 
 4484      7900
 4485              	.LASF55:
 4486 0134 64656C61 		.ascii	"delay\000"
 4486      7900
 4487              	.LASF58:
 4488 013a 43617053 		.ascii	"CapSense_2_GetBitValue\000"
 4488      656E7365 
 4488      5F325F47 
 4488      65744269 
 4488      7456616C 
 4489              	.LASF25:
 4490 0151 76616C75 		.ascii	"value\000"
 4490      6500
 4491              	.LASF20:
 4492 0157 43617053 		.ascii	"CapSense_2_Enable\000"
 4492      656E7365 
 4492      5F325F45 
 4492      6E61626C 
 4492      6500
 4493              	.LASF10:
 4494 0169 75696E74 		.ascii	"uint16\000"
 4494      313600
 4495              	.LASF102:
 4496 0170 43617053 		.ascii	"CapSense_2_SampleClk_StartEx\000"
 4496      656E7365 
 4496      5F325F53 
 4496      616D706C 
 4496      65436C6B 
 4497              	.LASF30:
 4498 018d 70696E4D 		.ascii	"pinModeShift\000"
 4498      6F646553 
 4498      68696674 
 4498      00
 4499              	.LASF28:
 4500 019a 77696467 		.ascii	"widget\000"
 4500      657400
 4501              	.LASF97:
 4502 01a1 4379496E 		.ascii	"CyIntSetPriority\000"
 4502      74536574 
 4502      5072696F 
 4502      72697479 
 4502      00
 4503              	.LASF59:
 4504 01b2 7461626C 		.ascii	"table\000"
 4504      6500
 4505              	.LASF46:
 4506 01b8 7072744E 		.ascii	"prtNumberTmp\000"
ARM GAS  C:\Users\glenn\AppData\Local\Temp\ccPcZrmN.s 			page 122


 4506      756D6265 
 4506      72546D70 
 4506      00
 4507              	.LASF50:
 4508 01c5 636F756E 		.ascii	"counterResolution\000"
 4508      74657252 
 4508      65736F6C 
 4508      7574696F 
 4508      6E00
 4509              	.LASF65:
 4510 01d7 43617053 		.ascii	"CapSense_2_ScanEnabledWidgets\000"
 4510      656E7365 
 4510      5F325F53 
 4510      63616E45 
 4510      6E61626C 
 4511              	.LASF48:
 4512 01f5 43617053 		.ascii	"CapSense_2_RestoreDriveModeAllPins\000"
 4512      656E7365 
 4512      5F325F52 
 4512      6573746F 
 4512      72654472 
 4513              	.LASF67:
 4514 0218 43617053 		.ascii	"CapSense_2_GetSenseClkDivider\000"
 4514      656E7365 
 4514      5F325F47 
 4514      65745365 
 4514      6E736543 
 4515              	.LASF12:
 4516 0236 666C6F61 		.ascii	"float\000"
 4516      7400
 4517              	.LASF37:
 4518 023c 73656E73 		.ascii	"sensorState\000"
 4518      6F725374 
 4518      61746500 
 4519              	.LASF6:
 4520 0248 6C6F6E67 		.ascii	"long long int\000"
 4520      206C6F6E 
 4520      6720696E 
 4520      7400
 4521              	.LASF29:
 4522 0256 43617053 		.ascii	"CapSense_2_EnableSensor\000"
 4522      656E7365 
 4522      5F325F45 
 4522      6E61626C 
 4522      6553656E 
 4523              	.LASF80:
 4524 026e 43617053 		.ascii	"CapSense_2_sensorEnableMaskBackup\000"
 4524      656E7365 
 4524      5F325F73 
 4524      656E736F 
 4524      72456E61 
 4525              	.LASF4:
 4526 0290 6C6F6E67 		.ascii	"long int\000"
 4526      20696E74 
 4526      00
 4527              	.LASF45:
 4528 0299 63757253 		.ascii	"curSensor\000"
ARM GAS  C:\Users\glenn\AppData\Local\Temp\ccPcZrmN.s 			page 123


 4528      656E736F 
 4528      7200
 4529              	.LASF61:
 4530 02a3 6F666673 		.ascii	"offset\000"
 4530      657400
 4531              	.LASF22:
 4532 02aa 43617053 		.ascii	"CapSense_2_Stop\000"
 4532      656E7365 
 4532      5F325F53 
 4532      746F7000 
 4533              	.LASF69:
 4534 02ba 43617053 		.ascii	"CapSense_2_GetModulationIDAC\000"
 4534      656E7365 
 4534      5F325F47 
 4534      65744D6F 
 4534      64756C61 
 4535              	.LASF52:
 4536 02d7 43617053 		.ascii	"CapSense_2_PostScan\000"
 4536      656E7365 
 4536      5F325F50 
 4536      6F737453 
 4536      63616E00 
 4537              	.LASF94:
 4538 02eb 43617053 		.ascii	"CapSense_2_pinShiftTbl\000"
 4538      656E7365 
 4538      5F325F70 
 4538      696E5368 
 4538      69667454 
 4539              	.LASF107:
 4540 0302 474E5520 		.ascii	"GNU C 4.9.3 20150303 (release) [ARM/embedded-4_9-br"
 4540      4320342E 
 4540      392E3320 
 4540      32303135 
 4540      30333033 
 4541 0335 616E6368 		.ascii	"anch revision 221220] -mcpu=cortex-m0 -mthumb -g -O"
 4541      20726576 
 4541      6973696F 
 4541      6E203232 
 4541      31323230 
 4542 0368 67202D66 		.ascii	"g -ffunction-sections -ffat-lto-objects\000"
 4542      66756E63 
 4542      74696F6E 
 4542      2D736563 
 4542      74696F6E 
 4543              	.LASF108:
 4544 0390 2E5C4765 		.ascii	".\\Generated_Source\\PSoC4\\CapSense_2.c\000"
 4544      6E657261 
 4544      7465645F 
 4544      536F7572 
 4544      63655C50 
 4545              	.LASF89:
 4546 03b6 43617053 		.ascii	"CapSense_2_prtCfgTbl\000"
 4546      656E7365 
 4546      5F325F70 
 4546      72744366 
 4546      6754626C 
 4547              	.LASF1:
ARM GAS  C:\Users\glenn\AppData\Local\Temp\ccPcZrmN.s 			page 124


 4548 03cb 756E7369 		.ascii	"unsigned char\000"
 4548      676E6564 
 4548      20636861 
 4548      7200
 4549              	.LASF17:
 4550 03d9 63796973 		.ascii	"cyisraddress\000"
 4550      72616464 
 4550      72657373 
 4550      00
 4551              	.LASF85:
 4552 03e6 43617053 		.ascii	"CapSense_2_senseClkDividerVal\000"
 4552      656E7365 
 4552      5F325F73 
 4552      656E7365 
 4552      436C6B44 
 4553              	.LASF0:
 4554 0404 7369676E 		.ascii	"signed char\000"
 4554      65642063 
 4554      68617200 
 4555              	.LASF7:
 4556 0410 6C6F6E67 		.ascii	"long long unsigned int\000"
 4556      206C6F6E 
 4556      6720756E 
 4556      7369676E 
 4556      65642069 
 4557              	.LASF27:
 4558 0427 43617053 		.ascii	"CapSense_2_GetScanResolution\000"
 4558      656E7365 
 4558      5F325F47 
 4558      65745363 
 4558      616E5265 
 4559              	.LASF8:
 4560 0444 756E7369 		.ascii	"unsigned int\000"
 4560      676E6564 
 4560      20696E74 
 4560      00
 4561              	.LASF21:
 4562 0451 6E657752 		.ascii	"newRegValue\000"
 4562      65675661 
 4562      6C756500 
 4563              	.LASF70:
 4564 045d 43617053 		.ascii	"CapSense_2_GetCompensationIDAC\000"
 4564      656E7365 
 4564      5F325F47 
 4564      6574436F 
 4564      6D70656E 
 4565              	.LASF63:
 4566 047c 43617053 		.ascii	"CapSense_2_FindNextSensor\000"
 4566      656E7365 
 4566      5F325F46 
 4566      696E644E 
 4566      65787453 
 4567              	.LASF39:
 4568 0496 736E7349 		.ascii	"snsIndex\000"
 4568      6E646578 
 4568      00
 4569              	.LASF38:
ARM GAS  C:\Users\glenn\AppData\Local\Temp\ccPcZrmN.s 			page 125


 4570 049f 43617053 		.ascii	"CapSense_2_ClearSensors\000"
 4570      656E7365 
 4570      5F325F43 
 4570      6C656172 
 4570      53656E73 
 4571              	.LASF86:
 4572 04b7 43617053 		.ascii	"CapSense_2_sampleClkDividerVal\000"
 4572      656E7365 
 4572      5F325F73 
 4572      616D706C 
 4572      65436C6B 
 4573              	.LASF83:
 4574 04d6 43617053 		.ascii	"CapSense_2_compensationIDAC\000"
 4574      656E7365 
 4574      5F325F63 
 4574      6F6D7065 
 4574      6E736174 
 4575              	.LASF16:
 4576 04f2 72656733 		.ascii	"reg32\000"
 4576      3200
 4577              	.LASF36:
 4578 04f8 696E6163 		.ascii	"inactiveConnect\000"
 4578      74697665 
 4578      436F6E6E 
 4578      65637400 
 4579              	.LASF54:
 4580 0508 43617053 		.ascii	"CapSense_2_SetShieldDelay\000"
 4580      656E7365 
 4580      5F325F53 
 4580      65745368 
 4580      69656C64 
 4581              	.LASF3:
 4582 0522 73686F72 		.ascii	"short unsigned int\000"
 4582      7420756E 
 4582      7369676E 
 4582      65642069 
 4582      6E7400
 4583              	.LASF43:
 4584 0535 706F7274 		.ascii	"portNumber\000"
 4584      4E756D62 
 4584      657200
 4585              	.LASF14:
 4586 0540 63686172 		.ascii	"char\000"
 4586      00
 4587              	.LASF92:
 4588 0545 43617053 		.ascii	"CapSense_2_portTable\000"
 4588      656E7365 
 4588      5F325F70 
 4588      6F727454 
 4588      61626C65 
 4589              	.LASF100:
 4590 055a 43617053 		.ascii	"CapSense_2_SampleClk_SetFractionalDividerRegister\000"
 4590      656E7365 
 4590      5F325F53 
 4590      616D706C 
 4590      65436C6B 
 4591              	.LASF19:
ARM GAS  C:\Users\glenn\AppData\Local\Temp\ccPcZrmN.s 			page 126


 4592 058c 43617053 		.ascii	"CapSense_2_CsdHwBlockInit\000"
 4592      656E7365 
 4592      5F325F43 
 4592      73644877 
 4592      426C6F63 
 4593              	.LASF109:
 4594 05a6 433A5C55 		.ascii	"C:\\Users\\glenn\\OneDrive\\PSOC\\moisture_sensor_4"
 4594      73657273 
 4594      5C676C65 
 4594      6E6E5C4F 
 4594      6E654472 
 4595 05d4 6D5C4D6F 		.ascii	"m\\Moisture_Sensor\\Moisture_Sensor.cydsn\000"
 4595      69737475 
 4595      72655F53 
 4595      656E736F 
 4595      725C4D6F 
 4596              	.LASF79:
 4597 05fc 43617053 		.ascii	"CapSense_2_unscannedSnsDriveMode\000"
 4597      656E7365 
 4597      5F325F75 
 4597      6E736361 
 4597      6E6E6564 
 4598              	.LASF53:
 4599 061d 43617053 		.ascii	"CapSense_2_EnableShieldElectrode\000"
 4599      656E7365 
 4599      5F325F45 
 4599      6E61626C 
 4599      65536869 
 4600              	.LASF9:
 4601 063e 75696E74 		.ascii	"uint8\000"
 4601      3800
 4602              	.LASF41:
 4603 0644 64726976 		.ascii	"driveMode\000"
 4603      654D6F64 
 4603      6500
 4604              	.LASF71:
 4605 064e 43617053 		.ascii	"CapSense_2_GetIDACRange\000"
 4605      656E7365 
 4605      5F325F47 
 4605      65744944 
 4605      41435261 
 4606              	.LASF42:
 4607 0666 70696E4E 		.ascii	"pinNumber\000"
 4607      756D6265 
 4607      7200
 4608              	.LASF34:
 4609 0670 706F7274 		.ascii	"port\000"
 4609      00
 4610              	.LASF84:
 4611 0675 43617053 		.ascii	"CapSense_2_widgetResolution\000"
 4611      656E7365 
 4611      5F325F77 
 4611      69646765 
 4611      74526573 
 4612              	.LASF32:
 4613 0691 696E7465 		.ascii	"interruptState\000"
 4613      72727570 
ARM GAS  C:\Users\glenn\AppData\Local\Temp\ccPcZrmN.s 			page 127


 4613      74537461 
 4613      746500
 4614              	.LASF11:
 4615 06a0 75696E74 		.ascii	"uint32\000"
 4615      333200
 4616              	.LASF72:
 4617 06a7 43617053 		.ascii	"CapSense_2_SetUnscannedSensorState\000"
 4617      656E7365 
 4617      5F325F53 
 4617      6574556E 
 4617      7363616E 
 4618              	.LASF15:
 4619 06ca 72656738 		.ascii	"reg8\000"
 4619      00
 4620              	.LASF5:
 4621 06cf 6C6F6E67 		.ascii	"long unsigned int\000"
 4621      20756E73 
 4621      69676E65 
 4621      6420696E 
 4621      7400
 4622              	.LASF13:
 4623 06e1 646F7562 		.ascii	"double\000"
 4623      6C6500
 4624              	.LASF104:
 4625 06e8 4379496E 		.ascii	"CyIntEnable\000"
 4625      74456E61 
 4625      626C6500 
 4626              	.LASF82:
 4627 06f4 43617053 		.ascii	"CapSense_2_modulationIDAC\000"
 4627      656E7365 
 4627      5F325F6D 
 4627      6F64756C 
 4627      6174696F 
 4628              	.LASF81:
 4629 070e 43617053 		.ascii	"CapSense_2_sensorEnableMask\000"
 4629      656E7365 
 4629      5F325F73 
 4629      656E736F 
 4629      72456E61 
 4630              	.LASF88:
 4631 072a 43617053 		.ascii	"CapSense_2_prtSelTbl\000"
 4631      656E7365 
 4631      5F325F70 
 4631      72745365 
 4631      6C54626C 
 4632              	.LASF87:
 4633 073f 43617053 		.ascii	"CapSense_2_widgetNumber\000"
 4633      656E7365 
 4633      5F325F77 
 4633      69646765 
 4633      744E756D 
 4634              	.LASF95:
 4635 0757 43617053 		.ascii	"CapSense_2_csdTrim1\000"
 4635      656E7365 
 4635      5F325F63 
 4635      73645472 
 4635      696D3100 
ARM GAS  C:\Users\glenn\AppData\Local\Temp\ccPcZrmN.s 			page 128


 4636              	.LASF44:
 4637 076b 43617053 		.ascii	"CapSense_2_SetDriveModeAllPins\000"
 4637      656E7365 
 4637      5F325F53 
 4637      65744472 
 4637      6976654D 
 4638              	.LASF112:
 4639 078a 43794465 		.ascii	"CyDelayCycles\000"
 4639      6C617943 
 4639      79636C65 
 4639      7300
 4640              	.LASF74:
 4641 0798 43617053 		.ascii	"CapSense_2_Start\000"
 4641      656E7365 
 4641      5F325F53 
 4641      74617274 
 4641      00
 4642              	.LASF49:
 4643 07a9 43617053 		.ascii	"CapSense_2_PreScan\000"
 4643      656E7365 
 4643      5F325F50 
 4643      72655363 
 4643      616E00
 4644              	.LASF93:
 4645 07bc 43617053 		.ascii	"CapSense_2_maskTable\000"
 4645      656E7365 
 4645      5F325F6D 
 4645      61736B54 
 4645      61626C65 
 4646              	.LASF26:
 4647 07d1 43617053 		.ascii	"CapSense_2_ReadSensorRaw\000"
 4647      656E7365 
 4647      5F325F52 
 4647      65616453 
 4647      656E736F 
 4648              	.LASF23:
 4649 07ea 43617053 		.ascii	"CapSense_2_WriteSensorRaw\000"
 4649      656E7365 
 4649      5F325F57 
 4649      72697465 
 4649      53656E73 
 4650              	.LASF77:
 4651 0804 43617053 		.ascii	"CapSense_2_sensorIndex\000"
 4651      656E7365 
 4651      5F325F73 
 4651      656E736F 
 4651      72496E64 
 4652              	.LASF75:
 4653 081b 43617053 		.ascii	"CapSense_2_initVar\000"
 4653      656E7365 
 4653      5F325F69 
 4653      6E697456 
 4653      617200
 4654              	.LASF64:
 4655 082e 656E6162 		.ascii	"enableFlag\000"
 4655      6C65466C 
 4655      616700
ARM GAS  C:\Users\glenn\AppData\Local\Temp\ccPcZrmN.s 			page 129


 4656              	.LASF40:
 4657 0839 43617053 		.ascii	"CapSense_2_SetPinDriveMode\000"
 4657      656E7365 
 4657      5F325F53 
 4657      65745069 
 4657      6E447269 
 4658              	.LASF60:
 4659 0854 706F7369 		.ascii	"position\000"
 4659      74696F6E 
 4659      00
 4660              	.LASF31:
 4661 085d 70696E48 		.ascii	"pinHSIOMShift\000"
 4661      53494F4D 
 4661      53686966 
 4661      7400
 4662              	.LASF47:
 4663 086b 70696E4E 		.ascii	"pinNumberTmp\000"
 4663      756D6265 
 4663      72546D70 
 4663      00
 4664              	.LASF57:
 4665 0878 43617053 		.ascii	"CapSense_2_ReadCurrentScanningSensor\000"
 4665      656E7365 
 4665      5F325F52 
 4665      65616443 
 4665      75727265 
 4666              	.LASF73:
 4667 089d 43617053 		.ascii	"CapSense_2_Init\000"
 4667      656E7365 
 4667      5F325F49 
 4667      6E697400 
 4668              	.LASF91:
 4669 08ad 43617053 		.ascii	"CapSense_2_pcTable\000"
 4669      656E7365 
 4669      5F325F70 
 4669      63546162 
 4669      6C6500
 4670              	.LASF110:
 4671 08c0 4379496E 		.ascii	"CyIntSetVector\000"
 4671      74536574 
 4671      56656374 
 4671      6F7200
 4672              	.LASF106:
 4673 08cf 4379496E 		.ascii	"CyIntClearPending\000"
 4673      74436C65 
 4673      61725065 
 4673      6E64696E 
 4673      6700
 4674              	.LASF33:
 4675 08e1 6E657752 		.ascii	"newRegisterValue\000"
 4675      65676973 
 4675      74657256 
 4675      616C7565 
 4675      00
 4676              	.LASF90:
 4677 08f2 43617053 		.ascii	"CapSense_2_prtDRTbl\000"
 4677      656E7365 
ARM GAS  C:\Users\glenn\AppData\Local\Temp\ccPcZrmN.s 			page 130


 4677      5F325F70 
 4677      72744452 
 4677      54626C00 
 4678              	.LASF98:
 4679 0906 43617053 		.ascii	"CapSense_2_SenseClk_Stop\000"
 4679      656E7365 
 4679      5F325F53 
 4679      656E7365 
 4679      436C6B5F 
 4680              	.LASF35:
 4681 091f 43617053 		.ascii	"CapSense_2_DisableSensor\000"
 4681      656E7365 
 4681      5F325F44 
 4681      69736162 
 4681      6C655365 
 4682              	.LASF103:
 4683 0938 43617053 		.ascii	"CapSense_2_SenseClk_StartEx\000"
 4683      656E7365 
 4683      5F325F53 
 4683      656E7365 
 4683      436C6B5F 
 4684              		.ident	"GCC: (GNU Tools for ARM Embedded Processors) 4.9.3 20150303 (release) [ARM/embedded-4_9-br
