ARM GAS  C:\Users\glenn\AppData\Local\Temp\cceN5DEk.s 			page 1


   1              		.cpu cortex-m0
   2              		.fpu softvfp
   3              		.eabi_attribute 20, 1
   4              		.eabi_attribute 21, 1
   5              		.eabi_attribute 23, 3
   6              		.eabi_attribute 24, 1
   7              		.eabi_attribute 25, 1
   8              		.eabi_attribute 26, 1
   9              		.eabi_attribute 30, 2
  10              		.eabi_attribute 34, 0
  11              		.eabi_attribute 18, 4
  12              		.code	16
  13              		.file	"cf_external_functions.c"
  14              		.text
  15              	.Ltext0:
  16              		.cfi_sections	.debug_frame
  17              		.section	.text.sleep_timer_interrupt,"ax",%progbits
  18              		.align	2
  19              		.global	sleep_timer_interrupt
  20              		.code	16
  21              		.thumb_func
  22              		.type	sleep_timer_interrupt, %function
  23              	sleep_timer_interrupt:
  24              	.LFB64:
  25              		.file 1 "chain_flow\\cf_external_functions.c"
   1:chain_flow/cf_external_functions.c **** /*
   2:chain_flow/cf_external_functions.c **** **
   3:chain_flow/cf_external_functions.c **** ** File: cf_external_functions.c
   4:chain_flow/cf_external_functions.c **** ** This file is manually generated
   5:chain_flow/cf_external_functions.c **** ** 
   6:chain_flow/cf_external_functions.c **** **
   7:chain_flow/cf_external_functions.c **** */
   8:chain_flow/cf_external_functions.c **** #include <project.h>
   9:chain_flow/cf_external_functions.c **** #include "cf_events.h"
  10:chain_flow/cf_external_functions.c **** #include "cf_status_bit.h"
  11:chain_flow/cf_external_functions.c **** 
  12:chain_flow/cf_external_functions.c **** #include "cf_external_functions.h"
  13:chain_flow/cf_external_functions.c **** 
  14:chain_flow/cf_external_functions.c **** #include "rtc_functions.h"
  15:chain_flow/cf_external_functions.c **** #include "process_modbus_message.h"
  16:chain_flow/cf_external_functions.c **** #include "modbus_serial_ctrl.h"
  17:chain_flow/cf_external_functions.c **** #include "configuration_data.h"
  18:chain_flow/cf_external_functions.c **** #include "analog_temperature_measurements.h"
  19:chain_flow/cf_external_functions.c **** 
  20:chain_flow/cf_external_functions.c **** 
  21:chain_flow/cf_external_functions.c **** extern uint16 modbus_address_data[2];
  22:chain_flow/cf_external_functions.c **** 
  23:chain_flow/cf_external_functions.c **** /*
  24:chain_flow/cf_external_functions.c **** **
  25:chain_flow/cf_external_functions.c **** ** Initialize Function
  26:chain_flow/cf_external_functions.c **** **
  27:chain_flow/cf_external_functions.c **** **
  28:chain_flow/cf_external_functions.c **** */
  29:chain_flow/cf_external_functions.c **** CY_ISR_PROTO( sleep_timer_interrupt )
  30:chain_flow/cf_external_functions.c **** {
  26              		.loc 1 30 0
  27              		.cfi_startproc
ARM GAS  C:\Users\glenn\AppData\Local\Temp\cceN5DEk.s 			page 2


  28 0000 08B5     		push	{r3, lr}
  29              		.cfi_def_cfa_offset 8
  30              		.cfi_offset 3, -8
  31              		.cfi_offset 14, -4
  31:chain_flow/cf_external_functions.c ****    
  32:chain_flow/cf_external_functions.c ****     cf_set_interrupt_status_bit( CF_PROCESS_TIMER_TICK );  
  32              		.loc 1 32 0
  33 0002 0120     		mov	r0, #1
  34 0004 FFF7FEFF 		bl	cf_set_interrupt_status_bit
  35              	.LVL0:
  33:chain_flow/cf_external_functions.c ****     
  34:chain_flow/cf_external_functions.c **** }
  36              		.loc 1 34 0
  37              		@ sp needed
  38 0008 08BD     		pop	{r3, pc}
  39              		.cfi_endproc
  40              	.LFE64:
  41              		.size	sleep_timer_interrupt, .-sleep_timer_interrupt
  42              		.section	.text.enable_interrupts,"ax",%progbits
  43              		.align	2
  44              		.global	enable_interrupts
  45              		.code	16
  46              		.thumb_func
  47              		.type	enable_interrupts, %function
  48              	enable_interrupts:
  49              	.LFB65:
  35:chain_flow/cf_external_functions.c **** 
  36:chain_flow/cf_external_functions.c **** /*
  37:chain_flow/cf_external_functions.c **** ** Initialization Functions
  38:chain_flow/cf_external_functions.c **** **
  39:chain_flow/cf_external_functions.c **** **
  40:chain_flow/cf_external_functions.c **** **
  41:chain_flow/cf_external_functions.c **** **
  42:chain_flow/cf_external_functions.c **** **
  43:chain_flow/cf_external_functions.c **** */
  44:chain_flow/cf_external_functions.c **** 
  45:chain_flow/cf_external_functions.c **** 
  46:chain_flow/cf_external_functions.c **** int enable_interrupts(unsigned link_id, unsigned param_1,
  47:chain_flow/cf_external_functions.c ****   unsigned param_2, unsigned param_3, unsigned event, unsigned data)
  48:chain_flow/cf_external_functions.c **** {
  50              		.loc 1 48 0
  51              		.cfi_startproc
  52              	.LVL1:
  49:chain_flow/cf_external_functions.c ****    CyGlobalIntEnable;
  53              		.loc 1 49 0
  54              	@ 49 "chain_flow\cf_external_functions.c" 1
  55 0000 62B6     		CPSIE   i
  56              	@ 0 "" 2
  50:chain_flow/cf_external_functions.c ****    return CF_DISABLE;
  51:chain_flow/cf_external_functions.c **** }
  57              		.loc 1 51 0
  58              		.code	16
  59 0002 0220     		mov	r0, #2
  60              	.LVL2:
  61              		@ sp needed
  62 0004 7047     		bx	lr
  63              		.cfi_endproc
ARM GAS  C:\Users\glenn\AppData\Local\Temp\cceN5DEk.s 			page 3


  64              	.LFE65:
  65              		.size	enable_interrupts, .-enable_interrupts
  66 0006 C046     		.section	.text.initialize_analog,"ax",%progbits
  67              		.align	2
  68              		.global	initialize_analog
  69              		.code	16
  70              		.thumb_func
  71              		.type	initialize_analog, %function
  72              	initialize_analog:
  73              	.LFB66:
  52:chain_flow/cf_external_functions.c **** 
  53:chain_flow/cf_external_functions.c **** 
  54:chain_flow/cf_external_functions.c **** 
  55:chain_flow/cf_external_functions.c **** int initialize_analog(unsigned link_id, unsigned param_1,
  56:chain_flow/cf_external_functions.c ****   unsigned param_2, unsigned param_3, unsigned event, unsigned data)
  57:chain_flow/cf_external_functions.c **** {
  74              		.loc 1 57 0
  75              		.cfi_startproc
  76              	.LVL3:
  77 0000 08B5     		push	{r3, lr}
  78              		.cfi_def_cfa_offset 8
  79              		.cfi_offset 3, -8
  80              		.cfi_offset 14, -4
  58:chain_flow/cf_external_functions.c ****    ADC_SAR_Seq_1_Start();
  81              		.loc 1 58 0
  82 0002 FFF7FEFF 		bl	ADC_SAR_Seq_1_Start
  83              	.LVL4:
  59:chain_flow/cf_external_functions.c **** 
  60:chain_flow/cf_external_functions.c ****    return 0;
  61:chain_flow/cf_external_functions.c **** }
  84              		.loc 1 61 0
  85              		@ sp needed
  86 0006 0020     		mov	r0, #0
  87 0008 08BD     		pop	{r3, pc}
  88              		.cfi_endproc
  89              	.LFE66:
  90              		.size	initialize_analog, .-initialize_analog
  91              		.section	.text.toggle_heart_beat,"ax",%progbits
  92              		.align	2
  93              		.global	toggle_heart_beat
  94              		.code	16
  95              		.thumb_func
  96              		.type	toggle_heart_beat, %function
  97              	toggle_heart_beat:
  98              	.LFB67:
  62:chain_flow/cf_external_functions.c **** 
  63:chain_flow/cf_external_functions.c **** 
  64:chain_flow/cf_external_functions.c **** /*
  65:chain_flow/cf_external_functions.c **** **
  66:chain_flow/cf_external_functions.c **** ** Toggle heart_beat
  67:chain_flow/cf_external_functions.c **** **
  68:chain_flow/cf_external_functions.c **** **
  69:chain_flow/cf_external_functions.c **** */
  70:chain_flow/cf_external_functions.c **** int  toggle_heart_beat(unsigned link_id, unsigned param_1,
  71:chain_flow/cf_external_functions.c ****   unsigned param_2, unsigned param_3, unsigned event, unsigned data)
  72:chain_flow/cf_external_functions.c **** {
  99              		.loc 1 72 0
ARM GAS  C:\Users\glenn\AppData\Local\Temp\cceN5DEk.s 			page 4


 100              		.cfi_startproc
 101              	.LVL5:
 102 0000 08B5     		push	{r3, lr}
 103              		.cfi_def_cfa_offset 8
 104              		.cfi_offset 3, -8
 105              		.cfi_offset 14, -4
  73:chain_flow/cf_external_functions.c **** 	
  74:chain_flow/cf_external_functions.c ****            
  75:chain_flow/cf_external_functions.c ****    Heart_Beat_Pin_Write( !Heart_Beat_Pin_Read() );
 106              		.loc 1 75 0
 107 0002 FFF7FEFF 		bl	Heart_Beat_Pin_Read
 108              	.LVL6:
 109 0006 4342     		neg	r3, r0
 110 0008 5841     		adc	r0, r0, r3
 111 000a C0B2     		uxtb	r0, r0
 112 000c FFF7FEFF 		bl	Heart_Beat_Pin_Write
 113              	.LVL7:
  76:chain_flow/cf_external_functions.c ****    return CF_DISABLE;       
  77:chain_flow/cf_external_functions.c **** 
  78:chain_flow/cf_external_functions.c **** }
 114              		.loc 1 78 0
 115              		@ sp needed
 116 0010 0220     		mov	r0, #2
 117 0012 08BD     		pop	{r3, pc}
 118              		.cfi_endproc
 119              	.LFE67:
 120              		.size	toggle_heart_beat, .-toggle_heart_beat
 121              		.section	.text.pat_watch_dog,"ax",%progbits
 122              		.align	2
 123              		.global	pat_watch_dog
 124              		.code	16
 125              		.thumb_func
 126              		.type	pat_watch_dog, %function
 127              	pat_watch_dog:
 128              	.LFB68:
  79:chain_flow/cf_external_functions.c **** 
  80:chain_flow/cf_external_functions.c **** 
  81:chain_flow/cf_external_functions.c **** 
  82:chain_flow/cf_external_functions.c **** /*
  83:chain_flow/cf_external_functions.c **** **
  84:chain_flow/cf_external_functions.c **** **  One Second Interrupt
  85:chain_flow/cf_external_functions.c **** **
  86:chain_flow/cf_external_functions.c **** */
  87:chain_flow/cf_external_functions.c **** 
  88:chain_flow/cf_external_functions.c **** int pat_watch_dog(unsigned link_id, unsigned param_1,
  89:chain_flow/cf_external_functions.c ****   unsigned param_2, unsigned param_3, unsigned event, unsigned data)
  90:chain_flow/cf_external_functions.c **** {
 129              		.loc 1 90 0
 130              		.cfi_startproc
 131              	.LVL8:
 132 0000 10B5     		push	{r4, lr}
 133              		.cfi_def_cfa_offset 8
 134              		.cfi_offset 4, -8
 135              		.cfi_offset 14, -4
  91:chain_flow/cf_external_functions.c ****     uint8  criticalState;
  92:chain_flow/cf_external_functions.c ****     criticalState = CyEnterCriticalSection();
 136              		.loc 1 92 0
ARM GAS  C:\Users\glenn\AppData\Local\Temp\cceN5DEk.s 			page 5


 137 0002 FFF7FEFF 		bl	CyEnterCriticalSection
 138              	.LVL9:
 139 0006 041C     		mov	r4, r0
 140              	.LVL10:
  93:chain_flow/cf_external_functions.c ****     CySysWdtUnlock();
 141              		.loc 1 93 0
 142 0008 FFF7FEFF 		bl	CySysWdtUnlock
 143              	.LVL11:
  94:chain_flow/cf_external_functions.c ****     CySysWatchdogFeed(CY_SYS_WDT_COUNTER1);
 144              		.loc 1 94 0
 145 000c 0120     		mov	r0, #1
 146 000e FFF7FEFF 		bl	CySysWatchdogFeed
 147              	.LVL12:
  95:chain_flow/cf_external_functions.c ****     CySysWdtLock();
 148              		.loc 1 95 0
 149 0012 FFF7FEFF 		bl	CySysWdtLock
 150              	.LVL13:
  96:chain_flow/cf_external_functions.c ****     CyExitCriticalSection(criticalState);
 151              		.loc 1 96 0
 152 0016 201C     		mov	r0, r4
 153 0018 FFF7FEFF 		bl	CyExitCriticalSection
 154              	.LVL14:
  97:chain_flow/cf_external_functions.c ****     return CF_DISABLE;
  98:chain_flow/cf_external_functions.c **** }
 155              		.loc 1 98 0
 156              		@ sp needed
 157 001c 0220     		mov	r0, #2
 158              	.LVL15:
 159 001e 10BD     		pop	{r4, pc}
 160              		.cfi_endproc
 161              	.LFE68:
 162              		.size	pat_watch_dog, .-pat_watch_dog
 163              		.section	.text.initialize_modbus_bus,"ax",%progbits
 164              		.align	2
 165              		.global	initialize_modbus_bus
 166              		.code	16
 167              		.thumb_func
 168              		.type	initialize_modbus_bus, %function
 169              	initialize_modbus_bus:
 170              	.LFB69:
  99:chain_flow/cf_external_functions.c **** 
 100:chain_flow/cf_external_functions.c **** 
 101:chain_flow/cf_external_functions.c **** 
 102:chain_flow/cf_external_functions.c **** 
 103:chain_flow/cf_external_functions.c **** 
 104:chain_flow/cf_external_functions.c **** 
 105:chain_flow/cf_external_functions.c **** /*
 106:chain_flow/cf_external_functions.c **** **
 107:chain_flow/cf_external_functions.c **** **  modbus functions
 108:chain_flow/cf_external_functions.c **** **
 109:chain_flow/cf_external_functions.c **** **
 110:chain_flow/cf_external_functions.c **** **
 111:chain_flow/cf_external_functions.c **** */
 112:chain_flow/cf_external_functions.c **** 
 113:chain_flow/cf_external_functions.c **** 
 114:chain_flow/cf_external_functions.c **** int initialize_modbus_bus(unsigned link_id, unsigned param_1,
 115:chain_flow/cf_external_functions.c ****   unsigned param_2, unsigned param_3, unsigned event, unsigned data)
ARM GAS  C:\Users\glenn\AppData\Local\Temp\cceN5DEk.s 			page 6


 116:chain_flow/cf_external_functions.c **** {
 171              		.loc 1 116 0
 172              		.cfi_startproc
 173              	.LVL16:
 174 0000 08B5     		push	{r3, lr}
 175              		.cfi_def_cfa_offset 8
 176              		.cfi_offset 3, -8
 177              		.cfi_offset 14, -4
 117:chain_flow/cf_external_functions.c ****     
 118:chain_flow/cf_external_functions.c ****     initialize_modbus_rtu();
 178              		.loc 1 118 0
 179 0002 FFF7FEFF 		bl	initialize_modbus_rtu
 180              	.LVL17:
 119:chain_flow/cf_external_functions.c ****     return 0;
 120:chain_flow/cf_external_functions.c **** }
 181              		.loc 1 120 0
 182              		@ sp needed
 183 0006 0020     		mov	r0, #0
 184 0008 08BD     		pop	{r3, pc}
 185              		.cfi_endproc
 186              	.LFE69:
 187              		.size	initialize_modbus_bus, .-initialize_modbus_bus
 188              		.section	.text.set_minute_rollover_flag,"ax",%progbits
 189              		.align	2
 190              		.global	set_minute_rollover_flag
 191              		.code	16
 192              		.thumb_func
 193              		.type	set_minute_rollover_flag, %function
 194              	set_minute_rollover_flag:
 195              	.LFB70:
 121:chain_flow/cf_external_functions.c **** 
 122:chain_flow/cf_external_functions.c **** /*
 123:chain_flow/cf_external_functions.c **** **
 124:chain_flow/cf_external_functions.c **** ** One Minute Interrupt
 125:chain_flow/cf_external_functions.c **** **
 126:chain_flow/cf_external_functions.c **** */
 127:chain_flow/cf_external_functions.c **** int set_minute_rollover_flag(unsigned link_id, unsigned param_1,
 128:chain_flow/cf_external_functions.c ****   unsigned param_2, unsigned param_3, unsigned event, unsigned data)
 129:chain_flow/cf_external_functions.c **** {
 196              		.loc 1 129 0
 197              		.cfi_startproc
 198              	.LVL18:
 199 0000 00B5     		push	{lr}
 200              		.cfi_def_cfa_offset 4
 201              		.cfi_offset 14, -4
 202 0002 83B0     		sub	sp, sp, #12
 203              		.cfi_def_cfa_offset 16
 130:chain_flow/cf_external_functions.c ****     uint16 temp;
 131:chain_flow/cf_external_functions.c ****     temp = 1;
 204              		.loc 1 131 0
 205 0004 6B46     		mov	r3, sp
 206              	.LVL19:
 207 0006 9A1D     		add	r2, r3, #6
 208              	.LVL20:
 209 0008 0123     		mov	r3, #1
 132:chain_flow/cf_external_functions.c ****     store_modbus_data_registers(MOD_MINUTE_ROLLOVER , 1, &temp);
 210              		.loc 1 132 0
ARM GAS  C:\Users\glenn\AppData\Local\Temp\cceN5DEk.s 			page 7


 211 000a 0121     		mov	r1, #1
 212              	.LVL21:
 213 000c 0620     		mov	r0, #6
 214              	.LVL22:
 131:chain_flow/cf_external_functions.c ****     store_modbus_data_registers(MOD_MINUTE_ROLLOVER , 1, &temp);
 215              		.loc 1 131 0
 216 000e 1380     		strh	r3, [r2]
 217              		.loc 1 132 0
 218 0010 FFF7FEFF 		bl	store_modbus_data_registers
 219              	.LVL23:
 133:chain_flow/cf_external_functions.c ****     return 0;
 134:chain_flow/cf_external_functions.c **** }
 220              		.loc 1 134 0
 221 0014 0020     		mov	r0, #0
 222 0016 03B0     		add	sp, sp, #12
 223              		@ sp needed
 224 0018 00BD     		pop	{pc}
 225              		.cfi_endproc
 226              	.LFE70:
 227              		.size	set_minute_rollover_flag, .-set_minute_rollover_flag
 228 001a C046     		.section	.text.set_modbus_watch_dog_flag,"ax",%progbits
 229              		.align	2
 230              		.global	set_modbus_watch_dog_flag
 231              		.code	16
 232              		.thumb_func
 233              		.type	set_modbus_watch_dog_flag, %function
 234              	set_modbus_watch_dog_flag:
 235              	.LFB71:
 135:chain_flow/cf_external_functions.c **** 
 136:chain_flow/cf_external_functions.c **** int set_modbus_watch_dog_flag(unsigned link_id, unsigned param_1,
 137:chain_flow/cf_external_functions.c ****   unsigned param_2, unsigned param_3, unsigned event, unsigned data)
 138:chain_flow/cf_external_functions.c **** {
 236              		.loc 1 138 0
 237              		.cfi_startproc
 238              	.LVL24:
 239 0000 00B5     		push	{lr}
 240              		.cfi_def_cfa_offset 4
 241              		.cfi_offset 14, -4
 242 0002 83B0     		sub	sp, sp, #12
 243              		.cfi_def_cfa_offset 16
 139:chain_flow/cf_external_functions.c ****     uint16 temp;
 140:chain_flow/cf_external_functions.c ****     temp = 1;
 244              		.loc 1 140 0
 245 0004 6B46     		mov	r3, sp
 246              	.LVL25:
 247 0006 9A1D     		add	r2, r3, #6
 248              	.LVL26:
 249 0008 0123     		mov	r3, #1
 141:chain_flow/cf_external_functions.c ****     store_modbus_data_registers( MOD_RTU_WATCH_DOG_FLAG, 1, &temp);
 250              		.loc 1 141 0
 251 000a 0121     		mov	r1, #1
 252              	.LVL27:
 253 000c 0120     		mov	r0, #1
 254              	.LVL28:
 140:chain_flow/cf_external_functions.c ****     store_modbus_data_registers( MOD_RTU_WATCH_DOG_FLAG, 1, &temp);
 255              		.loc 1 140 0
 256 000e 1380     		strh	r3, [r2]
ARM GAS  C:\Users\glenn\AppData\Local\Temp\cceN5DEk.s 			page 8


 257              		.loc 1 141 0
 258 0010 FFF7FEFF 		bl	store_modbus_data_registers
 259              	.LVL29:
 142:chain_flow/cf_external_functions.c ****     return 0;
 143:chain_flow/cf_external_functions.c **** }
 260              		.loc 1 143 0
 261 0014 0020     		mov	r0, #0
 262 0016 03B0     		add	sp, sp, #12
 263              		@ sp needed
 264 0018 00BD     		pop	{pc}
 265              		.cfi_endproc
 266              	.LFE71:
 267              		.size	set_modbus_watch_dog_flag, .-set_modbus_watch_dog_flag
 268 001a C046     		.section	.text.update_modbus_rtc_values,"ax",%progbits
 269              		.align	2
 270              		.global	update_modbus_rtc_values
 271              		.code	16
 272              		.thumb_func
 273              		.type	update_modbus_rtc_values, %function
 274              	update_modbus_rtc_values:
 275              	.LFB72:
 144:chain_flow/cf_external_functions.c **** 
 145:chain_flow/cf_external_functions.c **** int update_modbus_rtc_values(unsigned link_id, unsigned param_1,
 146:chain_flow/cf_external_functions.c ****   unsigned param_2, unsigned param_3, unsigned event, unsigned data)
 147:chain_flow/cf_external_functions.c **** {
 276              		.loc 1 147 0
 277              		.cfi_startproc
 278              	.LVL30:
 279 0000 00B5     		push	{lr}
 280              		.cfi_def_cfa_offset 4
 281              		.cfi_offset 14, -4
 282 0002 83B0     		sub	sp, sp, #12
 283              		.cfi_def_cfa_offset 16
 148:chain_flow/cf_external_functions.c ****     uint64 time;
 149:chain_flow/cf_external_functions.c **** 
 150:chain_flow/cf_external_functions.c ****     time = RTC_1_GetUnixTime();
 284              		.loc 1 150 0
 285 0004 FFF7FEFF 		bl	RTC_1_GetUnixTime
 286              	.LVL31:
 151:chain_flow/cf_external_functions.c ****     store_modbus_data_registers( MOD_RTU_UNIX_TIME, 4, (uint16 *)&time);
 287              		.loc 1 151 0
 288 0008 6A46     		mov	r2, sp
 150:chain_flow/cf_external_functions.c ****     store_modbus_data_registers( MOD_RTU_UNIX_TIME, 4, (uint16 *)&time);
 289              		.loc 1 150 0
 290 000a 0090     		str	r0, [sp]
 291 000c 0191     		str	r1, [sp, #4]
 292              		.loc 1 151 0
 293 000e 0421     		mov	r1, #4
 294 0010 0820     		mov	r0, #8
 295 0012 FFF7FEFF 		bl	store_modbus_data_registers
 296              	.LVL32:
 152:chain_flow/cf_external_functions.c ****    
 153:chain_flow/cf_external_functions.c ****     return 0;
 154:chain_flow/cf_external_functions.c **** }
 297              		.loc 1 154 0
 298 0016 0020     		mov	r0, #0
 299 0018 03B0     		add	sp, sp, #12
ARM GAS  C:\Users\glenn\AppData\Local\Temp\cceN5DEk.s 			page 9


 300              		@ sp needed
 301 001a 00BD     		pop	{pc}
 302              		.cfi_endproc
 303              	.LFE72:
 304              		.size	update_modbus_rtc_values, .-update_modbus_rtc_values
 305              		.section	.text.restore_system_parameters,"ax",%progbits
 306              		.align	2
 307              		.global	restore_system_parameters
 308              		.code	16
 309              		.thumb_func
 310              		.type	restore_system_parameters, %function
 311              	restore_system_parameters:
 312              	.LFB73:
 155:chain_flow/cf_external_functions.c **** 
 156:chain_flow/cf_external_functions.c **** int restore_system_parameters(unsigned link_id, unsigned param_1,
 157:chain_flow/cf_external_functions.c ****   unsigned param_2, unsigned param_3, unsigned event, unsigned data)
 158:chain_flow/cf_external_functions.c **** {
 313              		.loc 1 158 0
 314              		.cfi_startproc
 315              	.LVL33:
 316 0000 10B5     		push	{r4, lr}
 317              		.cfi_def_cfa_offset 8
 318              		.cfi_offset 4, -8
 319              		.cfi_offset 14, -4
 159:chain_flow/cf_external_functions.c ****    CONFIGURATION_DATA *ptr;
 160:chain_flow/cf_external_functions.c ****    initialize_modbus_registers();
 320              		.loc 1 160 0
 321 0002 FFF7FEFF 		bl	initialize_modbus_registers
 322              	.LVL34:
 161:chain_flow/cf_external_functions.c ****    ptr = get_configuration_data();
 323              		.loc 1 161 0
 324 0006 FFF7FEFF 		bl	get_configuration_data
 325              	.LVL35:
 326 000a 041C     		mov	r4, r0
 327              	.LVL36:
 162:chain_flow/cf_external_functions.c ****    memcpy( modbus_address_data, ptr->modbus_address, sizeof(modbus_address_data) );
 328              		.loc 1 162 0
 329 000c 811C     		add	r1, r0, #2
 330 000e 0422     		mov	r2, #4
 331 0010 0A48     		ldr	r0, .L11
 332              	.LVL37:
 333 0012 FFF7FEFF 		bl	memcpy
 334              	.LVL38:
 163:chain_flow/cf_external_functions.c ****    store_modbus_data_registers( RESISTOR_FLOAT, 2, (uint16*)&ptr->resistance_value);
 335              		.loc 1 163 0
 336 0016 221C     		mov	r2, r4
 337 0018 0221     		mov	r1, #2
 338 001a 0832     		add	r2, r2, #8
 339 001c 1520     		mov	r0, #21
 340 001e FFF7FEFF 		bl	store_modbus_data_registers
 341              	.LVL39:
 164:chain_flow/cf_external_functions.c **** 
 165:chain_flow/cf_external_functions.c ****    
 166:chain_flow/cf_external_functions.c ****    store_modbus_data_registers( RESISTIVE_SENSOR_1_CONFIGURATION, RESISTIVE_SENSOR_NUMBER, (uint16*
 342              		.loc 1 166 0
 343 0022 221C     		mov	r2, r4
 344 0024 1021     		mov	r1, #16
ARM GAS  C:\Users\glenn\AppData\Local\Temp\cceN5DEk.s 			page 10


 345 0026 0E32     		add	r2, r2, #14
 346 0028 6E20     		mov	r0, #110
 347 002a FFF7FEFF 		bl	store_modbus_data_registers
 348              	.LVL40:
 167:chain_flow/cf_external_functions.c ****    store_modbus_data_registers( MOD_UNIT_ID, 1,(uint16 *) &ptr->uint_id ); 
 349              		.loc 1 167 0
 350 002e 0121     		mov	r1, #1
 351 0030 221C     		mov	r2, r4
 352 0032 0020     		mov	r0, #0
 353 0034 FFF7FEFF 		bl	store_modbus_data_registers
 354              	.LVL41:
 168:chain_flow/cf_external_functions.c ****     return 0;
 169:chain_flow/cf_external_functions.c **** }
 355              		.loc 1 169 0
 356              		@ sp needed
 357 0038 0020     		mov	r0, #0
 358              	.LVL42:
 359 003a 10BD     		pop	{r4, pc}
 360              	.L12:
 361              		.align	2
 362              	.L11:
 363 003c 00000000 		.word	modbus_address_data
 364              		.cfi_endproc
 365              	.LFE73:
 366              		.size	restore_system_parameters, .-restore_system_parameters
 367              		.section	.text.set_modbus_reset_flag,"ax",%progbits
 368              		.align	2
 369              		.global	set_modbus_reset_flag
 370              		.code	16
 371              		.thumb_func
 372              		.type	set_modbus_reset_flag, %function
 373              	set_modbus_reset_flag:
 374              	.LFB74:
 170:chain_flow/cf_external_functions.c **** 
 171:chain_flow/cf_external_functions.c **** 
 172:chain_flow/cf_external_functions.c **** 
 173:chain_flow/cf_external_functions.c **** 
 174:chain_flow/cf_external_functions.c **** 
 175:chain_flow/cf_external_functions.c **** 
 176:chain_flow/cf_external_functions.c **** /*
 177:chain_flow/cf_external_functions.c ****     Reset reason values;
 178:chain_flow/cf_external_functions.c ****  
 179:chain_flow/cf_external_functions.c ****    CY_SYS_RESET_WDT       - WDT caused a reset
 180:chain_flow/cf_external_functions.c ****    CY_SYS_RESET_PROTFAULT - Occured protection violation that requires reset
 181:chain_flow/cf_external_functions.c ****    CY_SYS_RESET_SW        - Cortex-M0 requested a system reset.
 182:chain_flow/cf_external_functions.c **** 
 183:chain_flow/cf_external_functions.c **** */
 184:chain_flow/cf_external_functions.c **** 
 185:chain_flow/cf_external_functions.c **** 
 186:chain_flow/cf_external_functions.c **** 
 187:chain_flow/cf_external_functions.c **** int set_modbus_reset_flag(unsigned link_id, unsigned param_1,
 188:chain_flow/cf_external_functions.c ****   unsigned param_2, unsigned param_3, unsigned event, unsigned data)
 189:chain_flow/cf_external_functions.c **** {
 375              		.loc 1 189 0
 376              		.cfi_startproc
 377              	.LVL43:
 378 0000 10B5     		push	{r4, lr}
ARM GAS  C:\Users\glenn\AppData\Local\Temp\cceN5DEk.s 			page 11


 379              		.cfi_def_cfa_offset 8
 380              		.cfi_offset 4, -8
 381              		.cfi_offset 14, -4
 382 0002 82B0     		sub	sp, sp, #8
 383              		.cfi_def_cfa_offset 16
 190:chain_flow/cf_external_functions.c ****    uint16 temp;
 191:chain_flow/cf_external_functions.c ****    temp = 1;
 384              		.loc 1 191 0
 385 0004 6B46     		mov	r3, sp
 386              	.LVL44:
 387 0006 9C1D     		add	r4, r3, #6
 388 0008 0123     		mov	r3, #1
 192:chain_flow/cf_external_functions.c ****    store_modbus_data_registers( MOD_POWER_UP_EVENT, 1, &temp);
 389              		.loc 1 192 0
 390 000a 221C     		mov	r2, r4
 391              	.LVL45:
 392 000c 0121     		mov	r1, #1
 393              	.LVL46:
 394 000e 0420     		mov	r0, #4
 395              	.LVL47:
 191:chain_flow/cf_external_functions.c ****    store_modbus_data_registers( MOD_POWER_UP_EVENT, 1, &temp);
 396              		.loc 1 191 0
 397 0010 2380     		strh	r3, [r4]
 398              		.loc 1 192 0
 399 0012 FFF7FEFF 		bl	store_modbus_data_registers
 400              	.LVL48:
 193:chain_flow/cf_external_functions.c ****    temp = CY_SYS_RES_CAUSE_REG;
 401              		.loc 1 193 0
 402 0016 054B     		ldr	r3, .L14
 194:chain_flow/cf_external_functions.c ****    store_modbus_data_registers( MOD_RESET_REASON, 1, &temp);
 403              		.loc 1 194 0
 404 0018 0121     		mov	r1, #1
 193:chain_flow/cf_external_functions.c ****    temp = CY_SYS_RES_CAUSE_REG;
 405              		.loc 1 193 0
 406 001a 1B68     		ldr	r3, [r3]
 407              		.loc 1 194 0
 408 001c 221C     		mov	r2, r4
 409 001e 0520     		mov	r0, #5
 193:chain_flow/cf_external_functions.c ****    temp = CY_SYS_RES_CAUSE_REG;
 410              		.loc 1 193 0
 411 0020 2380     		strh	r3, [r4]
 412              		.loc 1 194 0
 413 0022 FFF7FEFF 		bl	store_modbus_data_registers
 414              	.LVL49:
 195:chain_flow/cf_external_functions.c ****    return 0;
 196:chain_flow/cf_external_functions.c **** }
 415              		.loc 1 196 0
 416 0026 0020     		mov	r0, #0
 417 0028 02B0     		add	sp, sp, #8
 418              		@ sp needed
 419 002a 10BD     		pop	{r4, pc}
 420              	.L15:
 421              		.align	2
 422              	.L14:
 423 002c 00030B40 		.word	1074463488
 424              		.cfi_endproc
 425              	.LFE74:
ARM GAS  C:\Users\glenn\AppData\Local\Temp\cceN5DEk.s 			page 12


 426              		.size	set_modbus_reset_flag, .-set_modbus_reset_flag
 427              		.section	.text.switch_on_fn,"ax",%progbits
 428              		.align	2
 429              		.global	switch_on_fn
 430              		.code	16
 431              		.thumb_func
 432              		.type	switch_on_fn, %function
 433              	switch_on_fn:
 434              	.LFB75:
 197:chain_flow/cf_external_functions.c **** 
 198:chain_flow/cf_external_functions.c **** /*
 199:chain_flow/cf_external_functions.c **** **
 200:chain_flow/cf_external_functions.c **** ** Modbus Commissioning Functions
 201:chain_flow/cf_external_functions.c **** **
 202:chain_flow/cf_external_functions.c **** **
 203:chain_flow/cf_external_functions.c **** **
 204:chain_flow/cf_external_functions.c **** */
 205:chain_flow/cf_external_functions.c **** extern  volatile uint32 switch_on;
 206:chain_flow/cf_external_functions.c **** 
 207:chain_flow/cf_external_functions.c **** int switch_on_fn(unsigned link_id, unsigned param_1,
 208:chain_flow/cf_external_functions.c ****   unsigned param_2, unsigned param_3, unsigned event, unsigned data)
 209:chain_flow/cf_external_functions.c **** {
 435              		.loc 1 209 0
 436              		.cfi_startproc
 437              	.LVL50:
 210:chain_flow/cf_external_functions.c ****    int return_value;
 211:chain_flow/cf_external_functions.c ****     
 212:chain_flow/cf_external_functions.c ****    if( switch_on == 0 )
 438              		.loc 1 212 0
 439 0000 024B     		ldr	r3, .L17
 440              	.LVL51:
 213:chain_flow/cf_external_functions.c ****    {
 214:chain_flow/cf_external_functions.c ****       return_value = 1;  // switch is active low
 215:chain_flow/cf_external_functions.c ****    }
 216:chain_flow/cf_external_functions.c ****    else
 217:chain_flow/cf_external_functions.c ****    {
 218:chain_flow/cf_external_functions.c ****       return_value = 0;
 219:chain_flow/cf_external_functions.c ****    }
 220:chain_flow/cf_external_functions.c ****    return return_value;
 221:chain_flow/cf_external_functions.c **** }
 441              		.loc 1 221 0
 442              		@ sp needed
 212:chain_flow/cf_external_functions.c ****    {
 443              		.loc 1 212 0
 444 0002 1868     		ldr	r0, [r3]
 445              	.LVL52:
 446 0004 4342     		neg	r3, r0
 447 0006 5841     		adc	r0, r0, r3
 448              	.LVL53:
 449              		.loc 1 221 0
 450 0008 7047     		bx	lr
 451              	.L18:
 452 000a C046     		.align	2
 453              	.L17:
 454 000c 00000000 		.word	switch_on
 455              		.cfi_endproc
 456              	.LFE75:
ARM GAS  C:\Users\glenn\AppData\Local\Temp\cceN5DEk.s 			page 13


 457              		.size	switch_on_fn, .-switch_on_fn
 458              		.section	.text.switch_off_fn,"ax",%progbits
 459              		.align	2
 460              		.global	switch_off_fn
 461              		.code	16
 462              		.thumb_func
 463              		.type	switch_off_fn, %function
 464              	switch_off_fn:
 465              	.LFB76:
 222:chain_flow/cf_external_functions.c **** 
 223:chain_flow/cf_external_functions.c **** 
 224:chain_flow/cf_external_functions.c **** int switch_off_fn(unsigned link_id, unsigned param_1,
 225:chain_flow/cf_external_functions.c ****   unsigned param_2, unsigned param_3, unsigned event, unsigned data)
 226:chain_flow/cf_external_functions.c **** {
 466              		.loc 1 226 0
 467              		.cfi_startproc
 468              	.LVL54:
 227:chain_flow/cf_external_functions.c ****    int return_value;
 228:chain_flow/cf_external_functions.c ****     
 229:chain_flow/cf_external_functions.c ****    if( switch_on == 0 )
 469              		.loc 1 229 0
 470 0000 024B     		ldr	r3, .L20
 471              	.LVL55:
 230:chain_flow/cf_external_functions.c ****    {
 231:chain_flow/cf_external_functions.c ****       return_value = 0; // switch is active low
 232:chain_flow/cf_external_functions.c ****    }
 233:chain_flow/cf_external_functions.c ****    else
 234:chain_flow/cf_external_functions.c ****    {
 235:chain_flow/cf_external_functions.c ****       return_value = 1;
 236:chain_flow/cf_external_functions.c ****    }
 237:chain_flow/cf_external_functions.c ****    return return_value;
 238:chain_flow/cf_external_functions.c **** }
 472              		.loc 1 238 0
 473              		@ sp needed
 229:chain_flow/cf_external_functions.c ****    {
 474              		.loc 1 229 0
 475 0002 1868     		ldr	r0, [r3]
 476              	.LVL56:
 477 0004 431E     		sub	r3, r0, #1
 478 0006 9841     		sbc	r0, r0, r3
 479              	.LVL57:
 480              		.loc 1 238 0
 481 0008 7047     		bx	lr
 482              	.L21:
 483 000a C046     		.align	2
 484              	.L20:
 485 000c 00000000 		.word	switch_on
 486              		.cfi_endproc
 487              	.LFE76:
 488              		.size	switch_off_fn, .-switch_off_fn
 489              		.section	.text.program_flash,"ax",%progbits
 490              		.align	2
 491              		.global	program_flash
 492              		.code	16
 493              		.thumb_func
 494              		.type	program_flash, %function
 495              	program_flash:
ARM GAS  C:\Users\glenn\AppData\Local\Temp\cceN5DEk.s 			page 14


 496              	.LFB77:
 239:chain_flow/cf_external_functions.c **** 
 240:chain_flow/cf_external_functions.c **** int program_flash(unsigned link_id, unsigned param_1,
 241:chain_flow/cf_external_functions.c ****   unsigned param_2, unsigned param_3, unsigned event, unsigned data)
 242:chain_flow/cf_external_functions.c **** {
 497              		.loc 1 242 0
 498              		.cfi_startproc
 499              	.LVL58:
 500 0000 08B5     		push	{r3, lr}
 501              		.cfi_def_cfa_offset 8
 502              		.cfi_offset 3, -8
 503              		.cfi_offset 14, -4
 243:chain_flow/cf_external_functions.c ****     store_configuration_data(  );
 504              		.loc 1 243 0
 505 0002 FFF7FEFF 		bl	store_configuration_data
 506              	.LVL59:
 244:chain_flow/cf_external_functions.c ****     return 0;
 245:chain_flow/cf_external_functions.c **** }
 507              		.loc 1 245 0
 508              		@ sp needed
 509 0006 0020     		mov	r0, #0
 510 0008 08BD     		pop	{r3, pc}
 511              		.cfi_endproc
 512              	.LFE77:
 513              		.size	program_flash, .-program_flash
 514              		.text
 515              	.Letext0:
 516              		.file 2 "Generated_Source\\PSoC4/cytypes.h"
 517              		.file 3 "./configuration_data.h"
 518              		.file 4 "chain_flow\\cf_status_bit.h"
 519              		.file 5 "Generated_Source\\PSoC4/Heart_Beat_Pin.h"
 520              		.file 6 "Generated_Source\\PSoC4/CyLib.h"
 521              		.file 7 "Generated_Source\\PSoC4/ADC_SAR_Seq_1.h"
 522              		.file 8 "Generated_Source\\PSoC4/CyLFClk.h"
 523              		.file 9 ".\\rtu_modbus/modbus_serial_ctrl.h"
 524              		.file 10 "Generated_Source\\PSoC4/RTC_1.h"
 525              		.file 11 ".\\rtu_modbus/process_modbus_message.h"