ARM GAS  C:\Users\glenn\AppData\Local\Temp\cczv3uac.s 			page 1


   1              		.cpu cortex-m0
   2              		.fpu softvfp
   3              		.eabi_attribute 20, 1
   4              		.eabi_attribute 21, 1
   5              		.eabi_attribute 23, 3
   6              		.eabi_attribute 24, 1
   7              		.eabi_attribute 25, 1
   8              		.eabi_attribute 26, 1
   9              		.eabi_attribute 30, 2
  10              		.eabi_attribute 34, 0
  11              		.eabi_attribute 18, 4
  12              		.code	16
  13              		.file	"cf_events.c"
  14              		.text
  15              	.Ltext0:
  16              		.cfi_sections	.debug_frame
  17              		.section	.text.cf_initialize_event_manager,"ax",%progbits
  18              		.align	2
  19              		.global	cf_initialize_event_manager
  20              		.code	16
  21              		.thumb_func
  22              		.type	cf_initialize_event_manager, %function
  23              	cf_initialize_event_manager:
  24              	.LFB62:
  25              		.file 1 "chain_flow\\cf_events.c"
   1:chain_flow/cf_events.c **** /*
   2:chain_flow/cf_events.c **** **
   3:chain_flow/cf_events.c **** ** File: cf_events.c
   4:chain_flow/cf_events.c **** **
   5:chain_flow/cf_events.c **** **
   6:chain_flow/cf_events.c **** **
   7:chain_flow/cf_events.c **** **
   8:chain_flow/cf_events.c **** */
   9:chain_flow/cf_events.c **** #include <project.h>
  10:chain_flow/cf_events.c **** #include "cf_events.h"
  11:chain_flow/cf_events.c **** 
  12:chain_flow/cf_events.c **** 
  13:chain_flow/cf_events.c **** #define EVENT_SIZE 256
  14:chain_flow/cf_events.c **** #define EVENT_MASK 255
  15:chain_flow/cf_events.c **** 
  16:chain_flow/cf_events.c **** static unsigned rx_index;
  17:chain_flow/cf_events.c **** static unsigned tx_index;
  18:chain_flow/cf_events.c **** static unsigned event_number;
  19:chain_flow/cf_events.c **** 
  20:chain_flow/cf_events.c **** typedef struct
  21:chain_flow/cf_events.c **** {
  22:chain_flow/cf_events.c ****    unsigned  event;
  23:chain_flow/cf_events.c ****    unsigned  data;
  24:chain_flow/cf_events.c **** }EVENT_DATA;
  25:chain_flow/cf_events.c **** 
  26:chain_flow/cf_events.c **** static EVENT_DATA event_data[ EVENT_SIZE ];
  27:chain_flow/cf_events.c **** 
  28:chain_flow/cf_events.c **** void cf_initialize_event_manager( void )
  29:chain_flow/cf_events.c **** {
  26              		.loc 1 29 0
  27              		.cfi_startproc
  30:chain_flow/cf_events.c ****    rx_index     = 0;
ARM GAS  C:\Users\glenn\AppData\Local\Temp\cczv3uac.s 			page 2


  28              		.loc 1 30 0
  29 0000 0022     		mov	r2, #0
  30 0002 024B     		ldr	r3, .L2
  31:chain_flow/cf_events.c ****    tx_index     = 0;
  32:chain_flow/cf_events.c ****    event_number = 0;
  33:chain_flow/cf_events.c **** }
  31              		.loc 1 33 0
  32              		@ sp needed
  30:chain_flow/cf_events.c ****    rx_index     = 0;
  33              		.loc 1 30 0
  34 0004 1A60     		str	r2, [r3]
  31:chain_flow/cf_events.c ****    tx_index     = 0;
  35              		.loc 1 31 0
  36 0006 5A60     		str	r2, [r3, #4]
  32:chain_flow/cf_events.c **** }
  37              		.loc 1 32 0
  38 0008 9A60     		str	r2, [r3, #8]
  39              		.loc 1 33 0
  40 000a 7047     		bx	lr
  41              	.L3:
  42              		.align	2
  43              	.L2:
  44 000c 00000000 		.word	.LANCHOR0
  45              		.cfi_endproc
  46              	.LFE62:
  47              		.size	cf_initialize_event_manager, .-cf_initialize_event_manager
  48              		.section	.text.cf_send_interrupt_event,"ax",%progbits
  49              		.align	2
  50              		.global	cf_send_interrupt_event
  51              		.code	16
  52              		.thumb_func
  53              		.type	cf_send_interrupt_event, %function
  54              	cf_send_interrupt_event:
  55              	.LFB63:
  34:chain_flow/cf_events.c **** 
  35:chain_flow/cf_events.c **** void cf_send_interrupt_event( unsigned event, unsigned data)
  36:chain_flow/cf_events.c **** {
  56              		.loc 1 36 0
  57              		.cfi_startproc
  58              	.LVL0:
  37:chain_flow/cf_events.c ****   
  38:chain_flow/cf_events.c ****    if( event_number < EVENT_SIZE )
  59              		.loc 1 38 0
  60 0000 084B     		ldr	r3, .L7
  36:chain_flow/cf_events.c ****   
  61              		.loc 1 36 0
  62 0002 30B5     		push	{r4, r5, lr}
  63              		.cfi_def_cfa_offset 12
  64              		.cfi_offset 4, -12
  65              		.cfi_offset 5, -8
  66              		.cfi_offset 14, -4
  67              		.loc 1 38 0
  68 0004 9C68     		ldr	r4, [r3, #8]
  69 0006 FF2C     		cmp	r4, #255
  70 0008 0AD8     		bhi	.L4
  39:chain_flow/cf_events.c ****    {
  40:chain_flow/cf_events.c ****      event_data[rx_index].event      = event;
ARM GAS  C:\Users\glenn\AppData\Local\Temp\cczv3uac.s 			page 3


  71              		.loc 1 40 0
  72 000a 1A68     		ldr	r2, [r3]
  41:chain_flow/cf_events.c ****      event_data[rx_index].data       = data;
  42:chain_flow/cf_events.c ****      event_number++;
  73              		.loc 1 42 0
  74 000c 0134     		add	r4, r4, #1
  40:chain_flow/cf_events.c ****      event_data[rx_index].data       = data;
  75              		.loc 1 40 0
  76 000e D500     		lsl	r5, r2, #3
  77 0010 5D19     		add	r5, r3, r5
  41:chain_flow/cf_events.c ****      event_data[rx_index].data       = data;
  78              		.loc 1 41 0
  79 0012 2961     		str	r1, [r5, #16]
  43:chain_flow/cf_events.c ****      rx_index = ( rx_index +1 )&EVENT_MASK;
  80              		.loc 1 43 0
  81 0014 FF21     		mov	r1, #255
  82              	.LVL1:
  83 0016 0132     		add	r2, r2, #1
  84 0018 0A40     		and	r2, r1
  40:chain_flow/cf_events.c ****      event_data[rx_index].data       = data;
  85              		.loc 1 40 0
  86 001a E860     		str	r0, [r5, #12]
  42:chain_flow/cf_events.c ****      rx_index = ( rx_index +1 )&EVENT_MASK;
  87              		.loc 1 42 0
  88 001c 9C60     		str	r4, [r3, #8]
  89              		.loc 1 43 0
  90 001e 1A60     		str	r2, [r3]
  91              	.LVL2:
  92              	.L4:
  44:chain_flow/cf_events.c ****    }
  45:chain_flow/cf_events.c ****    
  46:chain_flow/cf_events.c **** }
  93              		.loc 1 46 0
  94              		@ sp needed
  95 0020 30BD     		pop	{r4, r5, pc}
  96              	.L8:
  97 0022 C046     		.align	2
  98              	.L7:
  99 0024 00000000 		.word	.LANCHOR0
 100              		.cfi_endproc
 101              	.LFE63:
 102              		.size	cf_send_interrupt_event, .-cf_send_interrupt_event
 103              		.section	.text.cf_send_event,"ax",%progbits
 104              		.align	2
 105              		.global	cf_send_event
 106              		.code	16
 107              		.thumb_func
 108              		.type	cf_send_event, %function
 109              	cf_send_event:
 110              	.LFB64:
  47:chain_flow/cf_events.c **** 
  48:chain_flow/cf_events.c **** void cf_send_event( unsigned event, unsigned data )
  49:chain_flow/cf_events.c **** {
 111              		.loc 1 49 0
 112              		.cfi_startproc
 113              	.LVL3:
 114 0000 70B5     		push	{r4, r5, r6, lr}
ARM GAS  C:\Users\glenn\AppData\Local\Temp\cczv3uac.s 			page 4


 115              		.cfi_def_cfa_offset 16
 116              		.cfi_offset 4, -16
 117              		.cfi_offset 5, -12
 118              		.cfi_offset 6, -8
 119              		.cfi_offset 14, -4
 120              		.loc 1 49 0
 121 0002 0D1C     		mov	r5, r1
 122 0004 061C     		mov	r6, r0
  50:chain_flow/cf_events.c ****    uint8  criticalState;
  51:chain_flow/cf_events.c ****     criticalState = CyEnterCriticalSection();
 123              		.loc 1 51 0
 124 0006 FFF7FEFF 		bl	CyEnterCriticalSection
 125              	.LVL4:
  52:chain_flow/cf_events.c ****    if( event_number < EVENT_SIZE )
 126              		.loc 1 52 0
 127 000a 094B     		ldr	r3, .L11
 128 000c 9968     		ldr	r1, [r3, #8]
 129 000e FF29     		cmp	r1, #255
 130 0010 0AD8     		bhi	.L10
  53:chain_flow/cf_events.c ****    {
  54:chain_flow/cf_events.c ****      event_data[rx_index].event      = event;
  55:chain_flow/cf_events.c ****      event_data[rx_index].data       = data;
  56:chain_flow/cf_events.c ****      event_number++;
 131              		.loc 1 56 0
 132 0012 0131     		add	r1, r1, #1
 133 0014 9960     		str	r1, [r3, #8]
  57:chain_flow/cf_events.c ****      rx_index = ( rx_index +1 )&EVENT_MASK;
 134              		.loc 1 57 0
 135 0016 FF21     		mov	r1, #255
  54:chain_flow/cf_events.c ****      event_data[rx_index].data       = data;
 136              		.loc 1 54 0
 137 0018 1A68     		ldr	r2, [r3]
 138 001a D400     		lsl	r4, r2, #3
 139              		.loc 1 57 0
 140 001c 0132     		add	r2, r2, #1
  54:chain_flow/cf_events.c ****      event_data[rx_index].data       = data;
 141              		.loc 1 54 0
 142 001e 1C19     		add	r4, r3, r4
 143              		.loc 1 57 0
 144 0020 0A40     		and	r2, r1
  54:chain_flow/cf_events.c ****      event_data[rx_index].data       = data;
 145              		.loc 1 54 0
 146 0022 E660     		str	r6, [r4, #12]
  55:chain_flow/cf_events.c ****      event_number++;
 147              		.loc 1 55 0
 148 0024 2561     		str	r5, [r4, #16]
 149              		.loc 1 57 0
 150 0026 1A60     		str	r2, [r3]
 151              	.L10:
  58:chain_flow/cf_events.c ****    }
  59:chain_flow/cf_events.c ****    CyExitCriticalSection(criticalState);
 152              		.loc 1 59 0
 153 0028 FFF7FEFF 		bl	CyExitCriticalSection
 154              	.LVL5:
  60:chain_flow/cf_events.c **** }
 155              		.loc 1 60 0
 156              		@ sp needed
ARM GAS  C:\Users\glenn\AppData\Local\Temp\cczv3uac.s 			page 5


 157              	.LVL6:
 158              	.LVL7:
 159 002c 70BD     		pop	{r4, r5, r6, pc}
 160              	.L12:
 161 002e C046     		.align	2
 162              	.L11:
 163 0030 00000000 		.word	.LANCHOR0
 164              		.cfi_endproc
 165              	.LFE64:
 166              		.size	cf_send_event, .-cf_send_event
 167              		.section	.text.cf_rx_event,"ax",%progbits
 168              		.align	2
 169              		.global	cf_rx_event
 170              		.code	16
 171              		.thumb_func
 172              		.type	cf_rx_event, %function
 173              	cf_rx_event:
 174              	.LFB65:
  61:chain_flow/cf_events.c **** 
  62:chain_flow/cf_events.c **** 
  63:chain_flow/cf_events.c **** int cf_rx_event( unsigned *event, unsigned *data )
  64:chain_flow/cf_events.c **** {
 175              		.loc 1 64 0
 176              		.cfi_startproc
 177              	.LVL8:
 178 0000 F8B5     		push	{r3, r4, r5, r6, r7, lr}
 179              		.cfi_def_cfa_offset 24
 180              		.cfi_offset 3, -24
 181              		.cfi_offset 4, -20
 182              		.cfi_offset 5, -16
 183              		.cfi_offset 6, -12
 184              		.cfi_offset 7, -8
 185              		.cfi_offset 14, -4
 186              		.loc 1 64 0
 187 0002 0D1C     		mov	r5, r1
 188 0004 061C     		mov	r6, r0
  65:chain_flow/cf_events.c ****    int return_value;
  66:chain_flow/cf_events.c ****    uint8  criticalState;
  67:chain_flow/cf_events.c ****     criticalState = CyEnterCriticalSection();
 189              		.loc 1 67 0
 190 0006 FFF7FEFF 		bl	CyEnterCriticalSection
 191              	.LVL9:
  68:chain_flow/cf_events.c ****    // add interrupt protoection
  69:chain_flow/cf_events.c ****    if( event_number > 0 )
 192              		.loc 1 69 0
 193 000a 0B4B     		ldr	r3, .L17
  70:chain_flow/cf_events.c ****    {
  71:chain_flow/cf_events.c ****       *event          = event_data[tx_index].event;
  72:chain_flow/cf_events.c ****       *data     = event_data[tx_index].data;
  73:chain_flow/cf_events.c ****       return_value    = 1;
  74:chain_flow/cf_events.c ****       event_number--;
  75:chain_flow/cf_events.c ****       tx_index = ( tx_index +1 )&EVENT_MASK;
  76:chain_flow/cf_events.c **** 
  77:chain_flow/cf_events.c ****    }
  78:chain_flow/cf_events.c ****    else
  79:chain_flow/cf_events.c ****    {
  80:chain_flow/cf_events.c ****      return_value = 0;
ARM GAS  C:\Users\glenn\AppData\Local\Temp\cczv3uac.s 			page 6


 194              		.loc 1 80 0
 195 000c 0024     		mov	r4, #0
  69:chain_flow/cf_events.c ****    {
 196              		.loc 1 69 0
 197 000e 9968     		ldr	r1, [r3, #8]
 198 0010 0029     		cmp	r1, #0
 199 0012 0DD0     		beq	.L14
 200              	.LVL10:
  71:chain_flow/cf_events.c ****       *data     = event_data[tx_index].data;
 201              		.loc 1 71 0
 202 0014 5A68     		ldr	r2, [r3, #4]
  74:chain_flow/cf_events.c ****       tx_index = ( tx_index +1 )&EVENT_MASK;
 203              		.loc 1 74 0
 204 0016 0139     		sub	r1, r1, #1
  71:chain_flow/cf_events.c ****       *data     = event_data[tx_index].data;
 205              		.loc 1 71 0
 206 0018 D400     		lsl	r4, r2, #3
 207 001a 1C19     		add	r4, r3, r4
 208 001c E768     		ldr	r7, [r4, #12]
  74:chain_flow/cf_events.c ****       tx_index = ( tx_index +1 )&EVENT_MASK;
 209              		.loc 1 74 0
 210 001e 9960     		str	r1, [r3, #8]
  72:chain_flow/cf_events.c ****       return_value    = 1;
 211              		.loc 1 72 0
 212 0020 2469     		ldr	r4, [r4, #16]
  75:chain_flow/cf_events.c **** 
 213              		.loc 1 75 0
 214 0022 FF21     		mov	r1, #255
  71:chain_flow/cf_events.c ****       *data     = event_data[tx_index].data;
 215              		.loc 1 71 0
 216 0024 3760     		str	r7, [r6]
  72:chain_flow/cf_events.c ****       return_value    = 1;
 217              		.loc 1 72 0
 218 0026 2C60     		str	r4, [r5]
  73:chain_flow/cf_events.c ****       event_number--;
 219              		.loc 1 73 0
 220 0028 0124     		mov	r4, #1
  75:chain_flow/cf_events.c **** 
 221              		.loc 1 75 0
 222 002a 0132     		add	r2, r2, #1
 223 002c 0A40     		and	r2, r1
 224 002e 5A60     		str	r2, [r3, #4]
 225              	.LVL11:
 226              	.L14:
  81:chain_flow/cf_events.c ****    }
  82:chain_flow/cf_events.c ****    CyExitCriticalSection(criticalState);
 227              		.loc 1 82 0
 228 0030 FFF7FEFF 		bl	CyExitCriticalSection
 229              	.LVL12:
  83:chain_flow/cf_events.c ****    return return_value;
  84:chain_flow/cf_events.c **** }
 230              		.loc 1 84 0
 231              		@ sp needed
 232 0034 201C     		mov	r0, r4
 233              	.LVL13:
 234              	.LVL14:
 235              	.LVL15:
ARM GAS  C:\Users\glenn\AppData\Local\Temp\cczv3uac.s 			page 7


 236 0036 F8BD     		pop	{r3, r4, r5, r6, r7, pc}
 237              	.L18:
 238              		.align	2
 239              	.L17:
 240 0038 00000000 		.word	.LANCHOR0
 241              		.cfi_endproc
 242              	.LFE65:
 243              		.size	cf_rx_event, .-cf_rx_event
 244              		.bss
 245              		.align	2
 246              		.set	.LANCHOR0,. + 0
 247              		.type	rx_index, %object
 248              		.size	rx_index, 4
 249              	rx_index:
 250 0000 00000000 		.space	4
 251              		.type	tx_index, %object
 252              		.size	tx_index, 4
 253              	tx_index:
 254 0004 00000000 		.space	4
 255              		.type	event_number, %object
 256              		.size	event_number, 4
 257              	event_number:
 258 0008 00000000 		.space	4
 259              		.type	event_data, %object
 260              		.size	event_data, 2048
 261              	event_data:
 262 000c 00000000 		.space	2048
 262      00000000 
 262      00000000 
 262      00000000 
 262      00000000 
 263              		.text
 264              	.Letext0:
 265              		.file 2 "Generated_Source\\PSoC4/cytypes.h"
 266              		.file 3 "Generated_Source\\PSoC4/CyLib.h"