ARM GAS  C:\Users\glenn\AppData\Local\Temp\ccftzDgr.s 			page 1


   1              		.cpu cortex-m0
   2              		.fpu softvfp
   3              		.eabi_attribute 20, 1
   4              		.eabi_attribute 21, 1
   5              		.eabi_attribute 23, 3
   6              		.eabi_attribute 24, 1
   7              		.eabi_attribute 25, 1
   8              		.eabi_attribute 26, 1
   9              		.eabi_attribute 30, 6
  10              		.eabi_attribute 34, 0
  11              		.eabi_attribute 18, 4
  12              		.code	16
  13              		.file	"cf_runtime_functions.c"
  14              		.text
  15              	.Ltext0:
  16              		.cfi_sections	.debug_frame
  17              		.section	.text.RTC_1_GetSecond,"ax",%progbits
  18              		.align	2
  19              		.code	16
  20              		.thumb_func
  21              		.type	RTC_1_GetSecond, %function
  22              	RTC_1_GetSecond:
  23              	.LFB37:
  24              		.file 1 "Generated_Source\\PSoC4/RTC_1.h"
   1:Generated_Source\PSoC4/RTC_1.h **** /***************************************************************************//**
   2:Generated_Source\PSoC4/RTC_1.h **** * \file Name: RTC_1.h
   3:Generated_Source\PSoC4/RTC_1.h **** * \version 1.10
   4:Generated_Source\PSoC4/RTC_1.h **** *
   5:Generated_Source\PSoC4/RTC_1.h **** * \brief
   6:Generated_Source\PSoC4/RTC_1.h **** *  This file provides constants and parameter values for the RTC_P4 Component.
   7:Generated_Source\PSoC4/RTC_1.h **** *
   8:Generated_Source\PSoC4/RTC_1.h **** ********************************************************************************
   9:Generated_Source\PSoC4/RTC_1.h **** * Copyright 2015-2016, Cypress Semiconductor Corporation.  All rights reserved.
  10:Generated_Source\PSoC4/RTC_1.h **** * You may use this file only in accordance with the license, terms, conditions,
  11:Generated_Source\PSoC4/RTC_1.h **** * disclaimers, and limitations in the end user license agreement accompanying
  12:Generated_Source\PSoC4/RTC_1.h **** * the software package with which this file was provided.
  13:Generated_Source\PSoC4/RTC_1.h **** *******************************************************************************/
  14:Generated_Source\PSoC4/RTC_1.h **** 
  15:Generated_Source\PSoC4/RTC_1.h **** #if !defined(CY_RTC_P4_RTC_1_H)
  16:Generated_Source\PSoC4/RTC_1.h **** #define CY_RTC_P4_RTC_1_H
  17:Generated_Source\PSoC4/RTC_1.h **** 
  18:Generated_Source\PSoC4/RTC_1.h **** #include <cytypes.h>
  19:Generated_Source\PSoC4/RTC_1.h **** #include <CyLib.h>
  20:Generated_Source\PSoC4/RTC_1.h **** 
  21:Generated_Source\PSoC4/RTC_1.h **** 
  22:Generated_Source\PSoC4/RTC_1.h **** /*******************************************************************************
  23:Generated_Source\PSoC4/RTC_1.h **** *    Data types definition
  24:Generated_Source\PSoC4/RTC_1.h **** *******************************************************************************/
  25:Generated_Source\PSoC4/RTC_1.h **** 
  26:Generated_Source\PSoC4/RTC_1.h **** typedef enum
  27:Generated_Source\PSoC4/RTC_1.h **** {
  28:Generated_Source\PSoC4/RTC_1.h ****     RTC_1_DST_DATE_RELATIVE = 0u,
  29:Generated_Source\PSoC4/RTC_1.h ****     RTC_1_DST_DATE_FIXED = 1u
  30:Generated_Source\PSoC4/RTC_1.h **** }RTC_1_DST_DATETYPE_ENUM;
  31:Generated_Source\PSoC4/RTC_1.h **** 
  32:Generated_Source\PSoC4/RTC_1.h **** /**
  33:Generated_Source\PSoC4/RTC_1.h **** * \addtogroup group_structures
ARM GAS  C:\Users\glenn\AppData\Local\Temp\ccftzDgr.s 			page 2


  34:Generated_Source\PSoC4/RTC_1.h **** * @{
  35:Generated_Source\PSoC4/RTC_1.h **** */
  36:Generated_Source\PSoC4/RTC_1.h **** 
  37:Generated_Source\PSoC4/RTC_1.h **** /**
  38:Generated_Source\PSoC4/RTC_1.h **** * This is the data structure that is used to save the current time and date 
  39:Generated_Source\PSoC4/RTC_1.h **** * (RTC_currentTimeDate), and Alarm time and date (RTC_alarmCfgTimeDate).
  40:Generated_Source\PSoC4/RTC_1.h **** */
  41:Generated_Source\PSoC4/RTC_1.h **** typedef struct
  42:Generated_Source\PSoC4/RTC_1.h **** {
  43:Generated_Source\PSoC4/RTC_1.h ****     uint32 time;
  44:Generated_Source\PSoC4/RTC_1.h ****     uint32 date;
  45:Generated_Source\PSoC4/RTC_1.h ****     uint32 dayOfWeek;
  46:Generated_Source\PSoC4/RTC_1.h ****     uint32 status;
  47:Generated_Source\PSoC4/RTC_1.h **** }RTC_1_DATE_TIME;
  48:Generated_Source\PSoC4/RTC_1.h **** 
  49:Generated_Source\PSoC4/RTC_1.h **** /**
  50:Generated_Source\PSoC4/RTC_1.h **** * This is the data structure that is used to save time and date values for 
  51:Generated_Source\PSoC4/RTC_1.h **** * Daylight Savings Time Start and Stop (RTC_dstTimeDateStart and 
  52:Generated_Source\PSoC4/RTC_1.h **** * RTC_dstTimeDateStop).
  53:Generated_Source\PSoC4/RTC_1.h **** */
  54:Generated_Source\PSoC4/RTC_1.h **** typedef struct
  55:Generated_Source\PSoC4/RTC_1.h **** {
  56:Generated_Source\PSoC4/RTC_1.h ****     uint32 hour;
  57:Generated_Source\PSoC4/RTC_1.h ****     uint32 dayOfWeek;
  58:Generated_Source\PSoC4/RTC_1.h ****     uint32 dayOfMonth;
  59:Generated_Source\PSoC4/RTC_1.h ****     uint32 weekOfMonth;
  60:Generated_Source\PSoC4/RTC_1.h ****     uint32 month;
  61:Generated_Source\PSoC4/RTC_1.h ****     uint8  timeFormat;
  62:Generated_Source\PSoC4/RTC_1.h **** }RTC_1_DST_TIME;
  63:Generated_Source\PSoC4/RTC_1.h **** 
  64:Generated_Source\PSoC4/RTC_1.h **** /** @} structures */
  65:Generated_Source\PSoC4/RTC_1.h **** 
  66:Generated_Source\PSoC4/RTC_1.h **** /*******************************************************************************
  67:Generated_Source\PSoC4/RTC_1.h **** *    Enumerated Types and Parameters
  68:Generated_Source\PSoC4/RTC_1.h **** *******************************************************************************/
  69:Generated_Source\PSoC4/RTC_1.h **** /* Time Format setting constants */
  70:Generated_Source\PSoC4/RTC_1.h **** #define RTC_1__HOUR_12 1
  71:Generated_Source\PSoC4/RTC_1.h **** #define RTC_1__HOUR_24 0
  72:Generated_Source\PSoC4/RTC_1.h **** 
  73:Generated_Source\PSoC4/RTC_1.h **** /*  Date Format setting constants */
  74:Generated_Source\PSoC4/RTC_1.h **** #define RTC_1__MM_DD_YYYY 0
  75:Generated_Source\PSoC4/RTC_1.h **** #define RTC_1__DD_MM_YYYY 1
  76:Generated_Source\PSoC4/RTC_1.h **** #define RTC_1__YYYY_MM_DD 2
  77:Generated_Source\PSoC4/RTC_1.h **** 
  78:Generated_Source\PSoC4/RTC_1.h **** /* Date Type setting constants */
  79:Generated_Source\PSoC4/RTC_1.h **** #define RTC_1__RELATIVE 0
  80:Generated_Source\PSoC4/RTC_1.h **** #define RTC_1__FIXED 1
  81:Generated_Source\PSoC4/RTC_1.h **** 
  82:Generated_Source\PSoC4/RTC_1.h **** /* DST Hour setting constants */
  83:Generated_Source\PSoC4/RTC_1.h **** #define RTC_1__H0000 0
  84:Generated_Source\PSoC4/RTC_1.h **** #define RTC_1__H0100 1
  85:Generated_Source\PSoC4/RTC_1.h **** #define RTC_1__H0200 2
  86:Generated_Source\PSoC4/RTC_1.h **** #define RTC_1__H0300 3
  87:Generated_Source\PSoC4/RTC_1.h **** #define RTC_1__H0400 4
  88:Generated_Source\PSoC4/RTC_1.h **** #define RTC_1__H0500 5
  89:Generated_Source\PSoC4/RTC_1.h **** #define RTC_1__H0600 6
  90:Generated_Source\PSoC4/RTC_1.h **** #define RTC_1__H0700 7
ARM GAS  C:\Users\glenn\AppData\Local\Temp\ccftzDgr.s 			page 3


  91:Generated_Source\PSoC4/RTC_1.h **** #define RTC_1__H0800 8
  92:Generated_Source\PSoC4/RTC_1.h **** #define RTC_1__H0900 9
  93:Generated_Source\PSoC4/RTC_1.h **** #define RTC_1__H1000 10
  94:Generated_Source\PSoC4/RTC_1.h **** #define RTC_1__H1100 11
  95:Generated_Source\PSoC4/RTC_1.h **** #define RTC_1__H1200 12
  96:Generated_Source\PSoC4/RTC_1.h **** #define RTC_1__H1300 13
  97:Generated_Source\PSoC4/RTC_1.h **** #define RTC_1__H1400 14
  98:Generated_Source\PSoC4/RTC_1.h **** #define RTC_1__H1500 15
  99:Generated_Source\PSoC4/RTC_1.h **** #define RTC_1__H1600 16
 100:Generated_Source\PSoC4/RTC_1.h **** #define RTC_1__H1700 17
 101:Generated_Source\PSoC4/RTC_1.h **** #define RTC_1__H1800 18
 102:Generated_Source\PSoC4/RTC_1.h **** #define RTC_1__H1900 19
 103:Generated_Source\PSoC4/RTC_1.h **** #define RTC_1__H2000 20
 104:Generated_Source\PSoC4/RTC_1.h **** #define RTC_1__H2100 21
 105:Generated_Source\PSoC4/RTC_1.h **** #define RTC_1__H2200 22
 106:Generated_Source\PSoC4/RTC_1.h **** #define RTC_1__H2300 23
 107:Generated_Source\PSoC4/RTC_1.h **** 
 108:Generated_Source\PSoC4/RTC_1.h **** /* DST DayOfWeek setting constants */
 109:Generated_Source\PSoC4/RTC_1.h **** #define RTC_1__SUNDAY 1
 110:Generated_Source\PSoC4/RTC_1.h **** #define RTC_1__MONDAY 2
 111:Generated_Source\PSoC4/RTC_1.h **** #define RTC_1__TUESDAY 3
 112:Generated_Source\PSoC4/RTC_1.h **** #define RTC_1__WEDNESDAY 4
 113:Generated_Source\PSoC4/RTC_1.h **** #define RTC_1__THURSDAY 5
 114:Generated_Source\PSoC4/RTC_1.h **** #define RTC_1__FRIDAY 6
 115:Generated_Source\PSoC4/RTC_1.h **** #define RTC_1__SATURDAY 7
 116:Generated_Source\PSoC4/RTC_1.h **** 
 117:Generated_Source\PSoC4/RTC_1.h **** /* DST Month setting constants */
 118:Generated_Source\PSoC4/RTC_1.h **** #define RTC_1__JAN 1
 119:Generated_Source\PSoC4/RTC_1.h **** #define RTC_1__FEB 2
 120:Generated_Source\PSoC4/RTC_1.h **** #define RTC_1__MAR 3
 121:Generated_Source\PSoC4/RTC_1.h **** #define RTC_1__APR 4
 122:Generated_Source\PSoC4/RTC_1.h **** #define RTC_1__MAY 5
 123:Generated_Source\PSoC4/RTC_1.h **** #define RTC_1__JUN 6
 124:Generated_Source\PSoC4/RTC_1.h **** #define RTC_1__JUL 7
 125:Generated_Source\PSoC4/RTC_1.h **** #define RTC_1__AUG 8
 126:Generated_Source\PSoC4/RTC_1.h **** #define RTC_1__SEP 9
 127:Generated_Source\PSoC4/RTC_1.h **** #define RTC_1__OCT 10
 128:Generated_Source\PSoC4/RTC_1.h **** #define RTC_1__NOV 11
 129:Generated_Source\PSoC4/RTC_1.h **** #define RTC_1__DEC 12
 130:Generated_Source\PSoC4/RTC_1.h **** 
 131:Generated_Source\PSoC4/RTC_1.h **** /* DST WeekOfMonth setting constants */
 132:Generated_Source\PSoC4/RTC_1.h **** #define RTC_1__FIRST 1
 133:Generated_Source\PSoC4/RTC_1.h **** #define RTC_1__SECOND 2
 134:Generated_Source\PSoC4/RTC_1.h **** #define RTC_1__THIRD 3
 135:Generated_Source\PSoC4/RTC_1.h **** #define RTC_1__FOURTH 4
 136:Generated_Source\PSoC4/RTC_1.h **** #define RTC_1__FIFTH 5
 137:Generated_Source\PSoC4/RTC_1.h **** #define RTC_1__LAST 6
 138:Generated_Source\PSoC4/RTC_1.h **** 
 139:Generated_Source\PSoC4/RTC_1.h **** 
 140:Generated_Source\PSoC4/RTC_1.h **** #define RTC_1_INITIAL_DATA_FORMAT     (0u)
 141:Generated_Source\PSoC4/RTC_1.h **** #define RTC_1_INITIAL_TIME_FORMAT     (0u)
 142:Generated_Source\PSoC4/RTC_1.h **** #define RTC_1_INITIAL_UPDATE_MODE     (0u)
 143:Generated_Source\PSoC4/RTC_1.h **** #define RTC_1_INITIAL_SECOND          (0u)
 144:Generated_Source\PSoC4/RTC_1.h **** #define RTC_1_INITIAL_MINUTE          (0u)
 145:Generated_Source\PSoC4/RTC_1.h **** #define RTC_1_INITIAL_HOUR            (0u)
 146:Generated_Source\PSoC4/RTC_1.h **** #define RTC_1_INITIAL_DAY             (1u)
 147:Generated_Source\PSoC4/RTC_1.h **** #define RTC_1_INITIAL_MONTH           (1u)
ARM GAS  C:\Users\glenn\AppData\Local\Temp\ccftzDgr.s 			page 4


 148:Generated_Source\PSoC4/RTC_1.h **** #define RTC_1_INITIAL_YEAR            (1970u)
 149:Generated_Source\PSoC4/RTC_1.h **** 
 150:Generated_Source\PSoC4/RTC_1.h **** #define RTC_1_INITIAL_ALARM_STATUS    (1u)
 151:Generated_Source\PSoC4/RTC_1.h **** 
 152:Generated_Source\PSoC4/RTC_1.h **** #define RTC_1_INITIAL_DST_STATUS      (1u)
 153:Generated_Source\PSoC4/RTC_1.h **** #define RTC_1_INITIAL_DST_DATE_TYPE   (0u)
 154:Generated_Source\PSoC4/RTC_1.h **** #define RTC_1_INITIAL_DST_START_MONTH (3uL)
 155:Generated_Source\PSoC4/RTC_1.h **** #define RTC_1_INITIAL_DST_START_WOM   (6uL)
 156:Generated_Source\PSoC4/RTC_1.h **** #define RTC_1_INITIAL_DST_START_DOM   (22uL)
 157:Generated_Source\PSoC4/RTC_1.h **** #define RTC_1_INITIAL_DST_START_DOW   (1uL)
 158:Generated_Source\PSoC4/RTC_1.h **** #define RTC_1_INITIAL_DST_START_HRS   (0uL)
 159:Generated_Source\PSoC4/RTC_1.h **** #define RTC_1_INITIAL_DST_STOP_MONTH  (10uL)
 160:Generated_Source\PSoC4/RTC_1.h **** #define RTC_1_INITIAL_DST_STOP_DOM    (22uL)
 161:Generated_Source\PSoC4/RTC_1.h **** #define RTC_1_INITIAL_DST_STOP_DOW    (1uL)
 162:Generated_Source\PSoC4/RTC_1.h **** #define RTC_1_INITIAL_DST_STOP_WOM    (6uL)
 163:Generated_Source\PSoC4/RTC_1.h **** #define RTC_1_INITIAL_DST_STOP_HRS    (0uL)
 164:Generated_Source\PSoC4/RTC_1.h **** 
 165:Generated_Source\PSoC4/RTC_1.h **** /* Day of week definitions */
 166:Generated_Source\PSoC4/RTC_1.h **** #define RTC_1_SUNDAY     (RTC_1__SUNDAY)
 167:Generated_Source\PSoC4/RTC_1.h **** #define RTC_1_MONDAY     (RTC_1__MONDAY)
 168:Generated_Source\PSoC4/RTC_1.h **** #define RTC_1_TUESDAY    (RTC_1__TUESDAY)
 169:Generated_Source\PSoC4/RTC_1.h **** #define RTC_1_WEDNESDAY  (RTC_1__WEDNESDAY)
 170:Generated_Source\PSoC4/RTC_1.h **** #define RTC_1_THURSDAY   (RTC_1__THURSDAY)
 171:Generated_Source\PSoC4/RTC_1.h **** #define RTC_1_FRIDAY     (RTC_1__FRIDAY)
 172:Generated_Source\PSoC4/RTC_1.h **** #define RTC_1_SATURDAY   (RTC_1__SATURDAY)
 173:Generated_Source\PSoC4/RTC_1.h **** 
 174:Generated_Source\PSoC4/RTC_1.h **** /* DST WeekOfMonth setting constants definitions */
 175:Generated_Source\PSoC4/RTC_1.h **** #define RTC_1_FIRST      (RTC_1__FIRST)
 176:Generated_Source\PSoC4/RTC_1.h **** #define RTC_1_SECOND     (RTC_1__SECOND)
 177:Generated_Source\PSoC4/RTC_1.h **** #define RTC_1_THIRD      (RTC_1__THIRD)
 178:Generated_Source\PSoC4/RTC_1.h **** #define RTC_1_FOURTH     (RTC_1__FOURTH)
 179:Generated_Source\PSoC4/RTC_1.h **** #define RTC_1_FIFTH      (RTC_1__FIFTH)
 180:Generated_Source\PSoC4/RTC_1.h **** #define RTC_1_LAST       (RTC_1__LAST)
 181:Generated_Source\PSoC4/RTC_1.h **** 
 182:Generated_Source\PSoC4/RTC_1.h **** /* Month definitions */
 183:Generated_Source\PSoC4/RTC_1.h **** #define RTC_1_JANUARY    (RTC_1__JAN)
 184:Generated_Source\PSoC4/RTC_1.h **** #define RTC_1_FEBRUARY   (RTC_1__FEB)
 185:Generated_Source\PSoC4/RTC_1.h **** #define RTC_1_MARCH      (RTC_1__MAR)
 186:Generated_Source\PSoC4/RTC_1.h **** #define RTC_1_APRIL      (RTC_1__APR)
 187:Generated_Source\PSoC4/RTC_1.h **** #define RTC_1_MAY        (RTC_1__MAY)
 188:Generated_Source\PSoC4/RTC_1.h **** #define RTC_1_JUNE       (RTC_1__JUN)
 189:Generated_Source\PSoC4/RTC_1.h **** #define RTC_1_JULY       (RTC_1__JUL)
 190:Generated_Source\PSoC4/RTC_1.h **** #define RTC_1_AUGUST     (RTC_1__AUG)
 191:Generated_Source\PSoC4/RTC_1.h **** #define RTC_1_SEPTEMBER  (RTC_1__SEP)
 192:Generated_Source\PSoC4/RTC_1.h **** #define RTC_1_OCTOBER    (RTC_1__OCT)
 193:Generated_Source\PSoC4/RTC_1.h **** #define RTC_1_NOVEMBER   (RTC_1__NOV)
 194:Generated_Source\PSoC4/RTC_1.h **** #define RTC_1_DECEMBER   (RTC_1__DEC)
 195:Generated_Source\PSoC4/RTC_1.h **** 
 196:Generated_Source\PSoC4/RTC_1.h **** #define RTC_1_DAYS_PER_WEEK       (7u)
 197:Generated_Source\PSoC4/RTC_1.h **** 
 198:Generated_Source\PSoC4/RTC_1.h **** /* Number of days in month definitions */
 199:Generated_Source\PSoC4/RTC_1.h **** #define RTC_1_DAYS_IN_JANUARY     (31u)
 200:Generated_Source\PSoC4/RTC_1.h **** #define RTC_1_DAYS_IN_FEBRUARY    (28u)
 201:Generated_Source\PSoC4/RTC_1.h **** #define RTC_1_DAYS_IN_MARCH       (31u)
 202:Generated_Source\PSoC4/RTC_1.h **** #define RTC_1_DAYS_IN_APRIL       (30u)
 203:Generated_Source\PSoC4/RTC_1.h **** #define RTC_1_DAYS_IN_MAY         (31u)
 204:Generated_Source\PSoC4/RTC_1.h **** #define RTC_1_DAYS_IN_JUNE        (30u)
ARM GAS  C:\Users\glenn\AppData\Local\Temp\ccftzDgr.s 			page 5


 205:Generated_Source\PSoC4/RTC_1.h **** #define RTC_1_DAYS_IN_JULY        (31u)
 206:Generated_Source\PSoC4/RTC_1.h **** #define RTC_1_DAYS_IN_AUGUST      (31u)
 207:Generated_Source\PSoC4/RTC_1.h **** #define RTC_1_DAYS_IN_SEPTEMBER   (30u)
 208:Generated_Source\PSoC4/RTC_1.h **** #define RTC_1_DAYS_IN_OCTOBER     (31u)
 209:Generated_Source\PSoC4/RTC_1.h **** #define RTC_1_DAYS_IN_NOVEMBER    (30u)
 210:Generated_Source\PSoC4/RTC_1.h **** #define RTC_1_DAYS_IN_DECEMBER    (31u)
 211:Generated_Source\PSoC4/RTC_1.h **** 
 212:Generated_Source\PSoC4/RTC_1.h **** #define RTC_1_MONTHS_PER_YEAR     (12uL)
 213:Generated_Source\PSoC4/RTC_1.h **** 
 214:Generated_Source\PSoC4/RTC_1.h **** #define RTC_1_HOURS_PER_DAY       (24uL)
 215:Generated_Source\PSoC4/RTC_1.h **** #define RTC_1_HOURS_PER_HALF_DAY  (12uL)
 216:Generated_Source\PSoC4/RTC_1.h **** 
 217:Generated_Source\PSoC4/RTC_1.h **** #define RTC_1_SECONDS_PER_MINUTE  (60uL)
 218:Generated_Source\PSoC4/RTC_1.h **** #define RTC_1_SECONDS_PER_HOUR    (3600uL)
 219:Generated_Source\PSoC4/RTC_1.h **** #define RTC_1_SECONDS_PER_DAY     (24uL * 3600uL)
 220:Generated_Source\PSoC4/RTC_1.h **** 
 221:Generated_Source\PSoC4/RTC_1.h **** #define RTC_1_SECONDS_PER_LEAP_YEAR    (366uL * 24uL * 3600uL)
 222:Generated_Source\PSoC4/RTC_1.h **** #define RTC_1_SECONDS_PER_NONLEAP_YEAR (365uL * 24uL * 3600uL)
 223:Generated_Source\PSoC4/RTC_1.h **** 
 224:Generated_Source\PSoC4/RTC_1.h **** #define RTC_1_UNIX_TIME_PM   ((12uL * 3600uL) + 1uL)
 225:Generated_Source\PSoC4/RTC_1.h **** 
 226:Generated_Source\PSoC4/RTC_1.h **** /* AM/PM status definitions */
 227:Generated_Source\PSoC4/RTC_1.h **** #define RTC_1_AM                 (0u)
 228:Generated_Source\PSoC4/RTC_1.h **** #define RTC_1_PM                 (1u)
 229:Generated_Source\PSoC4/RTC_1.h **** 
 230:Generated_Source\PSoC4/RTC_1.h **** /* Time format definitions */
 231:Generated_Source\PSoC4/RTC_1.h **** #define RTC_1_12_HOURS_FORMAT    (RTC_1__HOUR_12)
 232:Generated_Source\PSoC4/RTC_1.h **** #define RTC_1_24_HOURS_FORMAT    (RTC_1__HOUR_24)
 233:Generated_Source\PSoC4/RTC_1.h **** 
 234:Generated_Source\PSoC4/RTC_1.h **** /* UNIX time begins in 1970 year.  */
 235:Generated_Source\PSoC4/RTC_1.h **** #define RTC_1_YEAR_0             (1970u)
 236:Generated_Source\PSoC4/RTC_1.h **** 
 237:Generated_Source\PSoC4/RTC_1.h **** /* Definition of date register fields */
 238:Generated_Source\PSoC4/RTC_1.h **** #if(RTC_1_INITIAL_DATA_FORMAT == RTC_1__MM_DD_YYYY)
 239:Generated_Source\PSoC4/RTC_1.h ****     #define RTC_1_10_MONTH_OFFSET   (28u)
 240:Generated_Source\PSoC4/RTC_1.h ****     #define RTC_1_MONTH_OFFSET      (24u)
 241:Generated_Source\PSoC4/RTC_1.h ****     #define RTC_1_10_DAY_OFFSET     (20u)
 242:Generated_Source\PSoC4/RTC_1.h ****     #define RTC_1_DAY_OFFSET        (16u)
 243:Generated_Source\PSoC4/RTC_1.h ****     #define RTC_1_1000_YEAR_OFFSET  (12u)
 244:Generated_Source\PSoC4/RTC_1.h ****     #define RTC_1_100_YEAR_OFFSET   (8u)
 245:Generated_Source\PSoC4/RTC_1.h ****     #define RTC_1_10_YEAR_OFFSET    (4u)
 246:Generated_Source\PSoC4/RTC_1.h ****     #define RTC_1_YEAR_OFFSET       (0u)
 247:Generated_Source\PSoC4/RTC_1.h **** #elif(RTC_1_INITIAL_DATA_FORMAT == RTC_1__DD_MM_YYYY)
 248:Generated_Source\PSoC4/RTC_1.h ****     #define RTC_1_10_MONTH_OFFSET   (20u)
 249:Generated_Source\PSoC4/RTC_1.h ****     #define RTC_1_MONTH_OFFSET      (16u)
 250:Generated_Source\PSoC4/RTC_1.h ****     #define RTC_1_10_DAY_OFFSET     (28u)
 251:Generated_Source\PSoC4/RTC_1.h ****     #define RTC_1_DAY_OFFSET        (24u)
 252:Generated_Source\PSoC4/RTC_1.h ****     #define RTC_1_1000_YEAR_OFFSET  (12u)
 253:Generated_Source\PSoC4/RTC_1.h ****     #define RTC_1_100_YEAR_OFFSET   (8u)
 254:Generated_Source\PSoC4/RTC_1.h ****     #define RTC_1_10_YEAR_OFFSET    (4u)
 255:Generated_Source\PSoC4/RTC_1.h ****     #define RTC_1_YEAR_OFFSET       (0u)
 256:Generated_Source\PSoC4/RTC_1.h **** #else
 257:Generated_Source\PSoC4/RTC_1.h ****     #define RTC_1_10_MONTH_OFFSET   (12u)
 258:Generated_Source\PSoC4/RTC_1.h ****     #define RTC_1_MONTH_OFFSET      (8u)
 259:Generated_Source\PSoC4/RTC_1.h ****     #define RTC_1_10_DAY_OFFSET     (4u)
 260:Generated_Source\PSoC4/RTC_1.h ****     #define RTC_1_DAY_OFFSET        (0u)
 261:Generated_Source\PSoC4/RTC_1.h ****     #define RTC_1_1000_YEAR_OFFSET  (28u)
ARM GAS  C:\Users\glenn\AppData\Local\Temp\ccftzDgr.s 			page 6


 262:Generated_Source\PSoC4/RTC_1.h ****     #define RTC_1_100_YEAR_OFFSET   (24u)
 263:Generated_Source\PSoC4/RTC_1.h ****     #define RTC_1_10_YEAR_OFFSET    (20u)
 264:Generated_Source\PSoC4/RTC_1.h ****     #define RTC_1_YEAR_OFFSET       (16u)
 265:Generated_Source\PSoC4/RTC_1.h **** #endif /* (RTC_1_INITIAL_DATA_FORMAT == RTC_1__MM_DD_YYYY) */
 266:Generated_Source\PSoC4/RTC_1.h **** 
 267:Generated_Source\PSoC4/RTC_1.h **** #define RTC_1_10_MONTH_MASK          (0x00000001uL << RTC_1_10_MONTH_OFFSET)
 268:Generated_Source\PSoC4/RTC_1.h **** #define RTC_1_MONTH_MASK             (0x0000000FuL << RTC_1_MONTH_OFFSET)
 269:Generated_Source\PSoC4/RTC_1.h **** #define RTC_1_10_DAY_MASK            (0x00000003uL << RTC_1_10_DAY_OFFSET)
 270:Generated_Source\PSoC4/RTC_1.h **** #define RTC_1_DAY_MASK               (0x0000000FuL << RTC_1_DAY_OFFSET)
 271:Generated_Source\PSoC4/RTC_1.h **** #define RTC_1_1000_YEAR_MASK         (0x00000003uL << RTC_1_1000_YEAR_OFFSET)
 272:Generated_Source\PSoC4/RTC_1.h **** #define RTC_1_100_YEAR_MASK          (0x0000000FuL << RTC_1_100_YEAR_OFFSET)
 273:Generated_Source\PSoC4/RTC_1.h **** #define RTC_1_10_YEAR_MASK           (0x0000000FuL << RTC_1_10_YEAR_OFFSET)
 274:Generated_Source\PSoC4/RTC_1.h **** #define RTC_1_YEAR_MASK              (0x0000000FuL << RTC_1_YEAR_OFFSET)
 275:Generated_Source\PSoC4/RTC_1.h **** 
 276:Generated_Source\PSoC4/RTC_1.h **** #define  RTC_1_MONTH_FULL_MASK       (RTC_1_10_MONTH_MASK  | RTC_1_MONTH_MASK)
 277:Generated_Source\PSoC4/RTC_1.h **** #define  RTC_1_DAY_FULL_MASK         (RTC_1_10_DAY_MASK    | RTC_1_DAY_MASK)
 278:Generated_Source\PSoC4/RTC_1.h **** #define  RTC_1_YEAR_FULL_MASK        (RTC_1_1000_YEAR_MASK | RTC_1_100_YEAR_MASK |\
 279:Generated_Source\PSoC4/RTC_1.h ****                                                  RTC_1_10_YEAR_MASK   | RTC_1_YEAR_MASK)
 280:Generated_Source\PSoC4/RTC_1.h **** 
 281:Generated_Source\PSoC4/RTC_1.h **** 
 282:Generated_Source\PSoC4/RTC_1.h **** /* Definition of time register fields */
 283:Generated_Source\PSoC4/RTC_1.h **** #define RTC_1_TIME_FORMAT_OFFSET     (23u)
 284:Generated_Source\PSoC4/RTC_1.h **** #define RTC_1_PERIOD_OF_DAY_OFFSET   (22u)
 285:Generated_Source\PSoC4/RTC_1.h **** #define RTC_1_10_HOURS_OFFSET        (20u)
 286:Generated_Source\PSoC4/RTC_1.h **** #define RTC_1_HOURS_OFFSET           (16u)
 287:Generated_Source\PSoC4/RTC_1.h **** #define RTC_1_10_MINUTES_OFFSET      (12u)
 288:Generated_Source\PSoC4/RTC_1.h **** #define RTC_1_MINUTES_OFFSET         (8u)
 289:Generated_Source\PSoC4/RTC_1.h **** #define RTC_1_10_SECONDS_OFFSET      (4u)
 290:Generated_Source\PSoC4/RTC_1.h **** #define RTC_1_SECONDS_OFFSET         (0u)
 291:Generated_Source\PSoC4/RTC_1.h **** 
 292:Generated_Source\PSoC4/RTC_1.h **** #define RTC_1_TIME_FORMAT_MASK       (0x00000001uL << RTC_1_TIME_FORMAT_OFFSET)
 293:Generated_Source\PSoC4/RTC_1.h **** #define RTC_1_PERIOD_OF_DAY_MASK     (0x00000001uL << RTC_1_PERIOD_OF_DAY_OFFSET)
 294:Generated_Source\PSoC4/RTC_1.h **** #define RTC_1_10_HOURS_MASK          (0x00000003uL << RTC_1_10_HOURS_OFFSET)
 295:Generated_Source\PSoC4/RTC_1.h **** #define RTC_1_HOURS_MASK             (0x0000000FuL << RTC_1_HOURS_OFFSET)
 296:Generated_Source\PSoC4/RTC_1.h **** #define RTC_1_10_MINUTES_MASK        (0x00000007uL << RTC_1_10_MINUTES_OFFSET)
 297:Generated_Source\PSoC4/RTC_1.h **** #define RTC_1_MINUTES_MASK           (0x0000000FuL << RTC_1_MINUTES_OFFSET)
 298:Generated_Source\PSoC4/RTC_1.h **** #define RTC_1_10_SECONDS_MASK        (0x00000007uL << RTC_1_10_SECONDS_OFFSET)
 299:Generated_Source\PSoC4/RTC_1.h **** #define RTC_1_SECONDS_MASK           (0x0000000FuL << RTC_1_SECONDS_OFFSET)
 300:Generated_Source\PSoC4/RTC_1.h **** 
 301:Generated_Source\PSoC4/RTC_1.h **** #define RTC_1_HOURS_FULL_MASK        (RTC_1_10_HOURS_MASK   | RTC_1_HOURS_MASK)
 302:Generated_Source\PSoC4/RTC_1.h **** #define RTC_1_MINUTES_FULL_MASK      (RTC_1_10_MINUTES_MASK | RTC_1_MINUTES_MASK)
 303:Generated_Source\PSoC4/RTC_1.h **** #define RTC_1_SECONDS_FULL_MASK      (RTC_1_10_SECONDS_MASK | RTC_1_SECONDS_MASK)
 304:Generated_Source\PSoC4/RTC_1.h **** 
 305:Generated_Source\PSoC4/RTC_1.h **** #define RTC_1_ALARM_SEC_MASK         (0x00000001uL)
 306:Generated_Source\PSoC4/RTC_1.h **** #define RTC_1_ALARM_MIN_MASK         (0x00000002uL)
 307:Generated_Source\PSoC4/RTC_1.h **** #define RTC_1_ALARM_HOUR_MASK        (0x00000004uL)
 308:Generated_Source\PSoC4/RTC_1.h **** #define RTC_1_ALARM_DAYOFWEEK_MASK   (0x00000008uL)
 309:Generated_Source\PSoC4/RTC_1.h **** #define RTC_1_ALARM_DAYOFMONTH_MASK  (0x00000010uL)
 310:Generated_Source\PSoC4/RTC_1.h **** #define RTC_1_ALARM_MONTH_MASK       (0x00000020uL)
 311:Generated_Source\PSoC4/RTC_1.h **** #define RTC_1_ALARM_YEAR_MASK        (0x00000040uL)
 312:Generated_Source\PSoC4/RTC_1.h **** 
 313:Generated_Source\PSoC4/RTC_1.h **** #define RTC_1_STATUS_DST_OFFSET      (1u)
 314:Generated_Source\PSoC4/RTC_1.h **** #define RTC_1_STATUS_ALARM_OFFSET    (2u)
 315:Generated_Source\PSoC4/RTC_1.h **** #define RTC_1_STATUS_LY_OFFSET       (3u)
 316:Generated_Source\PSoC4/RTC_1.h **** #define RTC_1_STATUS_AM_PM_OFFSET    (4u)
 317:Generated_Source\PSoC4/RTC_1.h **** 
 318:Generated_Source\PSoC4/RTC_1.h **** /* Definition of the RTC status values. */
ARM GAS  C:\Users\glenn\AppData\Local\Temp\ccftzDgr.s 			page 7


 319:Generated_Source\PSoC4/RTC_1.h **** #define RTC_1_STATUS_DST             (1uL << RTC_1_STATUS_DST_OFFSET)
 320:Generated_Source\PSoC4/RTC_1.h **** #define RTC_1_STATUS_LY              (1uL << RTC_1_STATUS_LY_OFFSET)
 321:Generated_Source\PSoC4/RTC_1.h **** #define RTC_1_STATUS_AM_PM           (1uL << RTC_1_STATUS_AM_PM_OFFSET)
 322:Generated_Source\PSoC4/RTC_1.h **** 
 323:Generated_Source\PSoC4/RTC_1.h **** /* Number of bits per one BCD digit. */
 324:Generated_Source\PSoC4/RTC_1.h **** #define RTC_1_BCD_NUMBER_SIZE        (4u)
 325:Generated_Source\PSoC4/RTC_1.h **** #define RTC_1_BCD_ONE_DIGIT_MASK     (0x0000000FuL)
 326:Generated_Source\PSoC4/RTC_1.h **** 
 327:Generated_Source\PSoC4/RTC_1.h **** /*******************************************************************************
 328:Generated_Source\PSoC4/RTC_1.h **** *    Function Prototypes
 329:Generated_Source\PSoC4/RTC_1.h **** *******************************************************************************/
 330:Generated_Source\PSoC4/RTC_1.h **** /**
 331:Generated_Source\PSoC4/RTC_1.h **** * \addtogroup group_api
 332:Generated_Source\PSoC4/RTC_1.h **** * @{
 333:Generated_Source\PSoC4/RTC_1.h **** */
 334:Generated_Source\PSoC4/RTC_1.h **** void   RTC_1_Start(void);
 335:Generated_Source\PSoC4/RTC_1.h **** void   RTC_1_Stop(void);
 336:Generated_Source\PSoC4/RTC_1.h **** void   RTC_1_Init(void);
 337:Generated_Source\PSoC4/RTC_1.h **** void   RTC_1_SetUnixTime(uint64 unixTime);
 338:Generated_Source\PSoC4/RTC_1.h **** uint64 RTC_1_GetUnixTime(void);
 339:Generated_Source\PSoC4/RTC_1.h **** void   RTC_1_SetPeriod(uint32 ticks, uint32 refOneSecTicks);
 340:Generated_Source\PSoC4/RTC_1.h **** uint32 RTC_1_GetPeriod(void);
 341:Generated_Source\PSoC4/RTC_1.h **** uint32 RTC_1_GetRefOneSec(void);
 342:Generated_Source\PSoC4/RTC_1.h **** void   RTC_1_SetDateAndTime(uint32 inputTime, uint32 inputDate);
 343:Generated_Source\PSoC4/RTC_1.h **** void   RTC_1_GetDateAndTime(RTC_1_DATE_TIME* dateTime);
 344:Generated_Source\PSoC4/RTC_1.h **** uint32 RTC_1_GetTime(void);
 345:Generated_Source\PSoC4/RTC_1.h **** uint32 RTC_1_GetDate(void);
 346:Generated_Source\PSoC4/RTC_1.h **** void   RTC_1_SetAlarmDateAndTime(const RTC_1_DATE_TIME* alarmTime);
 347:Generated_Source\PSoC4/RTC_1.h **** void   RTC_1_GetAlarmDateAndTime(RTC_1_DATE_TIME* alarmTimeDate);
 348:Generated_Source\PSoC4/RTC_1.h **** void   RTC_1_SetAlarmMask(uint32 mask);
 349:Generated_Source\PSoC4/RTC_1.h **** uint32 RTC_1_GetAlarmMask(void);
 350:Generated_Source\PSoC4/RTC_1.h **** uint32 RTC_1_ReadStatus(void);
 351:Generated_Source\PSoC4/RTC_1.h **** uint32 RTC_1_GetAlarmStatus(void);
 352:Generated_Source\PSoC4/RTC_1.h **** void   RTC_1_ClearAlarmStatus(void);
 353:Generated_Source\PSoC4/RTC_1.h **** void   RTC_1_SetDSTStartTime(const RTC_1_DST_TIME* dstStartTime,
 354:Generated_Source\PSoC4/RTC_1.h ****                                               RTC_1_DST_DATETYPE_ENUM type);
 355:Generated_Source\PSoC4/RTC_1.h **** void   RTC_1_SetDSTStopTime(const RTC_1_DST_TIME* dstStopTime,
 356:Generated_Source\PSoC4/RTC_1.h ****                                              RTC_1_DST_DATETYPE_ENUM type);
 357:Generated_Source\PSoC4/RTC_1.h **** uint32 RTC_1_ConvertBCDToDec(uint32 bcdNum);
 358:Generated_Source\PSoC4/RTC_1.h **** uint32 RTC_1_ConvertDecToBCD(uint32 decNum);
 359:Generated_Source\PSoC4/RTC_1.h **** void   RTC_1_Update(void);
 360:Generated_Source\PSoC4/RTC_1.h **** void*  RTC_1_SetAlarmHandler(void (*CallbackFunction)(void));
 361:Generated_Source\PSoC4/RTC_1.h **** 
 362:Generated_Source\PSoC4/RTC_1.h **** static uint32 RTC_1_ConstructDate(uint32 month, uint32 day, uint32 year);
 363:Generated_Source\PSoC4/RTC_1.h **** static uint32 RTC_1_ConstructTime(uint32 timeFormat, uint32 stateAmPm, uint32 hour, uint32 min, uin
 364:Generated_Source\PSoC4/RTC_1.h **** /** @} api */
 365:Generated_Source\PSoC4/RTC_1.h **** 
 366:Generated_Source\PSoC4/RTC_1.h **** static uint32 RTC_1_GetTimeFormat(uint32 inputTime);
 367:Generated_Source\PSoC4/RTC_1.h **** static uint32 RTC_1_SetTimeFormat(uint32 inputTime, uint32 timeFormat);
 368:Generated_Source\PSoC4/RTC_1.h **** 
 369:Generated_Source\PSoC4/RTC_1.h **** /**
 370:Generated_Source\PSoC4/RTC_1.h **** * \addtogroup group_api
 371:Generated_Source\PSoC4/RTC_1.h **** * @{
 372:Generated_Source\PSoC4/RTC_1.h **** */
 373:Generated_Source\PSoC4/RTC_1.h **** static uint32 RTC_1_LeapYear(uint32 year);
 374:Generated_Source\PSoC4/RTC_1.h **** static uint32 RTC_1_IsBitSet(uint32 var, uint32 mask);
 375:Generated_Source\PSoC4/RTC_1.h **** static uint32 RTC_1_GetSecond(uint32 inputTime);
ARM GAS  C:\Users\glenn\AppData\Local\Temp\ccftzDgr.s 			page 8


 376:Generated_Source\PSoC4/RTC_1.h **** static uint32 RTC_1_GetMinutes(uint32 inputTime);
 377:Generated_Source\PSoC4/RTC_1.h **** static uint32 RTC_1_GetHours(uint32 inputTime);
 378:Generated_Source\PSoC4/RTC_1.h **** static uint32 RTC_1_GetAmPm(uint32 inputTime);
 379:Generated_Source\PSoC4/RTC_1.h **** static uint32 RTC_1_GetDay(uint32 date);
 380:Generated_Source\PSoC4/RTC_1.h **** static uint32 RTC_1_GetMonth(uint32 date);
 381:Generated_Source\PSoC4/RTC_1.h **** static uint32 RTC_1_GetYear(uint32 date);
 382:Generated_Source\PSoC4/RTC_1.h **** /** @} api */
 383:Generated_Source\PSoC4/RTC_1.h **** 
 384:Generated_Source\PSoC4/RTC_1.h **** static uint32 RTC_1_SetSecond(uint32 inputTime, uint32 inputSecond);
 385:Generated_Source\PSoC4/RTC_1.h **** static uint32 RTC_1_SetMinutes(uint32 inputTime, uint32 inputMinute);
 386:Generated_Source\PSoC4/RTC_1.h **** static uint32 RTC_1_SetHours(uint32 inputTime, uint32 inputHours);
 387:Generated_Source\PSoC4/RTC_1.h **** static uint32 RTC_1_SetAmPm(uint32 inputTime, uint32 periodOfDay);
 388:Generated_Source\PSoC4/RTC_1.h **** static uint32 RTC_1_SetDay(uint32 inputDate, uint32 inputDay);
 389:Generated_Source\PSoC4/RTC_1.h **** static uint32 RTC_1_SetMonth(uint32 inputDate, uint32 inputMonth);
 390:Generated_Source\PSoC4/RTC_1.h **** static uint32 RTC_1_SetYear(uint32 inputDate, uint32 inputYear);
 391:Generated_Source\PSoC4/RTC_1.h **** 
 392:Generated_Source\PSoC4/RTC_1.h **** uint64 RTC_1_ConstructUnixAlarmTime(const RTC_1_DATE_TIME* alarmTime, uint8 alarmCfgMask);
 393:Generated_Source\PSoC4/RTC_1.h **** uint64 RTC_1_GetDstUnixTime(const RTC_1_DST_TIME* dstTime);
 394:Generated_Source\PSoC4/RTC_1.h **** uint64 RTC_1_GetNexAlarmTime(uint64 curUnixTime, uint8 alarmCfgMask);
 395:Generated_Source\PSoC4/RTC_1.h **** 
 396:Generated_Source\PSoC4/RTC_1.h **** static uint32 RTC_1_GetNextMinSec(uint32 curVal);
 397:Generated_Source\PSoC4/RTC_1.h **** static uint32 RTC_1_GetNextHour(uint32 curVal);
 398:Generated_Source\PSoC4/RTC_1.h **** static uint32 RTC_1_GetNextDay(uint32 curYear, uint32 curMonth, uint32 curDay, uint32 alarmCfgMask)
 399:Generated_Source\PSoC4/RTC_1.h **** static uint32 RTC_1_GetNextMonth(uint32 curMonth);
 400:Generated_Source\PSoC4/RTC_1.h **** static uint32 RTC_1_GetNextYear(uint32 curYear);
 401:Generated_Source\PSoC4/RTC_1.h **** static uint32 RTC_1_GetDayOfWeek(uint32 day, uint32 month, uint32 year);
 402:Generated_Source\PSoC4/RTC_1.h **** 
 403:Generated_Source\PSoC4/RTC_1.h **** uint32 RTC_1_DaysInMonth(uint32 month, uint32 year);
 404:Generated_Source\PSoC4/RTC_1.h **** uint32 RTC_1_DaysBeforeMonth(uint32 month, uint32 year);
 405:Generated_Source\PSoC4/RTC_1.h **** 
 406:Generated_Source\PSoC4/RTC_1.h **** /**
 407:Generated_Source\PSoC4/RTC_1.h **** * \addtogroup group_api
 408:Generated_Source\PSoC4/RTC_1.h **** * @{
 409:Generated_Source\PSoC4/RTC_1.h **** */
 410:Generated_Source\PSoC4/RTC_1.h **** void   RTC_1_UnixToDateTime(RTC_1_DATE_TIME* dateTime, uint64 unixTime, uint32 timeFormat);
 411:Generated_Source\PSoC4/RTC_1.h **** uint64 RTC_1_DateTimeToUnix(uint32 inputDate, uint32 inputTime);
 412:Generated_Source\PSoC4/RTC_1.h **** /** @} api */
 413:Generated_Source\PSoC4/RTC_1.h **** 
 414:Generated_Source\PSoC4/RTC_1.h **** uint32 RTC_1_RelativeToFixed(uint32 dayOfWeek, uint32 weekOfMonth, uint32 month, uint32 year);
 415:Generated_Source\PSoC4/RTC_1.h **** 
 416:Generated_Source\PSoC4/RTC_1.h **** 
 417:Generated_Source\PSoC4/RTC_1.h **** #if defined(CYDEV_RTC_SOURCE_WDT)
 418:Generated_Source\PSoC4/RTC_1.h ****     #if((0u != CYDEV_WDT_GENERATE_ISR) && (0u == RTC_1_INITIAL_UPDATE_MODE))
 419:Generated_Source\PSoC4/RTC_1.h ****         static void RTC_1_CySysRtcSetCallback(uint32 wdtNumber);
 420:Generated_Source\PSoC4/RTC_1.h ****         static void RTC_1_CySysRtcResetCallback(uint32 wdtNumber);
 421:Generated_Source\PSoC4/RTC_1.h ****     #endif /* ((0u != CYDEV_WDT_GENERATE_ISR) && (0u == RTC_1_INITIAL_UPDATE_MODE)) */
 422:Generated_Source\PSoC4/RTC_1.h **** #endif /* (CYDEV_RTC_SOURCE_WDT) */
 423:Generated_Source\PSoC4/RTC_1.h **** 
 424:Generated_Source\PSoC4/RTC_1.h **** /*******************************************************************************
 425:Generated_Source\PSoC4/RTC_1.h **** * Function Name: RTC_1_IsBitSet
 426:Generated_Source\PSoC4/RTC_1.h **** ****************************************************************************//**
 427:Generated_Source\PSoC4/RTC_1.h **** *
 428:Generated_Source\PSoC4/RTC_1.h **** * \brief
 429:Generated_Source\PSoC4/RTC_1.h **** *  Checks the state of a bit passed through parameter.
 430:Generated_Source\PSoC4/RTC_1.h **** *
 431:Generated_Source\PSoC4/RTC_1.h **** * \param
 432:Generated_Source\PSoC4/RTC_1.h **** *  var The variable to be checked.
ARM GAS  C:\Users\glenn\AppData\Local\Temp\ccftzDgr.s 			page 9


 433:Generated_Source\PSoC4/RTC_1.h **** * \param
 434:Generated_Source\PSoC4/RTC_1.h **** *  mask The mask for a bit to be checked.
 435:Generated_Source\PSoC4/RTC_1.h **** *
 436:Generated_Source\PSoC4/RTC_1.h **** * \return
 437:Generated_Source\PSoC4/RTC_1.h **** *  0u - Bit is not set.
 438:Generated_Source\PSoC4/RTC_1.h **** * \return
 439:Generated_Source\PSoC4/RTC_1.h **** *  1u - Bit is set.
 440:Generated_Source\PSoC4/RTC_1.h **** *
 441:Generated_Source\PSoC4/RTC_1.h **** *******************************************************************************/
 442:Generated_Source\PSoC4/RTC_1.h **** static CY_INLINE uint32 RTC_1_IsBitSet(uint32 var, uint32 mask)
 443:Generated_Source\PSoC4/RTC_1.h **** {
 444:Generated_Source\PSoC4/RTC_1.h ****     return ((mask == (var & mask)) ? 1Lu : 0Lu);
 445:Generated_Source\PSoC4/RTC_1.h **** }
 446:Generated_Source\PSoC4/RTC_1.h **** 
 447:Generated_Source\PSoC4/RTC_1.h **** 
 448:Generated_Source\PSoC4/RTC_1.h **** /*******************************************************************************
 449:Generated_Source\PSoC4/RTC_1.h **** * Function Name: RTC_1_LeapYear
 450:Generated_Source\PSoC4/RTC_1.h **** ****************************************************************************//**
 451:Generated_Source\PSoC4/RTC_1.h **** *
 452:Generated_Source\PSoC4/RTC_1.h **** * \brief
 453:Generated_Source\PSoC4/RTC_1.h **** * Checks whether the year passed through the parameter is
 454:Generated_Source\PSoC4/RTC_1.h **** * leap or no.
 455:Generated_Source\PSoC4/RTC_1.h **** *
 456:Generated_Source\PSoC4/RTC_1.h **** * \param
 457:Generated_Source\PSoC4/RTC_1.h **** *  year The year to be checked.
 458:Generated_Source\PSoC4/RTC_1.h **** *
 459:Generated_Source\PSoC4/RTC_1.h **** *
 460:Generated_Source\PSoC4/RTC_1.h **** * \return
 461:Generated_Source\PSoC4/RTC_1.h **** *  0u - The year is not leap.
 462:Generated_Source\PSoC4/RTC_1.h **** * \return
 463:Generated_Source\PSoC4/RTC_1.h **** *  1u - The year is leap.
 464:Generated_Source\PSoC4/RTC_1.h **** *
 465:Generated_Source\PSoC4/RTC_1.h **** *******************************************************************************/
 466:Generated_Source\PSoC4/RTC_1.h **** static CY_INLINE uint32 RTC_1_LeapYear(uint32 year)
 467:Generated_Source\PSoC4/RTC_1.h **** {
 468:Generated_Source\PSoC4/RTC_1.h ****     uint32 retVal;
 469:Generated_Source\PSoC4/RTC_1.h **** 
 470:Generated_Source\PSoC4/RTC_1.h ****     if(((0u == (year % 4Lu)) && (0u != (year % 100Lu))) || (0u == (year % 400Lu)))
 471:Generated_Source\PSoC4/RTC_1.h ****     {
 472:Generated_Source\PSoC4/RTC_1.h ****         retVal = 1uL;
 473:Generated_Source\PSoC4/RTC_1.h ****     }
 474:Generated_Source\PSoC4/RTC_1.h ****     else
 475:Generated_Source\PSoC4/RTC_1.h ****     {
 476:Generated_Source\PSoC4/RTC_1.h ****         retVal = 0uL;
 477:Generated_Source\PSoC4/RTC_1.h ****     }
 478:Generated_Source\PSoC4/RTC_1.h **** 
 479:Generated_Source\PSoC4/RTC_1.h ****     return(retVal);
 480:Generated_Source\PSoC4/RTC_1.h **** }
 481:Generated_Source\PSoC4/RTC_1.h **** 
 482:Generated_Source\PSoC4/RTC_1.h **** 
 483:Generated_Source\PSoC4/RTC_1.h **** /*******************************************************************************
 484:Generated_Source\PSoC4/RTC_1.h **** * Function Name: RTC_1_GetSecond
 485:Generated_Source\PSoC4/RTC_1.h **** ****************************************************************************//**
 486:Generated_Source\PSoC4/RTC_1.h **** *
 487:Generated_Source\PSoC4/RTC_1.h **** * \brief
 488:Generated_Source\PSoC4/RTC_1.h **** *  Returns the seconds value from the time value that is passed as a/the parameter.
 489:Generated_Source\PSoC4/RTC_1.h **** *
ARM GAS  C:\Users\glenn\AppData\Local\Temp\ccftzDgr.s 			page 10


 490:Generated_Source\PSoC4/RTC_1.h **** * \param
 491:Generated_Source\PSoC4/RTC_1.h **** *  time The time value.
 492:Generated_Source\PSoC4/RTC_1.h **** *
 493:Generated_Source\PSoC4/RTC_1.h **** * \return
 494:Generated_Source\PSoC4/RTC_1.h **** *  The seconds value.
 495:Generated_Source\PSoC4/RTC_1.h **** *
 496:Generated_Source\PSoC4/RTC_1.h **** *******************************************************************************/
 497:Generated_Source\PSoC4/RTC_1.h **** static CY_INLINE uint32 RTC_1_GetSecond(uint32 inputTime)
 498:Generated_Source\PSoC4/RTC_1.h **** {
  25              		.loc 1 498 0
  26              		.cfi_startproc
  27 0000 80B5     		push	{r7, lr}
  28              		.cfi_def_cfa_offset 8
  29              		.cfi_offset 7, -8
  30              		.cfi_offset 14, -4
  31 0002 84B0     		sub	sp, sp, #16
  32              		.cfi_def_cfa_offset 24
  33 0004 00AF     		add	r7, sp, #0
  34              		.cfi_def_cfa_register 7
  35 0006 7860     		str	r0, [r7, #4]
 499:Generated_Source\PSoC4/RTC_1.h ****     uint32 retVal;
 500:Generated_Source\PSoC4/RTC_1.h **** 
 501:Generated_Source\PSoC4/RTC_1.h ****     retVal  = ((inputTime & RTC_1_10_SECONDS_MASK) >> RTC_1_10_SECONDS_OFFSET) * 10u;
  36              		.loc 1 501 0
  37 0008 7B68     		ldr	r3, [r7, #4]
  38 000a 7022     		mov	r2, #112
  39 000c 1340     		and	r3, r2
  40 000e 1A09     		lsr	r2, r3, #4
  41 0010 131C     		mov	r3, r2
  42 0012 9B00     		lsl	r3, r3, #2
  43 0014 9B18     		add	r3, r3, r2
  44 0016 5B00     		lsl	r3, r3, #1
  45 0018 FB60     		str	r3, [r7, #12]
 502:Generated_Source\PSoC4/RTC_1.h ****     retVal += (inputTime & RTC_1_SECONDS_MASK) >> RTC_1_SECONDS_OFFSET;
  46              		.loc 1 502 0
  47 001a 7B68     		ldr	r3, [r7, #4]
  48 001c 0F22     		mov	r2, #15
  49 001e 1340     		and	r3, r2
  50 0020 FA68     		ldr	r2, [r7, #12]
  51 0022 D318     		add	r3, r2, r3
  52 0024 FB60     		str	r3, [r7, #12]
 503:Generated_Source\PSoC4/RTC_1.h **** 
 504:Generated_Source\PSoC4/RTC_1.h ****     return (retVal);
  53              		.loc 1 504 0
  54 0026 FB68     		ldr	r3, [r7, #12]
 505:Generated_Source\PSoC4/RTC_1.h **** }
  55              		.loc 1 505 0
  56 0028 181C     		mov	r0, r3
  57 002a BD46     		mov	sp, r7
  58 002c 04B0     		add	sp, sp, #16
  59              		@ sp needed
  60 002e 80BD     		pop	{r7, pc}
  61              		.cfi_endproc
  62              	.LFE37:
  63              		.size	RTC_1_GetSecond, .-RTC_1_GetSecond
  64              		.section	.text.RTC_1_GetMinutes,"ax",%progbits
  65              		.align	2
ARM GAS  C:\Users\glenn\AppData\Local\Temp\ccftzDgr.s 			page 11


  66              		.code	16
  67              		.thumb_func
  68              		.type	RTC_1_GetMinutes, %function
  69              	RTC_1_GetMinutes:
  70              	.LFB38:
 506:Generated_Source\PSoC4/RTC_1.h **** 
 507:Generated_Source\PSoC4/RTC_1.h **** 
 508:Generated_Source\PSoC4/RTC_1.h **** /*******************************************************************************
 509:Generated_Source\PSoC4/RTC_1.h **** * Function Name: RTC_1_GetMinutes
 510:Generated_Source\PSoC4/RTC_1.h **** ****************************************************************************//**
 511:Generated_Source\PSoC4/RTC_1.h **** *
 512:Generated_Source\PSoC4/RTC_1.h **** * \brief
 513:Generated_Source\PSoC4/RTC_1.h **** *  Returns the minutes value from the time value that is passed as a/the 
 514:Generated_Source\PSoC4/RTC_1.h **** * parameter.
 515:Generated_Source\PSoC4/RTC_1.h **** *
 516:Generated_Source\PSoC4/RTC_1.h **** * \param
 517:Generated_Source\PSoC4/RTC_1.h **** *  time The time value.
 518:Generated_Source\PSoC4/RTC_1.h **** *
 519:Generated_Source\PSoC4/RTC_1.h **** * \return
 520:Generated_Source\PSoC4/RTC_1.h **** *  The minutes value.
 521:Generated_Source\PSoC4/RTC_1.h **** *
 522:Generated_Source\PSoC4/RTC_1.h **** *******************************************************************************/
 523:Generated_Source\PSoC4/RTC_1.h **** static CY_INLINE uint32 RTC_1_GetMinutes(uint32 inputTime)
 524:Generated_Source\PSoC4/RTC_1.h **** {
  71              		.loc 1 524 0
  72              		.cfi_startproc
  73 0000 80B5     		push	{r7, lr}
  74              		.cfi_def_cfa_offset 8
  75              		.cfi_offset 7, -8
  76              		.cfi_offset 14, -4
  77 0002 84B0     		sub	sp, sp, #16
  78              		.cfi_def_cfa_offset 24
  79 0004 00AF     		add	r7, sp, #0
  80              		.cfi_def_cfa_register 7
  81 0006 7860     		str	r0, [r7, #4]
 525:Generated_Source\PSoC4/RTC_1.h ****     uint32 retVal;
 526:Generated_Source\PSoC4/RTC_1.h **** 
 527:Generated_Source\PSoC4/RTC_1.h ****     retVal  = ((inputTime & RTC_1_10_MINUTES_MASK) >> RTC_1_10_MINUTES_OFFSET) * 10u;
  82              		.loc 1 527 0
  83 0008 7A68     		ldr	r2, [r7, #4]
  84 000a E023     		mov	r3, #224
  85 000c DB01     		lsl	r3, r3, #7
  86 000e 1340     		and	r3, r2
  87 0010 1A0B     		lsr	r2, r3, #12
  88 0012 131C     		mov	r3, r2
  89 0014 9B00     		lsl	r3, r3, #2
  90 0016 9B18     		add	r3, r3, r2
  91 0018 5B00     		lsl	r3, r3, #1
  92 001a FB60     		str	r3, [r7, #12]
 528:Generated_Source\PSoC4/RTC_1.h ****     retVal += (inputTime & RTC_1_MINUTES_MASK) >> RTC_1_MINUTES_OFFSET;
  93              		.loc 1 528 0
  94 001c 7A68     		ldr	r2, [r7, #4]
  95 001e F023     		mov	r3, #240
  96 0020 1B01     		lsl	r3, r3, #4
  97 0022 1340     		and	r3, r2
  98 0024 1B0A     		lsr	r3, r3, #8
  99 0026 FA68     		ldr	r2, [r7, #12]
ARM GAS  C:\Users\glenn\AppData\Local\Temp\ccftzDgr.s 			page 12


 100 0028 D318     		add	r3, r2, r3
 101 002a FB60     		str	r3, [r7, #12]
 529:Generated_Source\PSoC4/RTC_1.h **** 
 530:Generated_Source\PSoC4/RTC_1.h ****     return (retVal);
 102              		.loc 1 530 0
 103 002c FB68     		ldr	r3, [r7, #12]
 531:Generated_Source\PSoC4/RTC_1.h **** }
 104              		.loc 1 531 0
 105 002e 181C     		mov	r0, r3
 106 0030 BD46     		mov	sp, r7
 107 0032 04B0     		add	sp, sp, #16
 108              		@ sp needed
 109 0034 80BD     		pop	{r7, pc}
 110              		.cfi_endproc
 111              	.LFE38:
 112              		.size	RTC_1_GetMinutes, .-RTC_1_GetMinutes
 113 0036 C046     		.section	.text.RTC_1_GetHours,"ax",%progbits
 114              		.align	2
 115              		.code	16
 116              		.thumb_func
 117              		.type	RTC_1_GetHours, %function
 118              	RTC_1_GetHours:
 119              	.LFB39:
 532:Generated_Source\PSoC4/RTC_1.h **** 
 533:Generated_Source\PSoC4/RTC_1.h **** 
 534:Generated_Source\PSoC4/RTC_1.h **** /*******************************************************************************
 535:Generated_Source\PSoC4/RTC_1.h **** * Function Name: RTC_1_GetHours
 536:Generated_Source\PSoC4/RTC_1.h **** ****************************************************************************//**
 537:Generated_Source\PSoC4/RTC_1.h **** *
 538:Generated_Source\PSoC4/RTC_1.h **** * \brief
 539:Generated_Source\PSoC4/RTC_1.h **** *  Returns the hours value from the time value that is passed as a/the parameter.
 540:Generated_Source\PSoC4/RTC_1.h **** *
 541:Generated_Source\PSoC4/RTC_1.h **** * \param
 542:Generated_Source\PSoC4/RTC_1.h **** *  time The time value.
 543:Generated_Source\PSoC4/RTC_1.h **** *
 544:Generated_Source\PSoC4/RTC_1.h **** * \return
 545:Generated_Source\PSoC4/RTC_1.h **** *  The hours value.
 546:Generated_Source\PSoC4/RTC_1.h **** *
 547:Generated_Source\PSoC4/RTC_1.h **** *******************************************************************************/
 548:Generated_Source\PSoC4/RTC_1.h **** static CY_INLINE uint32 RTC_1_GetHours(uint32 inputTime)
 549:Generated_Source\PSoC4/RTC_1.h **** {
 120              		.loc 1 549 0
 121              		.cfi_startproc
 122 0000 80B5     		push	{r7, lr}
 123              		.cfi_def_cfa_offset 8
 124              		.cfi_offset 7, -8
 125              		.cfi_offset 14, -4
 126 0002 84B0     		sub	sp, sp, #16
 127              		.cfi_def_cfa_offset 24
 128 0004 00AF     		add	r7, sp, #0
 129              		.cfi_def_cfa_register 7
 130 0006 7860     		str	r0, [r7, #4]
 550:Generated_Source\PSoC4/RTC_1.h ****     uint32 retVal;
 551:Generated_Source\PSoC4/RTC_1.h **** 
 552:Generated_Source\PSoC4/RTC_1.h ****     retVal  = ((inputTime & RTC_1_10_HOURS_MASK) >> RTC_1_10_HOURS_OFFSET) * 10u;
 131              		.loc 1 552 0
 132 0008 7A68     		ldr	r2, [r7, #4]
ARM GAS  C:\Users\glenn\AppData\Local\Temp\ccftzDgr.s 			page 13


 133 000a C023     		mov	r3, #192
 134 000c 9B03     		lsl	r3, r3, #14
 135 000e 1340     		and	r3, r2
 136 0010 1A0D     		lsr	r2, r3, #20
 137 0012 131C     		mov	r3, r2
 138 0014 9B00     		lsl	r3, r3, #2
 139 0016 9B18     		add	r3, r3, r2
 140 0018 5B00     		lsl	r3, r3, #1
 141 001a FB60     		str	r3, [r7, #12]
 553:Generated_Source\PSoC4/RTC_1.h ****     retVal += (inputTime & RTC_1_HOURS_MASK) >> RTC_1_HOURS_OFFSET;
 142              		.loc 1 553 0
 143 001c 7A68     		ldr	r2, [r7, #4]
 144 001e F023     		mov	r3, #240
 145 0020 1B03     		lsl	r3, r3, #12
 146 0022 1340     		and	r3, r2
 147 0024 1B0C     		lsr	r3, r3, #16
 148 0026 FA68     		ldr	r2, [r7, #12]
 149 0028 D318     		add	r3, r2, r3
 150 002a FB60     		str	r3, [r7, #12]
 554:Generated_Source\PSoC4/RTC_1.h **** 
 555:Generated_Source\PSoC4/RTC_1.h ****     return (retVal);
 151              		.loc 1 555 0
 152 002c FB68     		ldr	r3, [r7, #12]
 556:Generated_Source\PSoC4/RTC_1.h **** }
 153              		.loc 1 556 0
 154 002e 181C     		mov	r0, r3
 155 0030 BD46     		mov	sp, r7
 156 0032 04B0     		add	sp, sp, #16
 157              		@ sp needed
 158 0034 80BD     		pop	{r7, pc}
 159              		.cfi_endproc
 160              	.LFE39:
 161              		.size	RTC_1_GetHours, .-RTC_1_GetHours
 162 0036 C046     		.section	.text.terminate_fn,"ax",%progbits
 163              		.align	2
 164              		.global	terminate_fn
 165              		.code	16
 166              		.thumb_func
 167              		.type	terminate_fn, %function
 168              	terminate_fn:
 169              	.LFB62:
 170              		.file 2 "chain_flow\\cf_runtime_functions.c"
   1:chain_flow/cf_runtime_functions.c **** /*
   2:chain_flow/cf_runtime_functions.c **** 
   3:chain_flow/cf_runtime_functions.c **** File: cf_runtime_functions.c
   4:chain_flow/cf_runtime_functions.c **** Implements of codes for cf_runtime_functions.c
   5:chain_flow/cf_runtime_functions.c **** 
   6:chain_flow/cf_runtime_functions.c **** 
   7:chain_flow/cf_runtime_functions.c **** */
   8:chain_flow/cf_runtime_functions.c **** 
   9:chain_flow/cf_runtime_functions.c **** #include <stdint.h>
  10:chain_flow/cf_runtime_functions.c **** #include <stdlib.h>
  11:chain_flow/cf_runtime_functions.c **** #include <project.h>
  12:chain_flow/cf_runtime_functions.c **** #include "cf_chain_flow_support.h"
  13:chain_flow/cf_runtime_functions.c **** 
  14:chain_flow/cf_runtime_functions.c **** #include "cf_runtime_functions.h"
  15:chain_flow/cf_runtime_functions.c **** #include "cf_events.h"
ARM GAS  C:\Users\glenn\AppData\Local\Temp\ccftzDgr.s 			page 14


  16:chain_flow/cf_runtime_functions.c **** 
  17:chain_flow/cf_runtime_functions.c **** #define NULL_PARAMETER  0xffffffff
  18:chain_flow/cf_runtime_functions.c **** 
  19:chain_flow/cf_runtime_functions.c **** int terminate_fn( unsigned link_id, CF_FUN_AUX param_1, unsigned param_2, 
  20:chain_flow/cf_runtime_functions.c ****     unsigned param_3, unsigned param_4,  unsigned event, unsigned event_data)
  21:chain_flow/cf_runtime_functions.c **** {
 171              		.loc 2 21 0
 172              		.cfi_startproc
 173 0000 80B5     		push	{r7, lr}
 174              		.cfi_def_cfa_offset 8
 175              		.cfi_offset 7, -8
 176              		.cfi_offset 14, -4
 177 0002 84B0     		sub	sp, sp, #16
 178              		.cfi_def_cfa_offset 24
 179 0004 00AF     		add	r7, sp, #0
 180              		.cfi_def_cfa_register 7
 181 0006 F860     		str	r0, [r7, #12]
 182 0008 B960     		str	r1, [r7, #8]
 183 000a 7A60     		str	r2, [r7, #4]
 184 000c 3B60     		str	r3, [r7]
  22:chain_flow/cf_runtime_functions.c ****    return CF_TERMINATE;
 185              		.loc 2 22 0
 186 000e 0423     		mov	r3, #4
  23:chain_flow/cf_runtime_functions.c **** }
 187              		.loc 2 23 0
 188 0010 181C     		mov	r0, r3
 189 0012 BD46     		mov	sp, r7
 190 0014 04B0     		add	sp, sp, #16
 191              		@ sp needed
 192 0016 80BD     		pop	{r7, pc}
 193              		.cfi_endproc
 194              	.LFE62:
 195              		.size	terminate_fn, .-terminate_fn
 196              		.section	.text.halt_fn,"ax",%progbits
 197              		.align	2
 198              		.global	halt_fn
 199              		.code	16
 200              		.thumb_func
 201              		.type	halt_fn, %function
 202              	halt_fn:
 203              	.LFB63:
  24:chain_flow/cf_runtime_functions.c **** 
  25:chain_flow/cf_runtime_functions.c **** 
  26:chain_flow/cf_runtime_functions.c **** int halt_fn( unsigned link_id, CF_FUN_AUX param_1, unsigned param_2, 
  27:chain_flow/cf_runtime_functions.c ****     unsigned param_3, unsigned param_4,  unsigned event, unsigned event_data)
  28:chain_flow/cf_runtime_functions.c **** {
 204              		.loc 2 28 0
 205              		.cfi_startproc
 206 0000 80B5     		push	{r7, lr}
 207              		.cfi_def_cfa_offset 8
 208              		.cfi_offset 7, -8
 209              		.cfi_offset 14, -4
 210 0002 84B0     		sub	sp, sp, #16
 211              		.cfi_def_cfa_offset 24
 212 0004 00AF     		add	r7, sp, #0
 213              		.cfi_def_cfa_register 7
 214 0006 F860     		str	r0, [r7, #12]
ARM GAS  C:\Users\glenn\AppData\Local\Temp\ccftzDgr.s 			page 15


 215 0008 B960     		str	r1, [r7, #8]
 216 000a 7A60     		str	r2, [r7, #4]
 217 000c 3B60     		str	r3, [r7]
  29:chain_flow/cf_runtime_functions.c **** 
  30:chain_flow/cf_runtime_functions.c ****   return CF_HALT;
 218              		.loc 2 30 0
 219 000e 0123     		mov	r3, #1
  31:chain_flow/cf_runtime_functions.c **** }
 220              		.loc 2 31 0
 221 0010 181C     		mov	r0, r3
 222 0012 BD46     		mov	sp, r7
 223 0014 04B0     		add	sp, sp, #16
 224              		@ sp needed
 225 0016 80BD     		pop	{r7, pc}
 226              		.cfi_endproc
 227              	.LFE63:
 228              		.size	halt_fn, .-halt_fn
 229              		.section	.text.reset_fn,"ax",%progbits
 230              		.align	2
 231              		.global	reset_fn
 232              		.code	16
 233              		.thumb_func
 234              		.type	reset_fn, %function
 235              	reset_fn:
 236              	.LFB64:
  32:chain_flow/cf_runtime_functions.c **** 
  33:chain_flow/cf_runtime_functions.c **** 
  34:chain_flow/cf_runtime_functions.c ****  
  35:chain_flow/cf_runtime_functions.c **** int reset_fn( unsigned link_id, CF_FUN_AUX param_1, unsigned param_2, 
  36:chain_flow/cf_runtime_functions.c ****     unsigned param_3, unsigned param_4,  unsigned event, unsigned event_data)
  37:chain_flow/cf_runtime_functions.c **** {
 237              		.loc 2 37 0
 238              		.cfi_startproc
 239 0000 80B5     		push	{r7, lr}
 240              		.cfi_def_cfa_offset 8
 241              		.cfi_offset 7, -8
 242              		.cfi_offset 14, -4
 243 0002 84B0     		sub	sp, sp, #16
 244              		.cfi_def_cfa_offset 24
 245 0004 00AF     		add	r7, sp, #0
 246              		.cfi_def_cfa_register 7
 247 0006 F860     		str	r0, [r7, #12]
 248 0008 B960     		str	r1, [r7, #8]
 249 000a 7A60     		str	r2, [r7, #4]
 250 000c 3B60     		str	r3, [r7]
  38:chain_flow/cf_runtime_functions.c ****    
  39:chain_flow/cf_runtime_functions.c ****    return CF_RESET;
 251              		.loc 2 39 0
 252 000e 0323     		mov	r3, #3
  40:chain_flow/cf_runtime_functions.c **** 
  41:chain_flow/cf_runtime_functions.c **** }
 253              		.loc 2 41 0
 254 0010 181C     		mov	r0, r3
 255 0012 BD46     		mov	sp, r7
 256 0014 04B0     		add	sp, sp, #16
 257              		@ sp needed
 258 0016 80BD     		pop	{r7, pc}
ARM GAS  C:\Users\glenn\AppData\Local\Temp\ccftzDgr.s 			page 16


 259              		.cfi_endproc
 260              	.LFE64:
 261              		.size	reset_fn, .-reset_fn
 262              		.section	.text.one_step_fn,"ax",%progbits
 263              		.align	2
 264              		.global	one_step_fn
 265              		.code	16
 266              		.thumb_func
 267              		.type	one_step_fn, %function
 268              	one_step_fn:
 269              	.LFB65:
  42:chain_flow/cf_runtime_functions.c **** 
  43:chain_flow/cf_runtime_functions.c **** int one_step_fn( unsigned link_id, CF_FUN_AUX param_1, unsigned param_2, 
  44:chain_flow/cf_runtime_functions.c ****     unsigned param_3, unsigned param_4,  unsigned event, unsigned event_data)
  45:chain_flow/cf_runtime_functions.c **** {
 270              		.loc 2 45 0
 271              		.cfi_startproc
 272 0000 B0B5     		push	{r4, r5, r7, lr}
 273              		.cfi_def_cfa_offset 16
 274              		.cfi_offset 4, -16
 275              		.cfi_offset 5, -12
 276              		.cfi_offset 7, -8
 277              		.cfi_offset 14, -4
 278 0002 88B0     		sub	sp, sp, #32
 279              		.cfi_def_cfa_offset 48
 280 0004 02AF     		add	r7, sp, #8
 281              		.cfi_def_cfa 7, 40
 282 0006 F860     		str	r0, [r7, #12]
 283 0008 B960     		str	r1, [r7, #8]
 284 000a 7A60     		str	r2, [r7, #4]
 285 000c 3B60     		str	r3, [r7]
  46:chain_flow/cf_runtime_functions.c ****    int return_value;   
  47:chain_flow/cf_runtime_functions.c ****    
  48:chain_flow/cf_runtime_functions.c ****    if( event!= CF_INIT_EVENT )
 286              		.loc 2 48 0
 287 000e FB6A     		ldr	r3, [r7, #44]
 288 0010 012B     		cmp	r3, #1
 289 0012 0DD0     		beq	.L14
  49:chain_flow/cf_runtime_functions.c ****    {
  50:chain_flow/cf_runtime_functions.c ****       param_1(link_id, param_2,param_3,param_4,event,event_data );
 290              		.loc 2 50 0
 291 0014 F868     		ldr	r0, [r7, #12]
 292 0016 7968     		ldr	r1, [r7, #4]
 293 0018 3A68     		ldr	r2, [r7]
 294 001a BD6A     		ldr	r5, [r7, #40]
 295 001c FB6A     		ldr	r3, [r7, #44]
 296 001e 0093     		str	r3, [sp]
 297 0020 3B6B     		ldr	r3, [r7, #48]
 298 0022 0193     		str	r3, [sp, #4]
 299 0024 BC68     		ldr	r4, [r7, #8]
 300 0026 2B1C     		mov	r3, r5
 301 0028 A047     		blx	r4
  51:chain_flow/cf_runtime_functions.c ****       return_value = CF_DISABLE;
 302              		.loc 2 51 0
 303 002a 0223     		mov	r3, #2
 304 002c 7B61     		str	r3, [r7, #20]
 305 002e 01E0     		b	.L15
ARM GAS  C:\Users\glenn\AppData\Local\Temp\ccftzDgr.s 			page 17


 306              	.L14:
  52:chain_flow/cf_runtime_functions.c ****    }
  53:chain_flow/cf_runtime_functions.c ****    else
  54:chain_flow/cf_runtime_functions.c ****    {
  55:chain_flow/cf_runtime_functions.c ****       return_value = CF_CONTINUE;
 307              		.loc 2 55 0
 308 0030 0023     		mov	r3, #0
 309 0032 7B61     		str	r3, [r7, #20]
 310              	.L15:
  56:chain_flow/cf_runtime_functions.c ****    }
  57:chain_flow/cf_runtime_functions.c ****    return return_value; 
 311              		.loc 2 57 0
 312 0034 7B69     		ldr	r3, [r7, #20]
  58:chain_flow/cf_runtime_functions.c **** }
 313              		.loc 2 58 0
 314 0036 181C     		mov	r0, r3
 315 0038 BD46     		mov	sp, r7
 316 003a 06B0     		add	sp, sp, #24
 317              		@ sp needed
 318 003c B0BD     		pop	{r4, r5, r7, pc}
 319              		.cfi_endproc
 320              	.LFE65:
 321              		.size	one_step_fn, .-one_step_fn
 322 003e C046     		.section	.text.code_step_fn,"ax",%progbits
 323              		.align	2
 324              		.global	code_step_fn
 325              		.code	16
 326              		.thumb_func
 327              		.type	code_step_fn, %function
 328              	code_step_fn:
 329              	.LFB66:
  59:chain_flow/cf_runtime_functions.c **** 
  60:chain_flow/cf_runtime_functions.c **** int code_step_fn( unsigned link_id, CF_FUN_AUX param_1, unsigned param_2, 
  61:chain_flow/cf_runtime_functions.c ****     unsigned param_3, unsigned param_4,  unsigned event, unsigned event_data)
  62:chain_flow/cf_runtime_functions.c **** {
 330              		.loc 2 62 0
 331              		.cfi_startproc
 332 0000 B0B5     		push	{r4, r5, r7, lr}
 333              		.cfi_def_cfa_offset 16
 334              		.cfi_offset 4, -16
 335              		.cfi_offset 5, -12
 336              		.cfi_offset 7, -8
 337              		.cfi_offset 14, -4
 338 0002 86B0     		sub	sp, sp, #24
 339              		.cfi_def_cfa_offset 40
 340 0004 02AF     		add	r7, sp, #8
 341              		.cfi_def_cfa 7, 32
 342 0006 F860     		str	r0, [r7, #12]
 343 0008 B960     		str	r1, [r7, #8]
 344 000a 7A60     		str	r2, [r7, #4]
 345 000c 3B60     		str	r3, [r7]
  63:chain_flow/cf_runtime_functions.c ****    
  64:chain_flow/cf_runtime_functions.c ****    return param_1( link_id, param_2,param_3,param_4,event,event_data );
 346              		.loc 2 64 0
 347 000e F868     		ldr	r0, [r7, #12]
 348 0010 7968     		ldr	r1, [r7, #4]
 349 0012 3A68     		ldr	r2, [r7]
ARM GAS  C:\Users\glenn\AppData\Local\Temp\ccftzDgr.s 			page 18


 350 0014 3D6A     		ldr	r5, [r7, #32]
 351 0016 7B6A     		ldr	r3, [r7, #36]
 352 0018 0093     		str	r3, [sp]
 353 001a BB6A     		ldr	r3, [r7, #40]
 354 001c 0193     		str	r3, [sp, #4]
 355 001e BC68     		ldr	r4, [r7, #8]
 356 0020 2B1C     		mov	r3, r5
 357 0022 A047     		blx	r4
 358 0024 031C     		mov	r3, r0
  65:chain_flow/cf_runtime_functions.c **** 
  66:chain_flow/cf_runtime_functions.c **** }
 359              		.loc 2 66 0
 360 0026 181C     		mov	r0, r3
 361 0028 BD46     		mov	sp, r7
 362 002a 04B0     		add	sp, sp, #16
 363              		@ sp needed
 364 002c B0BD     		pop	{r4, r5, r7, pc}
 365              		.cfi_endproc
 366              	.LFE66:
 367              		.size	code_step_fn, .-code_step_fn
 368 002e C046     		.section	.text.send_event_fn,"ax",%progbits
 369              		.align	2
 370              		.global	send_event_fn
 371              		.code	16
 372              		.thumb_func
 373              		.type	send_event_fn, %function
 374              	send_event_fn:
 375              	.LFB67:
  67:chain_flow/cf_runtime_functions.c **** 
  68:chain_flow/cf_runtime_functions.c **** 
  69:chain_flow/cf_runtime_functions.c **** int send_event_fn( unsigned link_id, CF_FUN_AUX param_1, unsigned param_2, 
  70:chain_flow/cf_runtime_functions.c ****     unsigned param_3, unsigned param_4,  unsigned event, unsigned event_data)
  71:chain_flow/cf_runtime_functions.c **** {
 376              		.loc 2 71 0
 377              		.cfi_startproc
 378 0000 80B5     		push	{r7, lr}
 379              		.cfi_def_cfa_offset 8
 380              		.cfi_offset 7, -8
 381              		.cfi_offset 14, -4
 382 0002 84B0     		sub	sp, sp, #16
 383              		.cfi_def_cfa_offset 24
 384 0004 00AF     		add	r7, sp, #0
 385              		.cfi_def_cfa_register 7
 386 0006 F860     		str	r0, [r7, #12]
 387 0008 B960     		str	r1, [r7, #8]
 388 000a 7A60     		str	r2, [r7, #4]
 389 000c 3B60     		str	r3, [r7]
  72:chain_flow/cf_runtime_functions.c ****  
  73:chain_flow/cf_runtime_functions.c ****    if( event== CF_INIT_EVENT )
 390              		.loc 2 73 0
 391 000e FB69     		ldr	r3, [r7, #28]
 392 0010 012B     		cmp	r3, #1
 393 0012 05D1     		bne	.L20
  74:chain_flow/cf_runtime_functions.c ****    {
  75:chain_flow/cf_runtime_functions.c ****       cf_send_event( param_2, param_3 );
 394              		.loc 2 75 0
 395 0014 7A68     		ldr	r2, [r7, #4]
ARM GAS  C:\Users\glenn\AppData\Local\Temp\ccftzDgr.s 			page 19


 396 0016 3B68     		ldr	r3, [r7]
 397 0018 101C     		mov	r0, r2
 398 001a 191C     		mov	r1, r3
 399 001c FFF7FEFF 		bl	cf_send_event
 400              	.L20:
  76:chain_flow/cf_runtime_functions.c ****    }
  77:chain_flow/cf_runtime_functions.c ****    return CF_DISABLE;
 401              		.loc 2 77 0
 402 0020 0223     		mov	r3, #2
  78:chain_flow/cf_runtime_functions.c **** }
 403              		.loc 2 78 0
 404 0022 181C     		mov	r0, r3
 405 0024 BD46     		mov	sp, r7
 406 0026 04B0     		add	sp, sp, #16
 407              		@ sp needed
 408 0028 80BD     		pop	{r7, pc}
 409              		.cfi_endproc
 410              	.LFE67:
 411              		.size	send_event_fn, .-send_event_fn
 412 002a C046     		.section	.text.wait_tod_fn,"ax",%progbits
 413              		.align	2
 414              		.global	wait_tod_fn
 415              		.code	16
 416              		.thumb_func
 417              		.type	wait_tod_fn, %function
 418              	wait_tod_fn:
 419              	.LFB68:
  79:chain_flow/cf_runtime_functions.c **** 
  80:chain_flow/cf_runtime_functions.c **** 
  81:chain_flow/cf_runtime_functions.c **** int wait_tod_fn( unsigned link_id, CF_FUN_AUX param_1, unsigned param_2, 
  82:chain_flow/cf_runtime_functions.c ****     unsigned param_3, unsigned param_4,  unsigned event, unsigned event_data)
  83:chain_flow/cf_runtime_functions.c **** {
 420              		.loc 2 83 0
 421              		.cfi_startproc
 422 0000 80B5     		push	{r7, lr}
 423              		.cfi_def_cfa_offset 8
 424              		.cfi_offset 7, -8
 425              		.cfi_offset 14, -4
 426 0002 86B0     		sub	sp, sp, #24
 427              		.cfi_def_cfa_offset 32
 428 0004 00AF     		add	r7, sp, #0
 429              		.cfi_def_cfa_register 7
 430 0006 F860     		str	r0, [r7, #12]
 431 0008 B960     		str	r1, [r7, #8]
 432 000a 7A60     		str	r2, [r7, #4]
 433 000c 3B60     		str	r3, [r7]
  84:chain_flow/cf_runtime_functions.c ****    uint32 time;
  85:chain_flow/cf_runtime_functions.c ****    time = RTC_1_GetTime();
 434              		.loc 2 85 0
 435 000e FFF7FEFF 		bl	RTC_1_GetTime
 436 0012 031C     		mov	r3, r0
 437 0014 7B61     		str	r3, [r7, #20]
  86:chain_flow/cf_runtime_functions.c ****  
  87:chain_flow/cf_runtime_functions.c ****    // check hour
  88:chain_flow/cf_runtime_functions.c ****    if( ( param_2 == NULL_PARAMETER ) || ( param_2 == RTC_1_GetHours(time) ))
 438              		.loc 2 88 0
 439 0016 7B68     		ldr	r3, [r7, #4]
ARM GAS  C:\Users\glenn\AppData\Local\Temp\ccftzDgr.s 			page 20


 440 0018 0133     		add	r3, r3, #1
 441 001a 07D0     		beq	.L23
 442              		.loc 2 88 0 is_stmt 0 discriminator 1
 443 001c 7B69     		ldr	r3, [r7, #20]
 444 001e 181C     		mov	r0, r3
 445 0020 FFF7FEFF 		bl	RTC_1_GetHours
 446 0024 021E     		sub	r2, r0, #0
 447 0026 7B68     		ldr	r3, [r7, #4]
 448 0028 9A42     		cmp	r2, r3
 449 002a 17D1     		bne	.L24
 450              	.L23:
  89:chain_flow/cf_runtime_functions.c ****    {
  90:chain_flow/cf_runtime_functions.c ****      if( ( param_3 == NULL_PARAMETER ) || ( param_3 == RTC_1_GetMinutes(time) ))
 451              		.loc 2 90 0 is_stmt 1
 452 002c 3B68     		ldr	r3, [r7]
 453 002e 0133     		add	r3, r3, #1
 454 0030 07D0     		beq	.L25
 455              		.loc 2 90 0 is_stmt 0 discriminator 1
 456 0032 7B69     		ldr	r3, [r7, #20]
 457 0034 181C     		mov	r0, r3
 458 0036 FFF7FEFF 		bl	RTC_1_GetMinutes
 459 003a 021E     		sub	r2, r0, #0
 460 003c 3B68     		ldr	r3, [r7]
 461 003e 9A42     		cmp	r2, r3
 462 0040 0CD1     		bne	.L24
 463              	.L25:
  91:chain_flow/cf_runtime_functions.c ****      {
  92:chain_flow/cf_runtime_functions.c ****        if( ( param_4 == NULL_PARAMETER ) || ( param_4 == RTC_1_GetSecond(time)))
 464              		.loc 2 92 0 is_stmt 1
 465 0042 3B6A     		ldr	r3, [r7, #32]
 466 0044 0133     		add	r3, r3, #1
 467 0046 07D0     		beq	.L26
 468              		.loc 2 92 0 is_stmt 0 discriminator 1
 469 0048 7B69     		ldr	r3, [r7, #20]
 470 004a 181C     		mov	r0, r3
 471 004c FFF7FEFF 		bl	RTC_1_GetSecond
 472 0050 021E     		sub	r2, r0, #0
 473 0052 3B6A     		ldr	r3, [r7, #32]
 474 0054 9A42     		cmp	r2, r3
 475 0056 01D1     		bne	.L24
 476              	.L26:
  93:chain_flow/cf_runtime_functions.c ****        {
  94:chain_flow/cf_runtime_functions.c ****           return CF_DISABLE;
 477              		.loc 2 94 0 is_stmt 1
 478 0058 0223     		mov	r3, #2
 479 005a 00E0     		b	.L27
 480              	.L24:
  95:chain_flow/cf_runtime_functions.c ****        }
  96:chain_flow/cf_runtime_functions.c ****      }
  97:chain_flow/cf_runtime_functions.c ****    }
  98:chain_flow/cf_runtime_functions.c ****     return CF_HALT;  // implemented on specific system
 481              		.loc 2 98 0
 482 005c 0123     		mov	r3, #1
 483              	.L27:
  99:chain_flow/cf_runtime_functions.c **** 
 100:chain_flow/cf_runtime_functions.c **** }
 484              		.loc 2 100 0
ARM GAS  C:\Users\glenn\AppData\Local\Temp\ccftzDgr.s 			page 21


 485 005e 181C     		mov	r0, r3
 486 0060 BD46     		mov	sp, r7
 487 0062 06B0     		add	sp, sp, #24
 488              		@ sp needed
 489 0064 80BD     		pop	{r7, pc}
 490              		.cfi_endproc
 491              	.LFE68:
 492              		.size	wait_tod_fn, .-wait_tod_fn
 493 0066 C046     		.section	.text.wait_event_count_fn,"ax",%progbits
 494              		.align	2
 495              		.global	wait_event_count_fn
 496              		.code	16
 497              		.thumb_func
 498              		.type	wait_event_count_fn, %function
 499              	wait_event_count_fn:
 500              	.LFB69:
 101:chain_flow/cf_runtime_functions.c **** 
 102:chain_flow/cf_runtime_functions.c **** 
 103:chain_flow/cf_runtime_functions.c **** int wait_event_count_fn( unsigned link_id, CF_FUN_AUX param_1, unsigned rx_event, 
 104:chain_flow/cf_runtime_functions.c ****     unsigned rx_event_count, unsigned param_4,  unsigned event, unsigned event_data)
 105:chain_flow/cf_runtime_functions.c **** {
 501              		.loc 2 105 0
 502              		.cfi_startproc
 503 0000 80B5     		push	{r7, lr}
 504              		.cfi_def_cfa_offset 8
 505              		.cfi_offset 7, -8
 506              		.cfi_offset 14, -4
 507 0002 86B0     		sub	sp, sp, #24
 508              		.cfi_def_cfa_offset 32
 509 0004 00AF     		add	r7, sp, #0
 510              		.cfi_def_cfa_register 7
 511 0006 F860     		str	r0, [r7, #12]
 512 0008 B960     		str	r1, [r7, #8]
 513 000a 7A60     		str	r2, [r7, #4]
 514 000c 3B60     		str	r3, [r7]
 106:chain_flow/cf_runtime_functions.c ****   unsigned value; 
 107:chain_flow/cf_runtime_functions.c ****   int      return_value;
 108:chain_flow/cf_runtime_functions.c ****   if( event == CF_INIT_EVENT )
 515              		.loc 2 108 0
 516 000e 7B6A     		ldr	r3, [r7, #36]
 517 0010 012B     		cmp	r3, #1
 518 0012 06D1     		bne	.L29
 109:chain_flow/cf_runtime_functions.c ****   {
 110:chain_flow/cf_runtime_functions.c ****        cf_store_cell_value( link_id , 0 );
 519              		.loc 2 110 0
 520 0014 FB68     		ldr	r3, [r7, #12]
 521 0016 181C     		mov	r0, r3
 522 0018 0021     		mov	r1, #0
 523 001a FFF7FEFF 		bl	cf_store_cell_value
 111:chain_flow/cf_runtime_functions.c ****        return_value = CF_CONTINUE;
 524              		.loc 2 111 0
 525 001e 0023     		mov	r3, #0
 526 0020 7B61     		str	r3, [r7, #20]
 527              	.L29:
 112:chain_flow/cf_runtime_functions.c **** 
 113:chain_flow/cf_runtime_functions.c ****   }
 114:chain_flow/cf_runtime_functions.c ****    if( event == rx_event )
ARM GAS  C:\Users\glenn\AppData\Local\Temp\ccftzDgr.s 			page 22


 528              		.loc 2 114 0
 529 0022 7A6A     		ldr	r2, [r7, #36]
 530 0024 7B68     		ldr	r3, [r7, #4]
 531 0026 9A42     		cmp	r2, r3
 532 0028 18D1     		bne	.L30
 115:chain_flow/cf_runtime_functions.c ****    {
 116:chain_flow/cf_runtime_functions.c ****        value = cf_get_cell_value( link_id );
 533              		.loc 2 116 0
 534 002a FB68     		ldr	r3, [r7, #12]
 535 002c 181C     		mov	r0, r3
 536 002e FFF7FEFF 		bl	cf_get_cell_value
 537 0032 031C     		mov	r3, r0
 538 0034 3B61     		str	r3, [r7, #16]
 117:chain_flow/cf_runtime_functions.c ****        value += 1;
 539              		.loc 2 117 0
 540 0036 3B69     		ldr	r3, [r7, #16]
 541 0038 0133     		add	r3, r3, #1
 542 003a 3B61     		str	r3, [r7, #16]
 118:chain_flow/cf_runtime_functions.c ****        cf_store_cell_value(link_id, value);
 543              		.loc 2 118 0
 544 003c FA68     		ldr	r2, [r7, #12]
 545 003e 3B69     		ldr	r3, [r7, #16]
 546 0040 101C     		mov	r0, r2
 547 0042 191C     		mov	r1, r3
 548 0044 FFF7FEFF 		bl	cf_store_cell_value
 119:chain_flow/cf_runtime_functions.c ****        if( value >= rx_event_count )
 549              		.loc 2 119 0
 550 0048 3A69     		ldr	r2, [r7, #16]
 551 004a 3B68     		ldr	r3, [r7]
 552 004c 9A42     		cmp	r2, r3
 553 004e 02D3     		bcc	.L31
 120:chain_flow/cf_runtime_functions.c ****        {
 121:chain_flow/cf_runtime_functions.c ****           return_value = CF_DISABLE;
 554              		.loc 2 121 0
 555 0050 0223     		mov	r3, #2
 556 0052 7B61     		str	r3, [r7, #20]
 557 0054 04E0     		b	.L33
 558              	.L31:
 122:chain_flow/cf_runtime_functions.c ****        }
 123:chain_flow/cf_runtime_functions.c ****        else
 124:chain_flow/cf_runtime_functions.c ****        {
 125:chain_flow/cf_runtime_functions.c **** 	   return_value = CF_HALT;
 559              		.loc 2 125 0
 560 0056 0123     		mov	r3, #1
 561 0058 7B61     		str	r3, [r7, #20]
 562 005a 01E0     		b	.L33
 563              	.L30:
 126:chain_flow/cf_runtime_functions.c ****        }
 127:chain_flow/cf_runtime_functions.c ****    }
 128:chain_flow/cf_runtime_functions.c ****    else
 129:chain_flow/cf_runtime_functions.c ****    {
 130:chain_flow/cf_runtime_functions.c ****       return_value = CF_HALT;
 564              		.loc 2 130 0
 565 005c 0123     		mov	r3, #1
 566 005e 7B61     		str	r3, [r7, #20]
 567              	.L33:
 131:chain_flow/cf_runtime_functions.c ****    }
ARM GAS  C:\Users\glenn\AppData\Local\Temp\ccftzDgr.s 			page 23


 132:chain_flow/cf_runtime_functions.c ****    return return_value;   
 568              		.loc 2 132 0
 569 0060 7B69     		ldr	r3, [r7, #20]
 133:chain_flow/cf_runtime_functions.c **** 
 134:chain_flow/cf_runtime_functions.c **** }
 570              		.loc 2 134 0
 571 0062 181C     		mov	r0, r3
 572 0064 BD46     		mov	sp, r7
 573 0066 06B0     		add	sp, sp, #24
 574              		@ sp needed
 575 0068 80BD     		pop	{r7, pc}
 576              		.cfi_endproc
 577              	.LFE69:
 578              		.size	wait_event_count_fn, .-wait_event_count_fn
 579 006a C046     		.section	.text.wait_event_fn,"ax",%progbits
 580              		.align	2
 581              		.global	wait_event_fn
 582              		.code	16
 583              		.thumb_func
 584              		.type	wait_event_fn, %function
 585              	wait_event_fn:
 586              	.LFB70:
 135:chain_flow/cf_runtime_functions.c **** 
 136:chain_flow/cf_runtime_functions.c ****   
 137:chain_flow/cf_runtime_functions.c **** int wait_event_fn( unsigned link_id, CF_FUN_AUX param_1, unsigned rx_event, 
 138:chain_flow/cf_runtime_functions.c ****     unsigned time_count, unsigned param_4,  unsigned event, unsigned event_data)
 139:chain_flow/cf_runtime_functions.c **** {
 587              		.loc 2 139 0
 588              		.cfi_startproc
 589 0000 80B5     		push	{r7, lr}
 590              		.cfi_def_cfa_offset 8
 591              		.cfi_offset 7, -8
 592              		.cfi_offset 14, -4
 593 0002 86B0     		sub	sp, sp, #24
 594              		.cfi_def_cfa_offset 32
 595 0004 00AF     		add	r7, sp, #0
 596              		.cfi_def_cfa_register 7
 597 0006 F860     		str	r0, [r7, #12]
 598 0008 B960     		str	r1, [r7, #8]
 599 000a 7A60     		str	r2, [r7, #4]
 600 000c 3B60     		str	r3, [r7]
 140:chain_flow/cf_runtime_functions.c ****    int       return_value;
 141:chain_flow/cf_runtime_functions.c ****    unsigned  value;
 142:chain_flow/cf_runtime_functions.c ****    if( event == CF_INIT_EVENT )
 601              		.loc 2 142 0
 602 000e 7B6A     		ldr	r3, [r7, #36]
 603 0010 012B     		cmp	r3, #1
 604 0012 06D1     		bne	.L36
 143:chain_flow/cf_runtime_functions.c ****   {
 144:chain_flow/cf_runtime_functions.c ****        cf_store_cell_value( link_id , 0 );
 605              		.loc 2 144 0
 606 0014 FB68     		ldr	r3, [r7, #12]
 607 0016 181C     		mov	r0, r3
 608 0018 0021     		mov	r1, #0
 609 001a FFF7FEFF 		bl	cf_store_cell_value
 145:chain_flow/cf_runtime_functions.c ****        return CF_CONTINUE;
 610              		.loc 2 145 0
ARM GAS  C:\Users\glenn\AppData\Local\Temp\ccftzDgr.s 			page 24


 611 001e 0023     		mov	r3, #0
 612 0020 2AE0     		b	.L37
 613              	.L36:
 146:chain_flow/cf_runtime_functions.c **** 
 147:chain_flow/cf_runtime_functions.c ****   }
 148:chain_flow/cf_runtime_functions.c **** 	
 149:chain_flow/cf_runtime_functions.c ****    if( event == rx_event )
 614              		.loc 2 149 0
 615 0022 7A6A     		ldr	r2, [r7, #36]
 616 0024 7B68     		ldr	r3, [r7, #4]
 617 0026 9A42     		cmp	r2, r3
 618 0028 01D1     		bne	.L38
 150:chain_flow/cf_runtime_functions.c ****    {
 151:chain_flow/cf_runtime_functions.c ****       return CF_DISABLE;
 619              		.loc 2 151 0
 620 002a 0223     		mov	r3, #2
 621 002c 24E0     		b	.L37
 622              	.L38:
 152:chain_flow/cf_runtime_functions.c ****    }
 153:chain_flow/cf_runtime_functions.c ****   else if( event == CF_TIME_TICK_EVENT )
 623              		.loc 2 153 0
 624 002e 7B6A     		ldr	r3, [r7, #36]
 625 0030 022B     		cmp	r3, #2
 626 0032 1ED1     		bne	.L39
 154:chain_flow/cf_runtime_functions.c ****   {
 155:chain_flow/cf_runtime_functions.c ****     if( time_count > 0 )
 627              		.loc 2 155 0
 628 0034 3B68     		ldr	r3, [r7]
 629 0036 002B     		cmp	r3, #0
 630 0038 19D0     		beq	.L40
 156:chain_flow/cf_runtime_functions.c ****     {
 157:chain_flow/cf_runtime_functions.c ****          value = cf_get_cell_value( link_id );
 631              		.loc 2 157 0
 632 003a FB68     		ldr	r3, [r7, #12]
 633 003c 181C     		mov	r0, r3
 634 003e FFF7FEFF 		bl	cf_get_cell_value
 635 0042 031C     		mov	r3, r0
 636 0044 3B61     		str	r3, [r7, #16]
 158:chain_flow/cf_runtime_functions.c ****          value += event_data;
 637              		.loc 2 158 0
 638 0046 3A69     		ldr	r2, [r7, #16]
 639 0048 BB6A     		ldr	r3, [r7, #40]
 640 004a D318     		add	r3, r2, r3
 641 004c 3B61     		str	r3, [r7, #16]
 159:chain_flow/cf_runtime_functions.c ****          cf_store_cell_value(link_id, value);
 642              		.loc 2 159 0
 643 004e FA68     		ldr	r2, [r7, #12]
 644 0050 3B69     		ldr	r3, [r7, #16]
 645 0052 101C     		mov	r0, r2
 646 0054 191C     		mov	r1, r3
 647 0056 FFF7FEFF 		bl	cf_store_cell_value
 160:chain_flow/cf_runtime_functions.c **** 
 161:chain_flow/cf_runtime_functions.c ****          if( value >= time_count )
 648              		.loc 2 161 0
 649 005a 3A69     		ldr	r2, [r7, #16]
 650 005c 3B68     		ldr	r3, [r7]
 651 005e 9A42     		cmp	r2, r3
ARM GAS  C:\Users\glenn\AppData\Local\Temp\ccftzDgr.s 			page 25


 652 0060 02D3     		bcc	.L41
 162:chain_flow/cf_runtime_functions.c ****          {
 163:chain_flow/cf_runtime_functions.c ****              return_value = CF_RESET;
 653              		.loc 2 163 0
 654 0062 0323     		mov	r3, #3
 655 0064 7B61     		str	r3, [r7, #20]
 656 0066 06E0     		b	.L43
 657              	.L41:
 164:chain_flow/cf_runtime_functions.c ****           }
 165:chain_flow/cf_runtime_functions.c ****           else
 166:chain_flow/cf_runtime_functions.c ****           {
 167:chain_flow/cf_runtime_functions.c **** 		      return_value = CF_HALT;
 658              		.loc 2 167 0
 659 0068 0123     		mov	r3, #1
 660 006a 7B61     		str	r3, [r7, #20]
 661 006c 03E0     		b	.L43
 662              	.L40:
 168:chain_flow/cf_runtime_functions.c ****           }
 169:chain_flow/cf_runtime_functions.c **** 	  }
 170:chain_flow/cf_runtime_functions.c ****       else
 171:chain_flow/cf_runtime_functions.c ****       {
 172:chain_flow/cf_runtime_functions.c ****         return CF_HALT;
 663              		.loc 2 172 0
 664 006e 0123     		mov	r3, #1
 665 0070 02E0     		b	.L37
 666              	.L39:
 173:chain_flow/cf_runtime_functions.c ****       }
 174:chain_flow/cf_runtime_functions.c ****    }  
 175:chain_flow/cf_runtime_functions.c ****    else
 176:chain_flow/cf_runtime_functions.c ****    {
 177:chain_flow/cf_runtime_functions.c **** 	
 178:chain_flow/cf_runtime_functions.c ****       return_value = CF_HALT;
 667              		.loc 2 178 0
 668 0072 0123     		mov	r3, #1
 669 0074 7B61     		str	r3, [r7, #20]
 670              	.L43:
 179:chain_flow/cf_runtime_functions.c ****    }
 180:chain_flow/cf_runtime_functions.c ****    return return_value;   
 671              		.loc 2 180 0
 672 0076 7B69     		ldr	r3, [r7, #20]
 673              	.L37:
 181:chain_flow/cf_runtime_functions.c **** 
 182:chain_flow/cf_runtime_functions.c **** }
 674              		.loc 2 182 0
 675 0078 181C     		mov	r0, r3
 676 007a BD46     		mov	sp, r7
 677 007c 06B0     		add	sp, sp, #24
 678              		@ sp needed
 679 007e 80BD     		pop	{r7, pc}
 680              		.cfi_endproc
 681              	.LFE70:
 682              		.size	wait_event_fn, .-wait_event_fn
 683              		.section	.text.wait_time_fn,"ax",%progbits
 684              		.align	2
 685              		.global	wait_time_fn
 686              		.code	16
 687              		.thumb_func
ARM GAS  C:\Users\glenn\AppData\Local\Temp\ccftzDgr.s 			page 26


 688              		.type	wait_time_fn, %function
 689              	wait_time_fn:
 690              	.LFB71:
 183:chain_flow/cf_runtime_functions.c **** 
 184:chain_flow/cf_runtime_functions.c **** 
 185:chain_flow/cf_runtime_functions.c **** 
 186:chain_flow/cf_runtime_functions.c **** int wait_time_fn( unsigned link_id, CF_FUN_AUX param_1, unsigned param_2, 
 187:chain_flow/cf_runtime_functions.c ****     unsigned param_3, unsigned param_4,  unsigned event, unsigned event_data)
 188:chain_flow/cf_runtime_functions.c **** {
 691              		.loc 2 188 0
 692              		.cfi_startproc
 693 0000 80B5     		push	{r7, lr}
 694              		.cfi_def_cfa_offset 8
 695              		.cfi_offset 7, -8
 696              		.cfi_offset 14, -4
 697 0002 86B0     		sub	sp, sp, #24
 698              		.cfi_def_cfa_offset 32
 699 0004 00AF     		add	r7, sp, #0
 700              		.cfi_def_cfa_register 7
 701 0006 F860     		str	r0, [r7, #12]
 702 0008 B960     		str	r1, [r7, #8]
 703 000a 7A60     		str	r2, [r7, #4]
 704 000c 3B60     		str	r3, [r7]
 189:chain_flow/cf_runtime_functions.c ****   int return_value;
 190:chain_flow/cf_runtime_functions.c ****   unsigned value;
 191:chain_flow/cf_runtime_functions.c ****   
 192:chain_flow/cf_runtime_functions.c ****   if( event == CF_INIT_EVENT )
 705              		.loc 2 192 0
 706 000e 7B6A     		ldr	r3, [r7, #36]
 707 0010 012B     		cmp	r3, #1
 708 0012 06D1     		bne	.L45
 193:chain_flow/cf_runtime_functions.c ****   {
 194:chain_flow/cf_runtime_functions.c ****        cf_store_cell_value( link_id , 0 );
 709              		.loc 2 194 0
 710 0014 FB68     		ldr	r3, [r7, #12]
 711 0016 181C     		mov	r0, r3
 712 0018 0021     		mov	r1, #0
 713 001a FFF7FEFF 		bl	cf_store_cell_value
 195:chain_flow/cf_runtime_functions.c ****        return CF_CONTINUE;
 714              		.loc 2 195 0
 715 001e 0023     		mov	r3, #0
 716 0020 1FE0     		b	.L46
 717              	.L45:
 196:chain_flow/cf_runtime_functions.c **** 
 197:chain_flow/cf_runtime_functions.c ****   }
 198:chain_flow/cf_runtime_functions.c ****   else if( event == CF_TIME_TICK_EVENT )
 718              		.loc 2 198 0
 719 0022 7B6A     		ldr	r3, [r7, #36]
 720 0024 022B     		cmp	r3, #2
 721 0026 19D1     		bne	.L47
 199:chain_flow/cf_runtime_functions.c ****   {
 200:chain_flow/cf_runtime_functions.c ****      value = cf_get_cell_value( link_id );
 722              		.loc 2 200 0
 723 0028 FB68     		ldr	r3, [r7, #12]
 724 002a 181C     		mov	r0, r3
 725 002c FFF7FEFF 		bl	cf_get_cell_value
 726 0030 031C     		mov	r3, r0
ARM GAS  C:\Users\glenn\AppData\Local\Temp\ccftzDgr.s 			page 27


 727 0032 3B61     		str	r3, [r7, #16]
 201:chain_flow/cf_runtime_functions.c ****      value += event_data;
 728              		.loc 2 201 0
 729 0034 3A69     		ldr	r2, [r7, #16]
 730 0036 BB6A     		ldr	r3, [r7, #40]
 731 0038 D318     		add	r3, r2, r3
 732 003a 3B61     		str	r3, [r7, #16]
 202:chain_flow/cf_runtime_functions.c ****      cf_store_cell_value(link_id, value);
 733              		.loc 2 202 0
 734 003c FA68     		ldr	r2, [r7, #12]
 735 003e 3B69     		ldr	r3, [r7, #16]
 736 0040 101C     		mov	r0, r2
 737 0042 191C     		mov	r1, r3
 738 0044 FFF7FEFF 		bl	cf_store_cell_value
 203:chain_flow/cf_runtime_functions.c **** 
 204:chain_flow/cf_runtime_functions.c ****      if( value >= param_2 )
 739              		.loc 2 204 0
 740 0048 3A69     		ldr	r2, [r7, #16]
 741 004a 7B68     		ldr	r3, [r7, #4]
 742 004c 9A42     		cmp	r2, r3
 743 004e 02D3     		bcc	.L48
 205:chain_flow/cf_runtime_functions.c ****      {
 206:chain_flow/cf_runtime_functions.c ****        return_value = CF_DISABLE;
 744              		.loc 2 206 0
 745 0050 0223     		mov	r3, #2
 746 0052 7B61     		str	r3, [r7, #20]
 747 0054 04E0     		b	.L50
 748              	.L48:
 207:chain_flow/cf_runtime_functions.c ****      }
 208:chain_flow/cf_runtime_functions.c ****      else
 209:chain_flow/cf_runtime_functions.c ****      {
 210:chain_flow/cf_runtime_functions.c ****         return_value = CF_HALT;
 749              		.loc 2 210 0
 750 0056 0123     		mov	r3, #1
 751 0058 7B61     		str	r3, [r7, #20]
 752 005a 01E0     		b	.L50
 753              	.L47:
 211:chain_flow/cf_runtime_functions.c ****      }
 212:chain_flow/cf_runtime_functions.c ****   }
 213:chain_flow/cf_runtime_functions.c ****   else
 214:chain_flow/cf_runtime_functions.c ****   {
 215:chain_flow/cf_runtime_functions.c ****        return_value = CF_HALT;
 754              		.loc 2 215 0
 755 005c 0123     		mov	r3, #1
 756 005e 7B61     		str	r3, [r7, #20]
 757              	.L50:
 216:chain_flow/cf_runtime_functions.c ****   }
 217:chain_flow/cf_runtime_functions.c ****   return return_value;
 758              		.loc 2 217 0
 759 0060 7B69     		ldr	r3, [r7, #20]
 760              	.L46:
 218:chain_flow/cf_runtime_functions.c **** 
 219:chain_flow/cf_runtime_functions.c **** }
 761              		.loc 2 219 0
 762 0062 181C     		mov	r0, r3
 763 0064 BD46     		mov	sp, r7
 764 0066 06B0     		add	sp, sp, #24
ARM GAS  C:\Users\glenn\AppData\Local\Temp\ccftzDgr.s 			page 28


 765              		@ sp needed
 766 0068 80BD     		pop	{r7, pc}
 767              		.cfi_endproc
 768              	.LFE71:
 769              		.size	wait_time_fn, .-wait_time_fn
 770 006a C046     		.section	.text.wait_condition_fn,"ax",%progbits
 771              		.align	2
 772              		.global	wait_condition_fn
 773              		.code	16
 774              		.thumb_func
 775              		.type	wait_condition_fn, %function
 776              	wait_condition_fn:
 777              	.LFB72:
 220:chain_flow/cf_runtime_functions.c **** 
 221:chain_flow/cf_runtime_functions.c **** int wait_condition_fn( unsigned link_id, CF_FUN_AUX param_1, unsigned param_2, 
 222:chain_flow/cf_runtime_functions.c ****     unsigned param_3, unsigned param_4,  unsigned event, unsigned event_data)
 223:chain_flow/cf_runtime_functions.c **** {
 778              		.loc 2 223 0
 779              		.cfi_startproc
 780 0000 B0B5     		push	{r4, r5, r7, lr}
 781              		.cfi_def_cfa_offset 16
 782              		.cfi_offset 4, -16
 783              		.cfi_offset 5, -12
 784              		.cfi_offset 7, -8
 785              		.cfi_offset 14, -4
 786 0002 88B0     		sub	sp, sp, #32
 787              		.cfi_def_cfa_offset 48
 788 0004 02AF     		add	r7, sp, #8
 789              		.cfi_def_cfa 7, 40
 790 0006 F860     		str	r0, [r7, #12]
 791 0008 B960     		str	r1, [r7, #8]
 792 000a 7A60     		str	r2, [r7, #4]
 793 000c 3B60     		str	r3, [r7]
 224:chain_flow/cf_runtime_functions.c ****     int return_value;
 225:chain_flow/cf_runtime_functions.c ****     unsigned value;
 226:chain_flow/cf_runtime_functions.c ****     if( event == CF_INIT_EVENT )
 794              		.loc 2 226 0
 795 000e FB6A     		ldr	r3, [r7, #44]
 796 0010 012B     		cmp	r3, #1
 797 0012 11D1     		bne	.L52
 227:chain_flow/cf_runtime_functions.c ****   {
 228:chain_flow/cf_runtime_functions.c ****         param_1( link_id , param_2, param_3, param_4, event,event_data );
 798              		.loc 2 228 0
 799 0014 F868     		ldr	r0, [r7, #12]
 800 0016 7968     		ldr	r1, [r7, #4]
 801 0018 3A68     		ldr	r2, [r7]
 802 001a BD6A     		ldr	r5, [r7, #40]
 803 001c FB6A     		ldr	r3, [r7, #44]
 804 001e 0093     		str	r3, [sp]
 805 0020 3B6B     		ldr	r3, [r7, #48]
 806 0022 0193     		str	r3, [sp, #4]
 807 0024 BC68     		ldr	r4, [r7, #8]
 808 0026 2B1C     		mov	r3, r5
 809 0028 A047     		blx	r4
 229:chain_flow/cf_runtime_functions.c ****        cf_store_cell_value( link_id , 0 );
 810              		.loc 2 229 0
 811 002a FB68     		ldr	r3, [r7, #12]
ARM GAS  C:\Users\glenn\AppData\Local\Temp\ccftzDgr.s 			page 29


 812 002c 181C     		mov	r0, r3
 813 002e 0021     		mov	r1, #0
 814 0030 FFF7FEFF 		bl	cf_store_cell_value
 230:chain_flow/cf_runtime_functions.c ****        return CF_CONTINUE;
 815              		.loc 2 230 0
 816 0034 0023     		mov	r3, #0
 817 0036 32E0     		b	.L53
 818              	.L52:
 231:chain_flow/cf_runtime_functions.c **** 
 232:chain_flow/cf_runtime_functions.c ****   }
 233:chain_flow/cf_runtime_functions.c ****    
 234:chain_flow/cf_runtime_functions.c ****    else if( param_1( link_id , param_2, param_3, param_4, event,event_data ) != 0)
 819              		.loc 2 234 0
 820 0038 F868     		ldr	r0, [r7, #12]
 821 003a 7968     		ldr	r1, [r7, #4]
 822 003c 3A68     		ldr	r2, [r7]
 823 003e BD6A     		ldr	r5, [r7, #40]
 824 0040 FB6A     		ldr	r3, [r7, #44]
 825 0042 0093     		str	r3, [sp]
 826 0044 3B6B     		ldr	r3, [r7, #48]
 827 0046 0193     		str	r3, [sp, #4]
 828 0048 BC68     		ldr	r4, [r7, #8]
 829 004a 2B1C     		mov	r3, r5
 830 004c A047     		blx	r4
 831 004e 031E     		sub	r3, r0, #0
 832 0050 02D0     		beq	.L54
 235:chain_flow/cf_runtime_functions.c ****    {
 236:chain_flow/cf_runtime_functions.c ****      return_value = CF_DISABLE;
 833              		.loc 2 236 0
 834 0052 0223     		mov	r3, #2
 835 0054 7B61     		str	r3, [r7, #20]
 836 0056 21E0     		b	.L55
 837              	.L54:
 237:chain_flow/cf_runtime_functions.c ****    }
 238:chain_flow/cf_runtime_functions.c ****    else if( ( event == CF_TIME_TICK_EVENT )&&(param_4 > 0 ) )
 838              		.loc 2 238 0
 839 0058 FB6A     		ldr	r3, [r7, #44]
 840 005a 022B     		cmp	r3, #2
 841 005c 1CD1     		bne	.L56
 842              		.loc 2 238 0 is_stmt 0 discriminator 1
 843 005e BB6A     		ldr	r3, [r7, #40]
 844 0060 002B     		cmp	r3, #0
 845 0062 19D0     		beq	.L56
 239:chain_flow/cf_runtime_functions.c ****    {
 240:chain_flow/cf_runtime_functions.c ****      value = cf_get_cell_value( link_id );
 846              		.loc 2 240 0 is_stmt 1
 847 0064 FB68     		ldr	r3, [r7, #12]
 848 0066 181C     		mov	r0, r3
 849 0068 FFF7FEFF 		bl	cf_get_cell_value
 850 006c 031C     		mov	r3, r0
 851 006e 3B61     		str	r3, [r7, #16]
 241:chain_flow/cf_runtime_functions.c ****      value += event_data;
 852              		.loc 2 241 0
 853 0070 3A69     		ldr	r2, [r7, #16]
 854 0072 3B6B     		ldr	r3, [r7, #48]
 855 0074 D318     		add	r3, r2, r3
 856 0076 3B61     		str	r3, [r7, #16]
ARM GAS  C:\Users\glenn\AppData\Local\Temp\ccftzDgr.s 			page 30


 242:chain_flow/cf_runtime_functions.c ****      cf_store_cell_value(link_id, value);
 857              		.loc 2 242 0
 858 0078 FA68     		ldr	r2, [r7, #12]
 859 007a 3B69     		ldr	r3, [r7, #16]
 860 007c 101C     		mov	r0, r2
 861 007e 191C     		mov	r1, r3
 862 0080 FFF7FEFF 		bl	cf_store_cell_value
 243:chain_flow/cf_runtime_functions.c **** 
 244:chain_flow/cf_runtime_functions.c ****      if( value >= param_4 )
 863              		.loc 2 244 0
 864 0084 3A69     		ldr	r2, [r7, #16]
 865 0086 BB6A     		ldr	r3, [r7, #40]
 866 0088 9A42     		cmp	r2, r3
 867 008a 02D3     		bcc	.L57
 245:chain_flow/cf_runtime_functions.c ****      {
 246:chain_flow/cf_runtime_functions.c ****        return_value = CF_RESET;
 868              		.loc 2 246 0
 869 008c 0323     		mov	r3, #3
 870 008e 7B61     		str	r3, [r7, #20]
 244:chain_flow/cf_runtime_functions.c ****      {
 871              		.loc 2 244 0
 872 0090 04E0     		b	.L55
 873              	.L57:
 247:chain_flow/cf_runtime_functions.c ****      }
 248:chain_flow/cf_runtime_functions.c ****      else
 249:chain_flow/cf_runtime_functions.c ****      {
 250:chain_flow/cf_runtime_functions.c ****         return_value = CF_HALT;
 874              		.loc 2 250 0
 875 0092 0123     		mov	r3, #1
 876 0094 7B61     		str	r3, [r7, #20]
 244:chain_flow/cf_runtime_functions.c ****      {
 877              		.loc 2 244 0
 878 0096 01E0     		b	.L55
 879              	.L56:
 251:chain_flow/cf_runtime_functions.c ****      }
 252:chain_flow/cf_runtime_functions.c ****   }
 253:chain_flow/cf_runtime_functions.c ****    else
 254:chain_flow/cf_runtime_functions.c ****    {
 255:chain_flow/cf_runtime_functions.c ****      return_value = CF_HALT;
 880              		.loc 2 255 0
 881 0098 0123     		mov	r3, #1
 882 009a 7B61     		str	r3, [r7, #20]
 883              	.L55:
 256:chain_flow/cf_runtime_functions.c ****    }
 257:chain_flow/cf_runtime_functions.c ****  
 258:chain_flow/cf_runtime_functions.c ****    return return_value;
 884              		.loc 2 258 0
 885 009c 7B69     		ldr	r3, [r7, #20]
 886              	.L53:
 259:chain_flow/cf_runtime_functions.c **** 
 260:chain_flow/cf_runtime_functions.c **** }     
 887              		.loc 2 260 0
 888 009e 181C     		mov	r0, r3
 889 00a0 BD46     		mov	sp, r7
 890 00a2 06B0     		add	sp, sp, #24
 891              		@ sp needed
 892 00a4 B0BD     		pop	{r4, r5, r7, pc}
ARM GAS  C:\Users\glenn\AppData\Local\Temp\ccftzDgr.s 			page 31


 893              		.cfi_endproc
 894              	.LFE72:
 895              		.size	wait_condition_fn, .-wait_condition_fn
 896 00a6 C046     		.section	.text.verify_condition_fn,"ax",%progbits
 897              		.align	2
 898              		.global	verify_condition_fn
 899              		.code	16
 900              		.thumb_func
 901              		.type	verify_condition_fn, %function
 902              	verify_condition_fn:
 903              	.LFB73:
 261:chain_flow/cf_runtime_functions.c **** 
 262:chain_flow/cf_runtime_functions.c **** int verify_condition_fn( unsigned link_id, CF_FUN_AUX param_1, unsigned param_2, 
 263:chain_flow/cf_runtime_functions.c ****     unsigned param_3, unsigned param_4,  unsigned event, unsigned event_data)
 264:chain_flow/cf_runtime_functions.c **** {
 904              		.loc 2 264 0
 905              		.cfi_startproc
 906 0000 B0B5     		push	{r4, r5, r7, lr}
 907              		.cfi_def_cfa_offset 16
 908              		.cfi_offset 4, -16
 909              		.cfi_offset 5, -12
 910              		.cfi_offset 7, -8
 911              		.cfi_offset 14, -4
 912 0002 88B0     		sub	sp, sp, #32
 913              		.cfi_def_cfa_offset 48
 914 0004 02AF     		add	r7, sp, #8
 915              		.cfi_def_cfa 7, 40
 916 0006 F860     		str	r0, [r7, #12]
 917 0008 B960     		str	r1, [r7, #8]
 918 000a 7A60     		str	r2, [r7, #4]
 919 000c 3B60     		str	r3, [r7]
 265:chain_flow/cf_runtime_functions.c ****    int return_value;
 266:chain_flow/cf_runtime_functions.c ****   
 267:chain_flow/cf_runtime_functions.c ****    
 268:chain_flow/cf_runtime_functions.c ****    if( param_1( link_id , param_2, param_3, param_4, event,event_data ) != 0)
 920              		.loc 2 268 0
 921 000e F868     		ldr	r0, [r7, #12]
 922 0010 7968     		ldr	r1, [r7, #4]
 923 0012 3A68     		ldr	r2, [r7]
 924 0014 BD6A     		ldr	r5, [r7, #40]
 925 0016 FB6A     		ldr	r3, [r7, #44]
 926 0018 0093     		str	r3, [sp]
 927 001a 3B6B     		ldr	r3, [r7, #48]
 928 001c 0193     		str	r3, [sp, #4]
 929 001e BC68     		ldr	r4, [r7, #8]
 930 0020 2B1C     		mov	r3, r5
 931 0022 A047     		blx	r4
 932 0024 031E     		sub	r3, r0, #0
 933 0026 02D0     		beq	.L60
 269:chain_flow/cf_runtime_functions.c ****    {
 270:chain_flow/cf_runtime_functions.c ****      return_value = CF_CONTINUE;
 934              		.loc 2 270 0
 935 0028 0023     		mov	r3, #0
 936 002a 7B61     		str	r3, [r7, #20]
 937 002c 01E0     		b	.L61
 938              	.L60:
 271:chain_flow/cf_runtime_functions.c ****    }
ARM GAS  C:\Users\glenn\AppData\Local\Temp\ccftzDgr.s 			page 32


 272:chain_flow/cf_runtime_functions.c ****    else
 273:chain_flow/cf_runtime_functions.c ****    {
 274:chain_flow/cf_runtime_functions.c ****      return_value = CF_RESET;
 939              		.loc 2 274 0
 940 002e 0323     		mov	r3, #3
 941 0030 7B61     		str	r3, [r7, #20]
 942              	.L61:
 275:chain_flow/cf_runtime_functions.c ****    } 
 276:chain_flow/cf_runtime_functions.c ****    return return_value;
 943              		.loc 2 276 0
 944 0032 7B69     		ldr	r3, [r7, #20]
 277:chain_flow/cf_runtime_functions.c **** 
 278:chain_flow/cf_runtime_functions.c **** }    
 945              		.loc 2 278 0
 946 0034 181C     		mov	r0, r3
 947 0036 BD46     		mov	sp, r7
 948 0038 06B0     		add	sp, sp, #24
 949              		@ sp needed
 950 003a B0BD     		pop	{r4, r5, r7, pc}
 951              		.cfi_endproc
 952              	.LFE73:
 953              		.size	verify_condition_fn, .-verify_condition_fn
 954              		.section	.text.verify_not_timeout_fn,"ax",%progbits
 955              		.align	2
 956              		.global	verify_not_timeout_fn
 957              		.code	16
 958              		.thumb_func
 959              		.type	verify_not_timeout_fn, %function
 960              	verify_not_timeout_fn:
 961              	.LFB74:
 279:chain_flow/cf_runtime_functions.c ****  
 280:chain_flow/cf_runtime_functions.c **** int verify_not_timeout_fn( unsigned link_id, CF_FUN_AUX param_1, unsigned param_2, 
 281:chain_flow/cf_runtime_functions.c ****     unsigned param_3, unsigned param_4,  unsigned event, unsigned event_data)
 282:chain_flow/cf_runtime_functions.c **** {
 962              		.loc 2 282 0
 963              		.cfi_startproc
 964 0000 80B5     		push	{r7, lr}
 965              		.cfi_def_cfa_offset 8
 966              		.cfi_offset 7, -8
 967              		.cfi_offset 14, -4
 968 0002 86B0     		sub	sp, sp, #24
 969              		.cfi_def_cfa_offset 32
 970 0004 00AF     		add	r7, sp, #0
 971              		.cfi_def_cfa_register 7
 972 0006 F860     		str	r0, [r7, #12]
 973 0008 B960     		str	r1, [r7, #8]
 974 000a 7A60     		str	r2, [r7, #4]
 975 000c 3B60     		str	r3, [r7]
 283:chain_flow/cf_runtime_functions.c ****   int return_value;
 284:chain_flow/cf_runtime_functions.c ****   unsigned value;
 285:chain_flow/cf_runtime_functions.c ****   
 286:chain_flow/cf_runtime_functions.c ****   if( event == CF_INIT_EVENT )
 976              		.loc 2 286 0
 977 000e 7B6A     		ldr	r3, [r7, #36]
 978 0010 012B     		cmp	r3, #1
 979 0012 07D1     		bne	.L64
 287:chain_flow/cf_runtime_functions.c ****   {
ARM GAS  C:\Users\glenn\AppData\Local\Temp\ccftzDgr.s 			page 33


 288:chain_flow/cf_runtime_functions.c ****        cf_store_cell_value( link_id , 0 );
 980              		.loc 2 288 0
 981 0014 FB68     		ldr	r3, [r7, #12]
 982 0016 181C     		mov	r0, r3
 983 0018 0021     		mov	r1, #0
 984 001a FFF7FEFF 		bl	cf_store_cell_value
 289:chain_flow/cf_runtime_functions.c ****        return_value = CF_CONTINUE;
 985              		.loc 2 289 0
 986 001e 0023     		mov	r3, #0
 987 0020 7B61     		str	r3, [r7, #20]
 988 0022 1EE0     		b	.L65
 989              	.L64:
 290:chain_flow/cf_runtime_functions.c **** 
 291:chain_flow/cf_runtime_functions.c ****   }
 292:chain_flow/cf_runtime_functions.c ****   else if( event == CF_TIME_TICK_EVENT )
 990              		.loc 2 292 0
 991 0024 7B6A     		ldr	r3, [r7, #36]
 992 0026 022B     		cmp	r3, #2
 993 0028 19D1     		bne	.L66
 293:chain_flow/cf_runtime_functions.c ****   {
 294:chain_flow/cf_runtime_functions.c ****      value = cf_get_cell_value( link_id );
 994              		.loc 2 294 0
 995 002a FB68     		ldr	r3, [r7, #12]
 996 002c 181C     		mov	r0, r3
 997 002e FFF7FEFF 		bl	cf_get_cell_value
 998 0032 031C     		mov	r3, r0
 999 0034 3B61     		str	r3, [r7, #16]
 295:chain_flow/cf_runtime_functions.c ****      value += event_data;
 1000              		.loc 2 295 0
 1001 0036 3A69     		ldr	r2, [r7, #16]
 1002 0038 BB6A     		ldr	r3, [r7, #40]
 1003 003a D318     		add	r3, r2, r3
 1004 003c 3B61     		str	r3, [r7, #16]
 296:chain_flow/cf_runtime_functions.c ****      cf_store_cell_value(link_id, value);
 1005              		.loc 2 296 0
 1006 003e FA68     		ldr	r2, [r7, #12]
 1007 0040 3B69     		ldr	r3, [r7, #16]
 1008 0042 101C     		mov	r0, r2
 1009 0044 191C     		mov	r1, r3
 1010 0046 FFF7FEFF 		bl	cf_store_cell_value
 297:chain_flow/cf_runtime_functions.c **** 
 298:chain_flow/cf_runtime_functions.c ****      if( value >= param_2 )
 1011              		.loc 2 298 0
 1012 004a 3A69     		ldr	r2, [r7, #16]
 1013 004c 7B68     		ldr	r3, [r7, #4]
 1014 004e 9A42     		cmp	r2, r3
 1015 0050 02D3     		bcc	.L67
 299:chain_flow/cf_runtime_functions.c ****      {
 300:chain_flow/cf_runtime_functions.c ****        return_value = CF_RESET;
 1016              		.loc 2 300 0
 1017 0052 0323     		mov	r3, #3
 1018 0054 7B61     		str	r3, [r7, #20]
 1019 0056 04E0     		b	.L65
 1020              	.L67:
 301:chain_flow/cf_runtime_functions.c ****      }
 302:chain_flow/cf_runtime_functions.c ****      else
 303:chain_flow/cf_runtime_functions.c ****      {
ARM GAS  C:\Users\glenn\AppData\Local\Temp\ccftzDgr.s 			page 34


 304:chain_flow/cf_runtime_functions.c ****         return_value = CF_CONTINUE;
 1021              		.loc 2 304 0
 1022 0058 0023     		mov	r3, #0
 1023 005a 7B61     		str	r3, [r7, #20]
 1024 005c 01E0     		b	.L65
 1025              	.L66:
 305:chain_flow/cf_runtime_functions.c ****      }
 306:chain_flow/cf_runtime_functions.c ****   }
 307:chain_flow/cf_runtime_functions.c ****   else
 308:chain_flow/cf_runtime_functions.c ****   {
 309:chain_flow/cf_runtime_functions.c ****        return_value = CF_CONTINUE;
 1026              		.loc 2 309 0
 1027 005e 0023     		mov	r3, #0
 1028 0060 7B61     		str	r3, [r7, #20]
 1029              	.L65:
 310:chain_flow/cf_runtime_functions.c ****   }
 311:chain_flow/cf_runtime_functions.c ****   return return_value;
 1030              		.loc 2 311 0
 1031 0062 7B69     		ldr	r3, [r7, #20]
 312:chain_flow/cf_runtime_functions.c **** 
 313:chain_flow/cf_runtime_functions.c **** }
 1032              		.loc 2 313 0
 1033 0064 181C     		mov	r0, r3
 1034 0066 BD46     		mov	sp, r7
 1035 0068 06B0     		add	sp, sp, #24
 1036              		@ sp needed
 1037 006a 80BD     		pop	{r7, pc}
 1038              		.cfi_endproc
 1039              	.LFE74:
 1040              		.size	verify_not_timeout_fn, .-verify_not_timeout_fn
 1041              		.section	.text.verify_not_event_fn,"ax",%progbits
 1042              		.align	2
 1043              		.global	verify_not_event_fn
 1044              		.code	16
 1045              		.thumb_func
 1046              		.type	verify_not_event_fn, %function
 1047              	verify_not_event_fn:
 1048              	.LFB75:
 314:chain_flow/cf_runtime_functions.c **** 
 315:chain_flow/cf_runtime_functions.c **** 
 316:chain_flow/cf_runtime_functions.c **** int verify_not_event_fn( unsigned link_id, CF_FUN_AUX param_1, unsigned param_2, 
 317:chain_flow/cf_runtime_functions.c ****     unsigned param_3, unsigned param_4,  unsigned event, unsigned event_data)
 318:chain_flow/cf_runtime_functions.c **** {
 1049              		.loc 2 318 0
 1050              		.cfi_startproc
 1051 0000 80B5     		push	{r7, lr}
 1052              		.cfi_def_cfa_offset 8
 1053              		.cfi_offset 7, -8
 1054              		.cfi_offset 14, -4
 1055 0002 86B0     		sub	sp, sp, #24
 1056              		.cfi_def_cfa_offset 32
 1057 0004 00AF     		add	r7, sp, #0
 1058              		.cfi_def_cfa_register 7
 1059 0006 F860     		str	r0, [r7, #12]
 1060 0008 B960     		str	r1, [r7, #8]
 1061 000a 7A60     		str	r2, [r7, #4]
 1062 000c 3B60     		str	r3, [r7]
ARM GAS  C:\Users\glenn\AppData\Local\Temp\ccftzDgr.s 			page 35


 319:chain_flow/cf_runtime_functions.c ****   
 320:chain_flow/cf_runtime_functions.c ****    int    return_value;
 321:chain_flow/cf_runtime_functions.c ****    
 322:chain_flow/cf_runtime_functions.c ****    if( event == param_2 )
 1063              		.loc 2 322 0
 1064 000e 7A6A     		ldr	r2, [r7, #36]
 1065 0010 7B68     		ldr	r3, [r7, #4]
 1066 0012 9A42     		cmp	r2, r3
 1067 0014 02D1     		bne	.L71
 323:chain_flow/cf_runtime_functions.c ****    {
 324:chain_flow/cf_runtime_functions.c ****       return_value = CF_RESET;
 1068              		.loc 2 324 0
 1069 0016 0323     		mov	r3, #3
 1070 0018 7B61     		str	r3, [r7, #20]
 1071 001a 01E0     		b	.L72
 1072              	.L71:
 325:chain_flow/cf_runtime_functions.c ****    }
 326:chain_flow/cf_runtime_functions.c ****    else
 327:chain_flow/cf_runtime_functions.c ****    {
 328:chain_flow/cf_runtime_functions.c ****       return_value = CF_CONTINUE;
 1073              		.loc 2 328 0
 1074 001c 0023     		mov	r3, #0
 1075 001e 7B61     		str	r3, [r7, #20]
 1076              	.L72:
 329:chain_flow/cf_runtime_functions.c ****    }
 330:chain_flow/cf_runtime_functions.c ****    return return_value;   
 1077              		.loc 2 330 0
 1078 0020 7B69     		ldr	r3, [r7, #20]
 331:chain_flow/cf_runtime_functions.c **** 
 332:chain_flow/cf_runtime_functions.c **** }
 1079              		.loc 2 332 0
 1080 0022 181C     		mov	r0, r3
 1081 0024 BD46     		mov	sp, r7
 1082 0026 06B0     		add	sp, sp, #24
 1083              		@ sp needed
 1084 0028 80BD     		pop	{r7, pc}
 1085              		.cfi_endproc
 1086              	.LFE75:
 1087              		.size	verify_not_event_fn, .-verify_not_event_fn
 1088 002a C046     		.section	.text.verify_not_tod_fn,"ax",%progbits
 1089              		.align	2
 1090              		.global	verify_not_tod_fn
 1091              		.code	16
 1092              		.thumb_func
 1093              		.type	verify_not_tod_fn, %function
 1094              	verify_not_tod_fn:
 1095              	.LFB76:
 333:chain_flow/cf_runtime_functions.c **** 
 334:chain_flow/cf_runtime_functions.c **** int verify_not_tod_fn( unsigned link_id, CF_FUN_AUX param_1, unsigned param_2, 
 335:chain_flow/cf_runtime_functions.c ****     unsigned param_3, unsigned param_4,  unsigned event, unsigned event_data)
 336:chain_flow/cf_runtime_functions.c **** {
 1096              		.loc 2 336 0
 1097              		.cfi_startproc
 1098 0000 80B5     		push	{r7, lr}
 1099              		.cfi_def_cfa_offset 8
 1100              		.cfi_offset 7, -8
 1101              		.cfi_offset 14, -4
ARM GAS  C:\Users\glenn\AppData\Local\Temp\ccftzDgr.s 			page 36


 1102 0002 86B0     		sub	sp, sp, #24
 1103              		.cfi_def_cfa_offset 32
 1104 0004 00AF     		add	r7, sp, #0
 1105              		.cfi_def_cfa_register 7
 1106 0006 F860     		str	r0, [r7, #12]
 1107 0008 B960     		str	r1, [r7, #8]
 1108 000a 7A60     		str	r2, [r7, #4]
 1109 000c 3B60     		str	r3, [r7]
 337:chain_flow/cf_runtime_functions.c ****    uint32 time;
 338:chain_flow/cf_runtime_functions.c ****    time = RTC_1_GetTime();
 1110              		.loc 2 338 0
 1111 000e FFF7FEFF 		bl	RTC_1_GetTime
 1112 0012 031C     		mov	r3, r0
 1113 0014 7B61     		str	r3, [r7, #20]
 339:chain_flow/cf_runtime_functions.c ****  
 340:chain_flow/cf_runtime_functions.c ****    // check hour
 341:chain_flow/cf_runtime_functions.c ****    if( ( param_2 == NULL_PARAMETER ) || ( param_2 == RTC_1_GetHours(time) ))
 1114              		.loc 2 341 0
 1115 0016 7B68     		ldr	r3, [r7, #4]
 1116 0018 0133     		add	r3, r3, #1
 1117 001a 07D0     		beq	.L75
 1118              		.loc 2 341 0 is_stmt 0 discriminator 1
 1119 001c 7B69     		ldr	r3, [r7, #20]
 1120 001e 181C     		mov	r0, r3
 1121 0020 FFF7FEFF 		bl	RTC_1_GetHours
 1122 0024 021E     		sub	r2, r0, #0
 1123 0026 7B68     		ldr	r3, [r7, #4]
 1124 0028 9A42     		cmp	r2, r3
 1125 002a 17D1     		bne	.L76
 1126              	.L75:
 342:chain_flow/cf_runtime_functions.c ****    {
 343:chain_flow/cf_runtime_functions.c ****      if( ( param_3 == NULL_PARAMETER ) || ( param_3 == RTC_1_GetMinutes(time) ))
 1127              		.loc 2 343 0 is_stmt 1
 1128 002c 3B68     		ldr	r3, [r7]
 1129 002e 0133     		add	r3, r3, #1
 1130 0030 07D0     		beq	.L77
 1131              		.loc 2 343 0 is_stmt 0 discriminator 1
 1132 0032 7B69     		ldr	r3, [r7, #20]
 1133 0034 181C     		mov	r0, r3
 1134 0036 FFF7FEFF 		bl	RTC_1_GetMinutes
 1135 003a 021E     		sub	r2, r0, #0
 1136 003c 3B68     		ldr	r3, [r7]
 1137 003e 9A42     		cmp	r2, r3
 1138 0040 0CD1     		bne	.L76
 1139              	.L77:
 344:chain_flow/cf_runtime_functions.c ****      {
 345:chain_flow/cf_runtime_functions.c ****        if( ( param_4 == NULL_PARAMETER ) || ( param_4 == RTC_1_GetSecond(time) ))
 1140              		.loc 2 345 0 is_stmt 1
 1141 0042 3B6A     		ldr	r3, [r7, #32]
 1142 0044 0133     		add	r3, r3, #1
 1143 0046 07D0     		beq	.L78
 1144              		.loc 2 345 0 is_stmt 0 discriminator 1
 1145 0048 7B69     		ldr	r3, [r7, #20]
 1146 004a 181C     		mov	r0, r3
 1147 004c FFF7FEFF 		bl	RTC_1_GetSecond
 1148 0050 021E     		sub	r2, r0, #0
 1149 0052 3B6A     		ldr	r3, [r7, #32]
ARM GAS  C:\Users\glenn\AppData\Local\Temp\ccftzDgr.s 			page 37


 1150 0054 9A42     		cmp	r2, r3
 1151 0056 01D1     		bne	.L76
 1152              	.L78:
 346:chain_flow/cf_runtime_functions.c ****        {
 347:chain_flow/cf_runtime_functions.c ****           return CF_RESET;
 1153              		.loc 2 347 0 is_stmt 1
 1154 0058 0323     		mov	r3, #3
 1155 005a 00E0     		b	.L79
 1156              	.L76:
 348:chain_flow/cf_runtime_functions.c ****        }
 349:chain_flow/cf_runtime_functions.c ****      }
 350:chain_flow/cf_runtime_functions.c ****    }
 351:chain_flow/cf_runtime_functions.c ****     return CF_CONTINUE;  // implemented on specific system
 1157              		.loc 2 351 0
 1158 005c 0023     		mov	r3, #0
 1159              	.L79:
 352:chain_flow/cf_runtime_functions.c **** 
 353:chain_flow/cf_runtime_functions.c **** }
 1160              		.loc 2 353 0
 1161 005e 181C     		mov	r0, r3
 1162 0060 BD46     		mov	sp, r7
 1163 0062 06B0     		add	sp, sp, #24
 1164              		@ sp needed
 1165 0064 80BD     		pop	{r7, pc}
 1166              		.cfi_endproc
 1167              	.LFE76:
 1168              		.size	verify_not_tod_fn, .-verify_not_tod_fn
 1169 0066 C046     		.section	.text.nop_fn,"ax",%progbits
 1170              		.align	2
 1171              		.global	nop_fn
 1172              		.code	16
 1173              		.thumb_func
 1174              		.type	nop_fn, %function
 1175              	nop_fn:
 1176              	.LFB77:
 354:chain_flow/cf_runtime_functions.c **** 
 355:chain_flow/cf_runtime_functions.c **** int nop_fn( unsigned link_id, CF_FUN_AUX param_1, unsigned param_2, 
 356:chain_flow/cf_runtime_functions.c ****     unsigned param_3, unsigned param_4,  unsigned event, unsigned event_data)
 357:chain_flow/cf_runtime_functions.c **** {
 1177              		.loc 2 357 0
 1178              		.cfi_startproc
 1179 0000 80B5     		push	{r7, lr}
 1180              		.cfi_def_cfa_offset 8
 1181              		.cfi_offset 7, -8
 1182              		.cfi_offset 14, -4
 1183 0002 84B0     		sub	sp, sp, #16
 1184              		.cfi_def_cfa_offset 24
 1185 0004 00AF     		add	r7, sp, #0
 1186              		.cfi_def_cfa_register 7
 1187 0006 F860     		str	r0, [r7, #12]
 1188 0008 B960     		str	r1, [r7, #8]
 1189 000a 7A60     		str	r2, [r7, #4]
 1190 000c 3B60     		str	r3, [r7]
 358:chain_flow/cf_runtime_functions.c **** 
 359:chain_flow/cf_runtime_functions.c ****     
 360:chain_flow/cf_runtime_functions.c ****    if( event != CF_INIT_EVENT )
 1191              		.loc 2 360 0
ARM GAS  C:\Users\glenn\AppData\Local\Temp\ccftzDgr.s 			page 38


 1192 000e FB69     		ldr	r3, [r7, #28]
 1193 0010 012B     		cmp	r3, #1
 1194 0012 01D0     		beq	.L81
 361:chain_flow/cf_runtime_functions.c ****    {
 362:chain_flow/cf_runtime_functions.c ****        return CF_DISABLE;
 1195              		.loc 2 362 0
 1196 0014 0223     		mov	r3, #2
 1197 0016 00E0     		b	.L82
 1198              	.L81:
 363:chain_flow/cf_runtime_functions.c ****    }
 364:chain_flow/cf_runtime_functions.c ****    else
 365:chain_flow/cf_runtime_functions.c ****    {
 366:chain_flow/cf_runtime_functions.c ****        return CF_CONTINUE;
 1199              		.loc 2 366 0
 1200 0018 0023     		mov	r3, #0
 1201              	.L82:
 367:chain_flow/cf_runtime_functions.c ****    }
 368:chain_flow/cf_runtime_functions.c ****  }
 1202              		.loc 2 368 0
 1203 001a 181C     		mov	r0, r3
 1204 001c BD46     		mov	sp, r7
 1205 001e 04B0     		add	sp, sp, #16
 1206              		@ sp needed
 1207 0020 80BD     		pop	{r7, pc}
 1208              		.cfi_endproc
 1209              	.LFE77:
 1210              		.size	nop_fn, .-nop_fn
 1211 0022 C046     		.section	.text.change_state_fn,"ax",%progbits
 1212              		.align	2
 1213              		.global	change_state_fn
 1214              		.code	16
 1215              		.thumb_func
 1216              		.type	change_state_fn, %function
 1217              	change_state_fn:
 1218              	.LFB78:
 369:chain_flow/cf_runtime_functions.c ****  
 370:chain_flow/cf_runtime_functions.c **** 
 371:chain_flow/cf_runtime_functions.c ****  
 372:chain_flow/cf_runtime_functions.c **** int change_state_fn( unsigned link_id, CF_FUN_AUX param_1, unsigned chain_id, 
 373:chain_flow/cf_runtime_functions.c ****     unsigned link_index, unsigned param_4,  unsigned event, unsigned event_data)
 374:chain_flow/cf_runtime_functions.c **** {
 1219              		.loc 2 374 0
 1220              		.cfi_startproc
 1221 0000 80B5     		push	{r7, lr}
 1222              		.cfi_def_cfa_offset 8
 1223              		.cfi_offset 7, -8
 1224              		.cfi_offset 14, -4
 1225 0002 84B0     		sub	sp, sp, #16
 1226              		.cfi_def_cfa_offset 24
 1227 0004 00AF     		add	r7, sp, #0
 1228              		.cfi_def_cfa_register 7
 1229 0006 F860     		str	r0, [r7, #12]
 1230 0008 B960     		str	r1, [r7, #8]
 1231 000a 7A60     		str	r2, [r7, #4]
 1232 000c 3B60     		str	r3, [r7]
 375:chain_flow/cf_runtime_functions.c ****    if( event == CF_INIT_EVENT )
 1233              		.loc 2 375 0
ARM GAS  C:\Users\glenn\AppData\Local\Temp\ccftzDgr.s 			page 39


 1234 000e FB69     		ldr	r3, [r7, #28]
 1235 0010 012B     		cmp	r3, #1
 1236 0012 05D1     		bne	.L84
 376:chain_flow/cf_runtime_functions.c ****    {
 377:chain_flow/cf_runtime_functions.c ****       cf_change_state( chain_id, link_index );
 1237              		.loc 2 377 0
 1238 0014 7A68     		ldr	r2, [r7, #4]
 1239 0016 3B68     		ldr	r3, [r7]
 1240 0018 101C     		mov	r0, r2
 1241 001a 191C     		mov	r1, r3
 1242 001c FFF7FEFF 		bl	cf_change_state
 1243              	.L84:
 378:chain_flow/cf_runtime_functions.c ****    }
 379:chain_flow/cf_runtime_functions.c ****    return CF_DISABLE;
 1244              		.loc 2 379 0
 1245 0020 0223     		mov	r3, #2
 380:chain_flow/cf_runtime_functions.c **** 
 381:chain_flow/cf_runtime_functions.c **** 
 382:chain_flow/cf_runtime_functions.c **** }
 1246              		.loc 2 382 0
 1247 0022 181C     		mov	r0, r3
 1248 0024 BD46     		mov	sp, r7
 1249 0026 04B0     		add	sp, sp, #16
 1250              		@ sp needed
 1251 0028 80BD     		pop	{r7, pc}
 1252              		.cfi_endproc
 1253              	.LFE78:
 1254              		.size	change_state_fn, .-change_state_fn
 1255 002a C046     		.section	.text.system_reset_fn,"ax",%progbits
 1256              		.align	2
 1257              		.global	system_reset_fn
 1258              		.code	16
 1259              		.thumb_func
 1260              		.type	system_reset_fn, %function
 1261              	system_reset_fn:
 1262              	.LFB79:
 383:chain_flow/cf_runtime_functions.c **** 
 384:chain_flow/cf_runtime_functions.c **** int system_reset_fn( unsigned link_id, CF_FUN_AUX param_1, unsigned param_2, 
 385:chain_flow/cf_runtime_functions.c ****     unsigned param_3, unsigned param_4,  unsigned event, unsigned event_data)
 386:chain_flow/cf_runtime_functions.c **** {
 1263              		.loc 2 386 0
 1264              		.cfi_startproc
 1265 0000 80B5     		push	{r7, lr}
 1266              		.cfi_def_cfa_offset 8
 1267              		.cfi_offset 7, -8
 1268              		.cfi_offset 14, -4
 1269 0002 84B0     		sub	sp, sp, #16
 1270              		.cfi_def_cfa_offset 24
 1271 0004 00AF     		add	r7, sp, #0
 1272              		.cfi_def_cfa_register 7
 1273 0006 F860     		str	r0, [r7, #12]
 1274 0008 B960     		str	r1, [r7, #8]
 1275 000a 7A60     		str	r2, [r7, #4]
 1276 000c 3B60     		str	r3, [r7]
 387:chain_flow/cf_runtime_functions.c ****    CySoftwareReset();
 1277              		.loc 2 387 0
 1278 000e FFF7FEFF 		bl	CySoftwareReset
ARM GAS  C:\Users\glenn\AppData\Local\Temp\ccftzDgr.s 			page 40


 388:chain_flow/cf_runtime_functions.c ****    return CF_DISABLE;
 1279              		.loc 2 388 0
 1280 0012 0223     		mov	r3, #2
 389:chain_flow/cf_runtime_functions.c **** }
 1281              		.loc 2 389 0
 1282 0014 181C     		mov	r0, r3
 1283 0016 BD46     		mov	sp, r7
 1284 0018 04B0     		add	sp, sp, #16
 1285              		@ sp needed
 1286 001a 80BD     		pop	{r7, pc}
 1287              		.cfi_endproc
 1288              	.LFE79:
 1289              		.size	system_reset_fn, .-system_reset_fn
 1290              		.section	.text.enable_chain_fn,"ax",%progbits
 1291              		.align	2
 1292              		.global	enable_chain_fn
 1293              		.code	16
 1294              		.thumb_func
 1295              		.type	enable_chain_fn, %function
 1296              	enable_chain_fn:
 1297              	.LFB80:
 390:chain_flow/cf_runtime_functions.c **** 
 391:chain_flow/cf_runtime_functions.c **** int enable_chain_fn( unsigned link_id, CF_FUN_AUX param_1, unsigned param_2, 
 392:chain_flow/cf_runtime_functions.c ****     unsigned param_3, unsigned param_4,  unsigned event, unsigned event_data)
 393:chain_flow/cf_runtime_functions.c **** {
 1298              		.loc 2 393 0
 1299              		.cfi_startproc
 1300 0000 80B5     		push	{r7, lr}
 1301              		.cfi_def_cfa_offset 8
 1302              		.cfi_offset 7, -8
 1303              		.cfi_offset 14, -4
 1304 0002 84B0     		sub	sp, sp, #16
 1305              		.cfi_def_cfa_offset 24
 1306 0004 00AF     		add	r7, sp, #0
 1307              		.cfi_def_cfa_register 7
 1308 0006 F860     		str	r0, [r7, #12]
 1309 0008 B960     		str	r1, [r7, #8]
 1310 000a 7A60     		str	r2, [r7, #4]
 1311 000c 3B60     		str	r3, [r7]
 394:chain_flow/cf_runtime_functions.c ****    if( event == CF_INIT_EVENT )
 1312              		.loc 2 394 0
 1313 000e FB69     		ldr	r3, [r7, #28]
 1314 0010 012B     		cmp	r3, #1
 1315 0012 14D1     		bne	.L89
 395:chain_flow/cf_runtime_functions.c ****    {
 396:chain_flow/cf_runtime_functions.c ****       if( param_2 != NULL_PARAMETER)
 1316              		.loc 2 396 0
 1317 0014 7B68     		ldr	r3, [r7, #4]
 1318 0016 0133     		add	r3, r3, #1
 1319 0018 03D0     		beq	.L90
 397:chain_flow/cf_runtime_functions.c ****       {
 398:chain_flow/cf_runtime_functions.c ****           cf_enable_chain((intptr_t)param_2);
 1320              		.loc 2 398 0
 1321 001a 7B68     		ldr	r3, [r7, #4]
 1322 001c 181C     		mov	r0, r3
 1323 001e FFF7FEFF 		bl	cf_enable_chain
 1324              	.L90:
ARM GAS  C:\Users\glenn\AppData\Local\Temp\ccftzDgr.s 			page 41


 399:chain_flow/cf_runtime_functions.c ****       }
 400:chain_flow/cf_runtime_functions.c ****       if( param_3 != NULL_PARAMETER)
 1325              		.loc 2 400 0
 1326 0022 3B68     		ldr	r3, [r7]
 1327 0024 0133     		add	r3, r3, #1
 1328 0026 03D0     		beq	.L91
 401:chain_flow/cf_runtime_functions.c ****       {
 402:chain_flow/cf_runtime_functions.c ****           cf_enable_chain((intptr_t)param_3);
 1329              		.loc 2 402 0
 1330 0028 3B68     		ldr	r3, [r7]
 1331 002a 181C     		mov	r0, r3
 1332 002c FFF7FEFF 		bl	cf_enable_chain
 1333              	.L91:
 403:chain_flow/cf_runtime_functions.c ****       }
 404:chain_flow/cf_runtime_functions.c **** 
 405:chain_flow/cf_runtime_functions.c ****       if( param_4 != NULL_PARAMETER)
 1334              		.loc 2 405 0
 1335 0030 BB69     		ldr	r3, [r7, #24]
 1336 0032 0133     		add	r3, r3, #1
 1337 0034 03D0     		beq	.L89
 406:chain_flow/cf_runtime_functions.c ****       {
 407:chain_flow/cf_runtime_functions.c ****           cf_enable_chain((intptr_t)param_4);
 1338              		.loc 2 407 0
 1339 0036 BB69     		ldr	r3, [r7, #24]
 1340 0038 181C     		mov	r0, r3
 1341 003a FFF7FEFF 		bl	cf_enable_chain
 1342              	.L89:
 408:chain_flow/cf_runtime_functions.c ****       }
 409:chain_flow/cf_runtime_functions.c **** 
 410:chain_flow/cf_runtime_functions.c ****    }
 411:chain_flow/cf_runtime_functions.c ****    return CF_DISABLE;
 1343              		.loc 2 411 0
 1344 003e 0223     		mov	r3, #2
 412:chain_flow/cf_runtime_functions.c **** 
 413:chain_flow/cf_runtime_functions.c **** }
 1345              		.loc 2 413 0
 1346 0040 181C     		mov	r0, r3
 1347 0042 BD46     		mov	sp, r7
 1348 0044 04B0     		add	sp, sp, #16
 1349              		@ sp needed
 1350 0046 80BD     		pop	{r7, pc}
 1351              		.cfi_endproc
 1352              	.LFE80:
 1353              		.size	enable_chain_fn, .-enable_chain_fn
 1354              		.section	.text.disable_chain_fn,"ax",%progbits
 1355              		.align	2
 1356              		.global	disable_chain_fn
 1357              		.code	16
 1358              		.thumb_func
 1359              		.type	disable_chain_fn, %function
 1360              	disable_chain_fn:
 1361              	.LFB81:
 414:chain_flow/cf_runtime_functions.c ****   
 415:chain_flow/cf_runtime_functions.c **** int disable_chain_fn( unsigned link_id, CF_FUN_AUX param_1, unsigned param_2, 
 416:chain_flow/cf_runtime_functions.c ****     unsigned param_3, unsigned param_4,  unsigned event, unsigned event_data)
 417:chain_flow/cf_runtime_functions.c **** {
 1362              		.loc 2 417 0
ARM GAS  C:\Users\glenn\AppData\Local\Temp\ccftzDgr.s 			page 42


 1363              		.cfi_startproc
 1364 0000 80B5     		push	{r7, lr}
 1365              		.cfi_def_cfa_offset 8
 1366              		.cfi_offset 7, -8
 1367              		.cfi_offset 14, -4
 1368 0002 84B0     		sub	sp, sp, #16
 1369              		.cfi_def_cfa_offset 24
 1370 0004 00AF     		add	r7, sp, #0
 1371              		.cfi_def_cfa_register 7
 1372 0006 F860     		str	r0, [r7, #12]
 1373 0008 B960     		str	r1, [r7, #8]
 1374 000a 7A60     		str	r2, [r7, #4]
 1375 000c 3B60     		str	r3, [r7]
 418:chain_flow/cf_runtime_functions.c ****    if( event == CF_INIT_EVENT )
 1376              		.loc 2 418 0
 1377 000e FB69     		ldr	r3, [r7, #28]
 1378 0010 012B     		cmp	r3, #1
 1379 0012 14D1     		bne	.L94
 419:chain_flow/cf_runtime_functions.c ****    {
 420:chain_flow/cf_runtime_functions.c ****      if( param_2 != NULL_PARAMETER)
 1380              		.loc 2 420 0
 1381 0014 7B68     		ldr	r3, [r7, #4]
 1382 0016 0133     		add	r3, r3, #1
 1383 0018 03D0     		beq	.L95
 421:chain_flow/cf_runtime_functions.c ****       {
 422:chain_flow/cf_runtime_functions.c ****            cf_disable_chain((intptr_t)param_2);
 1384              		.loc 2 422 0
 1385 001a 7B68     		ldr	r3, [r7, #4]
 1386 001c 181C     		mov	r0, r3
 1387 001e FFF7FEFF 		bl	cf_disable_chain
 1388              	.L95:
 423:chain_flow/cf_runtime_functions.c ****       }
 424:chain_flow/cf_runtime_functions.c ****       if( param_3 != NULL_PARAMETER)
 1389              		.loc 2 424 0
 1390 0022 3B68     		ldr	r3, [r7]
 1391 0024 0133     		add	r3, r3, #1
 1392 0026 03D0     		beq	.L96
 425:chain_flow/cf_runtime_functions.c ****       {
 426:chain_flow/cf_runtime_functions.c ****           cf_suspend_chain((intptr_t)param_3);
 1393              		.loc 2 426 0
 1394 0028 3B68     		ldr	r3, [r7]
 1395 002a 181C     		mov	r0, r3
 1396 002c FFF7FEFF 		bl	cf_suspend_chain
 1397              	.L96:
 427:chain_flow/cf_runtime_functions.c ****       }
 428:chain_flow/cf_runtime_functions.c **** 
 429:chain_flow/cf_runtime_functions.c ****       if( param_4 != NULL_PARAMETER)
 1398              		.loc 2 429 0
 1399 0030 BB69     		ldr	r3, [r7, #24]
 1400 0032 0133     		add	r3, r3, #1
 1401 0034 03D0     		beq	.L94
 430:chain_flow/cf_runtime_functions.c ****       {
 431:chain_flow/cf_runtime_functions.c ****           cf_suspend_chain((intptr_t)param_4);
 1402              		.loc 2 431 0
 1403 0036 BB69     		ldr	r3, [r7, #24]
 1404 0038 181C     		mov	r0, r3
 1405 003a FFF7FEFF 		bl	cf_suspend_chain
ARM GAS  C:\Users\glenn\AppData\Local\Temp\ccftzDgr.s 			page 43


 1406              	.L94:
 432:chain_flow/cf_runtime_functions.c ****       }
 433:chain_flow/cf_runtime_functions.c **** 
 434:chain_flow/cf_runtime_functions.c ****      
 435:chain_flow/cf_runtime_functions.c ****       
 436:chain_flow/cf_runtime_functions.c ****       
 437:chain_flow/cf_runtime_functions.c ****    }
 438:chain_flow/cf_runtime_functions.c ****    return CF_DISABLE;
 1407              		.loc 2 438 0
 1408 003e 0223     		mov	r3, #2
 439:chain_flow/cf_runtime_functions.c **** 
 440:chain_flow/cf_runtime_functions.c **** 
 441:chain_flow/cf_runtime_functions.c **** }
 1409              		.loc 2 441 0
 1410 0040 181C     		mov	r0, r3
 1411 0042 BD46     		mov	sp, r7
 1412 0044 04B0     		add	sp, sp, #16
 1413              		@ sp needed
 1414 0046 80BD     		pop	{r7, pc}
 1415              		.cfi_endproc
 1416              	.LFE81:
 1417              		.size	disable_chain_fn, .-disable_chain_fn
 1418              		.section	.text.suspend_chain_fn,"ax",%progbits
 1419              		.align	2
 1420              		.global	suspend_chain_fn
 1421              		.code	16
 1422              		.thumb_func
 1423              		.type	suspend_chain_fn, %function
 1424              	suspend_chain_fn:
 1425              	.LFB82:
 442:chain_flow/cf_runtime_functions.c **** int suspend_chain_fn( unsigned link_id, CF_FUN_AUX param_1, unsigned param_2, 
 443:chain_flow/cf_runtime_functions.c ****     unsigned param_3, unsigned param_4,  unsigned event, unsigned event_data)
 444:chain_flow/cf_runtime_functions.c **** {
 1426              		.loc 2 444 0
 1427              		.cfi_startproc
 1428 0000 80B5     		push	{r7, lr}
 1429              		.cfi_def_cfa_offset 8
 1430              		.cfi_offset 7, -8
 1431              		.cfi_offset 14, -4
 1432 0002 84B0     		sub	sp, sp, #16
 1433              		.cfi_def_cfa_offset 24
 1434 0004 00AF     		add	r7, sp, #0
 1435              		.cfi_def_cfa_register 7
 1436 0006 F860     		str	r0, [r7, #12]
 1437 0008 B960     		str	r1, [r7, #8]
 1438 000a 7A60     		str	r2, [r7, #4]
 1439 000c 3B60     		str	r3, [r7]
 445:chain_flow/cf_runtime_functions.c ****    if( event == CF_INIT_EVENT )
 1440              		.loc 2 445 0
 1441 000e FB69     		ldr	r3, [r7, #28]
 1442 0010 012B     		cmp	r3, #1
 1443 0012 0BD1     		bne	.L99
 446:chain_flow/cf_runtime_functions.c ****    {
 447:chain_flow/cf_runtime_functions.c ****  
 448:chain_flow/cf_runtime_functions.c ****       cf_suspend_chain((intptr_t)param_2);
 1444              		.loc 2 448 0
 1445 0014 7B68     		ldr	r3, [r7, #4]
ARM GAS  C:\Users\glenn\AppData\Local\Temp\ccftzDgr.s 			page 44


 1446 0016 181C     		mov	r0, r3
 1447 0018 FFF7FEFF 		bl	cf_suspend_chain
 449:chain_flow/cf_runtime_functions.c ****       cf_suspend_chain((intptr_t)param_3);
 1448              		.loc 2 449 0
 1449 001c 3B68     		ldr	r3, [r7]
 1450 001e 181C     		mov	r0, r3
 1451 0020 FFF7FEFF 		bl	cf_suspend_chain
 450:chain_flow/cf_runtime_functions.c ****       cf_suspend_chain((intptr_t)param_4);
 1452              		.loc 2 450 0
 1453 0024 BB69     		ldr	r3, [r7, #24]
 1454 0026 181C     		mov	r0, r3
 1455 0028 FFF7FEFF 		bl	cf_suspend_chain
 1456              	.L99:
 451:chain_flow/cf_runtime_functions.c ****    }
 452:chain_flow/cf_runtime_functions.c ****    return CF_DISABLE;
 1457              		.loc 2 452 0
 1458 002c 0223     		mov	r3, #2
 453:chain_flow/cf_runtime_functions.c **** }
 1459              		.loc 2 453 0
 1460 002e 181C     		mov	r0, r3
 1461 0030 BD46     		mov	sp, r7
 1462 0032 04B0     		add	sp, sp, #16
 1463              		@ sp needed
 1464 0034 80BD     		pop	{r7, pc}
 1465              		.cfi_endproc
 1466              	.LFE82:
 1467              		.size	suspend_chain_fn, .-suspend_chain_fn
 1468 0036 C046     		.section	.text.resume_chain_fn,"ax",%progbits
 1469              		.align	2
 1470              		.global	resume_chain_fn
 1471              		.code	16
 1472              		.thumb_func
 1473              		.type	resume_chain_fn, %function
 1474              	resume_chain_fn:
 1475              	.LFB83:
 454:chain_flow/cf_runtime_functions.c **** 
 455:chain_flow/cf_runtime_functions.c **** int resume_chain_fn( unsigned link_id, CF_FUN_AUX param_1, unsigned param_2, 
 456:chain_flow/cf_runtime_functions.c ****     unsigned param_3, unsigned param_4,  unsigned event, unsigned event_data)
 457:chain_flow/cf_runtime_functions.c **** {
 1476              		.loc 2 457 0
 1477              		.cfi_startproc
 1478 0000 80B5     		push	{r7, lr}
 1479              		.cfi_def_cfa_offset 8
 1480              		.cfi_offset 7, -8
 1481              		.cfi_offset 14, -4
 1482 0002 84B0     		sub	sp, sp, #16
 1483              		.cfi_def_cfa_offset 24
 1484 0004 00AF     		add	r7, sp, #0
 1485              		.cfi_def_cfa_register 7
 1486 0006 F860     		str	r0, [r7, #12]
 1487 0008 B960     		str	r1, [r7, #8]
 1488 000a 7A60     		str	r2, [r7, #4]
 1489 000c 3B60     		str	r3, [r7]
 458:chain_flow/cf_runtime_functions.c ****    if( event == CF_INIT_EVENT )
 1490              		.loc 2 458 0
 1491 000e FB69     		ldr	r3, [r7, #28]
 1492 0010 012B     		cmp	r3, #1
ARM GAS  C:\Users\glenn\AppData\Local\Temp\ccftzDgr.s 			page 45


 1493 0012 0BD1     		bne	.L102
 459:chain_flow/cf_runtime_functions.c ****    {
 460:chain_flow/cf_runtime_functions.c ****       
 461:chain_flow/cf_runtime_functions.c ****       cf_resume_chain((intptr_t)param_2);
 1494              		.loc 2 461 0
 1495 0014 7B68     		ldr	r3, [r7, #4]
 1496 0016 181C     		mov	r0, r3
 1497 0018 FFF7FEFF 		bl	cf_resume_chain
 462:chain_flow/cf_runtime_functions.c ****       cf_resume_chain((intptr_t)param_3);
 1498              		.loc 2 462 0
 1499 001c 3B68     		ldr	r3, [r7]
 1500 001e 181C     		mov	r0, r3
 1501 0020 FFF7FEFF 		bl	cf_resume_chain
 463:chain_flow/cf_runtime_functions.c ****       cf_resume_chain((intptr_t)param_4);
 1502              		.loc 2 463 0
 1503 0024 BB69     		ldr	r3, [r7, #24]
 1504 0026 181C     		mov	r0, r3
 1505 0028 FFF7FEFF 		bl	cf_resume_chain
 1506              	.L102:
 464:chain_flow/cf_runtime_functions.c ****    }
 465:chain_flow/cf_runtime_functions.c ****    return CF_DISABLE;
 1507              		.loc 2 465 0
 1508 002c 0223     		mov	r3, #2
 466:chain_flow/cf_runtime_functions.c **** 
 467:chain_flow/cf_runtime_functions.c **** }
 1509              		.loc 2 467 0
 1510 002e 181C     		mov	r0, r3
 1511 0030 BD46     		mov	sp, r7
 1512 0032 04B0     		add	sp, sp, #16
 1513              		@ sp needed
 1514 0034 80BD     		pop	{r7, pc}
 1515              		.cfi_endproc
 1516              	.LFE83:
 1517              		.size	resume_chain_fn, .-resume_chain_fn
 1518 0036 C046     		.text
 1519              	.Letext0:
 1520              		.file 3 "c:\\program files (x86)\\cypress\\psoc creator\\4.0\\psoc creator\\import\\gnu\\arm\\4.9.
 1521              		.file 4 "c:\\program files (x86)\\cypress\\psoc creator\\4.0\\psoc creator\\import\\gnu\\arm\\4.9.
 1522              		.file 5 "Generated_Source\\PSoC4/cytypes.h"
 1523              		.file 6 "chain_flow\\cf_chain_flow_support.h"