ARM GAS  C:\Users\glenn\AppData\Local\Temp\ccftzDgr.s 			page 1


   1              		.cpu cortex-m0
   2              		.fpu softvfp
   3              		.eabi_attribute 20, 1
   4              		.eabi_attribute 21, 1
   5              		.eabi_attribute 23, 3
   6              		.eabi_attribute 24, 1
   7              		.eabi_attribute 25, 1
   8              		.eabi_attribute 26, 1
   9              		.eabi_attribute 30, 6
  10              		.eabi_attribute 34, 0
  11              		.eabi_attribute 18, 4
  12              		.code	16
  13              		.file	"cf_runtime_functions.c"
  14              		.text
  15              	.Ltext0:
  16              		.cfi_sections	.debug_frame
  17              		.section	.text.RTC_1_GetSecond,"ax",%progbits
  18              		.align	2
  19              		.code	16
  20              		.thumb_func
  21              		.type	RTC_1_GetSecond, %function
  22              	RTC_1_GetSecond:
  23              	.LFB37:
  24              		.file 1 "Generated_Source\\PSoC4/RTC_1.h"
   1:Generated_Source\PSoC4/RTC_1.h **** /***************************************************************************//**
   2:Generated_Source\PSoC4/RTC_1.h **** * \file Name: RTC_1.h
   3:Generated_Source\PSoC4/RTC_1.h **** * \version 1.10
   4:Generated_Source\PSoC4/RTC_1.h **** *
   5:Generated_Source\PSoC4/RTC_1.h **** * \brief
   6:Generated_Source\PSoC4/RTC_1.h **** *  This file provides constants and parameter values for the RTC_P4 Component.
   7:Generated_Source\PSoC4/RTC_1.h **** *
   8:Generated_Source\PSoC4/RTC_1.h **** ********************************************************************************
   9:Generated_Source\PSoC4/RTC_1.h **** * Copyright 2015-2016, Cypress Semiconductor Corporation.  All rights reserved.
  10:Generated_Source\PSoC4/RTC_1.h **** * You may use this file only in accordance with the license, terms, conditions,
  11:Generated_Source\PSoC4/RTC_1.h **** * disclaimers, and limitations in the end user license agreement accompanying
  12:Generated_Source\PSoC4/RTC_1.h **** * the software package with which this file was provided.
  13:Generated_Source\PSoC4/RTC_1.h **** *******************************************************************************/
  14:Generated_Source\PSoC4/RTC_1.h **** 
  15:Generated_Source\PSoC4/RTC_1.h **** #if !defined(CY_RTC_P4_RTC_1_H)
  16:Generated_Source\PSoC4/RTC_1.h **** #define CY_RTC_P4_RTC_1_H
  17:Generated_Source\PSoC4/RTC_1.h **** 
  18:Generated_Source\PSoC4/RTC_1.h **** #include <cytypes.h>
  19:Generated_Source\PSoC4/RTC_1.h **** #include <CyLib.h>
  20:Generated_Source\PSoC4/RTC_1.h **** 
  21:Generated_Source\PSoC4/RTC_1.h **** 
  22:Generated_Source\PSoC4/RTC_1.h **** /*******************************************************************************
  23:Generated_Source\PSoC4/RTC_1.h **** *    Data types definition
  24:Generated_Source\PSoC4/RTC_1.h **** *******************************************************************************/
  25:Generated_Source\PSoC4/RTC_1.h **** 
  26:Generated_Source\PSoC4/RTC_1.h **** typedef enum
  27:Generated_Source\PSoC4/RTC_1.h **** {
  28:Generated_Source\PSoC4/RTC_1.h ****     RTC_1_DST_DATE_RELATIVE = 0u,
  29:Generated_Source\PSoC4/RTC_1.h ****     RTC_1_DST_DATE_FIXED = 1u
  30:Generated_Source\PSoC4/RTC_1.h **** }RTC_1_DST_DATETYPE_ENUM;
  31:Generated_Source\PSoC4/RTC_1.h **** 
  32:Generated_Source\PSoC4/RTC_1.h **** /**
  33:Generated_Source\PSoC4/RTC_1.h **** * \addtogroup group_structures
ARM GAS  C:\Users\glenn\AppData\Local\Temp\ccftzDgr.s 			page 2


  34:Generated_Source\PSoC4/RTC_1.h **** * @{
  35:Generated_Source\PSoC4/RTC_1.h **** */
  36:Generated_Source\PSoC4/RTC_1.h **** 
  37:Generated_Source\PSoC4/RTC_1.h **** /**
  38:Generated_Source\PSoC4/RTC_1.h **** * This is the data structure that is used to save the current time and date 
  39:Generated_Source\PSoC4/RTC_1.h **** * (RTC_currentTimeDate), and Alarm time and date (RTC_alarmCfgTimeDate).
  40:Generated_Source\PSoC4/RTC_1.h **** */
  41:Generated_Source\PSoC4/RTC_1.h **** typedef struct
  42:Generated_Source\PSoC4/RTC_1.h **** {
  43:Generated_Source\PSoC4/RTC_1.h ****     uint32 time;
  44:Generated_Source\PSoC4/RTC_1.h ****     uint32 date;
  45:Generated_Source\PSoC4/RTC_1.h ****     uint32 dayOfWeek;
  46:Generated_Source\PSoC4/RTC_1.h ****     uint32 status;
  47:Generated_Source\PSoC4/RTC_1.h **** }RTC_1_DATE_TIME;
  48:Generated_Source\PSoC4/RTC_1.h **** 
  49:Generated_Source\PSoC4/RTC_1.h **** /**
  50:Generated_Source\PSoC4/RTC_1.h **** * This is the data structure that is used to save time and date values for 
  51:Generated_Source\PSoC4/RTC_1.h **** * Daylight Savings Time Start and Stop (RTC_dstTimeDateStart and 
  52:Generated_Source\PSoC4/RTC_1.h **** * RTC_dstTimeDateStop).
  53:Generated_Source\PSoC4/RTC_1.h **** */
  54:Generated_Source\PSoC4/RTC_1.h **** typedef struct
  55:Generated_Source\PSoC4/RTC_1.h **** {
  56:Generated_Source\PSoC4/RTC_1.h ****     uint32 hour;
  57:Generated_Source\PSoC4/RTC_1.h ****     uint32 dayOfWeek;
  58:Generated_Source\PSoC4/RTC_1.h ****     uint32 dayOfMonth;
  59:Generated_Source\PSoC4/RTC_1.h ****     uint32 weekOfMonth;
  60:Generated_Source\PSoC4/RTC_1.h ****     uint32 month;
  61:Generated_Source\PSoC4/RTC_1.h ****     uint8  timeFormat;
  62:Generated_Source\PSoC4/RTC_1.h **** }RTC_1_DST_TIME;
  63:Generated_Source\PSoC4/RTC_1.h **** 
  64:Generated_Source\PSoC4/RTC_1.h **** /** @} structures */
  65:Generated_Source\PSoC4/RTC_1.h **** 
  66:Generated_Source\PSoC4/RTC_1.h **** /*******************************************************************************
  67:Generated_Source\PSoC4/RTC_1.h **** *    Enumerated Types and Parameters
  68:Generated_Source\PSoC4/RTC_1.h **** *******************************************************************************/
  69:Generated_Source\PSoC4/RTC_1.h **** /* Time Format setting constants */
  70:Generated_Source\PSoC4/RTC_1.h **** #define RTC_1__HOUR_12 1
  71:Generated_Source\PSoC4/RTC_1.h **** #define RTC_1__HOUR_24 0
  72:Generated_Source\PSoC4/RTC_1.h **** 
  73:Generated_Source\PSoC4/RTC_1.h **** /*  Date Format setting constants */
  74:Generated_Source\PSoC4/RTC_1.h **** #define RTC_1__MM_DD_YYYY 0
  75:Generated_Source\PSoC4/RTC_1.h **** #define RTC_1__DD_MM_YYYY 1
  76:Generated_Source\PSoC4/RTC_1.h **** #define RTC_1__YYYY_MM_DD 2
  77:Generated_Source\PSoC4/RTC_1.h **** 
  78:Generated_Source\PSoC4/RTC_1.h **** /* Date Type setting constants */
  79:Generated_Source\PSoC4/RTC_1.h **** #define RTC_1__RELATIVE 0
  80:Generated_Source\PSoC4/RTC_1.h **** #define RTC_1__FIXED 1
  81:Generated_Source\PSoC4/RTC_1.h **** 
  82:Generated_Source\PSoC4/RTC_1.h **** /* DST Hour setting constants */
  83:Generated_Source\PSoC4/RTC_1.h **** #define RTC_1__H0000 0
  84:Generated_Source\PSoC4/RTC_1.h **** #define RTC_1__H0100 1
  85:Generated_Source\PSoC4/RTC_1.h **** #define RTC_1__H0200 2
  86:Generated_Source\PSoC4/RTC_1.h **** #define RTC_1__H0300 3
  87:Generated_Source\PSoC4/RTC_1.h **** #define RTC_1__H0400 4
  88:Generated_Source\PSoC4/RTC_1.h **** #define RTC_1__H0500 5
  89:Generated_Source\PSoC4/RTC_1.h **** #define RTC_1__H0600 6
  90:Generated_Source\PSoC4/RTC_1.h **** #define RTC_1__H0700 7
ARM GAS  C:\Users\glenn\AppData\Local\Temp\ccftzDgr.s 			page 3


  91:Generated_Source\PSoC4/RTC_1.h **** #define RTC_1__H0800 8
  92:Generated_Source\PSoC4/RTC_1.h **** #define RTC_1__H0900 9
  93:Generated_Source\PSoC4/RTC_1.h **** #define RTC_1__H1000 10
  94:Generated_Source\PSoC4/RTC_1.h **** #define RTC_1__H1100 11
  95:Generated_Source\PSoC4/RTC_1.h **** #define RTC_1__H1200 12
  96:Generated_Source\PSoC4/RTC_1.h **** #define RTC_1__H1300 13
  97:Generated_Source\PSoC4/RTC_1.h **** #define RTC_1__H1400 14
  98:Generated_Source\PSoC4/RTC_1.h **** #define RTC_1__H1500 15
  99:Generated_Source\PSoC4/RTC_1.h **** #define RTC_1__H1600 16
 100:Generated_Source\PSoC4/RTC_1.h **** #define RTC_1__H1700 17
 101:Generated_Source\PSoC4/RTC_1.h **** #define RTC_1__H1800 18
 102:Generated_Source\PSoC4/RTC_1.h **** #define RTC_1__H1900 19
 103:Generated_Source\PSoC4/RTC_1.h **** #define RTC_1__H2000 20
 104:Generated_Source\PSoC4/RTC_1.h **** #define RTC_1__H2100 21
 105:Generated_Source\PSoC4/RTC_1.h **** #define RTC_1__H2200 22
 106:Generated_Source\PSoC4/RTC_1.h **** #define RTC_1__H2300 23
 107:Generated_Source\PSoC4/RTC_1.h **** 
 108:Generated_Source\PSoC4/RTC_1.h **** /* DST DayOfWeek setting constants */
 109:Generated_Source\PSoC4/RTC_1.h **** #define RTC_1__SUNDAY 1
 110:Generated_Source\PSoC4/RTC_1.h **** #define RTC_1__MONDAY 2
 111:Generated_Source\PSoC4/RTC_1.h **** #define RTC_1__TUESDAY 3
 112:Generated_Source\PSoC4/RTC_1.h **** #define RTC_1__WEDNESDAY 4
 113:Generated_Source\PSoC4/RTC_1.h **** #define RTC_1__THURSDAY 5
 114:Generated_Source\PSoC4/RTC_1.h **** #define RTC_1__FRIDAY 6
 115:Generated_Source\PSoC4/RTC_1.h **** #define RTC_1__SATURDAY 7
 116:Generated_Source\PSoC4/RTC_1.h **** 
 117:Generated_Source\PSoC4/RTC_1.h **** /* DST Month setting constants */
 118:Generated_Source\PSoC4/RTC_1.h **** #define RTC_1__JAN 1
 119:Generated_Source\PSoC4/RTC_1.h **** #define RTC_1__FEB 2
 120:Generated_Source\PSoC4/RTC_1.h **** #define RTC_1__MAR 3
 121:Generated_Source\PSoC4/RTC_1.h **** #define RTC_1__APR 4
 122:Generated_Source\PSoC4/RTC_1.h **** #define RTC_1__MAY 5
 123:Generated_Source\PSoC4/RTC_1.h **** #define RTC_1__JUN 6
 124:Generated_Source\PSoC4/RTC_1.h **** #define RTC_1__JUL 7
 125:Generated_Source\PSoC4/RTC_1.h **** #define RTC_1__AUG 8
 126:Generated_Source\PSoC4/RTC_1.h **** #define RTC_1__SEP 9
 127:Generated_Source\PSoC4/RTC_1.h **** #define RTC_1__OCT 10
 128:Generated_Source\PSoC4/RTC_1.h **** #define RTC_1__NOV 11
 129:Generated_Source\PSoC4/RTC_1.h **** #define RTC_1__DEC 12
 130:Generated_Source\PSoC4/RTC_1.h **** 
 131:Generated_Source\PSoC4/RTC_1.h **** /* DST WeekOfMonth setting constants */
 132:Generated_Source\PSoC4/RTC_1.h **** #define RTC_1__FIRST 1
 133:Generated_Source\PSoC4/RTC_1.h **** #define RTC_1__SECOND 2
 134:Generated_Source\PSoC4/RTC_1.h **** #define RTC_1__THIRD 3
 135:Generated_Source\PSoC4/RTC_1.h **** #define RTC_1__FOURTH 4
 136:Generated_Source\PSoC4/RTC_1.h **** #define RTC_1__FIFTH 5
 137:Generated_Source\PSoC4/RTC_1.h **** #define RTC_1__LAST 6
 138:Generated_Source\PSoC4/RTC_1.h **** 
 139:Generated_Source\PSoC4/RTC_1.h **** 
 140:Generated_Source\PSoC4/RTC_1.h **** #define RTC_1_INITIAL_DATA_FORMAT     (0u)
 141:Generated_Source\PSoC4/RTC_1.h **** #define RTC_1_INITIAL_TIME_FORMAT     (0u)
 142:Generated_Source\PSoC4/RTC_1.h **** #define RTC_1_INITIAL_UPDATE_MODE     (0u)
 143:Generated_Source\PSoC4/RTC_1.h **** #define RTC_1_INITIAL_SECOND          (0u)
 144:Generated_Source\PSoC4/RTC_1.h **** #define RTC_1_INITIAL_MINUTE          (0u)
 145:Generated_Source\PSoC4/RTC_1.h **** #define RTC_1_INITIAL_HOUR            (0u)
 146:Generated_Source\PSoC4/RTC_1.h **** #define RTC_1_INITIAL_DAY             (1u)
 147:Generated_Source\PSoC4/RTC_1.h **** #define RTC_1_INITIAL_MONTH           (1u)
ARM GAS  C:\Users\glenn\AppData\Local\Temp\ccftzDgr.s 			page 4


 148:Generated_Source\PSoC4/RTC_1.h **** #define RTC_1_INITIAL_YEAR            (1970u)
 149:Generated_Source\PSoC4/RTC_1.h **** 
 150:Generated_Source\PSoC4/RTC_1.h **** #define RTC_1_INITIAL_ALARM_STATUS    (1u)
 151:Generated_Source\PSoC4/RTC_1.h **** 
 152:Generated_Source\PSoC4/RTC_1.h **** #define RTC_1_INITIAL_DST_STATUS      (1u)
 153:Generated_Source\PSoC4/RTC_1.h **** #define RTC_1_INITIAL_DST_DATE_TYPE   (0u)
 154:Generated_Source\PSoC4/RTC_1.h **** #define RTC_1_INITIAL_DST_START_MONTH (3uL)
 155:Generated_Source\PSoC4/RTC_1.h **** #define RTC_1_INITIAL_DST_START_WOM   (6uL)
 156:Generated_Source\PSoC4/RTC_1.h **** #define RTC_1_INITIAL_DST_START_DOM   (22uL)
 157:Generated_Source\PSoC4/RTC_1.h **** #define RTC_1_INITIAL_DST_START_DOW   (1uL)
 158:Generated_Source\PSoC4/RTC_1.h **** #define RTC_1_INITIAL_DST_START_HRS   (0uL)
 159:Generated_Source\PSoC4/RTC_1.h **** #define RTC_1_INITIAL_DST_STOP_MONTH  (10uL)
 160:Generated_Source\PSoC4/RTC_1.h **** #define RTC_1_INITIAL_DST_STOP_DOM    (22uL)
 161:Generated_Source\PSoC4/RTC_1.h **** #define RTC_1_INITIAL_DST_STOP_DOW    (1uL)
 162:Generated_Source\PSoC4/RTC_1.h **** #define RTC_1_INITIAL_DST_STOP_WOM    (6uL)
 163:Generated_Source\PSoC4/RTC_1.h **** #define RTC_1_INITIAL_DST_STOP_HRS    (0uL)
 164:Generated_Source\PSoC4/RTC_1.h **** 
 165:Generated_Source\PSoC4/RTC_1.h **** /* Day of week definitions */
 166:Generated_Source\PSoC4/RTC_1.h **** #define RTC_1_SUNDAY     (RTC_1__SUNDAY)
 167:Generated_Source\PSoC4/RTC_1.h **** #define RTC_1_MONDAY     (RTC_1__MONDAY)
 168:Generated_Source\PSoC4/RTC_1.h **** #define RTC_1_TUESDAY    (RTC_1__TUESDAY)
 169:Generated_Source\PSoC4/RTC_1.h **** #define RTC_1_WEDNESDAY  (RTC_1__WEDNESDAY)
 170:Generated_Source\PSoC4/RTC_1.h **** #define RTC_1_THURSDAY   (RTC_1__THURSDAY)
 171:Generated_Source\PSoC4/RTC_1.h **** #define RTC_1_FRIDAY     (RTC_1__FRIDAY)
 172:Generated_Source\PSoC4/RTC_1.h **** #define RTC_1_SATURDAY   (RTC_1__SATURDAY)
 173:Generated_Source\PSoC4/RTC_1.h **** 
 174:Generated_Source\PSoC4/RTC_1.h **** /* DST WeekOfMonth setting constants definitions */
 175:Generated_Source\PSoC4/RTC_1.h **** #define RTC_1_FIRST      (RTC_1__FIRST)
 176:Generated_Source\PSoC4/RTC_1.h **** #define RTC_1_SECOND     (RTC_1__SECOND)
 177:Generated_Source\PSoC4/RTC_1.h **** #define RTC_1_THIRD      (RTC_1__THIRD)
 178:Generated_Source\PSoC4/RTC_1.h **** #define RTC_1_FOURTH     (RTC_1__FOURTH)
 179:Generated_Source\PSoC4/RTC_1.h **** #define RTC_1_FIFTH      (RTC_1__FIFTH)
 180:Generated_Source\PSoC4/RTC_1.h **** #define RTC_1_LAST       (RTC_1__LAST)
 181:Generated_Source\PSoC4/RTC_1.h **** 
 182:Generated_Source\PSoC4/RTC_1.h **** /* Month definitions */
 183:Generated_Source\PSoC4/RTC_1.h **** #define RTC_1_JANUARY    (RTC_1__JAN)
 184:Generated_Source\PSoC4/RTC_1.h **** #define RTC_1_FEBRUARY   (RTC_1__FEB)
 185:Generated_Source\PSoC4/RTC_1.h **** #define RTC_1_MARCH      (RTC_1__MAR)
 186:Generated_Source\PSoC4/RTC_1.h **** #define RTC_1_APRIL      (RTC_1__APR)
 187:Generated_Source\PSoC4/RTC_1.h **** #define RTC_1_MAY        (RTC_1__MAY)
 188:Generated_Source\PSoC4/RTC_1.h **** #define RTC_1_JUNE       (RTC_1__JUN)
 189:Generated_Source\PSoC4/RTC_1.h **** #define RTC_1_JULY       (RTC_1__JUL)
 190:Generated_Source\PSoC4/RTC_1.h **** #define RTC_1_AUGUST     (RTC_1__AUG)
 191:Generated_Source\PSoC4/RTC_1.h **** #define RTC_1_SEPTEMBER  (RTC_1__SEP)
 192:Generated_Source\PSoC4/RTC_1.h **** #define RTC_1_OCTOBER    (RTC_1__OCT)
 193:Generated_Source\PSoC4/RTC_1.h **** #define RTC_1_NOVEMBER   (RTC_1__NOV)
 194:Generated_Source\PSoC4/RTC_1.h **** #define RTC_1_DECEMBER   (RTC_1__DEC)
 195:Generated_Source\PSoC4/RTC_1.h **** 
 196:Generated_Source\PSoC4/RTC_1.h **** #define RTC_1_DAYS_PER_WEEK       (7u)
 197:Generated_Source\PSoC4/RTC_1.h **** 
 198:Generated_Source\PSoC4/RTC_1.h **** /* Number of days in month definitions */
 199:Generated_Source\PSoC4/RTC_1.h **** #define RTC_1_DAYS_IN_JANUARY     (31u)
 200:Generated_Source\PSoC4/RTC_1.h **** #define RTC_1_DAYS_IN_FEBRUARY    (28u)
 201:Generated_Source\PSoC4/RTC_1.h **** #define RTC_1_DAYS_IN_MARCH       (31u)
 202:Generated_Source\PSoC4/RTC_1.h **** #define RTC_1_DAYS_IN_APRIL       (30u)
 203:Generated_Source\PSoC4/RTC_1.h **** #define RTC_1_DAYS_IN_MAY         (31u)
 204:Generated_Source\PSoC4/RTC_1.h **** #define RTC_1_DAYS_IN_JUNE        (30u)
ARM GAS  C:\Users\glenn\AppData\Local\Temp\ccftzDgr.s 			page 5


 205:Generated_Source\PSoC4/RTC_1.h **** #define RTC_1_DAYS_IN_JULY        (31u)
 206:Generated_Source\PSoC4/RTC_1.h **** #define RTC_1_DAYS_IN_AUGUST      (31u)
 207:Generated_Source\PSoC4/RTC_1.h **** #define RTC_1_DAYS_IN_SEPTEMBER   (30u)
 208:Generated_Source\PSoC4/RTC_1.h **** #define RTC_1_DAYS_IN_OCTOBER     (31u)
 209:Generated_Source\PSoC4/RTC_1.h **** #define RTC_1_DAYS_IN_NOVEMBER    (30u)
 210:Generated_Source\PSoC4/RTC_1.h **** #define RTC_1_DAYS_IN_DECEMBER    (31u)
 211:Generated_Source\PSoC4/RTC_1.h **** 
 212:Generated_Source\PSoC4/RTC_1.h **** #define RTC_1_MONTHS_PER_YEAR     (12uL)
 213:Generated_Source\PSoC4/RTC_1.h **** 
 214:Generated_Source\PSoC4/RTC_1.h **** #define RTC_1_HOURS_PER_DAY       (24uL)
 215:Generated_Source\PSoC4/RTC_1.h **** #define RTC_1_HOURS_PER_HALF_DAY  (12uL)
 216:Generated_Source\PSoC4/RTC_1.h **** 
 217:Generated_Source\PSoC4/RTC_1.h **** #define RTC_1_SECONDS_PER_MINUTE  (60uL)
 218:Generated_Source\PSoC4/RTC_1.h **** #define RTC_1_SECONDS_PER_HOUR    (3600uL)
 219:Generated_Source\PSoC4/RTC_1.h **** #define RTC_1_SECONDS_PER_DAY     (24uL * 3600uL)
 220:Generated_Source\PSoC4/RTC_1.h **** 
 221:Generated_Source\PSoC4/RTC_1.h **** #define RTC_1_SECONDS_PER_LEAP_YEAR    (366uL * 24uL * 3600uL)
 222:Generated_Source\PSoC4/RTC_1.h **** #define RTC_1_SECONDS_PER_NONLEAP_YEAR (365uL * 24uL * 3600uL)
 223:Generated_Source\PSoC4/RTC_1.h **** 
 224:Generated_Source\PSoC4/RTC_1.h **** #define RTC_1_UNIX_TIME_PM   ((12uL * 3600uL) + 1uL)
 225:Generated_Source\PSoC4/RTC_1.h **** 
 226:Generated_Source\PSoC4/RTC_1.h **** /* AM/PM status definitions */
 227:Generated_Source\PSoC4/RTC_1.h **** #define RTC_1_AM                 (0u)
 228:Generated_Source\PSoC4/RTC_1.h **** #define RTC_1_PM                 (1u)
 229:Generated_Source\PSoC4/RTC_1.h **** 
 230:Generated_Source\PSoC4/RTC_1.h **** /* Time format definitions */
 231:Generated_Source\PSoC4/RTC_1.h **** #define RTC_1_12_HOURS_FORMAT    (RTC_1__HOUR_12)
 232:Generated_Source\PSoC4/RTC_1.h **** #define RTC_1_24_HOURS_FORMAT    (RTC_1__HOUR_24)
 233:Generated_Source\PSoC4/RTC_1.h **** 
 234:Generated_Source\PSoC4/RTC_1.h **** /* UNIX time begins in 1970 year.  */
 235:Generated_Source\PSoC4/RTC_1.h **** #define RTC_1_YEAR_0             (1970u)
 236:Generated_Source\PSoC4/RTC_1.h **** 
 237:Generated_Source\PSoC4/RTC_1.h **** /* Definition of date register fields */
 238:Generated_Source\PSoC4/RTC_1.h **** #if(RTC_1_INITIAL_DATA_FORMAT == RTC_1__MM_DD_YYYY)
 239:Generated_Source\PSoC4/RTC_1.h ****     #define RTC_1_10_MONTH_OFFSET   (28u)
 240:Generated_Source\PSoC4/RTC_1.h ****     #define RTC_1_MONTH_OFFSET      (24u)
 241:Generated_Source\PSoC4/RTC_1.h ****     #define RTC_1_10_DAY_OFFSET     (20u)
 242:Generated_Source\PSoC4/RTC_1.h ****     #define RTC_1_DAY_OFFSET        (16u)
 243:Generated_Source\PSoC4/RTC_1.h ****     #define RTC_1_1000_YEAR_OFFSET  (12u)
 244:Generated_Source\PSoC4/RTC_1.h ****     #define RTC_1_100_YEAR_OFFSET   (8u)
 245:Generated_Source\PSoC4/RTC_1.h ****     #define RTC_1_10_YEAR_OFFSET    (4u)
 246:Generated_Source\PSoC4/RTC_1.h ****     #define RTC_1_YEAR_OFFSET       (0u)
 247:Generated_Source\PSoC4/RTC_1.h **** #elif(RTC_1_INITIAL_DATA_FORMAT == RTC_1__DD_MM_YYYY)
 248:Generated_Source\PSoC4/RTC_1.h ****     #define RTC_1_10_MONTH_OFFSET   (20u)
 249:Generated_Source\PSoC4/RTC_1.h ****     #define RTC_1_MONTH_OFFSET      (16u)
 250:Generated_Source\PSoC4/RTC_1.h ****     #define RTC_1_10_DAY_OFFSET     (28u)
 251:Generated_Source\PSoC4/RTC_1.h ****     #define RTC_1_DAY_OFFSET        (24u)
 252:Generated_Source\PSoC4/RTC_1.h ****     #define RTC_1_1000_YEAR_OFFSET  (12u)
 253:Generated_Source\PSoC4/RTC_1.h ****     #define RTC_1_100_YEAR_OFFSET   (8u)
 254:Generated_Source\PSoC4/RTC_1.h ****     #define RTC_1_10_YEAR_OFFSET    (4u)
 255:Generated_Source\PSoC4/RTC_1.h ****     #define RTC_1_YEAR_OFFSET       (0u)
 256:Generated_Source\PSoC4/RTC_1.h **** #else
 257:Generated_Source\PSoC4/RTC_1.h ****     #define RTC_1_10_MONTH_OFFSET   (12u)
 258:Generated_Source\PSoC4/RTC_1.h ****     #define RTC_1_MONTH_OFFSET      (8u)
 259:Generated_Source\PSoC4/RTC_1.h ****     #define RTC_1_10_DAY_OFFSET     (4u)
 260:Generated_Source\PSoC4/RTC_1.h ****     #define RTC_1_DAY_OFFSET        (0u)
 261:Generated_Source\PSoC4/RTC_1.h ****     #define RTC_1_1000_YEAR_OFFSET  (28u)
ARM GAS  C:\Users\glenn\AppData\Local\Temp\ccftzDgr.s 			page 6


 262:Generated_Source\PSoC4/RTC_1.h ****     #define RTC_1_100_YEAR_OFFSET   (24u)
 263:Generated_Source\PSoC4/RTC_1.h ****     #define RTC_1_10_YEAR_OFFSET    (20u)
 264:Generated_Source\PSoC4/RTC_1.h ****     #define RTC_1_YEAR_OFFSET       (16u)
 265:Generated_Source\PSoC4/RTC_1.h **** #endif /* (RTC_1_INITIAL_DATA_FORMAT == RTC_1__MM_DD_YYYY) */
 266:Generated_Source\PSoC4/RTC_1.h **** 
 267:Generated_Source\PSoC4/RTC_1.h **** #define RTC_1_10_MONTH_MASK          (0x00000001uL << RTC_1_10_MONTH_OFFSET)
 268:Generated_Source\PSoC4/RTC_1.h **** #define RTC_1_MONTH_MASK             (0x0000000FuL << RTC_1_MONTH_OFFSET)
 269:Generated_Source\PSoC4/RTC_1.h **** #define RTC_1_10_DAY_MASK            (0x00000003uL << RTC_1_10_DAY_OFFSET)
 270:Generated_Source\PSoC4/RTC_1.h **** #define RTC_1_DAY_MASK               (0x0000000FuL << RTC_1_DAY_OFFSET)
 271:Generated_Source\PSoC4/RTC_1.h **** #define RTC_1_1000_YEAR_MASK         (0x00000003uL << RTC_1_1000_YEAR_OFFSET)
 272:Generated_Source\PSoC4/RTC_1.h **** #define RTC_1_100_YEAR_MASK          (0x0000000FuL << RTC_1_100_YEAR_OFFSET)
 273:Generated_Source\PSoC4/RTC_1.h **** #define RTC_1_10_YEAR_MASK           (0x0000000FuL << RTC_1_10_YEAR_OFFSET)
 274:Generated_Source\PSoC4/RTC_1.h **** #define RTC_1_YEAR_MASK              (0x0000000FuL << RTC_1_YEAR_OFFSET)
 275:Generated_Source\PSoC4/RTC_1.h **** 
 276:Generated_Source\PSoC4/RTC_1.h **** #define  RTC_1_MONTH_FULL_MASK       (RTC_1_10_MONTH_MASK  | RTC_1_MONTH_MASK)
 277:Generated_Source\PSoC4/RTC_1.h **** #define  RTC_1_DAY_FULL_MASK         (RTC_1_10_DAY_MASK    | RTC_1_DAY_MASK)
 278:Generated_Source\PSoC4/RTC_1.h **** #define  RTC_1_YEAR_FULL_MASK        (RTC_1_1000_YEAR_MASK | RTC_1_100_YEAR_MASK |\
 279:Generated_Source\PSoC4/RTC_1.h ****                                                  RTC_1_10_YEAR_MASK   | RTC_1_YEAR_MASK)
 280:Generated_Source\PSoC4/RTC_1.h **** 
 281:Generated_Source\PSoC4/RTC_1.h **** 
 282:Generated_Source\PSoC4/RTC_1.h **** /* Definition of time register fields */
 283:Generated_Source\PSoC4/RTC_1.h **** #define RTC_1_TIME_FORMAT_OFFSET     (23u)
 284:Generated_Source\PSoC4/RTC_1.h **** #define RTC_1_PERIOD_OF_DAY_OFFSET   (22u)
 285:Generated_Source\PSoC4/RTC_1.h **** #define RTC_1_10_HOURS_OFFSET        (20u)
 286:Generated_Source\PSoC4/RTC_1.h **** #define RTC_1_HOURS_OFFSET           (16u)
 287:Generated_Source\PSoC4/RTC_1.h **** #define RTC_1_10_MINUTES_OFFSET      (12u)
 288:Generated_Source\PSoC4/RTC_1.h **** #define RTC_1_MINUTES_OFFSET         (8u)
 289:Generated_Source\PSoC4/RTC_1.h **** #define RTC_1_10_SECONDS_OFFSET      (4u)
 290:Generated_Source\PSoC4/RTC_1.h **** #define RTC_1_SECONDS_OFFSET         (0u)
 291:Generated_Source\PSoC4/RTC_1.h **** 
 292:Generated_Source\PSoC4/RTC_1.h **** #define RTC_1_TIME_FORMAT_MASK       (0x00000001uL << RTC_1_TIME_FORMAT_OFFSET)
 293:Generated_Source\PSoC4/RTC_1.h **** #define RTC_1_PERIOD_OF_DAY_MASK     (0x00000001uL << RTC_1_PERIOD_OF_DAY_OFFSET)
 294:Generated_Source\PSoC4/RTC_1.h **** #define RTC_1_10_HOURS_MASK          (0x00000003uL << RTC_1_10_HOURS_OFFSET)
 295:Generated_Source\PSoC4/RTC_1.h **** #define RTC_1_HOURS_MASK             (0x0000000FuL << RTC_1_HOURS_OFFSET)
 296:Generated_Source\PSoC4/RTC_1.h **** #define RTC_1_10_MINUTES_MASK        (0x00000007uL << RTC_1_10_MINUTES_OFFSET)
 297:Generated_Source\PSoC4/RTC_1.h **** #define RTC_1_MINUTES_MASK           (0x0000000FuL << RTC_1_MINUTES_OFFSET)
 298:Generated_Source\PSoC4/RTC_1.h **** #define RTC_1_10_SECONDS_MASK        (0x00000007uL << RTC_1_10_SECONDS_OFFSET)
 299:Generated_Source\PSoC4/RTC_1.h **** #define RTC_1_SECONDS_MASK           (0x0000000FuL << RTC_1_SECONDS_OFFSET)
 300:Generated_Source\PSoC4/RTC_1.h **** 
 301:Generated_Source\PSoC4/RTC_1.h **** #define RTC_1_HOURS_FULL_MASK        (RTC_1_10_HOURS_MASK   | RTC_1_HOURS_MASK)
 302:Generated_Source\PSoC4/RTC_1.h **** #define RTC_1_MINUTES_FULL_MASK      (RTC_1_10_MINUTES_MASK | RTC_1_MINUTES_MASK)
 303:Generated_Source\PSoC4/RTC_1.h **** #define RTC_1_SECONDS_FULL_MASK      (RTC_1_10_SECONDS_MASK | RTC_1_SECONDS_MASK)
 304:Generated_Source\PSoC4/RTC_1.h **** 
 305:Generated_Source\PSoC4/RTC_1.h **** #define RTC_1_ALARM_SEC_MASK         (0x00000001uL)
 306:Generated_Source\PSoC4/RTC_1.h **** #define RTC_1_ALARM_MIN_MASK         (0x00000002uL)
 307:Generated_Source\PSoC4/RTC_1.h **** #define RTC_1_ALARM_HOUR_MASK        (0x00000004uL)
 308:Generated_Source\PSoC4/RTC_1.h **** #define RTC_1_ALARM_DAYOFWEEK_MASK   (0x00000008uL)
 309:Generated_Source\PSoC4/RTC_1.h **** #define RTC_1_ALARM_DAYOFMONTH_MASK  (0x00000010uL)
 310:Generated_Source\PSoC4/RTC_1.h **** #define RTC_1_ALARM_MONTH_MASK       (0x00000020uL)
 311:Generated_Source\PSoC4/RTC_1.h **** #define RTC_1_ALARM_YEAR_MASK        (0x00000040uL)
 312:Generated_Source\PSoC4/RTC_1.h **** 
 313:Generated_Source\PSoC4/RTC_1.h **** #define RTC_1_STATUS_DST_OFFSET      (1u)
 314:Generated_Source\PSoC4/RTC_1.h **** #define RTC_1_STATUS_ALARM_OFFSET    (2u)
 315:Generated_Source\PSoC4/RTC_1.h **** #define RTC_1_STATUS_LY_OFFSET       (3u)
 316:Generated_Source\PSoC4/RTC_1.h **** #define RTC_1_STATUS_AM_PM_OFFSET    (4u)
 317:Generated_Source\PSoC4/RTC_1.h **** 
 318:Generated_Source\PSoC4/RTC_1.h **** /* Definition of the RTC status values. */
ARM GAS  C:\Users\glenn\AppData\Local\Temp\ccftzDgr.s 			page 7


 319:Generated_Source\PSoC4/RTC_1.h **** #define RTC_1_STATUS_DST             (1uL << RTC_1_STATUS_DST_OFFSET)
 320:Generated_Source\PSoC4/RTC_1.h **** #define RTC_1_STATUS_LY              (1uL << RTC_1_STATUS_LY_OFFSET)
 321:Generated_Source\PSoC4/RTC_1.h **** #define RTC_1_STATUS_AM_PM           (1uL << RTC_1_STATUS_AM_PM_OFFSET)
 322:Generated_Source\PSoC4/RTC_1.h **** 
 323:Generated_Source\PSoC4/RTC_1.h **** /* Number of bits per one BCD digit. */
 324:Generated_Source\PSoC4/RTC_1.h **** #define RTC_1_BCD_NUMBER_SIZE        (4u)
 325:Generated_Source\PSoC4/RTC_1.h **** #define RTC_1_BCD_ONE_DIGIT_MASK     (0x0000000FuL)
 326:Generated_Source\PSoC4/RTC_1.h **** 
 327:Generated_Source\PSoC4/RTC_1.h **** /*******************************************************************************
 328:Generated_Source\PSoC4/RTC_1.h **** *    Function Prototypes
 329:Generated_Source\PSoC4/RTC_1.h **** *******************************************************************************/
 330:Generated_Source\PSoC4/RTC_1.h **** /**
 331:Generated_Source\PSoC4/RTC_1.h **** * \addtogroup group_api
 332:Generated_Source\PSoC4/RTC_1.h **** * @{
 333:Generated_Source\PSoC4/RTC_1.h **** */
 334:Generated_Source\PSoC4/RTC_1.h **** void   RTC_1_Start(void);
 335:Generated_Source\PSoC4/RTC_1.h **** void   RTC_1_Stop(void);
 336:Generated_Source\PSoC4/RTC_1.h **** void   RTC_1_Init(void);
 337:Generated_Source\PSoC4/RTC_1.h **** void   RTC_1_SetUnixTime(uint64 unixTime);
 338:Generated_Source\PSoC4/RTC_1.h **** uint64 RTC_1_GetUnixTime(void);
 339:Generated_Source\PSoC4/RTC_1.h **** void   RTC_1_SetPeriod(uint32 ticks, uint32 refOneSecTicks);
 340:Generated_Source\PSoC4/RTC_1.h **** uint32 RTC_1_GetPeriod(void);
 341:Generated_Source\PSoC4/RTC_1.h **** uint32 RTC_1_GetRefOneSec(void);
 342:Generated_Source\PSoC4/RTC_1.h **** void   RTC_1_SetDateAndTime(uint32 inputTime, uint32 inputDate);
 343:Generated_Source\PSoC4/RTC_1.h **** void   RTC_1_GetDateAndTime(RTC_1_DATE_TIME* dateTime);
 344:Generated_Source\PSoC4/RTC_1.h **** uint32 RTC_1_GetTime(void);
 345:Generated_Source\PSoC4/RTC_1.h **** uint32 RTC_1_GetDate(void);
 346:Generated_Source\PSoC4/RTC_1.h **** void   RTC_1_SetAlarmDateAndTime(const RTC_1_DATE_TIME* alarmTime);
 347:Generated_Source\PSoC4/RTC_1.h **** void   RTC_1_GetAlarmDateAndTime(RTC_1_DATE_TIME* alarmTimeDate);
 348:Generated_Source\PSoC4/RTC_1.h **** void   RTC_1_SetAlarmMask(uint32 mask);
 349:Generated_Source\PSoC4/RTC_1.h **** uint32 RTC_1_GetAlarmMask(void);
 350:Generated_Source\PSoC4/RTC_1.h **** uint32 RTC_1_ReadStatus(void);
 351:Generated_Source\PSoC4/RTC_1.h **** uint32 RTC_1_GetAlarmStatus(void);
 352:Generated_Source\PSoC4/RTC_1.h **** void   RTC_1_ClearAlarmStatus(void);
 353:Generated_Source\PSoC4/RTC_1.h **** void   RTC_1_SetDSTStartTime(const RTC_1_DST_TIME* dstStartTime,
 354:Generated_Source\PSoC4/RTC_1.h ****                                               RTC_1_DST_DATETYPE_ENUM type);
 355:Generated_Source\PSoC4/RTC_1.h **** void   RTC_1_SetDSTStopTime(const RTC_1_DST_TIME* dstStopTime,
 356:Generated_Source\PSoC4/RTC_1.h ****                                              RTC_1_DST_DATETYPE_ENUM type);
 357:Generated_Source\PSoC4/RTC_1.h **** uint32 RTC_1_ConvertBCDToDec(uint32 bcdNum);
 358:Generated_Source\PSoC4/RTC_1.h **** uint32 RTC_1_ConvertDecToBCD(uint32 decNum);
 359:Generated_Source\PSoC4/RTC_1.h **** void   RTC_1_Update(void);
 360:Generated_Source\PSoC4/RTC_1.h **** void*  RTC_1_SetAlarmHandler(void (*CallbackFunction)(void));
 361:Generated_Source\PSoC4/RTC_1.h **** 
 362:Generated_Source\PSoC4/RTC_1.h **** static uint32 RTC_1_ConstructDate(uint32 month, uint32 day, uint32 year);
 363:Generated_Source\PSoC4/RTC_1.h **** static uint32 RTC_1_ConstructTime(uint32 timeFormat, uint32 stateAmPm, uint32 hour, uint32 min, uin
 364:Generated_Source\PSoC4/RTC_1.h **** /** @} api */
 365:Generated_Source\PSoC4/RTC_1.h **** 
 366:Generated_Source\PSoC4/RTC_1.h **** static uint32 RTC_1_GetTimeFormat(uint32 inputTime);
 367:Generated_Source\PSoC4/RTC_1.h **** static uint32 RTC_1_SetTimeFormat(uint32 inputTime, uint32 timeFormat);
 368:Generated_Source\PSoC4/RTC_1.h **** 
 369:Generated_Source\PSoC4/RTC_1.h **** /**
 370:Generated_Source\PSoC4/RTC_1.h **** * \addtogroup group_api
 371:Generated_Source\PSoC4/RTC_1.h **** * @{
 372:Generated_Source\PSoC4/RTC_1.h **** */
 373:Generated_Source\PSoC4/RTC_1.h **** static uint32 RTC_1_LeapYear(uint32 year);
 374:Generated_Source\PSoC4/RTC_1.h **** static uint32 RTC_1_IsBitSet(uint32 var, uint32 mask);
 375:Generated_Source\PSoC4/RTC_1.h **** static uint32 RTC_1_GetSecond(uint32 inputTime);
ARM GAS  C:\Users\glenn\AppData\Local\Temp\ccftzDgr.s 			page 8


 376:Generated_Source\PSoC4/RTC_1.h **** static uint32 RTC_1_GetMinutes(uint32 inputTime);
 377:Generated_Source\PSoC4/RTC_1.h **** static uint32 RTC_1_GetHours(uint32 inputTime);
 378:Generated_Source\PSoC4/RTC_1.h **** static uint32 RTC_1_GetAmPm(uint32 inputTime);
 379:Generated_Source\PSoC4/RTC_1.h **** static uint32 RTC_1_GetDay(uint32 date);
 380:Generated_Source\PSoC4/RTC_1.h **** static uint32 RTC_1_GetMonth(uint32 date);
 381:Generated_Source\PSoC4/RTC_1.h **** static uint32 RTC_1_GetYear(uint32 date);
 382:Generated_Source\PSoC4/RTC_1.h **** /** @} api */
 383:Generated_Source\PSoC4/RTC_1.h **** 
 384:Generated_Source\PSoC4/RTC_1.h **** static uint32 RTC_1_SetSecond(uint32 inputTime, uint32 inputSecond);
 385:Generated_Source\PSoC4/RTC_1.h **** static uint32 RTC_1_SetMinutes(uint32 inputTime, uint32 inputMinute);
 386:Generated_Source\PSoC4/RTC_1.h **** static uint32 RTC_1_SetHours(uint32 inputTime, uint32 inputHours);
 387:Generated_Source\PSoC4/RTC_1.h **** static uint32 RTC_1_SetAmPm(uint32 inputTime, uint32 periodOfDay);
 388:Generated_Source\PSoC4/RTC_1.h **** static uint32 RTC_1_SetDay(uint32 inputDate, uint32 inputDay);
 389:Generated_Source\PSoC4/RTC_1.h **** static uint32 RTC_1_SetMonth(uint32 inputDate, uint32 inputMonth);
 390:Generated_Source\PSoC4/RTC_1.h **** static uint32 RTC_1_SetYear(uint32 inputDate, uint32 inputYear);
 391:Generated_Source\PSoC4/RTC_1.h **** 
 392:Generated_Source\PSoC4/RTC_1.h **** uint64 RTC_1_ConstructUnixAlarmTime(const RTC_1_DATE_TIME* alarmTime, uint8 alarmCfgMask);
 393:Generated_Source\PSoC4/RTC_1.h **** uint64 RTC_1_GetDstUnixTime(const RTC_1_DST_TIME* dstTime);
 394:Generated_Source\PSoC4/RTC_1.h **** uint64 RTC_1_GetNexAlarmTime(uint64 curUnixTime, uint8 alarmCfgMask);
 395:Generated_Source\PSoC4/RTC_1.h **** 
 396:Generated_Source\PSoC4/RTC_1.h **** static uint32 RTC_1_GetNextMinSec(uint32 curVal);
 397:Generated_Source\PSoC4/RTC_1.h **** static uint32 RTC_1_GetNextHour(uint32 curVal);
 398:Generated_Source\PSoC4/RTC_1.h **** static uint32 RTC_1_GetNextDay(uint32 curYear, uint32 curMonth, uint32 curDay, uint32 alarmCfgMask)
 399:Generated_Source\PSoC4/RTC_1.h **** static uint32 RTC_1_GetNextMonth(uint32 curMonth);
 400:Generated_Source\PSoC4/RTC_1.h **** static uint32 RTC_1_GetNextYear(uint32 curYear);
 401:Generated_Source\PSoC4/RTC_1.h **** static uint32 RTC_1_GetDayOfWeek(uint32 day, uint32 month, uint32 year);
 402:Generated_Source\PSoC4/RTC_1.h **** 
 403:Generated_Source\PSoC4/RTC_1.h **** uint32 RTC_1_DaysInMonth(uint32 month, uint32 year);
 404:Generated_Source\PSoC4/RTC_1.h **** uint32 RTC_1_DaysBeforeMonth(uint32 month, uint32 year);
 405:Generated_Source\PSoC4/RTC_1.h **** 
 406:Generated_Source\PSoC4/RTC_1.h **** /**
 407:Generated_Source\PSoC4/RTC_1.h **** * \addtogroup group_api
 408:Generated_Source\PSoC4/RTC_1.h **** * @{
 409:Generated_Source\PSoC4/RTC_1.h **** */
 410:Generated_Source\PSoC4/RTC_1.h **** void   RTC_1_UnixToDateTime(RTC_1_DATE_TIME* dateTime, uint64 unixTime, uint32 timeFormat);
 411:Generated_Source\PSoC4/RTC_1.h **** uint64 RTC_1_DateTimeToUnix(uint32 inputDate, uint32 inputTime);
 412:Generated_Source\PSoC4/RTC_1.h **** /** @} api */
 413:Generated_Source\PSoC4/RTC_1.h **** 
 414:Generated_Source\PSoC4/RTC_1.h **** uint32 RTC_1_RelativeToFixed(uint32 dayOfWeek, uint32 weekOfMonth, uint32 month, uint32 year);
 415:Generated_Source\PSoC4/RTC_1.h **** 
 416:Generated_Source\PSoC4/RTC_1.h **** 
 417:Generated_Source\PSoC4/RTC_1.h **** #if defined(CYDEV_RTC_SOURCE_WDT)
 418:Generated_Source\PSoC4/RTC_1.h ****     #if((0u != CYDEV_WDT_GENERATE_ISR) && (0u == RTC_1_INITIAL_UPDATE_MODE))
 419:Generated_Source\PSoC4/RTC_1.h ****         static void RTC_1_CySysRtcSetCallback(uint32 wdtNumber);
 420:Generated_Source\PSoC4/RTC_1.h ****         static void RTC_1_CySysRtcResetCallback(uint32 wdtNumber);
 421:Generated_Source\PSoC4/RTC_1.h ****     #endif /* ((0u != CYDEV_WDT_GENERATE_ISR) && (0u == RTC_1_INITIAL_UPDATE_MODE)) */
 422:Generated_Source\PSoC4/RTC_1.h **** #endif /* (CYDEV_RTC_SOURCE_WDT) */
 423:Generated_Source\PSoC4/RTC_1.h **** 
 424:Generated_Source\PSoC4/RTC_1.h **** /*******************************************************************************
 425:Generated_Source\PSoC4/RTC_1.h **** * Function Name: RTC_1_IsBitSet
 426:Generated_Source\PSoC4/RTC_1.h **** ****************************************************************************//**
 427:Generated_Source\PSoC4/RTC_1.h **** *
 428:Generated_Source\PSoC4/RTC_1.h **** * \brief
 429:Generated_Source\PSoC4/RTC_1.h **** *  Checks the state of a bit passed through parameter.
 430:Generated_Source\PSoC4/RTC_1.h **** *
 431:Generated_Source\PSoC4/RTC_1.h **** * \param
 432:Generated_Source\PSoC4/RTC_1.h **** *  var The variable to be checked.
ARM GAS  C:\Users\glenn\AppData\Local\Temp\ccftzDgr.s 			page 9


 433:Generated_Source\PSoC4/RTC_1.h **** * \param
 434:Generated_Source\PSoC4/RTC_1.h **** *  mask The mask for a bit to be checked.
 435:Generated_Source\PSoC4/RTC_1.h **** *
 436:Generated_Source\PSoC4/RTC_1.h **** * \return
 437:Generated_Source\PSoC4/RTC_1.h **** *  0u - Bit is not set.
 438:Generated_Source\PSoC4/RTC_1.h **** * \return
 439:Generated_Source\PSoC4/RTC_1.h **** *  1u - Bit is set.
 440:Generated_Source\PSoC4/RTC_1.h **** *
 441:Generated_Source\PSoC4/RTC_1.h **** *******************************************************************************/
 442:Generated_Source\PSoC4/RTC_1.h **** static CY_INLINE uint32 RTC_1_IsBitSet(uint32 var, uint32 mask)
 443:Generated_Source\PSoC4/RTC_1.h **** {
 444:Generated_Source\PSoC4/RTC_1.h ****     return ((mask == (var & mask)) ? 1Lu : 0Lu);
 445:Generated_Source\PSoC4/RTC_1.h **** }
 446:Generated_Source\PSoC4/RTC_1.h **** 
 447:Generated_Source\PSoC4/RTC_1.h **** 
 448:Generated_Source\PSoC4/RTC_1.h **** /*******************************************************************************
 449:Generated_Source\PSoC4/RTC_1.h **** * Function Name: RTC_1_LeapYear
 450:Generated_Source\PSoC4/RTC_1.h **** ****************************************************************************//**
 451:Generated_Source\PSoC4/RTC_1.h **** *
 452:Generated_Source\PSoC4/RTC_1.h **** * \brief
 453:Generated_Source\PSoC4/RTC_1.h **** * Checks whether the year passed through the parameter is
 454:Generated_Source\PSoC4/RTC_1.h **** * leap or no.
 455:Generated_Source\PSoC4/RTC_1.h **** *
 456:Generated_Source\PSoC4/RTC_1.h **** * \param
 457:Generated_Source\PSoC4/RTC_1.h **** *  year The year to be checked.
 458:Generated_Source\PSoC4/RTC_1.h **** *
 459:Generated_Source\PSoC4/RTC_1.h **** *
 460:Generated_Source\PSoC4/RTC_1.h **** * \return
 461:Generated_Source\PSoC4/RTC_1.h **** *  0u - The year is not leap.
 462:Generated_Source\PSoC4/RTC_1.h **** * \return
 463:Generated_Source\PSoC4/RTC_1.h **** *  1u - The year is leap.
 464:Generated_Source\PSoC4/RTC_1.h **** *
 465:Generated_Source\PSoC4/RTC_1.h **** *******************************************************************************/
 466:Generated_Source\PSoC4/RTC_1.h **** static CY_INLINE uint32 RTC_1_LeapYear(uint32 year)
 467:Generated_Source\PSoC4/RTC_1.h **** {
 468:Generated_Source\PSoC4/RTC_1.h ****     uint32 retVal;
 469:Generated_Source\PSoC4/RTC_1.h **** 
 470:Generated_Source\PSoC4/RTC_1.h ****     if(((0u == (year % 4Lu)) && (0u != (year % 100Lu))) || (0u == (year % 400Lu)))
 471:Generated_Source\PSoC4/RTC_1.h ****     {
 472:Generated_Source\PSoC4/RTC_1.h ****         retVal = 1uL;
 473:Generated_Source\PSoC4/RTC_1.h ****     }
 474:Generated_Source\PSoC4/RTC_1.h ****     else
 475:Generated_Source\PSoC4/RTC_1.h ****     {
 476:Generated_Source\PSoC4/RTC_1.h ****         retVal = 0uL;
 477:Generated_Source\PSoC4/RTC_1.h ****     }
 478:Generated_Source\PSoC4/RTC_1.h **** 
 479:Generated_Source\PSoC4/RTC_1.h ****     return(retVal);
 480:Generated_Source\PSoC4/RTC_1.h **** }
 481:Generated_Source\PSoC4/RTC_1.h **** 
 482:Generated_Source\PSoC4/RTC_1.h **** 
 483:Generated_Source\PSoC4/RTC_1.h **** /*******************************************************************************
 484:Generated_Source\PSoC4/RTC_1.h **** * Function Name: RTC_1_GetSecond
 485:Generated_Source\PSoC4/RTC_1.h **** ****************************************************************************//**
 486:Generated_Source\PSoC4/RTC_1.h **** *
 487:Generated_Source\PSoC4/RTC_1.h **** * \brief
 488:Generated_Source\PSoC4/RTC_1.h **** *  Returns the seconds value from the time value that is passed as a/the parameter.
 489:Generated_Source\PSoC4/RTC_1.h **** *
ARM GAS  C:\Users\glenn\AppData\Local\Temp\ccftzDgr.s 			page 10


 490:Generated_Source\PSoC4/RTC_1.h **** * \param
 491:Generated_Source\PSoC4/RTC_1.h **** *  time The time value.
 492:Generated_Source\PSoC4/RTC_1.h **** *
 493:Generated_Source\PSoC4/RTC_1.h **** * \return
 494:Generated_Source\PSoC4/RTC_1.h **** *  The seconds value.
 495:Generated_Source\PSoC4/RTC_1.h **** *
 496:Generated_Source\PSoC4/RTC_1.h **** *******************************************************************************/
 497:Generated_Source\PSoC4/RTC_1.h **** static CY_INLINE uint32 RTC_1_GetSecond(uint32 inputTime)
 498:Generated_Source\PSoC4/RTC_1.h **** {
  25              		.loc 1 498 0
  26              		.cfi_startproc
  27 0000 80B5     		push	{r7, lr}
  28              		.cfi_def_cfa_offset 8
  29              		.cfi_offset 7, -8
  30              		.cfi_offset 14, -4
  31 0002 84B0     		sub	sp, sp, #16
  32              		.cfi_def_cfa_offset 24
  33 0004 00AF     		add	r7, sp, #0
  34              		.cfi_def_cfa_register 7
  35 0006 7860     		str	r0, [r7, #4]
 499:Generated_Source\PSoC4/RTC_1.h ****     uint32 retVal;
 500:Generated_Source\PSoC4/RTC_1.h **** 
 501:Generated_Source\PSoC4/RTC_1.h ****     retVal  = ((inputTime & RTC_1_10_SECONDS_MASK) >> RTC_1_10_SECONDS_OFFSET) * 10u;
  36              		.loc 1 501 0
  37 0008 7B68     		ldr	r3, [r7, #4]
  38 000a 7022     		mov	r2, #112
  39 000c 1340     		and	r3, r2
  40 000e 1A09     		lsr	r2, r3, #4
  41 0010 131C     		mov	r3, r2
  42 0012 9B00     		lsl	r3, r3, #2
  43 0014 9B18     		add	r3, r3, r2
  44 0016 5B00     		lsl	r3, r3, #1
  45 0018 FB60     		str	r3, [r7, #12]
 502:Generated_Source\PSoC4/RTC_1.h ****     retVal += (inputTime & RTC_1_SECONDS_MASK) >> RTC_1_SECONDS_OFFSET;
  46              		.loc 1 502 0
  47 001a 7B68     		ldr	r3, [r7, #4]
  48 001c 0F22     		mov	r2, #15
  49 001e 1340     		and	r3, r2
  50 0020 FA68     		ldr	r2, [r7, #12]
  51 0022 D318     		add	r3, r2, r3
  52 0024 FB60     		str	r3, [r7, #12]
 503:Generated_Source\PSoC4/RTC_1.h **** 
 504:Generated_Source\PSoC4/RTC_1.h ****     return (retVal);
  53              		.loc 1 504 0
  54 0026 FB68     		ldr	r3, [r7, #12]
 505:Generated_Source\PSoC4/RTC_1.h **** }
  55              		.loc 1 505 0
  56 0028 181C     		mov	r0, r3
  57 002a BD46     		mov	sp, r7
  58 002c 04B0     		add	sp, sp, #16
  59              		@ sp needed
  60 002e 80BD     		pop	{r7, pc}
  61              		.cfi_endproc
  62              	.LFE37:
  63              		.size	RTC_1_GetSecond, .-RTC_1_GetSecond
  64              		.section	.text.RTC_1_GetMinutes,"ax",%progbits
  65              		.align	2
ARM GAS  C:\Users\glenn\AppData\Local\Temp\ccftzDgr.s 			page 11


  66              		.code	16
  67              		.thumb_func
  68              		.type	RTC_1_GetMinutes, %function
  69              	RTC_1_GetMinutes:
  70              	.LFB38:
 506:Generated_Source\PSoC4/RTC_1.h **** 
 507:Generated_Source\PSoC4/RTC_1.h **** 
 508:Generated_Source\PSoC4/RTC_1.h **** /*******************************************************************************
 509:Generated_Source\PSoC4/RTC_1.h **** * Function Name: RTC_1_GetMinutes
 510:Generated_Source\PSoC4/RTC_1.h **** ****************************************************************************//**
 511:Generated_Source\PSoC4/RTC_1.h **** *
 512:Generated_Source\PSoC4/RTC_1.h **** * \brief
 513:Generated_Source\PSoC4/RTC_1.h **** *  Returns the minutes value from the time value that is passed as a/the 
 514:Generated_Source\PSoC4/RTC_1.h **** * parameter.
 515:Generated_Source\PSoC4/RTC_1.h **** *
 516:Generated_Source\PSoC4/RTC_1.h **** * \param
 517:Generated_Source\PSoC4/RTC_1.h **** *  time The time value.
 518:Generated_Source\PSoC4/RTC_1.h **** *
 519:Generated_Source\PSoC4/RTC_1.h **** * \return
 520:Generated_Source\PSoC4/RTC_1.h **** *  The minutes value.
 521:Generated_Source\PSoC4/RTC_1.h **** *
 522:Generated_Source\PSoC4/RTC_1.h **** *******************************************************************************/
 523:Generated_Source\PSoC4/RTC_1.h **** static CY_INLINE uint32 RTC_1_GetMinutes(uint32 inputTime)
 524:Generated_Source\PSoC4/RTC_1.h **** {
  71              		.loc 1 524 0
  72              		.cfi_startproc
  73 0000 80B5     		push	{r7, lr}
  74              		.cfi_def_cfa_offset 8
  75              		.cfi_offset 7, -8
  76              		.cfi_offset 14, -4
  77 0002 84B0     		sub	sp, sp, #16
  78              		.cfi_def_cfa_offset 24
  79 0004 00AF     		add	r7, sp, #0
  80              		.cfi_def_cfa_register 7
  81 0006 7860     		str	r0, [r7, #4]
 525:Generated_Source\PSoC4/RTC_1.h ****     uint32 retVal;
 526:Generated_Source\PSoC4/RTC_1.h **** 
 527:Generated_Source\PSoC4/RTC_1.h ****     retVal  = ((inputTime & RTC_1_10_MINUTES_MASK) >> RTC_1_10_MINUTES_OFFSET) * 10u;
  82              		.loc 1 527 0
  83 0008 7A68     		ldr	r2, [r7, #4]
  84 000a E023     		mov	r3, #224
  85 000c DB01     		lsl	r3, r3, #7
  86 000e 1340     		and	r3, r2
  87 0010 1A0B     		lsr	r2, r3, #12
  88 0012 131C     		mov	r3, r2
  89 0014 9B00     		lsl	r3, r3, #2
  90 0016 9B18     		add	r3, r3, r2
  91 0018 5B00     		lsl	r3, r3, #1
  92 001a FB60     		str	r3, [r7, #12]
 528:Generated_Source\PSoC4/RTC_1.h ****     retVal += (inputTime & RTC_1_MINUTES_MASK) >> RTC_1_MINUTES_OFFSET;
  93              		.loc 1 528 0
  94 001c 7A68     		ldr	r2, [r7, #4]
  95 001e F023     		mov	r3, #240
  96 0020 1B01     		lsl	r3, r3, #4
  97 0022 1340     		and	r3, r2
  98 0024 1B0A     		lsr	r3, r3, #8
  99 0026 FA68     		ldr	r2, [r7, #12]
ARM GAS  C:\Users\glenn\AppData\Local\Temp\ccftzDgr.s 			page 12


 100 0028 D318     		add	r3, r2, r3
 101 002a FB60     		str	r3, [r7, #12]
 529:Generated_Source\PSoC4/RTC_1.h **** 
 530:Generated_Source\PSoC4/RTC_1.h ****     return (retVal);
 102              		.loc 1 530 0
 103 002c FB68     		ldr	r3, [r7, #12]
 531:Generated_Source\PSoC4/RTC_1.h **** }
 104              		.loc 1 531 0
 105 002e 181C     		mov	r0, r3
 106 0030 BD46     		mov	sp, r7
 107 0032 04B0     		add	sp, sp, #16
 108              		@ sp needed
 109 0034 80BD     		pop	{r7, pc}
 110              		.cfi_endproc
 111              	.LFE38:
 112              		.size	RTC_1_GetMinutes, .-RTC_1_GetMinutes
 113 0036 C046     		.section	.text.RTC_1_GetHours,"ax",%progbits
 114              		.align	2
 115              		.code	16
 116              		.thumb_func
 117              		.type	RTC_1_GetHours, %function
 118              	RTC_1_GetHours:
 119              	.LFB39:
 532:Generated_Source\PSoC4/RTC_1.h **** 
 533:Generated_Source\PSoC4/RTC_1.h **** 
 534:Generated_Source\PSoC4/RTC_1.h **** /*******************************************************************************
 535:Generated_Source\PSoC4/RTC_1.h **** * Function Name: RTC_1_GetHours
 536:Generated_Source\PSoC4/RTC_1.h **** ****************************************************************************//**
 537:Generated_Source\PSoC4/RTC_1.h **** *
 538:Generated_Source\PSoC4/RTC_1.h **** * \brief
 539:Generated_Source\PSoC4/RTC_1.h **** *  Returns the hours value from the time value that is passed as a/the parameter.
 540:Generated_Source\PSoC4/RTC_1.h **** *
 541:Generated_Source\PSoC4/RTC_1.h **** * \param
 542:Generated_Source\PSoC4/RTC_1.h **** *  time The time value.
 543:Generated_Source\PSoC4/RTC_1.h **** *
 544:Generated_Source\PSoC4/RTC_1.h **** * \return
 545:Generated_Source\PSoC4/RTC_1.h **** *  The hours value.
 546:Generated_Source\PSoC4/RTC_1.h **** *
 547:Generated_Source\PSoC4/RTC_1.h **** *******************************************************************************/
 548:Generated_Source\PSoC4/RTC_1.h **** static CY_INLINE uint32 RTC_1_GetHours(uint32 inputTime)
 549:Generated_Source\PSoC4/RTC_1.h **** {
 120              		.loc 1 549 0
 121              		.cfi_startproc
 122 0000 80B5     		push	{r7, lr}
 123              		.cfi_def_cfa_offset 8
 124              		.cfi_offset 7, -8
 125              		.cfi_offset 14, -4
 126 0002 84B0     		sub	sp, sp, #16
 127              		.cfi_def_cfa_offset 24
 128 0004 00AF     		add	r7, sp, #0
 129              		.cfi_def_cfa_register 7
 130 0006 7860     		str	r0, [r7, #4]
 550:Generated_Source\PSoC4/RTC_1.h ****     uint32 retVal;
 551:Generated_Source\PSoC4/RTC_1.h **** 
 552:Generated_Source\PSoC4/RTC_1.h ****     retVal  = ((inputTime & RTC_1_10_HOURS_MASK) >> RTC_1_10_HOURS_OFFSET) * 10u;
 131              		.loc 1 552 0
 132 0008 7A68     		ldr	r2, [r7, #4]
ARM GAS  C:\Users\glenn\AppData\Local\Temp\ccftzDgr.s 			page 13


 133 000a C023     		mov	r3, #192
 134 000c 9B03     		lsl	r3, r3, #14
 135 000e 1340     		and	r3, r2
 136 0010 1A0D     		lsr	r2, r3, #20
 137 0012 131C     		mov	r3, r2
 138 0014 9B00     		lsl	r3, r3, #2
 139 0016 9B18     		add	r3, r3, r2
 140 0018 5B00     		lsl	r3, r3, #1
 141 001a FB60     		str	r3, [r7, #12]
 553:Generated_Source\PSoC4/RTC_1.h ****     retVal += (inputTime & RTC_1_HOURS_MASK) >> RTC_1_HOURS_OFFSET;
 142              		.loc 1 553 0
 143 001c 7A68     		ldr	r2, [r7, #4]
 144 001e F023     		mov	r3, #240
 145 0020 1B03     		lsl	r3, r3, #12
 146 0022 1340     		and	r3, r2
 147 0024 1B0C     		lsr	r3, r3, #16
 148 0026 FA68     		ldr	r2, [r7, #12]
 149 0028 D318     		add	r3, r2, r3
 150 002a FB60     		str	r3, [r7, #12]
 554:Generated_Source\PSoC4/RTC_1.h **** 
 555:Generated_Source\PSoC4/RTC_1.h ****     return (retVal);
 151              		.loc 1 555 0
 152 002c FB68     		ldr	r3, [r7, #12]
 556:Generated_Source\PSoC4/RTC_1.h **** }
 153              		.loc 1 556 0
 154 002e 181C     		mov	r0, r3
 155 0030 BD46     		mov	sp, r7
 156 0032 04B0     		add	sp, sp, #16
 157              		@ sp needed
 158 0034 80BD     		pop	{r7, pc}
 159              		.cfi_endproc
 160              	.LFE39:
 161              		.size	RTC_1_GetHours, .-RTC_1_GetHours
 162 0036 C046     		.section	.text.terminate_fn,"ax",%progbits
 163              		.align	2
 164              		.global	terminate_fn
 165              		.code	16
 166              		.thumb_func
 167              		.type	terminate_fn, %function
 168              	terminate_fn:
 169              	.LFB62:
 170              		.file 2 "chain_flow\\cf_runtime_functions.c"
   1:chain_flow/cf_runtime_functions.c **** /*
   2:chain_flow/cf_runtime_functions.c **** 
   3:chain_flow/cf_runtime_functions.c **** File: cf_runtime_functions.c
   4:chain_flow/cf_runtime_functions.c **** Implements of codes for cf_runtime_functions.c
   5:chain_flow/cf_runtime_functions.c **** 
   6:chain_flow/cf_runtime_functions.c **** 
   7:chain_flow/cf_runtime_functions.c **** */
   8:chain_flow/cf_runtime_functions.c **** 
   9:chain_flow/cf_runtime_functions.c **** #include <stdint.h>
  10:chain_flow/cf_runtime_functions.c **** #include <stdlib.h>
  11:chain_flow/cf_runtime_functions.c **** #include <project.h>
  12:chain_flow/cf_runtime_functions.c **** #include "cf_chain_flow_support.h"
  13:chain_flow/cf_runtime_functions.c **** 
  14:chain_flow/cf_runtime_functions.c **** #include "cf_runtime_functions.h"
  15:chain_flow/cf_runtime_functions.c **** #include "cf_events.h"
ARM GAS  C:\Users\glenn\AppData\Local\Temp\ccftzDgr.s 			page 14


  16:chain_flow/cf_runtime_functions.c **** 
  17:chain_flow/cf_runtime_functions.c **** #define NULL_PARAMETER  0xffffffff
  18:chain_flow/cf_runtime_functions.c **** 
  19:chain_flow/cf_runtime_functions.c **** int terminate_fn( unsigned link_id, CF_FUN_AUX param_1, unsigned param_2, 
  20:chain_flow/cf_runtime_functions.c ****     unsigned param_3, unsigned param_4,  unsigned event, unsigned event_data)
  21:chain_flow/cf_runtime_functions.c **** {
 171              		.loc 2 21 0
 172              		.cfi_startproc
 173 0000 80B5     		push	{r7, lr}
 174              		.cfi_def_cfa_offset 8
 175              		.cfi_offset 7, -8
 176              		.cfi_offset 14, -4
 177 0002 84B0     		sub	sp, sp, #16
 178              		.cfi_def_cfa_offset 24
 179 0004 00AF     		add	r7, sp, #0
 180              		.cfi_def_cfa_register 7
 181 0006 F860     		str	r0, [r7, #12]
 182 0008 B960     		str	r1, [r7, #8]
 183 000a 7A60     		str	r2, [r7, #4]
 184 000c 3B60     		str	r3, [r7]
  22:chain_flow/cf_runtime_functions.c ****    return CF_TERMINATE;
 185              		.loc 2 22 0
 186 000e 0423     		mov	r3, #4
  23:chain_flow/cf_runtime_functions.c **** }
 187              		.loc 2 23 0
 188 0010 181C     		mov	r0, r3
 189 0012 BD46     		mov	sp, r7
 190 0014 04B0     		add	sp, sp, #16
 191              		@ sp needed
 192 0016 80BD     		pop	{r7, pc}
 193              		.cfi_endproc
 194              	.LFE62:
 195              		.size	terminate_fn, .-terminate_fn
 196              		.section	.text.halt_fn,"ax",%progbits
 197              		.align	2
 198              		.global	halt_fn
 199              		.code	16
 200              		.thumb_func
 201              		.type	halt_fn, %function
 202              	halt_fn:
 203              	.LFB63:
  24:chain_flow/cf_runtime_functions.c **** 
  25:chain_flow/cf_runtime_functions.c **** 
  26:chain_flow/cf_runtime_functions.c **** int halt_fn( unsigned link_id, CF_FUN_AUX param_1, unsigned param_2, 
  27:chain_flow/cf_runtime_functions.c ****     unsigned param_3, unsigned param_4,  unsigned event, unsigned event_data)
  28:chain_flow/cf_runtime_functions.c **** {
 204              		.loc 2 28 0
 205              		.cfi_startproc
 206 0000 80B5     		push	{r7, lr}
 207              		.cfi_def_cfa_offset 8
 208              		.cfi_offset 7, -8
 209              		.cfi_offset 14, -4
 210 0002 84B0     		sub	sp, sp, #16
 211              		.cfi_def_cfa_offset 24
 212 0004 00AF     		add	r7, sp, #0
 213              		.cfi_def_cfa_register 7
 214 0006 F860     		str	r0, [r7, #12]
ARM GAS  C:\Users\glenn\AppData\Local\Temp\ccftzDgr.s 			page 15


 215 0008 B960     		str	r1, [r7, #8]
 216 000a 7A60     		str	r2, [r7, #4]
 217 000c 3B60     		str	r3, [r7]
  29:chain_flow/cf_runtime_functions.c **** 
  30:chain_flow/cf_runtime_functions.c ****   return CF_HALT;
 218              		.loc 2 30 0
 219 000e 0123     		mov	r3, #1
  31:chain_flow/cf_runtime_functions.c **** }
 220              		.loc 2 31 0
 221 0010 181C     		mov	r0, r3
 222 0012 BD46     		mov	sp, r7
 223 0014 04B0     		add	sp, sp, #16
 224              		@ sp needed
 225 0016 80BD     		pop	{r7, pc}
 226              		.cfi_endproc
 227              	.LFE63:
 228              		.size	halt_fn, .-halt_fn
 229              		.section	.text.reset_fn,"ax",%progbits
 230              		.align	2
 231              		.global	reset_fn
 232              		.code	16
 233              		.thumb_func
 234              		.type	reset_fn, %function
 235              	reset_fn:
 236              	.LFB64:
  32:chain_flow/cf_runtime_functions.c **** 
  33:chain_flow/cf_runtime_functions.c **** 
  34:chain_flow/cf_runtime_functions.c ****  
  35:chain_flow/cf_runtime_functions.c **** int reset_fn( unsigned link_id, CF_FUN_AUX param_1, unsigned param_2, 
  36:chain_flow/cf_runtime_functions.c ****     unsigned param_3, unsigned param_4,  unsigned event, unsigned event_data)
  37:chain_flow/cf_runtime_functions.c **** {
 237              		.loc 2 37 0
 238              		.cfi_startproc
 239 0000 80B5     		push	{r7, lr}
 240              		.cfi_def_cfa_offset 8
 241              		.cfi_offset 7, -8
 242              		.cfi_offset 14, -4
 243 0002 84B0     		sub	sp, sp, #16
 244              		.cfi_def_cfa_offset 24
 245 0004 00AF     		add	r7, sp, #0
 246              		.cfi_def_cfa_register 7
 247 0006 F860     		str	r0, [r7, #12]
 248 0008 B960     		str	r1, [r7, #8]
 249 000a 7A60     		str	r2, [r7, #4]
 250 000c 3B60     		str	r3, [r7]
  38:chain_flow/cf_runtime_functions.c ****    
  39:chain_flow/cf_runtime_functions.c ****    return CF_RESET;
 251              		.loc 2 39 0
 252 000e 0323     		mov	r3, #3
  40:chain_flow/cf_runtime_functions.c **** 
  41:chain_flow/cf_runtime_functions.c **** }
 253              		.loc 2 41 0
 254 0010 181C     		mov	r0, r3
 255 0012 BD46     		mov	sp, r7
 256 0014 04B0     		add	sp, sp, #16
 257              		@ sp needed
 258 0016 80BD     		pop	{r7, pc}
ARM GAS  C:\Users\glenn\AppData\Local\Temp\ccftzDgr.s 			page 16


 259              		.cfi_endproc
 260              	.LFE64:
 261              		.size	reset_fn, .-reset_fn
 262              		.section	.text.one_step_fn,"ax",%progbits
 263              		.align	2
 264              		.global	one_step_fn
 265              		.code	16
 266              		.thumb_func
 267              		.type	one_step_fn, %function
 268              	one_step_fn:
 269              	.LFB65:
  42:chain_flow/cf_runtime_functions.c **** 
  43:chain_flow/cf_runtime_functions.c **** int one_step_fn( unsigned link_id, CF_FUN_AUX param_1, unsigned param_2, 
  44:chain_flow/cf_runtime_functions.c ****     unsigned param_3, unsigned param_4,  unsigned event, unsigned event_data)
  45:chain_flow/cf_runtime_functions.c **** {
 270              		.loc 2 45 0
 271              		.cfi_startproc
 272 0000 B0B5     		push	{r4, r5, r7, lr}
 273              		.cfi_def_cfa_offset 16
 274              		.cfi_offset 4, -16
 275              		.cfi_offset 5, -12
 276              		.cfi_offset 7, -8
 277              		.cfi_offset 14, -4
 278 0002 88B0     		sub	sp, sp, #32
 279              		.cfi_def_cfa_offset 48
 280 0004 02AF     		add	r7, sp, #8
 281              		.cfi_def_cfa 7, 40
 282 0006 F860     		str	r0, [r7, #12]
 283 0008 B960     		str	r1, [r7, #8]
 284 000a 7A60     		str	r2, [r7, #4]
 285 000c 3B60     		str	r3, [r7]
  46:chain_flow/cf_runtime_functions.c ****    int return_value;   
  47:chain_flow/cf_runtime_functions.c ****    
  48:chain_flow/cf_runtime_functions.c ****    if( event!= CF_INIT_EVENT )
 286              		.loc 2 48 0
 287 000e FB6A     		ldr	r3, [r7, #44]
 288 0010 012B     		cmp	r3, #1
 289 0012 0DD0     		beq	.L14
  49:chain_flow/cf_runtime_functions.c ****    {
  50:chain_flow/cf_runtime_functions.c ****       param_1(link_id, param_2,param_3,param_4,event,event_data );
 290              		.loc 2 50 0
 291 0014 F868     		ldr	r0, [r7, #12]
 292 0016 7968     		ldr	r1, [r7, #4]
 293 0018 3A68     		ldr	r2, [r7]
 294 001a BD6A     		ldr	r5, [r7, #40]
 295 001c FB6A     		ldr	r3, [r7, #44]
 296 001e 0093     		str	r3, [sp]
 297 0020 3B6B     		ldr	r3, [r7, #48]
 298 0022 0193     		str	r3, [sp, #4]
 299 0024 BC68     		ldr	r4, [r7, #8]
 300 0026 2B1C     		mov	r3, r5
 301 0028 A047     		blx	r4
  51:chain_flow/cf_runtime_functions.c ****       return_value = CF_DISABLE;
 302              		.loc 2 51 0
 303 002a 0223     		mov	r3, #2
 304 002c 7B61     		str	r3, [r7, #20]
 305 002e 01E0     		b	.L15
ARM GAS  C:\Users\glenn\AppData\Local\Temp\ccftzDgr.s 			page 17


 306              	.L14:
  52:chain_flow/cf_runtime_functions.c ****    }
  53:chain_flow/cf_runtime_functions.c ****    else
  54:chain_flow/cf_runtime_functions.c ****    {
  55:chain_flow/cf_runtime_functions.c ****       return_value = CF_CONTINUE;
 307              		.loc 2 55 0
 308 0030 0023     		mov	r3, #0
 309 0032 7B61     		str	r3, [r7, #20]
 310              	.L15:
  56:chain_flow/cf_runtime_functions.c ****    }
  57:chain_flow/cf_runtime_functions.c ****    return return_value; 
 311              		.loc 2 57 0
 312 0034 7B69     		ldr	r3, [r7, #20]
  58:chain_flow/cf_runtime_functions.c **** }
 313              		.loc 2 58 0
 314 0036 181C     		mov	r0, r3
 315 0038 BD46     		mov	sp, r7
 316 003a 06B0     		add	sp, sp, #24
 317              		@ sp needed
 318 003c B0BD     		pop	{r4, r5, r7, pc}
 319              		.cfi_endproc
 320              	.LFE65:
 321              		.size	one_step_fn, .-one_step_fn
 322 003e C046     		.section	.text.code_step_fn,"ax",%progbits
 323              		.align	2
 324              		.global	code_step_fn
 325              		.code	16
 326              		.thumb_func
 327              		.type	code_step_fn, %function
 328              	code_step_fn:
 329              	.LFB66:
  59:chain_flow/cf_runtime_functions.c **** 
  60:chain_flow/cf_runtime_functions.c **** int code_step_fn( unsigned link_id, CF_FUN_AUX param_1, unsigned param_2, 
  61:chain_flow/cf_runtime_functions.c ****     unsigned param_3, unsigned param_4,  unsigned event, unsigned event_data)
  62:chain_flow/cf_runtime_functions.c **** {
 330              		.loc 2 62 0
 331              		.cfi_startproc
 332 0000 B0B5     		push	{r4, r5, r7, lr}
 333              		.cfi_def_cfa_offset 16
 334              		.cfi_offset 4, -16
 335              		.cfi_offset 5, -12
 336              		.cfi_offset 7, -8
 337              		.cfi_offset 14, -4
 338 0002 86B0     		sub	sp, sp, #24
 339              		.cfi_def_cfa_offset 40
 340 0004 02AF     		add	r7, sp, #8
 341              		.cfi_def_cfa 7, 32
 342 0006 F860     		str	r0, [r7, #12]
 343 0008 B960     		str	r1, [r7, #8]
 344 000a 7A60     		str	r2, [r7, #4]
 345 000c 3B60     		str	r3, [r7]
  63:chain_flow/cf_runtime_functions.c ****    
  64:chain_flow/cf_runtime_functions.c ****    return param_1( link_id, param_2,param_3,param_4,event,event_data );
 346              		.loc 2 64 0
 347 000e F868     		ldr	r0, [r7, #12]
 348 0010 7968     		ldr	r1, [r7, #4]
 349 0012 3A68     		ldr	r2, [r7]
ARM GAS  C:\Users\glenn\AppData\Local\Temp\ccftzDgr.s 			page 18


 350 0014 3D6A     		ldr	r5, [r7, #32]
 351 0016 7B6A     		ldr	r3, [r7, #36]
 352 0018 0093     		str	r3, [sp]
 353 001a BB6A     		ldr	r3, [r7, #40]
 354 001c 0193     		str	r3, [sp, #4]
 355 001e BC68     		ldr	r4, [r7, #8]
 356 0020 2B1C     		mov	r3, r5
 357 0022 A047     		blx	r4
 358 0024 031C     		mov	r3, r0
  65:chain_flow/cf_runtime_functions.c **** 
  66:chain_flow/cf_runtime_functions.c **** }
 359              		.loc 2 66 0
 360 0026 181C     		mov	r0, r3
 361 0028 BD46     		mov	sp, r7
 362 002a 04B0     		add	sp, sp, #16
 363              		@ sp needed
 364 002c B0BD     		pop	{r4, r5, r7, pc}
 365              		.cfi_endproc
 366              	.LFE66:
 367              		.size	code_step_fn, .-code_step_fn
 368 002e C046     		.section	.text.send_event_fn,"ax",%progbits
 369              		.align	2
 370              		.global	send_event_fn
 371              		.code	16
 372              		.thumb_func
 373              		.type	send_event_fn, %function
 374              	send_event_fn:
 375              	.LFB67:
  67:chain_flow/cf_runtime_functions.c **** 
  68:chain_flow/cf_runtime_functions.c **** 
  69:chain_flow/cf_runtime_functions.c **** int send_event_fn( unsigned link_id, CF_FUN_AUX param_1, unsigned param_2, 
  70:chain_flow/cf_runtime_functions.c ****     unsigned param_3, unsigned param_4,  unsigned event, unsigned event_data)
  71:chain_flow/cf_runtime_functions.c **** {
 376              		.loc 2 71 0
 377              		.cfi_startproc
 378 0000 80B5     		push	{r7, lr}
 379              		.cfi_def_cfa_offset 8
 380              		.cfi_offset 7, -8
 381              		.cfi_offset 14, -4
 382 0002 84B0     		sub	sp, sp, #16
 383              		.cfi_def_cfa_offset 24
 384 0004 00AF     		add	r7, sp, #0
 385              		.cfi_def_cfa_register 7
 386 0006 F860     		str	r0, [r7, #12]
 387 0008 B960     		str	r1, [r7, #8]
 388 000a 7A60     		str	r2, [r7, #4]
 389 000c 3B60     		str	r3, [r7]
  72:chain_flow/cf_runtime_functions.c ****  
  73:chain_flow/cf_runtime_functions.c ****    if( event== CF_INIT_EVENT )
 390              		.loc 2 73 0
 391 000e FB69     		ldr	r3, [r7, #28]
 392 0010 012B     		cmp	r3, #1
 393 0012 05D1     		bne	.L20
  74:chain_flow/cf_runtime_functions.c ****    {
  75:chain_flow/cf_runtime_functions.c ****       cf_send_event( param_2, param_3 );
 394              		.loc 2 75 0
 395 0014 7A68     		ldr	r2, [r7, #4]
ARM GAS  C:\Users\glenn\AppData\Local\Temp\ccftzDgr.s 			page 19


 396 0016 3B68     		ldr	r3, [r7]
 397 0018 101C     		mov	r0, r2
 398 001a 191C     		mov	r1, r3
 399 001c FFF7FEFF 		bl	cf_send_event
 400              	.L20:
  76:chain_flow/cf_runtime_functions.c ****    }
  77:chain_flow/cf_runtime_functions.c ****    return CF_DISABLE;
 401              		.loc 2 77 0
 402 0020 0223     		mov	r3, #2
  78:chain_flow/cf_runtime_functions.c **** }
 403              		.loc 2 78 0
 404 0022 181C     		mov	r0, r3
 405 0024 BD46     		mov	sp, r7
 406 0026 04B0     		add	sp, sp, #16
 407              		@ sp needed
 408 0028 80BD     		pop	{r7, pc}
 409              		.cfi_endproc
 410              	.LFE67:
 411              		.size	send_event_fn, .-send_event_fn
 412 002a C046     		.section	.text.wait_tod_fn,"ax",%progbits
 413              		.align	2
 414              		.global	wait_tod_fn
 415              		.code	16
 416              		.thumb_func
 417              		.type	wait_tod_fn, %function
 418              	wait_tod_fn:
 419              	.LFB68:
  79:chain_flow/cf_runtime_functions.c **** 
  80:chain_flow/cf_runtime_functions.c **** 
  81:chain_flow/cf_runtime_functions.c **** int wait_tod_fn( unsigned link_id, CF_FUN_AUX param_1, unsigned param_2, 
  82:chain_flow/cf_runtime_functions.c ****     unsigned param_3, unsigned param_4,  unsigned event, unsigned event_data)
  83:chain_flow/cf_runtime_functions.c **** {
 420              		.loc 2 83 0
 421              		.cfi_startproc
 422 0000 80B5     		push	{r7, lr}
 423              		.cfi_def_cfa_offset 8
 424              		.cfi_offset 7, -8
 425              		.cfi_offset 14, -4
 426 0002 86B0     		sub	sp, sp, #24
 427              		.cfi_def_cfa_offset 32
 428 0004 00AF     		add	r7, sp, #0
 429              		.cfi_def_cfa_register 7
 430 0006 F860     		str	r0, [r7, #12]
 431 0008 B960     		str	r1, [r7, #8]
 432 000a 7A60     		str	r2, [r7, #4]
 433 000c 3B60     		str	r3, [r7]
  84:chain_flow/cf_runtime_functions.c ****    uint32 time;
  85:chain_flow/cf_runtime_functions.c ****    time = RTC_1_GetTime();
 434              		.loc 2 85 0
 435 000e FFF7FEFF 		bl	RTC_1_GetTime
 436 0012 031C     		mov	r3, r0
 437 0014 7B61     		str	r3, [r7, #20]
  86:chain_flow/cf_runtime_functions.c ****  
  87:chain_flow/cf_runtime_functions.c ****    // check hour
  88:chain_flow/cf_runtime_functions.c ****    if( ( param_2 == NULL_PARAMETER ) || ( param_2 == RTC_1_GetHours(time) ))
 438              		.loc 2 88 0
 439 0016 7B68     		ldr	r3, [r7, #4]
ARM GAS  C:\Users\glenn\AppData\Local\Temp\ccftzDgr.s 			page 20


 440 0018 0133     		add	r3, r3, #1
 441 001a 07D0     		beq	.L23
 442              		.loc 2 88 0 is_stmt 0 discriminator 1
 443 001c 7B69     		ldr	r3, [r7, #20]
 444 001e 181C     		mov	r0, r3
 445 0020 FFF7FEFF 		bl	RTC_1_GetHours
 446 0024 021E     		sub	r2, r0, #0
 447 0026 7B68     		ldr	r3, [r7, #4]
 448 0028 9A42     		cmp	r2, r3
 449 002a 17D1     		bne	.L24
 450              	.L23:
  89:chain_flow/cf_runtime_functions.c ****    {
  90:chain_flow/cf_runtime_functions.c ****      if( ( param_3 == NULL_PARAMETER ) || ( param_3 == RTC_1_GetMinutes(time) ))
 451              		.loc 2 90 0 is_stmt 1
 452 002c 3B68     		ldr	r3, [r7]
 453 002e 0133     		add	r3, r3, #1
 454 0030 07D0     		beq	.L25
 455              		.loc 2 90 0 is_stmt 0 discriminator 1
 456 0032 7B69     		ldr	r3, [r7, #20]
 457 0034 181C     		mov	r0, r3
 458 0036 FFF7FEFF 		bl	RTC_1_GetMinutes
 459 003a 021E     		sub	r2, r0, #0
 460 003c 3B68     		ldr	r3, [r7]
 461 003e 9A42     		cmp	r2, r3
 462 0040 0CD1     		bne	.L24
 463              	.L25:
  91:chain_flow/cf_runtime_functions.c ****      {
  92:chain_flow/cf_runtime_functions.c ****        if( ( param_4 == NULL_PARAMETER ) || ( param_4 == RTC_1_GetSecond(time)))
 464              		.loc 2 92 0 is_stmt 1
 465 0042 3B6A     		ldr	r3, [r7, #32]
 466 0044 0133     		add	r3, r3, #1
 467 0046 07D0     		beq	.L26
 468              		.loc 2 92 0 is_stmt 0 discriminator 1
 469 0048 7B69     		ldr	r3, [r7, #20]
 470 004a 181C     		mov	r0, r3
 471 004c FFF7FEFF 		bl	RTC_1_GetSecond
 472 0050 021E     		sub	r2, r0, #0
 473 0052 3B6A     		ldr	r3, [r7, #32]
 474 0054 9A42     		cmp	r2, r3
 475 0056 01D1     		bne	.L24
 476              	.L26:
  93:chain_flow/cf_runtime_functions.c ****        {
  94:chain_flow/cf_runtime_functions.c ****           return CF_DISABLE;
 477              		.loc 2 94 0 is_stmt 1
 478 0058 0223     		mov	r3, #2
 479 005a 00E0     		b	.L27
 480              	.L24:
  95:chain_flow/cf_runtime_functions.c ****        }
  96:chain_flow/cf_runtime_functions.c ****      }
  97:chain_flow/cf_runtime_functions.c ****    }
  98:chain_flow/cf_runtime_functions.c ****     return CF_HALT;  // implemented on specific system
 481              		.loc 2 98 0
 482 005c 0123     		mov	r3, #1
 483              	.L27:
  99:chain_flow/cf_runtime_functions.c **** 
 100:chain_flow/cf_runtime_functions.c **** }
 484              		.loc 2 100 0
ARM GAS  C:\Users\glenn\AppData\Local\Temp\ccftzDgr.s 			page 21


 485 005e 181C     		mov	r0, r3
 486 0060 BD46     		mov	sp, r7
 487 0062 06B0     		add	sp, sp, #24
 488              		@ sp needed
 489 0064 80BD     		pop	{r7, pc}
 490              		.cfi_endproc
 491              	.LFE68:
 492              		.size	wait_tod_fn, .-wait_tod_fn
 493 0066 C046     		.section	.text.wait_event_count_fn,"ax",%progbits
 494              		.align	2
 495              		.global	wait_event_count_fn
 496              		.code	16
 497              		.thumb_func
 498              		.type	wait_event_count_fn, %function
 499              	wait_event_count_fn:
 500              	.LFB69:
 101:chain_flow/cf_runtime_functions.c **** 
 102:chain_flow/cf_runtime_functions.c **** 
 103:chain_flow/cf_runtime_functions.c **** int wait_event_count_fn( unsigned link_id, CF_FUN_AUX param_1, unsigned rx_event, 
 104:chain_flow/cf_runtime_functions.c ****     unsigned rx_event_count, unsigned param_4,  unsigned event, unsigned event_data)
 105:chain_flow/cf_runtime_functions.c **** {
 501              		.loc 2 105 0
 502              		.cfi_startproc
 503 0000 80B5     		push	{r7, lr}
 504              		.cfi_def_cfa_offset 8
 505              		.cfi_offset 7, -8
 506              		.cfi_offset 14, -4
 507 0002 86B0     		sub	sp, sp, #24
 508              		.cfi_def_cfa_offset 32
 509 0004 00AF     		add	r7, sp, #0
 510              		.cfi_def_cfa_register 7
 511 0006 F860     		str	r0, [r7, #12]
 512 0008 B960     		str	r1, [r7, #8]
 513 000a 7A60     		str	r2, [r7, #4]
 514 000c 3B60     		str	r3, [r7]
 106:chain_flow/cf_runtime_functions.c ****   unsigned value; 
 107:chain_flow/cf_runtime_functions.c ****   int      return_value;
 108:chain_flow/cf_runtime_functions.c ****   if( event == CF_INIT_EVENT )
 515              		.loc 2 108 0
 516 000e 7B6A     		ldr	r3, [r7, #36]
 517 0010 012B     		cmp	r3, #1
 518 0012 06D1     		bne	.L29
 109:chain_flow/cf_runtime_functions.c ****   {
 110:chain_flow/cf_runtime_functions.c ****        cf_store_cell_value( link_id , 0 );
 519              		.loc 2 110 0
 520 0014 FB68     		ldr	r3, [r7, #12]
 521 0016 181C     		mov	r0, r3
 522 0018 0021     		mov	r1, #0
 523 001a FFF7FEFF 		bl	cf_store_cell_value
 111:chain_flow/cf_runtime_functions.c ****        return_value = CF_CONTINUE;
 524              		.loc 2 111 0
 525 001e 0023     		mov	r3, #0
 526 0020 7B61     		str	r3, [r7, #20]
 527              	.L29:
 112:chain_flow/cf_runtime_functions.c **** 
 113:chain_flow/cf_runtime_functions.c ****   }
 114:chain_flow/cf_runtime_functions.c ****    if( event == rx_event )
ARM GAS  C:\Users\glenn\AppData\Local\Temp\ccftzDgr.s 			page 22


 528              		.loc 2 114 0
 529 0022 7A6A     		ldr	r2, [r7, #36]
 530 0024 7B68     		ldr	r3, [r7, #4]
 531 0026 9A42     		cmp	r2, r3
 532 0028 18D1     		bne	.L30
 115:chain_flow/cf_runtime_functions.c ****    {
 116:chain_flow/cf_runtime_functions.c ****        value = cf_get_cell_value( link_id );
 533              		.loc 2 116 0
 534 002a FB68     		ldr	r3, [r7, #12]
 535 002c 181C     		mov	r0, r3
 536 002e FFF7FEFF 		bl	cf_get_cell_value
 537 0032 031C     		mov	r3, r0
 538 0034 3B61     		str	r3, [r7, #16]
 117:chain_flow/cf_runtime_functions.c ****        value += 1;
 539              		.loc 2 117 0
 540 0036 3B69     		ldr	r3, [r7, #16]
 541 0038 0133     		add	r3, r3, #1
 542 003a 3B61     		str	r3, [r7, #16]
 118:chain_flow/cf_runtime_functions.c ****        cf_store_cell_value(link_id, value);
 543              		.loc 2 118 0
 544 003c FA68     		ldr	r2, [r7, #12]
 545 003e 3B69     		ldr	r3, [r7, #16]
 546 0040 101C     		mov	r0, r2
 547 0042 191C     		mov	r1, r3
 548 0044 FFF7FEFF 		bl	cf_store_cell_value
 119:chain_flow/cf_runtime_functions.c ****        if( value >= rx_event_count )
 549              		.loc 2 119 0
 550 0048 3A69     		ldr	r2, [r7, #16]
 551 004a 3B68     		ldr	r3, [r7]
 552 004c 9A42     		cmp	r2, r3
 553 004e 02D3     		bcc	.L31
 120:chain_flow/cf_runtime_functions.c ****        {
 121:chain_flow/cf_runtime_functions.c ****           return_value = CF_DISABLE;
 554              		.loc 2 121 0
 555 0050 0223     		mov	r3, #2
 556 0052 7B61     		str	r3, [r7, #20]
 557 0054 04E0     		b	.L33
 558              	.L31:
 122:chain_flow/cf_runtime_functions.c ****        }
 123:chain_flow/cf_runtime_functions.c ****        else
 124:chain_flow/cf_runtime_functions.c ****        {
 125:chain_flow/cf_runtime_functions.c **** 	   return_value = CF_HALT;
 559              		.loc 2 125 0
 560 0056 0123     		mov	r3, #1
 561 0058 7B61     		str	r3, [r7, #20]
 562 005a 01E0     		b	.L33
 563              	.L30:
 126:chain_flow/cf_runtime_functions.c ****        }
 127:chain_flow/cf_runtime_functions.c ****    }
 128:chain_flow/cf_runtime_functions.c ****    else
 129:chain_flow/cf_runtime_functions.c ****    {
 130:chain_flow/cf_runtime_functions.c ****       return_value = CF_HALT;
 564              		.loc 2 130 0
 565 005c 0123     		mov	r3, #1
 566 005e 7B61     		str	r3, [r7, #20]
 567              	.L33:
 131:chain_flow/cf_runtime_functions.c ****    }
ARM GAS  C:\Users\glenn\AppData\Local\Temp\ccftzDgr.s 			page 23


 132:chain_flow/cf_runtime_functions.c ****    return return_value;   
 568              		.loc 2 132 0
 569 0060 7B69     		ldr	r3, [r7, #20]
 133:chain_flow/cf_runtime_functions.c **** 
 134:chain_flow/cf_runtime_functions.c **** }
 570              		.loc 2 134 0
 571 0062 181C     		mov	r0, r3
 572 0064 BD46     		mov	sp, r7
 573 0066 06B0     		add	sp, sp, #24
 574              		@ sp needed
 575 0068 80BD     		pop	{r7, pc}
 576              		.cfi_endproc
 577              	.LFE69:
 578              		.size	wait_event_count_fn, .-wait_event_count_fn
 579 006a C046     		.section	.text.wait_event_fn,"ax",%progbits
 580              		.align	2
 581              		.global	wait_event_fn
 582              		.code	16
 583              		.thumb_func
 584              		.type	wait_event_fn, %function
 585              	wait_event_fn:
 586              	.LFB70:
 135:chain_flow/cf_runtime_functions.c **** 
 136:chain_flow/cf_runtime_functions.c ****   
 137:chain_flow/cf_runtime_functions.c **** int wait_event_fn( unsigned link_id, CF_FUN_AUX param_1, unsigned rx_event, 
 138:chain_flow/cf_runtime_functions.c ****     unsigned time_count, unsigned param_4,  unsigned event, unsigned event_data)
 139:chain_flow/cf_runtime_functions.c **** {
 587              		.loc 2 139 0
 588              		.cfi_startproc
 589 0000 80B5     		push	{r7, lr}
 590              		.cfi_def_cfa_offset 8
 591              		.cfi_offset 7, -8
 592              		.cfi_offset 14, -4
 593 0002 86B0     		sub	sp, sp, #24
 594              		.cfi_def_cfa_offset 32
 595 0004 00AF     		add	r7, sp, #0
 596              		.cfi_def_cfa_register 7
 597 0006 F860     		str	r0, [r7, #12]
 598 0008 B960     		str	r1, [r7, #8]
 599 000a 7A60     		str	r2, [r7, #4]
 600 000c 3B60     		str	r3, [r7]
 140:chain_flow/cf_runtime_functions.c ****    int       return_value;
 141:chain_flow/cf_runtime_functions.c ****    unsigned  value;
 142:chain_flow/cf_runtime_functions.c ****    if( event == CF_INIT_EVENT )
 601              		.loc 2 142 0
 602 000e 7B6A     		ldr	r3, [r7, #36]
 603 0010 012B     		cmp	r3, #1
 604 0012 06D1     		bne	.L36
 143:chain_flow/cf_runtime_functions.c ****   {
 144:chain_flow/cf_runtime_functions.c ****        cf_store_cell_value( link_id , 0 );
 605              		.loc 2 144 0
 606 0014 FB68     		ldr	r3, [r7, #12]
 607 0016 181C     		mov	r0, r3
 608 0018 0021     		mov	r1, #0
 609 001a FFF7FEFF 		bl	cf_store_cell_value
 145:chain_flow/cf_runtime_functions.c ****        return CF_CONTINUE;
 610              		.loc 2 145 0
ARM GAS  C:\Users\glenn\AppData\Local\Temp\ccftzDgr.s 			page 24


 611 001e 0023     		mov	r3, #0
 612 0020 2AE0     		b	.L37
 613              	.L36:
 146:chain_flow/cf_runtime_functions.c **** 
 147:chain_flow/cf_runtime_functions.c ****   }
 148:chain_flow/cf_runtime_functions.c **** 	
 149:chain_flow/cf_runtime_functions.c ****    if( event == rx_event )
 614              		.loc 2 149 0
 615 0022 7A6A     		ldr	r2, [r7, #36]
 616 0024 7B68     		ldr	r3, [r7, #4]
 617 0026 9A42     		cmp	r2, r3
 618 0028 01D1     		bne	.L38
 150:chain_flow/cf_runtime_functions.c ****    {
 151:chain_flow/cf_runtime_functions.c ****       return CF_DISABLE;
 619              		.loc 2 151 0
 620 002a 0223     		mov	r3, #2
 621 002c 24E0     		b	.L37
 622              	.L38:
 152:chain_flow/cf_runtime_functions.c ****    }
 153:chain_flow/cf_runtime_functions.c ****   else if( event == CF_TIME_TICK_EVENT )
 623              		.loc 2 153 0
 624 002e 7B6A     		ldr	r3, [r7, #36]
 625 0030 022B     		cmp	r3, #2
 626 0032 1ED1     		bne	.L39
 154:chain_flow/cf_runtime_functions.c ****   {
 155:chain_flow/cf_runtime_functions.c ****     if( time_count > 0 )
 627              		.loc 2 155 0
 628 0034 3B68     		ldr	r3, [r7]
 629 0036 002B     		cmp	r3, #0
 630 0038 19D0     		beq	.L40
 156:chain_flow/cf_runtime_functions.c ****     {
 157:chain_flow/cf_runtime_functions.c ****          value = cf_get_cell_value( link_id );
 631              		.loc 2 157 0
 632 003a FB68     		ldr	r3, [r7, #12]
 633 003c 181C     		mov	r0, r3
 634 003e FFF7FEFF 		bl	cf_get_cell_value
 635 0042 031C     		mov	r3, r0
 636 0044 3B61     		str	r3, [r7, #16]
 158:chain_flow/cf_runtime_functions.c ****          value += event_data;
 637              		.loc 2 158 0
 638 0046 3A69     		ldr	r2, [r7, #16]
 639 0048 BB6A     		ldr	r3, [r7, #40]
 640 004a D318     		add	r3, r2, r3
 641 004c 3B61     		str	r3, [r7, #16]
 159:chain_flow/cf_runtime_functions.c ****          cf_store_cell_value(link_id, value);
 642              		.loc 2 159 0
 643 004e FA68     		ldr	r2, [r7, #12]
 644 0050 3B69     		ldr	r3, [r7, #16]
 645 0052 101C     		mov	r0, r2
 646 0054 191C     		mov	r1, r3
 647 0056 FFF7FEFF 		bl	cf_store_cell_value
 160:chain_flow/cf_runtime_functions.c **** 
 161:chain_flow/cf_runtime_functions.c ****          if( value >= time_count )
 648              		.loc 2 161 0
 649 005a 3A69     		ldr	r2, [r7, #16]
 650 005c 3B68     		ldr	r3, [r7]
 651 005e 9A42     		cmp	r2, r3
ARM GAS  C:\Users\glenn\AppData\Local\Temp\ccftzDgr.s 			page 25


 652 0060 02D3     		bcc	.L41
 162:chain_flow/cf_runtime_functions.c ****          {
 163:chain_flow/cf_runtime_functions.c ****              return_value = CF_RESET;
 653              		.loc 2 163 0
 654 0062 0323     		mov	r3, #3
 655 0064 7B61     		str	r3, [r7, #20]
 656 0066 06E0     		b	.L43
 657              	.L41:
 164:chain_flow/cf_runtime_functions.c ****           }
 165:chain_flow/cf_runtime_functions.c ****           else
 166:chain_flow/cf_runtime_functions.c ****           {
 167:chain_flow/cf_runtime_functions.c **** 		      return_value = CF_HALT;
 658              		.loc 2 167 0
 659 0068 0123     		mov	r3, #1
 660 006a 7B61     		str	r3, [r7, #20]
 661 006c 03E0     		b	.L43
 662              	.L40:
 168:chain_flow/cf_runtime_functions.c ****           }
 169:chain_flow/cf_runtime_functions.c **** 	  }
 170:chain_flow/cf_runtime_functions.c ****       else
 171:chain_flow/cf_runtime_functions.c ****       {
 172:chain_flow/cf_runtime_functions.c ****         return CF_HALT;
 663              		.loc 2 172 0
 664 006e 0123     		mov	r3, #1
 665 0070 02E0     		b	.L37
 666              	.L39:
 173:chain_flow/cf_runtime_functions.c ****       }
 174:chain_flow/cf_runtime_functions.c ****    }  
 175:chain_flow/cf_runtime_functions.c ****    else
 176:chain_flow/cf_runtime_functions.c ****    {
 177:chain_flow/cf_runtime_functions.c **** 	
 178:chain_flow/cf_runtime_functions.c ****       return_value = CF_HALT;
 667              		.loc 2 178 0
 668 0072 0123     		mov	r3, #1
 669 0074 7B61     		str	r3, [r7, #20]
 670              	.L43:
 179:chain_flow/cf_runtime_functions.c ****    }
 180:chain_flow/cf_runtime_functions.c ****    return return_value;   
 671              		.loc 2 180 0
 672 0076 7B69     		ldr	r3, [r7, #20]
 673              	.L37:
 181:chain_flow/cf_runtime_functions.c **** 
 182:chain_flow/cf_runtime_functions.c **** }
 674              		.loc 2 182 0
 675 0078 181C     		mov	r0, r3
 676 007a BD46     		mov	sp, r7
 677 007c 06B0     		add	sp, sp, #24
 678              		@ sp needed
 679 007e 80BD     		pop	{r7, pc}
 680              		.cfi_endproc
 681              	.LFE70:
 682              		.size	wait_event_fn, .-wait_event_fn
 683              		.section	.text.wait_time_fn,"ax",%progbits
 684              		.align	2
 685              		.global	wait_time_fn
 686              		.code	16
 687              		.thumb_func
ARM GAS  C:\Users\glenn\AppData\Local\Temp\ccftzDgr.s 			page 26


 688              		.type	wait_time_fn, %function
 689              	wait_time_fn:
 690              	.LFB71:
 183:chain_flow/cf_runtime_functions.c **** 
 184:chain_flow/cf_runtime_functions.c **** 
 185:chain_flow/cf_runtime_functions.c **** 
 186:chain_flow/cf_runtime_functions.c **** int wait_time_fn( unsigned link_id, CF_FUN_AUX param_1, unsigned param_2, 
 187:chain_flow/cf_runtime_functions.c ****     unsigned param_3, unsigned param_4,  unsigned event, unsigned event_data)
 188:chain_flow/cf_runtime_functions.c **** {
 691              		.loc 2 188 0
 692              		.cfi_startproc
 693 0000 80B5     		push	{r7, lr}
 694              		.cfi_def_cfa_offset 8
 695              		.cfi_offset 7, -8
 696              		.cfi_offset 14, -4
 697 0002 86B0     		sub	sp, sp, #24
 698              		.cfi_def_cfa_offset 32
 699 0004 00AF     		add	r7, sp, #0
 700              		.cfi_def_cfa_register 7
 701 0006 F860     		str	r0, [r7, #12]
 702 0008 B960     		str	r1, [r7, #8]
 703 000a 7A60     		str	r2, [r7, #4]
 704 000c 3B60     		str	r3, [r7]
 189:chain_flow/cf_runtime_functions.c ****   int return_value;
 190:chain_flow/cf_runtime_functions.c ****   unsigned value;
 191:chain_flow/cf_runtime_functions.c ****   
 192:chain_flow/cf_runtime_functions.c ****   if( event == CF_INIT_EVENT )
 705              		.loc 2 192 0
 706 000e 7B6A     		ldr	r3, [r7, #36]
 707 0010 012B     		cmp	r3, #1
 708 0012 06D1     		bne	.L45
 193:chain_flow/cf_runtime_functions.c ****   {
 194:chain_flow/cf_runtime_functions.c ****        cf_store_cell_value( link_id , 0 );
 709              		.loc 2 194 0
 710 0014 FB68     		ldr	r3, [r7, #12]
 711 0016 181C     		mov	r0, r3
 712 0018 0021     		mov	r1, #0
 713 001a FFF7FEFF 		bl	cf_store_cell_value
 195:chain_flow/cf_runtime_functions.c ****        return CF_CONTINUE;
 714              		.loc 2 195 0
 715 001e 0023     		mov	r3, #0
 716 0020 1FE0     		b	.L46
 717              	.L45:
 196:chain_flow/cf_runtime_functions.c **** 
 197:chain_flow/cf_runtime_functions.c ****   }
 198:chain_flow/cf_runtime_functions.c ****   else if( event == CF_TIME_TICK_EVENT )
 718              		.loc 2 198 0
 719 0022 7B6A     		ldr	r3, [r7, #36]
 720 0024 022B     		cmp	r3, #2
 721 0026 19D1     		bne	.L47
 199:chain_flow/cf_runtime_functions.c ****   {
 200:chain_flow/cf_runtime_functions.c ****      value = cf_get_cell_value( link_id );
 722              		.loc 2 200 0
 723 0028 FB68     		ldr	r3, [r7, #12]
 724 002a 181C     		mov	r0, r3
 725 002c FFF7FEFF 		bl	cf_get_cell_value
 726 0030 031C     		mov	r3, r0
ARM GAS  C:\Users\glenn\AppData\Local\Temp\ccftzDgr.s 			page 27


 727 0032 3B61     		str	r3, [r7, #16]
 201:chain_flow/cf_runtime_functions.c ****      value += event_data;
 728              		.loc 2 201 0
 729 0034 3A69     		ldr	r2, [r7, #16]
 730 0036 BB6A     		ldr	r3, [r7, #40]
 731 0038 D318     		add	r3, r2, r3
 732 003a 3B61     		str	r3, [r7, #16]
 202:chain_flow/cf_runtime_functions.c ****      cf_store_cell_value(link_id, value);
 733              		.loc 2 202 0
 734 003c FA68     		ldr	r2, [r7, #12]
 735 003e 3B69     		ldr	r3, [r7, #16]
 736 0040 101C     		mov	r0, r2
 737 0042 191C     		mov	r1, r3
 738 0044 FFF7FEFF 		bl	cf_store_cell_value
 203:chain_flow/cf_runtime_functions.c **** 
 204:chain_flow/cf_runtime_functions.c ****      if( value >= param_2 )
 739              		.loc 2 204 0
 740 0048 3A69     		ldr	r2, [r7, #16]
 741 004a 7B68     		ldr	r3, [r7, #4]
 742 004c 9A42     		cmp	r2, r3
 743 004e 02D3     		bcc	.L48
 205:chain_flow/cf_runtime_functions.c ****      {
 206:chain_flow/cf_runtime_functions.c ****        return_value = CF_DISABLE;
 744              		.loc 2 206 0
 745 0050 0223     		mov	r3, #2
 746 0052 7B61     		str	r3, [r7, #20]
 747 0054 04E0     		b	.L50
 748              	.L48:
 207:chain_flow/cf_runtime_functions.c ****      }
 208:chain_flow/cf_runtime_functions.c ****      else
 209:chain_flow/cf_runtime_functions.c ****      {
 210:chain_flow/cf_runtime_functions.c ****         return_value = CF_HALT;
 749              		.loc 2 210 0
 750 0056 0123     		mov	r3, #1
 751 0058 7B61     		str	r3, [r7, #20]
 752 005a 01E0     		b	.L50
 753              	.L47:
 211:chain_flow/cf_runtime_functions.c ****      }
 212:chain_flow/cf_runtime_functions.c ****   }
 213:chain_flow/cf_runtime_functions.c ****   else
 214:chain_flow/cf_runtime_functions.c ****   {
 215:chain_flow/cf_runtime_functions.c ****        return_value = CF_HALT;
 754              		.loc 2 215 0
 755 005c 0123     		mov	r3, #1
 756 005e 7B61     		str	r3, [r7, #20]
 757              	.L50:
 216:chain_flow/cf_runtime_functions.c ****   }
 217:chain_flow/cf_runtime_functions.c ****   return return_value;
 758              		.loc 2 217 0
 759 0060 7B69     		ldr	r3, [r7, #20]
 760              	.L46:
 218:chain_flow/cf_runtime_functions.c **** 
 219:chain_flow/cf_runtime_functions.c **** }
 761              		.loc 2 219 0
 762 0062 181C     		mov	r0, r3
 763 0064 BD46     		mov	sp, r7
 764 0066 06B0     		add	sp, sp, #24
ARM GAS  C:\Users\glenn\AppData\Local\Temp\ccftzDgr.s 			page 28


 765              		@ sp needed
 766 0068 80BD     		pop	{r7, pc}
 767              		.cfi_endproc
 768              	.LFE71:
 769              		.size	wait_time_fn, .-wait_time_fn
 770 006a C046     		.section	.text.wait_condition_fn,"ax",%progbits
 771              		.align	2
 772              		.global	wait_condition_fn
 773              		.code	16
 774              		.thumb_func
 775              		.type	wait_condition_fn, %function
 776              	wait_condition_fn:
 777              	.LFB72:
 220:chain_flow/cf_runtime_functions.c **** 
 221:chain_flow/cf_runtime_functions.c **** int wait_condition_fn( unsigned link_id, CF_FUN_AUX param_1, unsigned param_2, 
 222:chain_flow/cf_runtime_functions.c ****     unsigned param_3, unsigned param_4,  unsigned event, unsigned event_data)
 223:chain_flow/cf_runtime_functions.c **** {
 778              		.loc 2 223 0
 779              		.cfi_startproc
 780 0000 B0B5     		push	{r4, r5, r7, lr}
 781              		.cfi_def_cfa_offset 16
 782              		.cfi_offset 4, -16
 783              		.cfi_offset 5, -12
 784              		.cfi_offset 7, -8
 785              		.cfi_offset 14, -4
 786 0002 88B0     		sub	sp, sp, #32
 787              		.cfi_def_cfa_offset 48
 788 0004 02AF     		add	r7, sp, #8
 789              		.cfi_def_cfa 7, 40
 790 0006 F860     		str	r0, [r7, #12]
 791 0008 B960     		str	r1, [r7, #8]
 792 000a 7A60     		str	r2, [r7, #4]
 793 000c 3B60     		str	r3, [r7]
 224:chain_flow/cf_runtime_functions.c ****     int return_value;
 225:chain_flow/cf_runtime_functions.c ****     unsigned value;
 226:chain_flow/cf_runtime_functions.c ****     if( event == CF_INIT_EVENT )
 794              		.loc 2 226 0
 795 000e FB6A     		ldr	r3, [r7, #44]
 796 0010 012B     		cmp	r3, #1
 797 0012 11D1     		bne	.L52
 227:chain_flow/cf_runtime_functions.c ****   {
 228:chain_flow/cf_runtime_functions.c ****         param_1( link_id , param_2, param_3, param_4, event,event_data );
 798              		.loc 2 228 0
 799 0014 F868     		ldr	r0, [r7, #12]
 800 0016 7968     		ldr	r1, [r7, #4]
 801 0018 3A68     		ldr	r2, [r7]
 802 001a BD6A     		ldr	r5, [r7, #40]
 803 001c FB6A     		ldr	r3, [r7, #44]
 804 001e 0093     		str	r3, [sp]
 805 0020 3B6B     		ldr	r3, [r7, #48]
 806 0022 0193     		str	r3, [sp, #4]
 807 0024 BC68     		ldr	r4, [r7, #8]
 808 0026 2B1C     		mov	r3, r5
 809 0028 A047     		blx	r4
 229:chain_flow/cf_runtime_functions.c ****        cf_store_cell_value( link_id , 0 );
 810              		.loc 2 229 0
 811 002a FB68     		ldr	r3, [r7, #12]
ARM GAS  C:\Users\glenn\AppData\Local\Temp\ccftzDgr.s 			page 29


 812 002c 181C     		mov	r0, r3
 813 002e 0021     		mov	r1, #0
 814 0030 FFF7FEFF 		bl	cf_store_cell_value
 230:chain_flow/cf_runtime_functions.c ****        return CF_CONTINUE;
 815              		.loc 2 230 0
 816 0034 0023     		mov	r3, #0
 817 0036 32E0     		b	.L53
 818              	.L52:
 231:chain_flow/cf_runtime_functions.c **** 
 232:chain_flow/cf_runtime_functions.c ****   }
 233:chain_flow/cf_runtime_functions.c ****    
 234:chain_flow/cf_runtime_functions.c ****    else if( param_1( link_id , param_2, param_3, param_4, event,event_data ) != 0)
 819              		.loc 2 234 0
 820 0038 F868     		ldr	r0, [r7, #12]
 821 003a 7968     		ldr	r1, [r7, #4]
 822 003c 3A68     		ldr	r2, [r7]
 823 003e BD6A     		ldr	r5, [r7, #40]
 824 0040 FB6A     		ldr	r3, [r7, #44]
 825 0042 0093     		str	r3, [sp]
 826 0044 3B6B     		ldr	r3, [r7, #48]
 827 0046 0193     		str	r3, [sp, #4]
 828 0048 BC68     		ldr	r4, [r7, #8]
 829 004a 2B1C     		mov	r3, r5
 830 004c A047     		blx	r4
 831 004e 031E     		sub	r3, r0, #0
 832 0050 02D0     		beq	.L54
 235:chain_flow/cf_runtime_functions.c ****    {
 236:chain_flow/cf_runtime_functions.c ****      return_value = CF_DISABLE;
 833              		.loc 2 236 0
 834 0052 0223     		mov	r3, #2
 835 0054 7B61     		str	r3, [r7, #20]
 836 0056 21E0     		b	.L55
 837              	.L54:
 237:chain_flow/cf_runtime_functions.c ****    }
 238:chain_flow/cf_runtime_functions.c ****    else if( ( event == CF_TIME_TICK_EVENT )&&(param_4 > 0 ) )
 838              		.loc 2 238 0
 839 0058 FB6A     		ldr	r3, [r7, #44]
 840 005a 022B     		cmp	r3, #2
 841 005c 1CD1     		bne	.L56
 842              		.loc 2 238 0 is_stmt 0 discriminator 1
 843 005e BB6A     		ldr	r3, [r7, #40]
 844 0060 002B     		cmp	r3, #0
 845 0062 19D0     		beq	.L56
 239:chain_flow/cf_runtime_functions.c ****    {
 240:chain_flow/cf_runtime_functions.c ****      value = cf_get_cell_value( link_id );
 846              		.loc 2 240 0 is_stmt 1
 847 0064 FB68     		ldr	r3, [r7, #12]
 848 0066 181C     		mov	r0, r3
 849 0068 FFF7FEFF 		bl	cf_get_cell_value
 850 006c 031C     		mov	r3, r0
 851 006e 3B61     		str	r3, [r7, #16]
 241:chain_flow/cf_runtime_functions.c ****      value += event_data;
 852              		.loc 2 241 0
 853 0070 3A69     		ldr	r2, [r7, #16]
 854 0072 3B6B     		ldr	r3, [r7, #48]
 855 0074 D318     		add	r3, r2, r3
 856 0076 3B61     		str	r3, [r7, #16]
ARM GAS  C:\Users\glenn\AppData\Local\Temp\ccftzDgr.s 			page 30


 242:chain_flow/cf_runtime_functions.c ****      cf_store_cell_value(link_id, value);
 857              		.loc 2 242 0
 858 0078 FA68     		ldr	r2, [r7, #12]
 859 007a 3B69     		ldr	r3, [r7, #16]
 860 007c 101C     		mov	r0, r2
 861 007e 191C     		mov	r1, r3
 862 0080 FFF7FEFF 		bl	cf_store_cell_value
 243:chain_flow/cf_runtime_functions.c **** 
 244:chain_flow/cf_runtime_functions.c ****      if( value >= param_4 )
 863              		.loc 2 244 0
 864 0084 3A69     		ldr	r2, [r7, #16]
 865 0086 BB6A     		ldr	r3, [r7, #40]
 866 0088 9A42     		cmp	r2, r3
 867 008a 02D3     		bcc	.L57
 245:chain_flow/cf_runtime_functions.c ****      {
 246:chain_flow/cf_runtime_functions.c ****        return_value = CF_RESET;
 868              		.loc 2 246 0
 869 008c 0323     		mov	r3, #3
 870 008e 7B61     		str	r3, [r7, #20]
 244:chain_flow/cf_runtime_functions.c ****      {
 871              		.loc 2 244 0
 872 0090 04E0     		b	.L55
 873              	.L57:
 247:chain_flow/cf_runtime_functions.c ****      }
 248:chain_flow/cf_runtime_functions.c ****      else
 249:chain_flow/cf_runtime_functions.c ****      {
 250:chain_flow/cf_runtime_functions.c ****         return_value = CF_HALT;
 874              		.loc 2 250 0
 875 0092 0123     		mov	r3, #1
 876 0094 7B61     		str	r3, [r7, #20]
 244:chain_flow/cf_runtime_functions.c ****      {
 877              		.loc 2 244 0
 878 0096 01E0     		b	.L55
 879              	.L56:
 251:chain_flow/cf_runtime_functions.c ****      }
 252:chain_flow/cf_runtime_functions.c ****   }
 253:chain_flow/cf_runtime_functions.c ****    else
 254:chain_flow/cf_runtime_functions.c ****    {
 255:chain_flow/cf_runtime_functions.c ****      return_value = CF_HALT;
 880              		.loc 2 255 0
 881 0098 0123     		mov	r3, #1
 882 009a 7B61     		str	r3, [r7, #20]
 883              	.L55:
 256:chain_flow/cf_runtime_functions.c ****    }
 257:chain_flow/cf_runtime_functions.c ****  
 258:chain_flow/cf_runtime_functions.c ****    return return_value;
 884              		.loc 2 258 0
 885 009c 7B69     		ldr	r3, [r7, #20]
 886              	.L53:
 259:chain_flow/cf_runtime_functions.c **** 
 260:chain_flow/cf_runtime_functions.c **** }     
 887              		.loc 2 260 0
 888 009e 181C     		mov	r0, r3
 889 00a0 BD46     		mov	sp, r7
 890 00a2 06B0     		add	sp, sp, #24
 891              		@ sp needed
 892 00a4 B0BD     		pop	{r4, r5, r7, pc}
ARM GAS  C:\Users\glenn\AppData\Local\Temp\ccftzDgr.s 			page 31


 893              		.cfi_endproc
 894              	.LFE72:
 895              		.size	wait_condition_fn, .-wait_condition_fn
 896 00a6 C046     		.section	.text.verify_condition_fn,"ax",%progbits
 897              		.align	2
 898              		.global	verify_condition_fn
 899              		.code	16
 900              		.thumb_func
 901              		.type	verify_condition_fn, %function
 902              	verify_condition_fn:
 903              	.LFB73:
 261:chain_flow/cf_runtime_functions.c **** 
 262:chain_flow/cf_runtime_functions.c **** int verify_condition_fn( unsigned link_id, CF_FUN_AUX param_1, unsigned param_2, 
 263:chain_flow/cf_runtime_functions.c ****     unsigned param_3, unsigned param_4,  unsigned event, unsigned event_data)
 264:chain_flow/cf_runtime_functions.c **** {
 904              		.loc 2 264 0
 905              		.cfi_startproc
 906 0000 B0B5     		push	{r4, r5, r7, lr}
 907              		.cfi_def_cfa_offset 16
 908              		.cfi_offset 4, -16
 909              		.cfi_offset 5, -12
 910              		.cfi_offset 7, -8
 911              		.cfi_offset 14, -4
 912 0002 88B0     		sub	sp, sp, #32
 913              		.cfi_def_cfa_offset 48
 914 0004 02AF     		add	r7, sp, #8
 915              		.cfi_def_cfa 7, 40
 916 0006 F860     		str	r0, [r7, #12]
 917 0008 B960     		str	r1, [r7, #8]
 918 000a 7A60     		str	r2, [r7, #4]
 919 000c 3B60     		str	r3, [r7]
 265:chain_flow/cf_runtime_functions.c ****    int return_value;
 266:chain_flow/cf_runtime_functions.c ****   
 267:chain_flow/cf_runtime_functions.c ****    
 268:chain_flow/cf_runtime_functions.c ****    if( param_1( link_id , param_2, param_3, param_4, event,event_data ) != 0)
 920              		.loc 2 268 0
 921 000e F868     		ldr	r0, [r7, #12]
 922 0010 7968     		ldr	r1, [r7, #4]
 923 0012 3A68     		ldr	r2, [r7]
 924 0014 BD6A     		ldr	r5, [r7, #40]
 925 0016 FB6A     		ldr	r3, [r7, #44]
 926 0018 0093     		str	r3, [sp]
 927 001a 3B6B     		ldr	r3, [r7, #48]
 928 001c 0193     		str	r3, [sp, #4]
 929 001e BC68     		ldr	r4, [r7, #8]
 930 0020 2B1C     		mov	r3, r5
 931 0022 A047     		blx	r4
 932 0024 031E     		sub	r3, r0, #0
 933 0026 02D0     		beq	.L60
 269:chain_flow/cf_runtime_functions.c ****    {
 270:chain_flow/cf_runtime_functions.c ****      return_value = CF_CONTINUE;
 934              		.loc 2 270 0
 935 0028 0023     		mov	r3, #0
 936 002a 7B61     		str	r3, [r7, #20]
 937 002c 01E0     		b	.L61
 938              	.L60:
 271:chain_flow/cf_runtime_functions.c ****    }
ARM GAS  C:\Users\glenn\AppData\Local\Temp\ccftzDgr.s 			page 32


 272:chain_flow/cf_runtime_functions.c ****    else
 273:chain_flow/cf_runtime_functions.c ****    {
 274:chain_flow/cf_runtime_functions.c ****      return_value = CF_RESET;
 939              		.loc 2 274 0
 940 002e 0323     		mov	r3, #3
 941 0030 7B61     		str	r3, [r7, #20]
 942              	.L61:
 275:chain_flow/cf_runtime_functions.c ****    } 
 276:chain_flow/cf_runtime_functions.c ****    return return_value;
 943              		.loc 2 276 0
 944 0032 7B69     		ldr	r3, [r7, #20]
 277:chain_flow/cf_runtime_functions.c **** 
 278:chain_flow/cf_runtime_functions.c **** }    
 945              		.loc 2 278 0
 946 0034 181C     		mov	r0, r3
 947 0036 BD46     		mov	sp, r7
 948 0038 06B0     		add	sp, sp, #24
 949              		@ sp needed
 950 003a B0BD     		pop	{r4, r5, r7, pc}
 951              		.cfi_endproc
 952              	.LFE73:
 953              		.size	verify_condition_fn, .-verify_condition_fn
 954              		.section	.text.verify_not_timeout_fn,"ax",%progbits
 955              		.align	2
 956              		.global	verify_not_timeout_fn
 957              		.code	16
 958              		.thumb_func
 959              		.type	verify_not_timeout_fn, %function
 960              	verify_not_timeout_fn:
 961              	.LFB74:
 279:chain_flow/cf_runtime_functions.c ****  
 280:chain_flow/cf_runtime_functions.c **** int verify_not_timeout_fn( unsigned link_id, CF_FUN_AUX param_1, unsigned param_2, 
 281:chain_flow/cf_runtime_functions.c ****     unsigned param_3, unsigned param_4,  unsigned event, unsigned event_data)
 282:chain_flow/cf_runtime_functions.c **** {
 962              		.loc 2 282 0
 963              		.cfi_startproc
 964 0000 80B5     		push	{r7, lr}
 965              		.cfi_def_cfa_offset 8
 966              		.cfi_offset 7, -8
 967              		.cfi_offset 14, -4
 968 0002 86B0     		sub	sp, sp, #24
 969              		.cfi_def_cfa_offset 32
 970 0004 00AF     		add	r7, sp, #0
 971              		.cfi_def_cfa_register 7
 972 0006 F860     		str	r0, [r7, #12]
 973 0008 B960     		str	r1, [r7, #8]
 974 000a 7A60     		str	r2, [r7, #4]
 975 000c 3B60     		str	r3, [r7]
 283:chain_flow/cf_runtime_functions.c ****   int return_value;
 284:chain_flow/cf_runtime_functions.c ****   unsigned value;
 285:chain_flow/cf_runtime_functions.c ****   
 286:chain_flow/cf_runtime_functions.c ****   if( event == CF_INIT_EVENT )
 976              		.loc 2 286 0
 977 000e 7B6A     		ldr	r3, [r7, #36]
 978 0010 012B     		cmp	r3, #1
 979 0012 07D1     		bne	.L64
 287:chain_flow/cf_runtime_functions.c ****   {
ARM GAS  C:\Users\glenn\AppData\Local\Temp\ccftzDgr.s 			page 33


 288:chain_flow/cf_runtime_functions.c ****        cf_store_cell_value( link_id , 0 );
 980              		.loc 2 288 0
 981 0014 FB68     		ldr	r3, [r7, #12]
 982 0016 181C     		mov	r0, r3
 983 0018 0021     		mov	r1, #0
 984 001a FFF7FEFF 		bl	cf_store_cell_value
 289:chain_flow/cf_runtime_functions.c ****        return_value = CF_CONTINUE;
 985              		.loc 2 289 0
 986 001e 0023     		mov	r3, #0
 987 0020 7B61     		str	r3, [r7, #20]
 988 0022 1EE0     		b	.L65
 989              	.L64:
 290:chain_flow/cf_runtime_functions.c **** 
 291:chain_flow/cf_runtime_functions.c ****   }
 292:chain_flow/cf_runtime_functions.c ****   else if( event == CF_TIME_TICK_EVENT )
 990              		.loc 2 292 0
 991 0024 7B6A     		ldr	r3, [r7, #36]
 992 0026 022B     		cmp	r3, #2
 993 0028 19D1     		bne	.L66
 293:chain_flow/cf_runtime_functions.c ****   {
 294:chain_flow/cf_runtime_functions.c ****      value = cf_get_cell_value( link_id );
 994              		.loc 2 294 0
 995 002a FB68     		ldr	r3, [r7, #12]
 996 002c 181C     		mov	r0, r3
 997 002e FFF7FEFF 		bl	cf_get_cell_value
 998 0032 031C     		mov	r3, r0
 999 0034 3B61     		str	r3, [r7, #16]
 295:chain_flow/cf_runtime_functions.c ****      value += event_data;
 1000              		.loc 2 295 0
 1001 0036 3A69     		ldr	r2, [r7, #16]
 1002 0038 BB6A     		ldr	r3, [r7, #40]
 1003 003a D318     		add	r3, r2, r3
 1004 003c 3B61     		str	r3, [r7, #16]
 296:chain_flow/cf_runtime_functions.c ****      cf_store_cell_value(link_id, value);
 1005              		.loc 2 296 0
 1006 003e FA68     		ldr	r2, [r7, #12]
 1007 0040 3B69     		ldr	r3, [r7, #16]
 1008 0042 101C     		mov	r0, r2
 1009 0044 191C     		mov	r1, r3
 1010 0046 FFF7FEFF 		bl	cf_store_cell_value
 297:chain_flow/cf_runtime_functions.c **** 
 298:chain_flow/cf_runtime_functions.c ****      if( value >= param_2 )
 1011              		.loc 2 298 0
 1012 004a 3A69     		ldr	r2, [r7, #16]
 1013 004c 7B68     		ldr	r3, [r7, #4]
 1014 004e 9A42     		cmp	r2, r3
 1015 0050 02D3     		bcc	.L67
 299:chain_flow/cf_runtime_functions.c ****      {
 300:chain_flow/cf_runtime_functions.c ****        return_value = CF_RESET;
 1016              		.loc 2 300 0
 1017 0052 0323     		mov	r3, #3
 1018 0054 7B61     		str	r3, [r7, #20]
 1019 0056 04E0     		b	.L65
 1020              	.L67:
 301:chain_flow/cf_runtime_functions.c ****      }
 302:chain_flow/cf_runtime_functions.c ****      else
 303:chain_flow/cf_runtime_functions.c ****      {
ARM GAS  C:\Users\glenn\AppData\Local\Temp\ccftzDgr.s 			page 34


 304:chain_flow/cf_runtime_functions.c ****         return_value = CF_CONTINUE;
 1021              		.loc 2 304 0
 1022 0058 0023     		mov	r3, #0
 1023 005a 7B61     		str	r3, [r7, #20]
 1024 005c 01E0     		b	.L65
 1025              	.L66:
 305:chain_flow/cf_runtime_functions.c ****      }
 306:chain_flow/cf_runtime_functions.c ****   }
 307:chain_flow/cf_runtime_functions.c ****   else
 308:chain_flow/cf_runtime_functions.c ****   {
 309:chain_flow/cf_runtime_functions.c ****        return_value = CF_CONTINUE;
 1026              		.loc 2 309 0
 1027 005e 0023     		mov	r3, #0
 1028 0060 7B61     		str	r3, [r7, #20]
 1029              	.L65:
 310:chain_flow/cf_runtime_functions.c ****   }
 311:chain_flow/cf_runtime_functions.c ****   return return_value;
 1030              		.loc 2 311 0
 1031 0062 7B69     		ldr	r3, [r7, #20]
 312:chain_flow/cf_runtime_functions.c **** 
 313:chain_flow/cf_runtime_functions.c **** }
 1032              		.loc 2 313 0
 1033 0064 181C     		mov	r0, r3
 1034 0066 BD46     		mov	sp, r7
 1035 0068 06B0     		add	sp, sp, #24
 1036              		@ sp needed
 1037 006a 80BD     		pop	{r7, pc}
 1038              		.cfi_endproc
 1039              	.LFE74:
 1040              		.size	verify_not_timeout_fn, .-verify_not_timeout_fn
 1041              		.section	.text.verify_not_event_fn,"ax",%progbits
 1042              		.align	2
 1043              		.global	verify_not_event_fn
 1044              		.code	16
 1045              		.thumb_func
 1046              		.type	verify_not_event_fn, %function
 1047              	verify_not_event_fn:
 1048              	.LFB75:
 314:chain_flow/cf_runtime_functions.c **** 
 315:chain_flow/cf_runtime_functions.c **** 
 316:chain_flow/cf_runtime_functions.c **** int verify_not_event_fn( unsigned link_id, CF_FUN_AUX param_1, unsigned param_2, 
 317:chain_flow/cf_runtime_functions.c ****     unsigned param_3, unsigned param_4,  unsigned event, unsigned event_data)
 318:chain_flow/cf_runtime_functions.c **** {
 1049              		.loc 2 318 0
 1050              		.cfi_startproc
 1051 0000 80B5     		push	{r7, lr}
 1052              		.cfi_def_cfa_offset 8
 1053              		.cfi_offset 7, -8
 1054              		.cfi_offset 14, -4
 1055 0002 86B0     		sub	sp, sp, #24
 1056              		.cfi_def_cfa_offset 32
 1057 0004 00AF     		add	r7, sp, #0
 1058              		.cfi_def_cfa_register 7
 1059 0006 F860     		str	r0, [r7, #12]
 1060 0008 B960     		str	r1, [r7, #8]
 1061 000a 7A60     		str	r2, [r7, #4]
 1062 000c 3B60     		str	r3, [r7]
ARM GAS  C:\Users\glenn\AppData\Local\Temp\ccftzDgr.s 			page 35


 319:chain_flow/cf_runtime_functions.c ****   
 320:chain_flow/cf_runtime_functions.c ****    int    return_value;
 321:chain_flow/cf_runtime_functions.c ****    
 322:chain_flow/cf_runtime_functions.c ****    if( event == param_2 )
 1063              		.loc 2 322 0
 1064 000e 7A6A     		ldr	r2, [r7, #36]
 1065 0010 7B68     		ldr	r3, [r7, #4]
 1066 0012 9A42     		cmp	r2, r3
 1067 0014 02D1     		bne	.L71
 323:chain_flow/cf_runtime_functions.c ****    {
 324:chain_flow/cf_runtime_functions.c ****       return_value = CF_RESET;
 1068              		.loc 2 324 0
 1069 0016 0323     		mov	r3, #3
 1070 0018 7B61     		str	r3, [r7, #20]
 1071 001a 01E0     		b	.L72
 1072              	.L71:
 325:chain_flow/cf_runtime_functions.c ****    }
 326:chain_flow/cf_runtime_functions.c ****    else
 327:chain_flow/cf_runtime_functions.c ****    {
 328:chain_flow/cf_runtime_functions.c ****       return_value = CF_CONTINUE;
 1073              		.loc 2 328 0
 1074 001c 0023     		mov	r3, #0
 1075 001e 7B61     		str	r3, [r7, #20]
 1076              	.L72:
 329:chain_flow/cf_runtime_functions.c ****    }
 330:chain_flow/cf_runtime_functions.c ****    return return_value;   
 1077              		.loc 2 330 0
 1078 0020 7B69     		ldr	r3, [r7, #20]
 331:chain_flow/cf_runtime_functions.c **** 
 332:chain_flow/cf_runtime_functions.c **** }
 1079              		.loc 2 332 0
 1080 0022 181C     		mov	r0, r3
 1081 0024 BD46     		mov	sp, r7
 1082 0026 06B0     		add	sp, sp, #24
 1083              		@ sp needed
 1084 0028 80BD     		pop	{r7, pc}
 1085              		.cfi_endproc
 1086              	.LFE75:
 1087              		.size	verify_not_event_fn, .-verify_not_event_fn
 1088 002a C046     		.section	.text.verify_not_tod_fn,"ax",%progbits
 1089              		.align	2
 1090              		.global	verify_not_tod_fn
 1091              		.code	16
 1092              		.thumb_func
 1093              		.type	verify_not_tod_fn, %function
 1094              	verify_not_tod_fn:
 1095              	.LFB76:
 333:chain_flow/cf_runtime_functions.c **** 
 334:chain_flow/cf_runtime_functions.c **** int verify_not_tod_fn( unsigned link_id, CF_FUN_AUX param_1, unsigned param_2, 
 335:chain_flow/cf_runtime_functions.c ****     unsigned param_3, unsigned param_4,  unsigned event, unsigned event_data)
 336:chain_flow/cf_runtime_functions.c **** {
 1096              		.loc 2 336 0
 1097              		.cfi_startproc
 1098 0000 80B5     		push	{r7, lr}
 1099              		.cfi_def_cfa_offset 8
 1100              		.cfi_offset 7, -8
 1101              		.cfi_offset 14, -4
ARM GAS  C:\Users\glenn\AppData\Local\Temp\ccftzDgr.s 			page 36


 1102 0002 86B0     		sub	sp, sp, #24
 1103              		.cfi_def_cfa_offset 32
 1104 0004 00AF     		add	r7, sp, #0
 1105              		.cfi_def_cfa_register 7
 1106 0006 F860     		str	r0, [r7, #12]
 1107 0008 B960     		str	r1, [r7, #8]
 1108 000a 7A60     		str	r2, [r7, #4]
 1109 000c 3B60     		str	r3, [r7]
 337:chain_flow/cf_runtime_functions.c ****    uint32 time;
 338:chain_flow/cf_runtime_functions.c ****    time = RTC_1_GetTime();
 1110              		.loc 2 338 0
 1111 000e FFF7FEFF 		bl	RTC_1_GetTime
 1112 0012 031C     		mov	r3, r0
 1113 0014 7B61     		str	r3, [r7, #20]
 339:chain_flow/cf_runtime_functions.c ****  
 340:chain_flow/cf_runtime_functions.c ****    // check hour
 341:chain_flow/cf_runtime_functions.c ****    if( ( param_2 == NULL_PARAMETER ) || ( param_2 == RTC_1_GetHours(time) ))
 1114              		.loc 2 341 0
 1115 0016 7B68     		ldr	r3, [r7, #4]
 1116 0018 0133     		add	r3, r3, #1
 1117 001a 07D0     		beq	.L75
 1118              		.loc 2 341 0 is_stmt 0 discriminator 1
 1119 001c 7B69     		ldr	r3, [r7, #20]
 1120 001e 181C     		mov	r0, r3
 1121 0020 FFF7FEFF 		bl	RTC_1_GetHours
 1122 0024 021E     		sub	r2, r0, #0
 1123 0026 7B68     		ldr	r3, [r7, #4]
 1124 0028 9A42     		cmp	r2, r3
 1125 002a 17D1     		bne	.L76
 1126              	.L75:
 342:chain_flow/cf_runtime_functions.c ****    {
 343:chain_flow/cf_runtime_functions.c ****      if( ( param_3 == NULL_PARAMETER ) || ( param_3 == RTC_1_GetMinutes(time) ))
 1127              		.loc 2 343 0 is_stmt 1
 1128 002c 3B68     		ldr	r3, [r7]
 1129 002e 0133     		add	r3, r3, #1
 1130 0030 07D0     		beq	.L77
 1131              		.loc 2 343 0 is_stmt 0 discriminator 1
 1132 0032 7B69     		ldr	r3, [r7, #20]
 1133 0034 181C     		mov	r0, r3
 1134 0036 FFF7FEFF 		bl	RTC_1_GetMinutes
 1135 003a 021E     		sub	r2, r0, #0
 1136 003c 3B68     		ldr	r3, [r7]
 1137 003e 9A42     		cmp	r2, r3
 1138 0040 0CD1     		bne	.L76
 1139              	.L77:
 344:chain_flow/cf_runtime_functions.c ****      {
 345:chain_flow/cf_runtime_functions.c ****        if( ( param_4 == NULL_PARAMETER ) || ( param_4 == RTC_1_GetSecond(time) ))
 1140              		.loc 2 345 0 is_stmt 1
 1141 0042 3B6A     		ldr	r3, [r7, #32]
 1142 0044 0133     		add	r3, r3, #1
 1143 0046 07D0     		beq	.L78
 1144              		.loc 2 345 0 is_stmt 0 discriminator 1
 1145 0048 7B69     		ldr	r3, [r7, #20]
 1146 004a 181C     		mov	r0, r3
 1147 004c FFF7FEFF 		bl	RTC_1_GetSecond
 1148 0050 021E     		sub	r2, r0, #0
 1149 0052 3B6A     		ldr	r3, [r7, #32]
ARM GAS  C:\Users\glenn\AppData\Local\Temp\ccftzDgr.s 			page 37


 1150 0054 9A42     		cmp	r2, r3
 1151 0056 01D1     		bne	.L76
 1152              	.L78:
 346:chain_flow/cf_runtime_functions.c ****        {
 347:chain_flow/cf_runtime_functions.c ****           return CF_RESET;
 1153              		.loc 2 347 0 is_stmt 1
 1154 0058 0323     		mov	r3, #3
 1155 005a 00E0     		b	.L79
 1156              	.L76:
 348:chain_flow/cf_runtime_functions.c ****        }
 349:chain_flow/cf_runtime_functions.c ****      }
 350:chain_flow/cf_runtime_functions.c ****    }
 351:chain_flow/cf_runtime_functions.c ****     return CF_CONTINUE;  // implemented on specific system
 1157              		.loc 2 351 0
 1158 005c 0023     		mov	r3, #0
 1159              	.L79:
 352:chain_flow/cf_runtime_functions.c **** 
 353:chain_flow/cf_runtime_functions.c **** }
 1160              		.loc 2 353 0
 1161 005e 181C     		mov	r0, r3
 1162 0060 BD46     		mov	sp, r7
 1163 0062 06B0     		add	sp, sp, #24
 1164              		@ sp needed
 1165 0064 80BD     		pop	{r7, pc}
 1166              		.cfi_endproc
 1167              	.LFE76:
 1168              		.size	verify_not_tod_fn, .-verify_not_tod_fn
 1169 0066 C046     		.section	.text.nop_fn,"ax",%progbits
 1170              		.align	2
 1171              		.global	nop_fn
 1172              		.code	16
 1173              		.thumb_func
 1174              		.type	nop_fn, %function
 1175              	nop_fn:
 1176              	.LFB77:
 354:chain_flow/cf_runtime_functions.c **** 
 355:chain_flow/cf_runtime_functions.c **** int nop_fn( unsigned link_id, CF_FUN_AUX param_1, unsigned param_2, 
 356:chain_flow/cf_runtime_functions.c ****     unsigned param_3, unsigned param_4,  unsigned event, unsigned event_data)
 357:chain_flow/cf_runtime_functions.c **** {
 1177              		.loc 2 357 0
 1178              		.cfi_startproc
 1179 0000 80B5     		push	{r7, lr}
 1180              		.cfi_def_cfa_offset 8
 1181              		.cfi_offset 7, -8
 1182              		.cfi_offset 14, -4
 1183 0002 84B0     		sub	sp, sp, #16
 1184              		.cfi_def_cfa_offset 24
 1185 0004 00AF     		add	r7, sp, #0
 1186              		.cfi_def_cfa_register 7
 1187 0006 F860     		str	r0, [r7, #12]
 1188 0008 B960     		str	r1, [r7, #8]
 1189 000a 7A60     		str	r2, [r7, #4]
 1190 000c 3B60     		str	r3, [r7]
 358:chain_flow/cf_runtime_functions.c **** 
 359:chain_flow/cf_runtime_functions.c ****     
 360:chain_flow/cf_runtime_functions.c ****    if( event != CF_INIT_EVENT )
 1191              		.loc 2 360 0
ARM GAS  C:\Users\glenn\AppData\Local\Temp\ccftzDgr.s 			page 38


 1192 000e FB69     		ldr	r3, [r7, #28]
 1193 0010 012B     		cmp	r3, #1
 1194 0012 01D0     		beq	.L81
 361:chain_flow/cf_runtime_functions.c ****    {
 362:chain_flow/cf_runtime_functions.c ****        return CF_DISABLE;
 1195              		.loc 2 362 0
 1196 0014 0223     		mov	r3, #2
 1197 0016 00E0     		b	.L82
 1198              	.L81:
 363:chain_flow/cf_runtime_functions.c ****    }
 364:chain_flow/cf_runtime_functions.c ****    else
 365:chain_flow/cf_runtime_functions.c ****    {
 366:chain_flow/cf_runtime_functions.c ****        return CF_CONTINUE;
 1199              		.loc 2 366 0
 1200 0018 0023     		mov	r3, #0
 1201              	.L82:
 367:chain_flow/cf_runtime_functions.c ****    }
 368:chain_flow/cf_runtime_functions.c ****  }
 1202              		.loc 2 368 0
 1203 001a 181C     		mov	r0, r3
 1204 001c BD46     		mov	sp, r7
 1205 001e 04B0     		add	sp, sp, #16
 1206              		@ sp needed
 1207 0020 80BD     		pop	{r7, pc}
 1208              		.cfi_endproc
 1209              	.LFE77:
 1210              		.size	nop_fn, .-nop_fn
 1211 0022 C046     		.section	.text.change_state_fn,"ax",%progbits
 1212              		.align	2
 1213              		.global	change_state_fn
 1214              		.code	16
 1215              		.thumb_func
 1216              		.type	change_state_fn, %function
 1217              	change_state_fn:
 1218              	.LFB78:
 369:chain_flow/cf_runtime_functions.c ****  
 370:chain_flow/cf_runtime_functions.c **** 
 371:chain_flow/cf_runtime_functions.c ****  
 372:chain_flow/cf_runtime_functions.c **** int change_state_fn( unsigned link_id, CF_FUN_AUX param_1, unsigned chain_id, 
 373:chain_flow/cf_runtime_functions.c ****     unsigned link_index, unsigned param_4,  unsigned event, unsigned event_data)
 374:chain_flow/cf_runtime_functions.c **** {
 1219              		.loc 2 374 0
 1220              		.cfi_startproc
 1221 0000 80B5     		push	{r7, lr}
 1222              		.cfi_def_cfa_offset 8
 1223              		.cfi_offset 7, -8
 1224              		.cfi_offset 14, -4
 1225 0002 84B0     		sub	sp, sp, #16
 1226              		.cfi_def_cfa_offset 24
 1227 0004 00AF     		add	r7, sp, #0
 1228              		.cfi_def_cfa_register 7
 1229 0006 F860     		str	r0, [r7, #12]
 1230 0008 B960     		str	r1, [r7, #8]
 1231 000a 7A60     		str	r2, [r7, #4]
 1232 000c 3B60     		str	r3, [r7]
 375:chain_flow/cf_runtime_functions.c ****    if( event == CF_INIT_EVENT )
 1233              		.loc 2 375 0
ARM GAS  C:\Users\glenn\AppData\Local\Temp\ccftzDgr.s 			page 39


 1234 000e FB69     		ldr	r3, [r7, #28]
 1235 0010 012B     		cmp	r3, #1
 1236 0012 05D1     		bne	.L84
 376:chain_flow/cf_runtime_functions.c ****    {
 377:chain_flow/cf_runtime_functions.c ****       cf_change_state( chain_id, link_index );
 1237              		.loc 2 377 0
 1238 0014 7A68     		ldr	r2, [r7, #4]
 1239 0016 3B68     		ldr	r3, [r7]
 1240 0018 101C     		mov	r0, r2
 1241 001a 191C     		mov	r1, r3
 1242 001c FFF7FEFF 		bl	cf_change_state
 1243              	.L84:
 378:chain_flow/cf_runtime_functions.c ****    }
 379:chain_flow/cf_runtime_functions.c ****    return CF_DISABLE;
 1244              		.loc 2 379 0
 1245 0020 0223     		mov	r3, #2
 380:chain_flow/cf_runtime_functions.c **** 
 381:chain_flow/cf_runtime_functions.c **** 
 382:chain_flow/cf_runtime_functions.c **** }
 1246              		.loc 2 382 0
 1247 0022 181C     		mov	r0, r3
 1248 0024 BD46     		mov	sp, r7
 1249 0026 04B0     		add	sp, sp, #16
 1250              		@ sp needed
 1251 0028 80BD     		pop	{r7, pc}
 1252              		.cfi_endproc
 1253              	.LFE78:
 1254              		.size	change_state_fn, .-change_state_fn
 1255 002a C046     		.section	.text.system_reset_fn,"ax",%progbits
 1256              		.align	2
 1257              		.global	system_reset_fn
 1258              		.code	16
 1259              		.thumb_func
 1260              		.type	system_reset_fn, %function
 1261              	system_reset_fn:
 1262              	.LFB79:
 383:chain_flow/cf_runtime_functions.c **** 
 384:chain_flow/cf_runtime_functions.c **** int system_reset_fn( unsigned link_id, CF_FUN_AUX param_1, unsigned param_2, 
 385:chain_flow/cf_runtime_functions.c ****     unsigned param_3, unsigned param_4,  unsigned event, unsigned event_data)
 386:chain_flow/cf_runtime_functions.c **** {
 1263              		.loc 2 386 0
 1264              		.cfi_startproc
 1265 0000 80B5     		push	{r7, lr}
 1266              		.cfi_def_cfa_offset 8
 1267              		.cfi_offset 7, -8
 1268              		.cfi_offset 14, -4
 1269 0002 84B0     		sub	sp, sp, #16
 1270              		.cfi_def_cfa_offset 24
 1271 0004 00AF     		add	r7, sp, #0
 1272              		.cfi_def_cfa_register 7
 1273 0006 F860     		str	r0, [r7, #12]
 1274 0008 B960     		str	r1, [r7, #8]
 1275 000a 7A60     		str	r2, [r7, #4]
 1276 000c 3B60     		str	r3, [r7]
 387:chain_flow/cf_runtime_functions.c ****    CySoftwareReset();
 1277              		.loc 2 387 0
 1278 000e FFF7FEFF 		bl	CySoftwareReset
ARM GAS  C:\Users\glenn\AppData\Local\Temp\ccftzDgr.s 			page 40


 388:chain_flow/cf_runtime_functions.c ****    return CF_DISABLE;
 1279              		.loc 2 388 0
 1280 0012 0223     		mov	r3, #2
 389:chain_flow/cf_runtime_functions.c **** }
 1281              		.loc 2 389 0
 1282 0014 181C     		mov	r0, r3
 1283 0016 BD46     		mov	sp, r7
 1284 0018 04B0     		add	sp, sp, #16
 1285              		@ sp needed
 1286 001a 80BD     		pop	{r7, pc}
 1287              		.cfi_endproc
 1288              	.LFE79:
 1289              		.size	system_reset_fn, .-system_reset_fn
 1290              		.section	.text.enable_chain_fn,"ax",%progbits
 1291              		.align	2
 1292              		.global	enable_chain_fn
 1293              		.code	16
 1294              		.thumb_func
 1295              		.type	enable_chain_fn, %function
 1296              	enable_chain_fn:
 1297              	.LFB80:
 390:chain_flow/cf_runtime_functions.c **** 
 391:chain_flow/cf_runtime_functions.c **** int enable_chain_fn( unsigned link_id, CF_FUN_AUX param_1, unsigned param_2, 
 392:chain_flow/cf_runtime_functions.c ****     unsigned param_3, unsigned param_4,  unsigned event, unsigned event_data)
 393:chain_flow/cf_runtime_functions.c **** {
 1298              		.loc 2 393 0
 1299              		.cfi_startproc
 1300 0000 80B5     		push	{r7, lr}
 1301              		.cfi_def_cfa_offset 8
 1302              		.cfi_offset 7, -8
 1303              		.cfi_offset 14, -4
 1304 0002 84B0     		sub	sp, sp, #16
 1305              		.cfi_def_cfa_offset 24
 1306 0004 00AF     		add	r7, sp, #0
 1307              		.cfi_def_cfa_register 7
 1308 0006 F860     		str	r0, [r7, #12]
 1309 0008 B960     		str	r1, [r7, #8]
 1310 000a 7A60     		str	r2, [r7, #4]
 1311 000c 3B60     		str	r3, [r7]
 394:chain_flow/cf_runtime_functions.c ****    if( event == CF_INIT_EVENT )
 1312              		.loc 2 394 0
 1313 000e FB69     		ldr	r3, [r7, #28]
 1314 0010 012B     		cmp	r3, #1
 1315 0012 14D1     		bne	.L89
 395:chain_flow/cf_runtime_functions.c ****    {
 396:chain_flow/cf_runtime_functions.c ****       if( param_2 != NULL_PARAMETER)
 1316              		.loc 2 396 0
 1317 0014 7B68     		ldr	r3, [r7, #4]
 1318 0016 0133     		add	r3, r3, #1
 1319 0018 03D0     		beq	.L90
 397:chain_flow/cf_runtime_functions.c ****       {
 398:chain_flow/cf_runtime_functions.c ****           cf_enable_chain((intptr_t)param_2);
 1320              		.loc 2 398 0
 1321 001a 7B68     		ldr	r3, [r7, #4]
 1322 001c 181C     		mov	r0, r3
 1323 001e FFF7FEFF 		bl	cf_enable_chain
 1324              	.L90:
ARM GAS  C:\Users\glenn\AppData\Local\Temp\ccftzDgr.s 			page 41


 399:chain_flow/cf_runtime_functions.c ****       }
 400:chain_flow/cf_runtime_functions.c ****       if( param_3 != NULL_PARAMETER)
 1325              		.loc 2 400 0
 1326 0022 3B68     		ldr	r3, [r7]
 1327 0024 0133     		add	r3, r3, #1
 1328 0026 03D0     		beq	.L91
 401:chain_flow/cf_runtime_functions.c ****       {
 402:chain_flow/cf_runtime_functions.c ****           cf_enable_chain((intptr_t)param_3);
 1329              		.loc 2 402 0
 1330 0028 3B68     		ldr	r3, [r7]
 1331 002a 181C     		mov	r0, r3
 1332 002c FFF7FEFF 		bl	cf_enable_chain
 1333              	.L91:
 403:chain_flow/cf_runtime_functions.c ****       }
 404:chain_flow/cf_runtime_functions.c **** 
 405:chain_flow/cf_runtime_functions.c ****       if( param_4 != NULL_PARAMETER)
 1334              		.loc 2 405 0
 1335 0030 BB69     		ldr	r3, [r7, #24]
 1336 0032 0133     		add	r3, r3, #1
 1337 0034 03D0     		beq	.L89
 406:chain_flow/cf_runtime_functions.c ****       {
 407:chain_flow/cf_runtime_functions.c ****           cf_enable_chain((intptr_t)param_4);
 1338              		.loc 2 407 0
 1339 0036 BB69     		ldr	r3, [r7, #24]
 1340 0038 181C     		mov	r0, r3
 1341 003a FFF7FEFF 		bl	cf_enable_chain
 1342              	.L89:
 408:chain_flow/cf_runtime_functions.c ****       }
 409:chain_flow/cf_runtime_functions.c **** 
 410:chain_flow/cf_runtime_functions.c ****    }
 411:chain_flow/cf_runtime_functions.c ****    return CF_DISABLE;
 1343              		.loc 2 411 0
 1344 003e 0223     		mov	r3, #2
 412:chain_flow/cf_runtime_functions.c **** 
 413:chain_flow/cf_runtime_functions.c **** }
 1345              		.loc 2 413 0
 1346 0040 181C     		mov	r0, r3
 1347 0042 BD46     		mov	sp, r7
 1348 0044 04B0     		add	sp, sp, #16
 1349              		@ sp needed
 1350 0046 80BD     		pop	{r7, pc}
 1351              		.cfi_endproc
 1352              	.LFE80:
 1353              		.size	enable_chain_fn, .-enable_chain_fn
 1354              		.section	.text.disable_chain_fn,"ax",%progbits
 1355              		.align	2
 1356              		.global	disable_chain_fn
 1357              		.code	16
 1358              		.thumb_func
 1359              		.type	disable_chain_fn, %function
 1360              	disable_chain_fn:
 1361              	.LFB81:
 414:chain_flow/cf_runtime_functions.c ****   
 415:chain_flow/cf_runtime_functions.c **** int disable_chain_fn( unsigned link_id, CF_FUN_AUX param_1, unsigned param_2, 
 416:chain_flow/cf_runtime_functions.c ****     unsigned param_3, unsigned param_4,  unsigned event, unsigned event_data)
 417:chain_flow/cf_runtime_functions.c **** {
 1362              		.loc 2 417 0
ARM GAS  C:\Users\glenn\AppData\Local\Temp\ccftzDgr.s 			page 42


 1363              		.cfi_startproc
 1364 0000 80B5     		push	{r7, lr}
 1365              		.cfi_def_cfa_offset 8
 1366              		.cfi_offset 7, -8
 1367              		.cfi_offset 14, -4
 1368 0002 84B0     		sub	sp, sp, #16
 1369              		.cfi_def_cfa_offset 24
 1370 0004 00AF     		add	r7, sp, #0
 1371              		.cfi_def_cfa_register 7
 1372 0006 F860     		str	r0, [r7, #12]
 1373 0008 B960     		str	r1, [r7, #8]
 1374 000a 7A60     		str	r2, [r7, #4]
 1375 000c 3B60     		str	r3, [r7]
 418:chain_flow/cf_runtime_functions.c ****    if( event == CF_INIT_EVENT )
 1376              		.loc 2 418 0
 1377 000e FB69     		ldr	r3, [r7, #28]
 1378 0010 012B     		cmp	r3, #1
 1379 0012 14D1     		bne	.L94
 419:chain_flow/cf_runtime_functions.c ****    {
 420:chain_flow/cf_runtime_functions.c ****      if( param_2 != NULL_PARAMETER)
 1380              		.loc 2 420 0
 1381 0014 7B68     		ldr	r3, [r7, #4]
 1382 0016 0133     		add	r3, r3, #1
 1383 0018 03D0     		beq	.L95
 421:chain_flow/cf_runtime_functions.c ****       {
 422:chain_flow/cf_runtime_functions.c ****            cf_disable_chain((intptr_t)param_2);
 1384              		.loc 2 422 0
 1385 001a 7B68     		ldr	r3, [r7, #4]
 1386 001c 181C     		mov	r0, r3
 1387 001e FFF7FEFF 		bl	cf_disable_chain
 1388              	.L95:
 423:chain_flow/cf_runtime_functions.c ****       }
 424:chain_flow/cf_runtime_functions.c ****       if( param_3 != NULL_PARAMETER)
 1389              		.loc 2 424 0
 1390 0022 3B68     		ldr	r3, [r7]
 1391 0024 0133     		add	r3, r3, #1
 1392 0026 03D0     		beq	.L96
 425:chain_flow/cf_runtime_functions.c ****       {
 426:chain_flow/cf_runtime_functions.c ****           cf_suspend_chain((intptr_t)param_3);
 1393              		.loc 2 426 0
 1394 0028 3B68     		ldr	r3, [r7]
 1395 002a 181C     		mov	r0, r3
 1396 002c FFF7FEFF 		bl	cf_suspend_chain
 1397              	.L96:
 427:chain_flow/cf_runtime_functions.c ****       }
 428:chain_flow/cf_runtime_functions.c **** 
 429:chain_flow/cf_runtime_functions.c ****       if( param_4 != NULL_PARAMETER)
 1398              		.loc 2 429 0
 1399 0030 BB69     		ldr	r3, [r7, #24]
 1400 0032 0133     		add	r3, r3, #1
 1401 0034 03D0     		beq	.L94
 430:chain_flow/cf_runtime_functions.c ****       {
 431:chain_flow/cf_runtime_functions.c ****           cf_suspend_chain((intptr_t)param_4);
 1402              		.loc 2 431 0
 1403 0036 BB69     		ldr	r3, [r7, #24]
 1404 0038 181C     		mov	r0, r3
 1405 003a FFF7FEFF 		bl	cf_suspend_chain
ARM GAS  C:\Users\glenn\AppData\Local\Temp\ccftzDgr.s 			page 43


 1406              	.L94:
 432:chain_flow/cf_runtime_functions.c ****       }
 433:chain_flow/cf_runtime_functions.c **** 
 434:chain_flow/cf_runtime_functions.c ****      
 435:chain_flow/cf_runtime_functions.c ****       
 436:chain_flow/cf_runtime_functions.c ****       
 437:chain_flow/cf_runtime_functions.c ****    }
 438:chain_flow/cf_runtime_functions.c ****    return CF_DISABLE;
 1407              		.loc 2 438 0
 1408 003e 0223     		mov	r3, #2
 439:chain_flow/cf_runtime_functions.c **** 
 440:chain_flow/cf_runtime_functions.c **** 
 441:chain_flow/cf_runtime_functions.c **** }
 1409              		.loc 2 441 0
 1410 0040 181C     		mov	r0, r3
 1411 0042 BD46     		mov	sp, r7
 1412 0044 04B0     		add	sp, sp, #16
 1413              		@ sp needed
 1414 0046 80BD     		pop	{r7, pc}
 1415              		.cfi_endproc
 1416              	.LFE81:
 1417              		.size	disable_chain_fn, .-disable_chain_fn
 1418              		.section	.text.suspend_chain_fn,"ax",%progbits
 1419              		.align	2
 1420              		.global	suspend_chain_fn
 1421              		.code	16
 1422              		.thumb_func
 1423              		.type	suspend_chain_fn, %function
 1424              	suspend_chain_fn:
 1425              	.LFB82:
 442:chain_flow/cf_runtime_functions.c **** int suspend_chain_fn( unsigned link_id, CF_FUN_AUX param_1, unsigned param_2, 
 443:chain_flow/cf_runtime_functions.c ****     unsigned param_3, unsigned param_4,  unsigned event, unsigned event_data)
 444:chain_flow/cf_runtime_functions.c **** {
 1426              		.loc 2 444 0
 1427              		.cfi_startproc
 1428 0000 80B5     		push	{r7, lr}
 1429              		.cfi_def_cfa_offset 8
 1430              		.cfi_offset 7, -8
 1431              		.cfi_offset 14, -4
 1432 0002 84B0     		sub	sp, sp, #16
 1433              		.cfi_def_cfa_offset 24
 1434 0004 00AF     		add	r7, sp, #0
 1435              		.cfi_def_cfa_register 7
 1436 0006 F860     		str	r0, [r7, #12]
 1437 0008 B960     		str	r1, [r7, #8]
 1438 000a 7A60     		str	r2, [r7, #4]
 1439 000c 3B60     		str	r3, [r7]
 445:chain_flow/cf_runtime_functions.c ****    if( event == CF_INIT_EVENT )
 1440              		.loc 2 445 0
 1441 000e FB69     		ldr	r3, [r7, #28]
 1442 0010 012B     		cmp	r3, #1
 1443 0012 0BD1     		bne	.L99
 446:chain_flow/cf_runtime_functions.c ****    {
 447:chain_flow/cf_runtime_functions.c ****  
 448:chain_flow/cf_runtime_functions.c ****       cf_suspend_chain((intptr_t)param_2);
 1444              		.loc 2 448 0
 1445 0014 7B68     		ldr	r3, [r7, #4]
ARM GAS  C:\Users\glenn\AppData\Local\Temp\ccftzDgr.s 			page 44


 1446 0016 181C     		mov	r0, r3
 1447 0018 FFF7FEFF 		bl	cf_suspend_chain
 449:chain_flow/cf_runtime_functions.c ****       cf_suspend_chain((intptr_t)param_3);
 1448              		.loc 2 449 0
 1449 001c 3B68     		ldr	r3, [r7]
 1450 001e 181C     		mov	r0, r3
 1451 0020 FFF7FEFF 		bl	cf_suspend_chain
 450:chain_flow/cf_runtime_functions.c ****       cf_suspend_chain((intptr_t)param_4);
 1452              		.loc 2 450 0
 1453 0024 BB69     		ldr	r3, [r7, #24]
 1454 0026 181C     		mov	r0, r3
 1455 0028 FFF7FEFF 		bl	cf_suspend_chain
 1456              	.L99:
 451:chain_flow/cf_runtime_functions.c ****    }
 452:chain_flow/cf_runtime_functions.c ****    return CF_DISABLE;
 1457              		.loc 2 452 0
 1458 002c 0223     		mov	r3, #2
 453:chain_flow/cf_runtime_functions.c **** }
 1459              		.loc 2 453 0
 1460 002e 181C     		mov	r0, r3
 1461 0030 BD46     		mov	sp, r7
 1462 0032 04B0     		add	sp, sp, #16
 1463              		@ sp needed
 1464 0034 80BD     		pop	{r7, pc}
 1465              		.cfi_endproc
 1466              	.LFE82:
 1467              		.size	suspend_chain_fn, .-suspend_chain_fn
 1468 0036 C046     		.section	.text.resume_chain_fn,"ax",%progbits
 1469              		.align	2
 1470              		.global	resume_chain_fn
 1471              		.code	16
 1472              		.thumb_func
 1473              		.type	resume_chain_fn, %function
 1474              	resume_chain_fn:
 1475              	.LFB83:
 454:chain_flow/cf_runtime_functions.c **** 
 455:chain_flow/cf_runtime_functions.c **** int resume_chain_fn( unsigned link_id, CF_FUN_AUX param_1, unsigned param_2, 
 456:chain_flow/cf_runtime_functions.c ****     unsigned param_3, unsigned param_4,  unsigned event, unsigned event_data)
 457:chain_flow/cf_runtime_functions.c **** {
 1476              		.loc 2 457 0
 1477              		.cfi_startproc
 1478 0000 80B5     		push	{r7, lr}
 1479              		.cfi_def_cfa_offset 8
 1480              		.cfi_offset 7, -8
 1481              		.cfi_offset 14, -4
 1482 0002 84B0     		sub	sp, sp, #16
 1483              		.cfi_def_cfa_offset 24
 1484 0004 00AF     		add	r7, sp, #0
 1485              		.cfi_def_cfa_register 7
 1486 0006 F860     		str	r0, [r7, #12]
 1487 0008 B960     		str	r1, [r7, #8]
 1488 000a 7A60     		str	r2, [r7, #4]
 1489 000c 3B60     		str	r3, [r7]
 458:chain_flow/cf_runtime_functions.c ****    if( event == CF_INIT_EVENT )
 1490              		.loc 2 458 0
 1491 000e FB69     		ldr	r3, [r7, #28]
 1492 0010 012B     		cmp	r3, #1
ARM GAS  C:\Users\glenn\AppData\Local\Temp\ccftzDgr.s 			page 45


 1493 0012 0BD1     		bne	.L102
 459:chain_flow/cf_runtime_functions.c ****    {
 460:chain_flow/cf_runtime_functions.c ****       
 461:chain_flow/cf_runtime_functions.c ****       cf_resume_chain((intptr_t)param_2);
 1494              		.loc 2 461 0
 1495 0014 7B68     		ldr	r3, [r7, #4]
 1496 0016 181C     		mov	r0, r3
 1497 0018 FFF7FEFF 		bl	cf_resume_chain
 462:chain_flow/cf_runtime_functions.c ****       cf_resume_chain((intptr_t)param_3);
 1498              		.loc 2 462 0
 1499 001c 3B68     		ldr	r3, [r7]
 1500 001e 181C     		mov	r0, r3
 1501 0020 FFF7FEFF 		bl	cf_resume_chain
 463:chain_flow/cf_runtime_functions.c ****       cf_resume_chain((intptr_t)param_4);
 1502              		.loc 2 463 0
 1503 0024 BB69     		ldr	r3, [r7, #24]
 1504 0026 181C     		mov	r0, r3
 1505 0028 FFF7FEFF 		bl	cf_resume_chain
 1506              	.L102:
 464:chain_flow/cf_runtime_functions.c ****    }
 465:chain_flow/cf_runtime_functions.c ****    return CF_DISABLE;
 1507              		.loc 2 465 0
 1508 002c 0223     		mov	r3, #2
 466:chain_flow/cf_runtime_functions.c **** 
 467:chain_flow/cf_runtime_functions.c **** }
 1509              		.loc 2 467 0
 1510 002e 181C     		mov	r0, r3
 1511 0030 BD46     		mov	sp, r7
 1512 0032 04B0     		add	sp, sp, #16
 1513              		@ sp needed
 1514 0034 80BD     		pop	{r7, pc}
 1515              		.cfi_endproc
 1516              	.LFE83:
 1517              		.size	resume_chain_fn, .-resume_chain_fn
 1518 0036 C046     		.text
 1519              	.Letext0:
 1520              		.file 3 "c:\\program files (x86)\\cypress\\psoc creator\\4.0\\psoc creator\\import\\gnu\\arm\\4.9.
 1521              		.file 4 "c:\\program files (x86)\\cypress\\psoc creator\\4.0\\psoc creator\\import\\gnu\\arm\\4.9.
 1522              		.file 5 "Generated_Source\\PSoC4/cytypes.h"
 1523              		.file 6 "chain_flow\\cf_chain_flow_support.h"
 1524              		.section	.debug_info,"",%progbits
 1525              	.Ldebug_info0:
 1526 0000 5D0D0000 		.4byte	0xd5d
 1527 0004 0400     		.2byte	0x4
 1528 0006 00000000 		.4byte	.Ldebug_abbrev0
 1529 000a 04       		.byte	0x4
 1530 000b 01       		.uleb128 0x1
 1531 000c 5B000000 		.4byte	.LASF58
 1532 0010 01       		.byte	0x1
 1533 0011 EA010000 		.4byte	.LASF59
 1534 0015 3F030000 		.4byte	.LASF60
 1535 0019 00000000 		.4byte	.Ldebug_ranges0+0
 1536 001d 00000000 		.4byte	0
 1537 0021 00000000 		.4byte	.Ldebug_line0
 1538 0025 02       		.uleb128 0x2
 1539 0026 01       		.byte	0x1
 1540 0027 06       		.byte	0x6
ARM GAS  C:\Users\glenn\AppData\Local\Temp\ccftzDgr.s 			page 46


 1541 0028 95030000 		.4byte	.LASF0
 1542 002c 02       		.uleb128 0x2
 1543 002d 01       		.byte	0x1
 1544 002e 08       		.byte	0x8
 1545 002f 3D010000 		.4byte	.LASF1
 1546 0033 02       		.uleb128 0x2
 1547 0034 02       		.byte	0x2
 1548 0035 05       		.byte	0x5
 1549 0036 C1020000 		.4byte	.LASF2
 1550 003a 02       		.uleb128 0x2
 1551 003b 02       		.byte	0x2
 1552 003c 07       		.byte	0x7
 1553 003d 72010000 		.4byte	.LASF3
 1554 0041 02       		.uleb128 0x2
 1555 0042 04       		.byte	0x4
 1556 0043 05       		.byte	0x5
 1557 0044 1B030000 		.4byte	.LASF4
 1558 0048 02       		.uleb128 0x2
 1559 0049 04       		.byte	0x4
 1560 004a 07       		.byte	0x7
 1561 004b 60010000 		.4byte	.LASF5
 1562 004f 02       		.uleb128 0x2
 1563 0050 08       		.byte	0x8
 1564 0051 05       		.byte	0x5
 1565 0052 00000000 		.4byte	.LASF6
 1566 0056 02       		.uleb128 0x2
 1567 0057 08       		.byte	0x8
 1568 0058 07       		.byte	0x7
 1569 0059 40020000 		.4byte	.LASF7
 1570 005d 03       		.uleb128 0x3
 1571 005e 2F000000 		.4byte	.LASF9
 1572 0062 03       		.byte	0x3
 1573 0063 C8       		.byte	0xc8
 1574 0064 68000000 		.4byte	0x68
 1575 0068 04       		.uleb128 0x4
 1576 0069 04       		.byte	0x4
 1577 006a 05       		.byte	0x5
 1578 006b 696E7400 		.ascii	"int\000"
 1579 006f 02       		.uleb128 0x2
 1580 0070 04       		.byte	0x4
 1581 0071 07       		.byte	0x7
 1582 0072 0C020000 		.4byte	.LASF8
 1583 0076 03       		.uleb128 0x3
 1584 0077 19020000 		.4byte	.LASF10
 1585 007b 04       		.byte	0x4
 1586 007c A9       		.byte	0xa9
 1587 007d 5D000000 		.4byte	0x5d
 1588 0081 02       		.uleb128 0x2
 1589 0082 04       		.byte	0x4
 1590 0083 07       		.byte	0x7
 1591 0084 75020000 		.4byte	.LASF11
 1592 0088 02       		.uleb128 0x2
 1593 0089 01       		.byte	0x1
 1594 008a 08       		.byte	0x8
 1595 008b 96020000 		.4byte	.LASF12
 1596 008f 05       		.uleb128 0x5
 1597 0090 D0010000 		.4byte	.LASF13
ARM GAS  C:\Users\glenn\AppData\Local\Temp\ccftzDgr.s 			page 47


 1598 0094 05       		.byte	0x5
 1599 0095 9A01     		.2byte	0x19a
 1600 0097 48000000 		.4byte	0x48
 1601 009b 02       		.uleb128 0x2
 1602 009c 04       		.byte	0x4
 1603 009d 04       		.byte	0x4
 1604 009e 27010000 		.4byte	.LASF14
 1605 00a2 02       		.uleb128 0x2
 1606 00a3 08       		.byte	0x8
 1607 00a4 04       		.byte	0x4
 1608 00a5 0C010000 		.4byte	.LASF15
 1609 00a9 03       		.uleb128 0x3
 1610 00aa 8B020000 		.4byte	.LASF16
 1611 00ae 06       		.byte	0x6
 1612 00af 19       		.byte	0x19
 1613 00b0 B4000000 		.4byte	0xb4
 1614 00b4 06       		.uleb128 0x6
 1615 00b5 04       		.byte	0x4
 1616 00b6 BA000000 		.4byte	0xba
 1617 00ba 07       		.uleb128 0x7
 1618 00bb 68000000 		.4byte	0x68
 1619 00bf E2000000 		.4byte	0xe2
 1620 00c3 08       		.uleb128 0x8
 1621 00c4 6F000000 		.4byte	0x6f
 1622 00c8 08       		.uleb128 0x8
 1623 00c9 6F000000 		.4byte	0x6f
 1624 00cd 08       		.uleb128 0x8
 1625 00ce 6F000000 		.4byte	0x6f
 1626 00d2 08       		.uleb128 0x8
 1627 00d3 6F000000 		.4byte	0x6f
 1628 00d7 08       		.uleb128 0x8
 1629 00d8 6F000000 		.4byte	0x6f
 1630 00dc 08       		.uleb128 0x8
 1631 00dd 6F000000 		.4byte	0x6f
 1632 00e1 00       		.byte	0
 1633 00e2 09       		.uleb128 0x9
 1634 00e3 0B030000 		.4byte	.LASF17
 1635 00e7 01       		.byte	0x1
 1636 00e8 F101     		.2byte	0x1f1
 1637 00ea 8F000000 		.4byte	0x8f
 1638 00ee 00000000 		.4byte	.LFB37
 1639 00f2 30000000 		.4byte	.LFE37-.LFB37
 1640 00f6 01       		.uleb128 0x1
 1641 00f7 9C       		.byte	0x9c
 1642 00f8 1B010000 		.4byte	0x11b
 1643 00fc 0A       		.uleb128 0xa
 1644 00fd 56010000 		.4byte	.LASF19
 1645 0101 01       		.byte	0x1
 1646 0102 F101     		.2byte	0x1f1
 1647 0104 8F000000 		.4byte	0x8f
 1648 0108 02       		.uleb128 0x2
 1649 0109 91       		.byte	0x91
 1650 010a 6C       		.sleb128 -20
 1651 010b 0B       		.uleb128 0xb
 1652 010c 13010000 		.4byte	.LASF20
 1653 0110 01       		.byte	0x1
 1654 0111 F301     		.2byte	0x1f3
ARM GAS  C:\Users\glenn\AppData\Local\Temp\ccftzDgr.s 			page 48


 1655 0113 8F000000 		.4byte	0x8f
 1656 0117 02       		.uleb128 0x2
 1657 0118 91       		.byte	0x91
 1658 0119 74       		.sleb128 -12
 1659 011a 00       		.byte	0
 1660 011b 09       		.uleb128 0x9
 1661 011c B0020000 		.4byte	.LASF18
 1662 0120 01       		.byte	0x1
 1663 0121 0B02     		.2byte	0x20b
 1664 0123 8F000000 		.4byte	0x8f
 1665 0127 00000000 		.4byte	.LFB38
 1666 012b 36000000 		.4byte	.LFE38-.LFB38
 1667 012f 01       		.uleb128 0x1
 1668 0130 9C       		.byte	0x9c
 1669 0131 54010000 		.4byte	0x154
 1670 0135 0A       		.uleb128 0xa
 1671 0136 56010000 		.4byte	.LASF19
 1672 013a 01       		.byte	0x1
 1673 013b 0B02     		.2byte	0x20b
 1674 013d 8F000000 		.4byte	0x8f
 1675 0141 02       		.uleb128 0x2
 1676 0142 91       		.byte	0x91
 1677 0143 6C       		.sleb128 -20
 1678 0144 0B       		.uleb128 0xb
 1679 0145 13010000 		.4byte	.LASF20
 1680 0149 01       		.byte	0x1
 1681 014a 0D02     		.2byte	0x20d
 1682 014c 8F000000 		.4byte	0x8f
 1683 0150 02       		.uleb128 0x2
 1684 0151 91       		.byte	0x91
 1685 0152 74       		.sleb128 -12
 1686 0153 00       		.byte	0
 1687 0154 09       		.uleb128 0x9
 1688 0155 4C000000 		.4byte	.LASF21
 1689 0159 01       		.byte	0x1
 1690 015a 2402     		.2byte	0x224
 1691 015c 8F000000 		.4byte	0x8f
 1692 0160 00000000 		.4byte	.LFB39
 1693 0164 36000000 		.4byte	.LFE39-.LFB39
 1694 0168 01       		.uleb128 0x1
 1695 0169 9C       		.byte	0x9c
 1696 016a 8D010000 		.4byte	0x18d
 1697 016e 0A       		.uleb128 0xa
 1698 016f 56010000 		.4byte	.LASF19
 1699 0173 01       		.byte	0x1
 1700 0174 2402     		.2byte	0x224
 1701 0176 8F000000 		.4byte	0x8f
 1702 017a 02       		.uleb128 0x2
 1703 017b 91       		.byte	0x91
 1704 017c 6C       		.sleb128 -20
 1705 017d 0B       		.uleb128 0xb
 1706 017e 13010000 		.4byte	.LASF20
 1707 0182 01       		.byte	0x1
 1708 0183 2602     		.2byte	0x226
 1709 0185 8F000000 		.4byte	0x8f
 1710 0189 02       		.uleb128 0x2
 1711 018a 91       		.byte	0x91
ARM GAS  C:\Users\glenn\AppData\Local\Temp\ccftzDgr.s 			page 49


 1712 018b 74       		.sleb128 -12
 1713 018c 00       		.byte	0
 1714 018d 0C       		.uleb128 0xc
 1715 018e 7E020000 		.4byte	.LASF29
 1716 0192 02       		.byte	0x2
 1717 0193 13       		.byte	0x13
 1718 0194 68000000 		.4byte	0x68
 1719 0198 00000000 		.4byte	.LFB62
 1720 019c 18000000 		.4byte	.LFE62-.LFB62
 1721 01a0 01       		.uleb128 0x1
 1722 01a1 9C       		.byte	0x9c
 1723 01a2 09020000 		.4byte	0x209
 1724 01a6 0D       		.uleb128 0xd
 1725 01a7 B7010000 		.4byte	.LASF22
 1726 01ab 02       		.byte	0x2
 1727 01ac 13       		.byte	0x13
 1728 01ad 6F000000 		.4byte	0x6f
 1729 01b1 02       		.uleb128 0x2
 1730 01b2 91       		.byte	0x91
 1731 01b3 74       		.sleb128 -12
 1732 01b4 0D       		.uleb128 0xd
 1733 01b5 85010000 		.4byte	.LASF23
 1734 01b9 02       		.byte	0x2
 1735 01ba 13       		.byte	0x13
 1736 01bb A9000000 		.4byte	0xa9
 1737 01bf 02       		.uleb128 0x2
 1738 01c0 91       		.byte	0x91
 1739 01c1 70       		.sleb128 -16
 1740 01c2 0D       		.uleb128 0xd
 1741 01c3 8D010000 		.4byte	.LASF24
 1742 01c7 02       		.byte	0x2
 1743 01c8 13       		.byte	0x13
 1744 01c9 6F000000 		.4byte	0x6f
 1745 01cd 02       		.uleb128 0x2
 1746 01ce 91       		.byte	0x91
 1747 01cf 6C       		.sleb128 -20
 1748 01d0 0D       		.uleb128 0xd
 1749 01d1 95010000 		.4byte	.LASF25
 1750 01d5 02       		.byte	0x2
 1751 01d6 14       		.byte	0x14
 1752 01d7 6F000000 		.4byte	0x6f
 1753 01db 02       		.uleb128 0x2
 1754 01dc 91       		.byte	0x91
 1755 01dd 68       		.sleb128 -24
 1756 01de 0D       		.uleb128 0xd
 1757 01df 9D010000 		.4byte	.LASF26
 1758 01e3 02       		.byte	0x2
 1759 01e4 14       		.byte	0x14
 1760 01e5 6F000000 		.4byte	0x6f
 1761 01e9 02       		.uleb128 0x2
 1762 01ea 91       		.byte	0x91
 1763 01eb 00       		.sleb128 0
 1764 01ec 0D       		.uleb128 0xd
 1765 01ed D7010000 		.4byte	.LASF27
 1766 01f1 02       		.byte	0x2
 1767 01f2 14       		.byte	0x14
 1768 01f3 6F000000 		.4byte	0x6f
ARM GAS  C:\Users\glenn\AppData\Local\Temp\ccftzDgr.s 			page 50


 1769 01f7 02       		.uleb128 0x2
 1770 01f8 91       		.byte	0x91
 1771 01f9 04       		.sleb128 4
 1772 01fa 0D       		.uleb128 0xd
 1773 01fb 4B010000 		.4byte	.LASF28
 1774 01ff 02       		.byte	0x2
 1775 0200 14       		.byte	0x14
 1776 0201 6F000000 		.4byte	0x6f
 1777 0205 02       		.uleb128 0x2
 1778 0206 91       		.byte	0x91
 1779 0207 08       		.sleb128 8
 1780 0208 00       		.byte	0
 1781 0209 0C       		.uleb128 0xc
 1782 020a 38020000 		.4byte	.LASF30
 1783 020e 02       		.byte	0x2
 1784 020f 1A       		.byte	0x1a
 1785 0210 68000000 		.4byte	0x68
 1786 0214 00000000 		.4byte	.LFB63
 1787 0218 18000000 		.4byte	.LFE63-.LFB63
 1788 021c 01       		.uleb128 0x1
 1789 021d 9C       		.byte	0x9c
 1790 021e 85020000 		.4byte	0x285
 1791 0222 0D       		.uleb128 0xd
 1792 0223 B7010000 		.4byte	.LASF22
 1793 0227 02       		.byte	0x2
 1794 0228 1A       		.byte	0x1a
 1795 0229 6F000000 		.4byte	0x6f
 1796 022d 02       		.uleb128 0x2
 1797 022e 91       		.byte	0x91
 1798 022f 74       		.sleb128 -12
 1799 0230 0D       		.uleb128 0xd
 1800 0231 85010000 		.4byte	.LASF23
 1801 0235 02       		.byte	0x2
 1802 0236 1A       		.byte	0x1a
 1803 0237 A9000000 		.4byte	0xa9
 1804 023b 02       		.uleb128 0x2
 1805 023c 91       		.byte	0x91
 1806 023d 70       		.sleb128 -16
 1807 023e 0D       		.uleb128 0xd
 1808 023f 8D010000 		.4byte	.LASF24
 1809 0243 02       		.byte	0x2
 1810 0244 1A       		.byte	0x1a
 1811 0245 6F000000 		.4byte	0x6f
 1812 0249 02       		.uleb128 0x2
 1813 024a 91       		.byte	0x91
 1814 024b 6C       		.sleb128 -20
 1815 024c 0D       		.uleb128 0xd
 1816 024d 95010000 		.4byte	.LASF25
 1817 0251 02       		.byte	0x2
 1818 0252 1B       		.byte	0x1b
 1819 0253 6F000000 		.4byte	0x6f
 1820 0257 02       		.uleb128 0x2
 1821 0258 91       		.byte	0x91
 1822 0259 68       		.sleb128 -24
 1823 025a 0D       		.uleb128 0xd
 1824 025b 9D010000 		.4byte	.LASF26
 1825 025f 02       		.byte	0x2
ARM GAS  C:\Users\glenn\AppData\Local\Temp\ccftzDgr.s 			page 51


 1826 0260 1B       		.byte	0x1b
 1827 0261 6F000000 		.4byte	0x6f
 1828 0265 02       		.uleb128 0x2
 1829 0266 91       		.byte	0x91
 1830 0267 00       		.sleb128 0
 1831 0268 0D       		.uleb128 0xd
 1832 0269 D7010000 		.4byte	.LASF27
 1833 026d 02       		.byte	0x2
 1834 026e 1B       		.byte	0x1b
 1835 026f 6F000000 		.4byte	0x6f
 1836 0273 02       		.uleb128 0x2
 1837 0274 91       		.byte	0x91
 1838 0275 04       		.sleb128 4
 1839 0276 0D       		.uleb128 0xd
 1840 0277 4B010000 		.4byte	.LASF28
 1841 027b 02       		.byte	0x2
 1842 027c 1B       		.byte	0x1b
 1843 027d 6F000000 		.4byte	0x6f
 1844 0281 02       		.uleb128 0x2
 1845 0282 91       		.byte	0x91
 1846 0283 08       		.sleb128 8
 1847 0284 00       		.byte	0
 1848 0285 0C       		.uleb128 0xc
 1849 0286 03010000 		.4byte	.LASF31
 1850 028a 02       		.byte	0x2
 1851 028b 23       		.byte	0x23
 1852 028c 68000000 		.4byte	0x68
 1853 0290 00000000 		.4byte	.LFB64
 1854 0294 18000000 		.4byte	.LFE64-.LFB64
 1855 0298 01       		.uleb128 0x1
 1856 0299 9C       		.byte	0x9c
 1857 029a 01030000 		.4byte	0x301
 1858 029e 0D       		.uleb128 0xd
 1859 029f B7010000 		.4byte	.LASF22
 1860 02a3 02       		.byte	0x2
 1861 02a4 23       		.byte	0x23
 1862 02a5 6F000000 		.4byte	0x6f
 1863 02a9 02       		.uleb128 0x2
 1864 02aa 91       		.byte	0x91
 1865 02ab 74       		.sleb128 -12
 1866 02ac 0D       		.uleb128 0xd
 1867 02ad 85010000 		.4byte	.LASF23
 1868 02b1 02       		.byte	0x2
 1869 02b2 23       		.byte	0x23
 1870 02b3 A9000000 		.4byte	0xa9
 1871 02b7 02       		.uleb128 0x2
 1872 02b8 91       		.byte	0x91
 1873 02b9 70       		.sleb128 -16
 1874 02ba 0D       		.uleb128 0xd
 1875 02bb 8D010000 		.4byte	.LASF24
 1876 02bf 02       		.byte	0x2
 1877 02c0 23       		.byte	0x23
 1878 02c1 6F000000 		.4byte	0x6f
 1879 02c5 02       		.uleb128 0x2
 1880 02c6 91       		.byte	0x91
 1881 02c7 6C       		.sleb128 -20
 1882 02c8 0D       		.uleb128 0xd
ARM GAS  C:\Users\glenn\AppData\Local\Temp\ccftzDgr.s 			page 52


 1883 02c9 95010000 		.4byte	.LASF25
 1884 02cd 02       		.byte	0x2
 1885 02ce 24       		.byte	0x24
 1886 02cf 6F000000 		.4byte	0x6f
 1887 02d3 02       		.uleb128 0x2
 1888 02d4 91       		.byte	0x91
 1889 02d5 68       		.sleb128 -24
 1890 02d6 0D       		.uleb128 0xd
 1891 02d7 9D010000 		.4byte	.LASF26
 1892 02db 02       		.byte	0x2
 1893 02dc 24       		.byte	0x24
 1894 02dd 6F000000 		.4byte	0x6f
 1895 02e1 02       		.uleb128 0x2
 1896 02e2 91       		.byte	0x91
 1897 02e3 00       		.sleb128 0
 1898 02e4 0D       		.uleb128 0xd
 1899 02e5 D7010000 		.4byte	.LASF27
 1900 02e9 02       		.byte	0x2
 1901 02ea 24       		.byte	0x24
 1902 02eb 6F000000 		.4byte	0x6f
 1903 02ef 02       		.uleb128 0x2
 1904 02f0 91       		.byte	0x91
 1905 02f1 04       		.sleb128 4
 1906 02f2 0D       		.uleb128 0xd
 1907 02f3 4B010000 		.4byte	.LASF28
 1908 02f7 02       		.byte	0x2
 1909 02f8 24       		.byte	0x24
 1910 02f9 6F000000 		.4byte	0x6f
 1911 02fd 02       		.uleb128 0x2
 1912 02fe 91       		.byte	0x91
 1913 02ff 08       		.sleb128 8
 1914 0300 00       		.byte	0
 1915 0301 0E       		.uleb128 0xe
 1916 0302 A4020000 		.4byte	.LASF32
 1917 0306 02       		.byte	0x2
 1918 0307 2B       		.byte	0x2b
 1919 0308 68000000 		.4byte	0x68
 1920 030c 00000000 		.4byte	.LFB65
 1921 0310 3E000000 		.4byte	.LFE65-.LFB65
 1922 0314 01       		.uleb128 0x1
 1923 0315 9C       		.byte	0x9c
 1924 0316 8B030000 		.4byte	0x38b
 1925 031a 0D       		.uleb128 0xd
 1926 031b B7010000 		.4byte	.LASF22
 1927 031f 02       		.byte	0x2
 1928 0320 2B       		.byte	0x2b
 1929 0321 6F000000 		.4byte	0x6f
 1930 0325 02       		.uleb128 0x2
 1931 0326 91       		.byte	0x91
 1932 0327 64       		.sleb128 -28
 1933 0328 0D       		.uleb128 0xd
 1934 0329 85010000 		.4byte	.LASF23
 1935 032d 02       		.byte	0x2
 1936 032e 2B       		.byte	0x2b
 1937 032f A9000000 		.4byte	0xa9
 1938 0333 02       		.uleb128 0x2
 1939 0334 91       		.byte	0x91
ARM GAS  C:\Users\glenn\AppData\Local\Temp\ccftzDgr.s 			page 53


 1940 0335 60       		.sleb128 -32
 1941 0336 0D       		.uleb128 0xd
 1942 0337 8D010000 		.4byte	.LASF24
 1943 033b 02       		.byte	0x2
 1944 033c 2B       		.byte	0x2b
 1945 033d 6F000000 		.4byte	0x6f
 1946 0341 02       		.uleb128 0x2
 1947 0342 91       		.byte	0x91
 1948 0343 5C       		.sleb128 -36
 1949 0344 0D       		.uleb128 0xd
 1950 0345 95010000 		.4byte	.LASF25
 1951 0349 02       		.byte	0x2
 1952 034a 2C       		.byte	0x2c
 1953 034b 6F000000 		.4byte	0x6f
 1954 034f 02       		.uleb128 0x2
 1955 0350 91       		.byte	0x91
 1956 0351 58       		.sleb128 -40
 1957 0352 0D       		.uleb128 0xd
 1958 0353 9D010000 		.4byte	.LASF26
 1959 0357 02       		.byte	0x2
 1960 0358 2C       		.byte	0x2c
 1961 0359 6F000000 		.4byte	0x6f
 1962 035d 02       		.uleb128 0x2
 1963 035e 91       		.byte	0x91
 1964 035f 00       		.sleb128 0
 1965 0360 0D       		.uleb128 0xd
 1966 0361 D7010000 		.4byte	.LASF27
 1967 0365 02       		.byte	0x2
 1968 0366 2C       		.byte	0x2c
 1969 0367 6F000000 		.4byte	0x6f
 1970 036b 02       		.uleb128 0x2
 1971 036c 91       		.byte	0x91
 1972 036d 04       		.sleb128 4
 1973 036e 0D       		.uleb128 0xd
 1974 036f 4B010000 		.4byte	.LASF28
 1975 0373 02       		.byte	0x2
 1976 0374 2C       		.byte	0x2c
 1977 0375 6F000000 		.4byte	0x6f
 1978 0379 02       		.uleb128 0x2
 1979 037a 91       		.byte	0x91
 1980 037b 08       		.sleb128 8
 1981 037c 0F       		.uleb128 0xf
 1982 037d 1A010000 		.4byte	.LASF33
 1983 0381 02       		.byte	0x2
 1984 0382 2E       		.byte	0x2e
 1985 0383 68000000 		.4byte	0x68
 1986 0387 02       		.uleb128 0x2
 1987 0388 91       		.byte	0x91
 1988 0389 6C       		.sleb128 -20
 1989 038a 00       		.byte	0
 1990 038b 0E       		.uleb128 0xe
 1991 038c A1030000 		.4byte	.LASF34
 1992 0390 02       		.byte	0x2
 1993 0391 3C       		.byte	0x3c
 1994 0392 68000000 		.4byte	0x68
 1995 0396 00000000 		.4byte	.LFB66
 1996 039a 2E000000 		.4byte	.LFE66-.LFB66
ARM GAS  C:\Users\glenn\AppData\Local\Temp\ccftzDgr.s 			page 54


 1997 039e 01       		.uleb128 0x1
 1998 039f 9C       		.byte	0x9c
 1999 03a0 07040000 		.4byte	0x407
 2000 03a4 0D       		.uleb128 0xd
 2001 03a5 B7010000 		.4byte	.LASF22
 2002 03a9 02       		.byte	0x2
 2003 03aa 3C       		.byte	0x3c
 2004 03ab 6F000000 		.4byte	0x6f
 2005 03af 02       		.uleb128 0x2
 2006 03b0 91       		.byte	0x91
 2007 03b1 6C       		.sleb128 -20
 2008 03b2 0D       		.uleb128 0xd
 2009 03b3 85010000 		.4byte	.LASF23
 2010 03b7 02       		.byte	0x2
 2011 03b8 3C       		.byte	0x3c
 2012 03b9 A9000000 		.4byte	0xa9
 2013 03bd 02       		.uleb128 0x2
 2014 03be 91       		.byte	0x91
 2015 03bf 68       		.sleb128 -24
 2016 03c0 0D       		.uleb128 0xd
 2017 03c1 8D010000 		.4byte	.LASF24
 2018 03c5 02       		.byte	0x2
 2019 03c6 3C       		.byte	0x3c
 2020 03c7 6F000000 		.4byte	0x6f
 2021 03cb 02       		.uleb128 0x2
 2022 03cc 91       		.byte	0x91
 2023 03cd 64       		.sleb128 -28
 2024 03ce 0D       		.uleb128 0xd
 2025 03cf 95010000 		.4byte	.LASF25
 2026 03d3 02       		.byte	0x2
 2027 03d4 3D       		.byte	0x3d
 2028 03d5 6F000000 		.4byte	0x6f
 2029 03d9 02       		.uleb128 0x2
 2030 03da 91       		.byte	0x91
 2031 03db 60       		.sleb128 -32
 2032 03dc 0D       		.uleb128 0xd
 2033 03dd 9D010000 		.4byte	.LASF26
 2034 03e1 02       		.byte	0x2
 2035 03e2 3D       		.byte	0x3d
 2036 03e3 6F000000 		.4byte	0x6f
 2037 03e7 02       		.uleb128 0x2
 2038 03e8 91       		.byte	0x91
 2039 03e9 00       		.sleb128 0
 2040 03ea 0D       		.uleb128 0xd
 2041 03eb D7010000 		.4byte	.LASF27
 2042 03ef 02       		.byte	0x2
 2043 03f0 3D       		.byte	0x3d
 2044 03f1 6F000000 		.4byte	0x6f
 2045 03f5 02       		.uleb128 0x2
 2046 03f6 91       		.byte	0x91
 2047 03f7 04       		.sleb128 4
 2048 03f8 0D       		.uleb128 0xd
 2049 03f9 4B010000 		.4byte	.LASF28
 2050 03fd 02       		.byte	0x2
 2051 03fe 3D       		.byte	0x3d
 2052 03ff 6F000000 		.4byte	0x6f
 2053 0403 02       		.uleb128 0x2
ARM GAS  C:\Users\glenn\AppData\Local\Temp\ccftzDgr.s 			page 55


 2054 0404 91       		.byte	0x91
 2055 0405 08       		.sleb128 8
 2056 0406 00       		.byte	0
 2057 0407 0E       		.uleb128 0xe
 2058 0408 62020000 		.4byte	.LASF35
 2059 040c 02       		.byte	0x2
 2060 040d 45       		.byte	0x45
 2061 040e 68000000 		.4byte	0x68
 2062 0412 00000000 		.4byte	.LFB67
 2063 0416 2A000000 		.4byte	.LFE67-.LFB67
 2064 041a 01       		.uleb128 0x1
 2065 041b 9C       		.byte	0x9c
 2066 041c 83040000 		.4byte	0x483
 2067 0420 0D       		.uleb128 0xd
 2068 0421 B7010000 		.4byte	.LASF22
 2069 0425 02       		.byte	0x2
 2070 0426 45       		.byte	0x45
 2071 0427 6F000000 		.4byte	0x6f
 2072 042b 02       		.uleb128 0x2
 2073 042c 91       		.byte	0x91
 2074 042d 74       		.sleb128 -12
 2075 042e 0D       		.uleb128 0xd
 2076 042f 85010000 		.4byte	.LASF23
 2077 0433 02       		.byte	0x2
 2078 0434 45       		.byte	0x45
 2079 0435 A9000000 		.4byte	0xa9
 2080 0439 02       		.uleb128 0x2
 2081 043a 91       		.byte	0x91
 2082 043b 70       		.sleb128 -16
 2083 043c 0D       		.uleb128 0xd
 2084 043d 8D010000 		.4byte	.LASF24
 2085 0441 02       		.byte	0x2
 2086 0442 45       		.byte	0x45
 2087 0443 6F000000 		.4byte	0x6f
 2088 0447 02       		.uleb128 0x2
 2089 0448 91       		.byte	0x91
 2090 0449 6C       		.sleb128 -20
 2091 044a 0D       		.uleb128 0xd
 2092 044b 95010000 		.4byte	.LASF25
 2093 044f 02       		.byte	0x2
 2094 0450 46       		.byte	0x46
 2095 0451 6F000000 		.4byte	0x6f
 2096 0455 02       		.uleb128 0x2
 2097 0456 91       		.byte	0x91
 2098 0457 68       		.sleb128 -24
 2099 0458 0D       		.uleb128 0xd
 2100 0459 9D010000 		.4byte	.LASF26
 2101 045d 02       		.byte	0x2
 2102 045e 46       		.byte	0x46
 2103 045f 6F000000 		.4byte	0x6f
 2104 0463 02       		.uleb128 0x2
 2105 0464 91       		.byte	0x91
 2106 0465 00       		.sleb128 0
 2107 0466 0D       		.uleb128 0xd
 2108 0467 D7010000 		.4byte	.LASF27
 2109 046b 02       		.byte	0x2
 2110 046c 46       		.byte	0x46
ARM GAS  C:\Users\glenn\AppData\Local\Temp\ccftzDgr.s 			page 56


 2111 046d 6F000000 		.4byte	0x6f
 2112 0471 02       		.uleb128 0x2
 2113 0472 91       		.byte	0x91
 2114 0473 04       		.sleb128 4
 2115 0474 0D       		.uleb128 0xd
 2116 0475 4B010000 		.4byte	.LASF28
 2117 0479 02       		.byte	0x2
 2118 047a 46       		.byte	0x46
 2119 047b 6F000000 		.4byte	0x6f
 2120 047f 02       		.uleb128 0x2
 2121 0480 91       		.byte	0x91
 2122 0481 08       		.sleb128 8
 2123 0482 00       		.byte	0
 2124 0483 0E       		.uleb128 0xe
 2125 0484 FF020000 		.4byte	.LASF36
 2126 0488 02       		.byte	0x2
 2127 0489 51       		.byte	0x51
 2128 048a 68000000 		.4byte	0x68
 2129 048e 00000000 		.4byte	.LFB68
 2130 0492 66000000 		.4byte	.LFE68-.LFB68
 2131 0496 01       		.uleb128 0x1
 2132 0497 9C       		.byte	0x9c
 2133 0498 0D050000 		.4byte	0x50d
 2134 049c 0D       		.uleb128 0xd
 2135 049d B7010000 		.4byte	.LASF22
 2136 04a1 02       		.byte	0x2
 2137 04a2 51       		.byte	0x51
 2138 04a3 6F000000 		.4byte	0x6f
 2139 04a7 02       		.uleb128 0x2
 2140 04a8 91       		.byte	0x91
 2141 04a9 6C       		.sleb128 -20
 2142 04aa 0D       		.uleb128 0xd
 2143 04ab 85010000 		.4byte	.LASF23
 2144 04af 02       		.byte	0x2
 2145 04b0 51       		.byte	0x51
 2146 04b1 A9000000 		.4byte	0xa9
 2147 04b5 02       		.uleb128 0x2
 2148 04b6 91       		.byte	0x91
 2149 04b7 68       		.sleb128 -24
 2150 04b8 0D       		.uleb128 0xd
 2151 04b9 8D010000 		.4byte	.LASF24
 2152 04bd 02       		.byte	0x2
 2153 04be 51       		.byte	0x51
 2154 04bf 6F000000 		.4byte	0x6f
 2155 04c3 02       		.uleb128 0x2
 2156 04c4 91       		.byte	0x91
 2157 04c5 64       		.sleb128 -28
 2158 04c6 0D       		.uleb128 0xd
 2159 04c7 95010000 		.4byte	.LASF25
 2160 04cb 02       		.byte	0x2
 2161 04cc 52       		.byte	0x52
 2162 04cd 6F000000 		.4byte	0x6f
 2163 04d1 02       		.uleb128 0x2
 2164 04d2 91       		.byte	0x91
 2165 04d3 60       		.sleb128 -32
 2166 04d4 0D       		.uleb128 0xd
 2167 04d5 9D010000 		.4byte	.LASF26
ARM GAS  C:\Users\glenn\AppData\Local\Temp\ccftzDgr.s 			page 57


 2168 04d9 02       		.byte	0x2
 2169 04da 52       		.byte	0x52
 2170 04db 6F000000 		.4byte	0x6f
 2171 04df 02       		.uleb128 0x2
 2172 04e0 91       		.byte	0x91
 2173 04e1 00       		.sleb128 0
 2174 04e2 0D       		.uleb128 0xd
 2175 04e3 D7010000 		.4byte	.LASF27
 2176 04e7 02       		.byte	0x2
 2177 04e8 52       		.byte	0x52
 2178 04e9 6F000000 		.4byte	0x6f
 2179 04ed 02       		.uleb128 0x2
 2180 04ee 91       		.byte	0x91
 2181 04ef 04       		.sleb128 4
 2182 04f0 0D       		.uleb128 0xd
 2183 04f1 4B010000 		.4byte	.LASF28
 2184 04f5 02       		.byte	0x2
 2185 04f6 52       		.byte	0x52
 2186 04f7 6F000000 		.4byte	0x6f
 2187 04fb 02       		.uleb128 0x2
 2188 04fc 91       		.byte	0x91
 2189 04fd 08       		.sleb128 8
 2190 04fe 0F       		.uleb128 0xf
 2191 04ff 70020000 		.4byte	.LASF37
 2192 0503 02       		.byte	0x2
 2193 0504 54       		.byte	0x54
 2194 0505 8F000000 		.4byte	0x8f
 2195 0509 02       		.uleb128 0x2
 2196 050a 91       		.byte	0x91
 2197 050b 74       		.sleb128 -12
 2198 050c 00       		.byte	0
 2199 050d 0E       		.uleb128 0xe
 2200 050e EF000000 		.4byte	.LASF38
 2201 0512 02       		.byte	0x2
 2202 0513 67       		.byte	0x67
 2203 0514 68000000 		.4byte	0x68
 2204 0518 00000000 		.4byte	.LFB69
 2205 051c 6A000000 		.4byte	.LFE69-.LFB69
 2206 0520 01       		.uleb128 0x1
 2207 0521 9C       		.byte	0x9c
 2208 0522 A5050000 		.4byte	0x5a5
 2209 0526 0D       		.uleb128 0xd
 2210 0527 B7010000 		.4byte	.LASF22
 2211 052b 02       		.byte	0x2
 2212 052c 67       		.byte	0x67
 2213 052d 6F000000 		.4byte	0x6f
 2214 0531 02       		.uleb128 0x2
 2215 0532 91       		.byte	0x91
 2216 0533 6C       		.sleb128 -20
 2217 0534 0D       		.uleb128 0xd
 2218 0535 85010000 		.4byte	.LASF23
 2219 0539 02       		.byte	0x2
 2220 053a 67       		.byte	0x67
 2221 053b A9000000 		.4byte	0xa9
 2222 053f 02       		.uleb128 0x2
 2223 0540 91       		.byte	0x91
 2224 0541 68       		.sleb128 -24
ARM GAS  C:\Users\glenn\AppData\Local\Temp\ccftzDgr.s 			page 58


 2225 0542 0D       		.uleb128 0xd
 2226 0543 2D010000 		.4byte	.LASF39
 2227 0547 02       		.byte	0x2
 2228 0548 67       		.byte	0x67
 2229 0549 6F000000 		.4byte	0x6f
 2230 054d 02       		.uleb128 0x2
 2231 054e 91       		.byte	0x91
 2232 054f 64       		.sleb128 -28
 2233 0550 0D       		.uleb128 0xd
 2234 0551 BC030000 		.4byte	.LASF40
 2235 0555 02       		.byte	0x2
 2236 0556 68       		.byte	0x68
 2237 0557 6F000000 		.4byte	0x6f
 2238 055b 02       		.uleb128 0x2
 2239 055c 91       		.byte	0x91
 2240 055d 60       		.sleb128 -32
 2241 055e 0D       		.uleb128 0xd
 2242 055f 9D010000 		.4byte	.LASF26
 2243 0563 02       		.byte	0x2
 2244 0564 68       		.byte	0x68
 2245 0565 6F000000 		.4byte	0x6f
 2246 0569 02       		.uleb128 0x2
 2247 056a 91       		.byte	0x91
 2248 056b 00       		.sleb128 0
 2249 056c 0D       		.uleb128 0xd
 2250 056d D7010000 		.4byte	.LASF27
 2251 0571 02       		.byte	0x2
 2252 0572 68       		.byte	0x68
 2253 0573 6F000000 		.4byte	0x6f
 2254 0577 02       		.uleb128 0x2
 2255 0578 91       		.byte	0x91
 2256 0579 04       		.sleb128 4
 2257 057a 0D       		.uleb128 0xd
 2258 057b 4B010000 		.4byte	.LASF28
 2259 057f 02       		.byte	0x2
 2260 0580 68       		.byte	0x68
 2261 0581 6F000000 		.4byte	0x6f
 2262 0585 02       		.uleb128 0x2
 2263 0586 91       		.byte	0x91
 2264 0587 08       		.sleb128 8
 2265 0588 0F       		.uleb128 0xf
 2266 0589 E9000000 		.4byte	.LASF41
 2267 058d 02       		.byte	0x2
 2268 058e 6A       		.byte	0x6a
 2269 058f 6F000000 		.4byte	0x6f
 2270 0593 02       		.uleb128 0x2
 2271 0594 91       		.byte	0x91
 2272 0595 70       		.sleb128 -16
 2273 0596 0F       		.uleb128 0xf
 2274 0597 1A010000 		.4byte	.LASF33
 2275 059b 02       		.byte	0x2
 2276 059c 6B       		.byte	0x6b
 2277 059d 68000000 		.4byte	0x68
 2278 05a1 02       		.uleb128 0x2
 2279 05a2 91       		.byte	0x91
 2280 05a3 74       		.sleb128 -12
 2281 05a4 00       		.byte	0
ARM GAS  C:\Users\glenn\AppData\Local\Temp\ccftzDgr.s 			page 59


 2282 05a5 0E       		.uleb128 0xe
 2283 05a6 AE030000 		.4byte	.LASF42
 2284 05aa 02       		.byte	0x2
 2285 05ab 89       		.byte	0x89
 2286 05ac 68000000 		.4byte	0x68
 2287 05b0 00000000 		.4byte	.LFB70
 2288 05b4 80000000 		.4byte	.LFE70-.LFB70
 2289 05b8 01       		.uleb128 0x1
 2290 05b9 9C       		.byte	0x9c
 2291 05ba 3D060000 		.4byte	0x63d
 2292 05be 0D       		.uleb128 0xd
 2293 05bf B7010000 		.4byte	.LASF22
 2294 05c3 02       		.byte	0x2
 2295 05c4 89       		.byte	0x89
 2296 05c5 6F000000 		.4byte	0x6f
 2297 05c9 02       		.uleb128 0x2
 2298 05ca 91       		.byte	0x91
 2299 05cb 6C       		.sleb128 -20
 2300 05cc 0D       		.uleb128 0xd
 2301 05cd 85010000 		.4byte	.LASF23
 2302 05d1 02       		.byte	0x2
 2303 05d2 89       		.byte	0x89
 2304 05d3 A9000000 		.4byte	0xa9
 2305 05d7 02       		.uleb128 0x2
 2306 05d8 91       		.byte	0x91
 2307 05d9 68       		.sleb128 -24
 2308 05da 0D       		.uleb128 0xd
 2309 05db 2D010000 		.4byte	.LASF39
 2310 05df 02       		.byte	0x2
 2311 05e0 89       		.byte	0x89
 2312 05e1 6F000000 		.4byte	0x6f
 2313 05e5 02       		.uleb128 0x2
 2314 05e6 91       		.byte	0x91
 2315 05e7 64       		.sleb128 -28
 2316 05e8 0D       		.uleb128 0xd
 2317 05e9 34030000 		.4byte	.LASF43
 2318 05ed 02       		.byte	0x2
 2319 05ee 8A       		.byte	0x8a
 2320 05ef 6F000000 		.4byte	0x6f
 2321 05f3 02       		.uleb128 0x2
 2322 05f4 91       		.byte	0x91
 2323 05f5 60       		.sleb128 -32
 2324 05f6 0D       		.uleb128 0xd
 2325 05f7 9D010000 		.4byte	.LASF26
 2326 05fb 02       		.byte	0x2
 2327 05fc 8A       		.byte	0x8a
 2328 05fd 6F000000 		.4byte	0x6f
 2329 0601 02       		.uleb128 0x2
 2330 0602 91       		.byte	0x91
 2331 0603 00       		.sleb128 0
 2332 0604 0D       		.uleb128 0xd
 2333 0605 D7010000 		.4byte	.LASF27
 2334 0609 02       		.byte	0x2
 2335 060a 8A       		.byte	0x8a
 2336 060b 6F000000 		.4byte	0x6f
 2337 060f 02       		.uleb128 0x2
 2338 0610 91       		.byte	0x91
ARM GAS  C:\Users\glenn\AppData\Local\Temp\ccftzDgr.s 			page 60


 2339 0611 04       		.sleb128 4
 2340 0612 0D       		.uleb128 0xd
 2341 0613 4B010000 		.4byte	.LASF28
 2342 0617 02       		.byte	0x2
 2343 0618 8A       		.byte	0x8a
 2344 0619 6F000000 		.4byte	0x6f
 2345 061d 02       		.uleb128 0x2
 2346 061e 91       		.byte	0x91
 2347 061f 08       		.sleb128 8
 2348 0620 0F       		.uleb128 0xf
 2349 0621 1A010000 		.4byte	.LASF33
 2350 0625 02       		.byte	0x2
 2351 0626 8C       		.byte	0x8c
 2352 0627 68000000 		.4byte	0x68
 2353 062b 02       		.uleb128 0x2
 2354 062c 91       		.byte	0x91
 2355 062d 74       		.sleb128 -12
 2356 062e 0F       		.uleb128 0xf
 2357 062f E9000000 		.4byte	.LASF41
 2358 0633 02       		.byte	0x2
 2359 0634 8D       		.byte	0x8d
 2360 0635 6F000000 		.4byte	0x6f
 2361 0639 02       		.uleb128 0x2
 2362 063a 91       		.byte	0x91
 2363 063b 70       		.sleb128 -16
 2364 063c 00       		.byte	0
 2365 063d 0E       		.uleb128 0xe
 2366 063e DD010000 		.4byte	.LASF44
 2367 0642 02       		.byte	0x2
 2368 0643 BA       		.byte	0xba
 2369 0644 68000000 		.4byte	0x68
 2370 0648 00000000 		.4byte	.LFB71
 2371 064c 6A000000 		.4byte	.LFE71-.LFB71
 2372 0650 01       		.uleb128 0x1
 2373 0651 9C       		.byte	0x9c
 2374 0652 D5060000 		.4byte	0x6d5
 2375 0656 0D       		.uleb128 0xd
 2376 0657 B7010000 		.4byte	.LASF22
 2377 065b 02       		.byte	0x2
 2378 065c BA       		.byte	0xba
 2379 065d 6F000000 		.4byte	0x6f
 2380 0661 02       		.uleb128 0x2
 2381 0662 91       		.byte	0x91
 2382 0663 6C       		.sleb128 -20
 2383 0664 0D       		.uleb128 0xd
 2384 0665 85010000 		.4byte	.LASF23
 2385 0669 02       		.byte	0x2
 2386 066a BA       		.byte	0xba
 2387 066b A9000000 		.4byte	0xa9
 2388 066f 02       		.uleb128 0x2
 2389 0670 91       		.byte	0x91
 2390 0671 68       		.sleb128 -24
 2391 0672 0D       		.uleb128 0xd
 2392 0673 8D010000 		.4byte	.LASF24
 2393 0677 02       		.byte	0x2
 2394 0678 BA       		.byte	0xba
 2395 0679 6F000000 		.4byte	0x6f
ARM GAS  C:\Users\glenn\AppData\Local\Temp\ccftzDgr.s 			page 61


 2396 067d 02       		.uleb128 0x2
 2397 067e 91       		.byte	0x91
 2398 067f 64       		.sleb128 -28
 2399 0680 0D       		.uleb128 0xd
 2400 0681 95010000 		.4byte	.LASF25
 2401 0685 02       		.byte	0x2
 2402 0686 BB       		.byte	0xbb
 2403 0687 6F000000 		.4byte	0x6f
 2404 068b 02       		.uleb128 0x2
 2405 068c 91       		.byte	0x91
 2406 068d 60       		.sleb128 -32
 2407 068e 0D       		.uleb128 0xd
 2408 068f 9D010000 		.4byte	.LASF26
 2409 0693 02       		.byte	0x2
 2410 0694 BB       		.byte	0xbb
 2411 0695 6F000000 		.4byte	0x6f
 2412 0699 02       		.uleb128 0x2
 2413 069a 91       		.byte	0x91
 2414 069b 00       		.sleb128 0
 2415 069c 0D       		.uleb128 0xd
 2416 069d D7010000 		.4byte	.LASF27
 2417 06a1 02       		.byte	0x2
 2418 06a2 BB       		.byte	0xbb
 2419 06a3 6F000000 		.4byte	0x6f
 2420 06a7 02       		.uleb128 0x2
 2421 06a8 91       		.byte	0x91
 2422 06a9 04       		.sleb128 4
 2423 06aa 0D       		.uleb128 0xd
 2424 06ab 4B010000 		.4byte	.LASF28
 2425 06af 02       		.byte	0x2
 2426 06b0 BB       		.byte	0xbb
 2427 06b1 6F000000 		.4byte	0x6f
 2428 06b5 02       		.uleb128 0x2
 2429 06b6 91       		.byte	0x91
 2430 06b7 08       		.sleb128 8
 2431 06b8 0F       		.uleb128 0xf
 2432 06b9 1A010000 		.4byte	.LASF33
 2433 06bd 02       		.byte	0x2
 2434 06be BD       		.byte	0xbd
 2435 06bf 68000000 		.4byte	0x68
 2436 06c3 02       		.uleb128 0x2
 2437 06c4 91       		.byte	0x91
 2438 06c5 74       		.sleb128 -12
 2439 06c6 0F       		.uleb128 0xf
 2440 06c7 E9000000 		.4byte	.LASF41
 2441 06cb 02       		.byte	0x2
 2442 06cc BE       		.byte	0xbe
 2443 06cd 6F000000 		.4byte	0x6f
 2444 06d1 02       		.uleb128 0x2
 2445 06d2 91       		.byte	0x91
 2446 06d3 70       		.sleb128 -16
 2447 06d4 00       		.byte	0
 2448 06d5 0E       		.uleb128 0xe
 2449 06d6 A5010000 		.4byte	.LASF45
 2450 06da 02       		.byte	0x2
 2451 06db DD       		.byte	0xdd
 2452 06dc 68000000 		.4byte	0x68
ARM GAS  C:\Users\glenn\AppData\Local\Temp\ccftzDgr.s 			page 62


 2453 06e0 00000000 		.4byte	.LFB72
 2454 06e4 A6000000 		.4byte	.LFE72-.LFB72
 2455 06e8 01       		.uleb128 0x1
 2456 06e9 9C       		.byte	0x9c
 2457 06ea 6D070000 		.4byte	0x76d
 2458 06ee 0D       		.uleb128 0xd
 2459 06ef B7010000 		.4byte	.LASF22
 2460 06f3 02       		.byte	0x2
 2461 06f4 DD       		.byte	0xdd
 2462 06f5 6F000000 		.4byte	0x6f
 2463 06f9 02       		.uleb128 0x2
 2464 06fa 91       		.byte	0x91
 2465 06fb 64       		.sleb128 -28
 2466 06fc 0D       		.uleb128 0xd
 2467 06fd 85010000 		.4byte	.LASF23
 2468 0701 02       		.byte	0x2
 2469 0702 DD       		.byte	0xdd
 2470 0703 A9000000 		.4byte	0xa9
 2471 0707 02       		.uleb128 0x2
 2472 0708 91       		.byte	0x91
 2473 0709 60       		.sleb128 -32
 2474 070a 0D       		.uleb128 0xd
 2475 070b 8D010000 		.4byte	.LASF24
 2476 070f 02       		.byte	0x2
 2477 0710 DD       		.byte	0xdd
 2478 0711 6F000000 		.4byte	0x6f
 2479 0715 02       		.uleb128 0x2
 2480 0716 91       		.byte	0x91
 2481 0717 5C       		.sleb128 -36
 2482 0718 0D       		.uleb128 0xd
 2483 0719 95010000 		.4byte	.LASF25
 2484 071d 02       		.byte	0x2
 2485 071e DE       		.byte	0xde
 2486 071f 6F000000 		.4byte	0x6f
 2487 0723 02       		.uleb128 0x2
 2488 0724 91       		.byte	0x91
 2489 0725 58       		.sleb128 -40
 2490 0726 0D       		.uleb128 0xd
 2491 0727 9D010000 		.4byte	.LASF26
 2492 072b 02       		.byte	0x2
 2493 072c DE       		.byte	0xde
 2494 072d 6F000000 		.4byte	0x6f
 2495 0731 02       		.uleb128 0x2
 2496 0732 91       		.byte	0x91
 2497 0733 00       		.sleb128 0
 2498 0734 0D       		.uleb128 0xd
 2499 0735 D7010000 		.4byte	.LASF27
 2500 0739 02       		.byte	0x2
 2501 073a DE       		.byte	0xde
 2502 073b 6F000000 		.4byte	0x6f
 2503 073f 02       		.uleb128 0x2
 2504 0740 91       		.byte	0x91
 2505 0741 04       		.sleb128 4
 2506 0742 0D       		.uleb128 0xd
 2507 0743 4B010000 		.4byte	.LASF28
 2508 0747 02       		.byte	0x2
 2509 0748 DE       		.byte	0xde
ARM GAS  C:\Users\glenn\AppData\Local\Temp\ccftzDgr.s 			page 63


 2510 0749 6F000000 		.4byte	0x6f
 2511 074d 02       		.uleb128 0x2
 2512 074e 91       		.byte	0x91
 2513 074f 08       		.sleb128 8
 2514 0750 0F       		.uleb128 0xf
 2515 0751 1A010000 		.4byte	.LASF33
 2516 0755 02       		.byte	0x2
 2517 0756 E0       		.byte	0xe0
 2518 0757 68000000 		.4byte	0x68
 2519 075b 02       		.uleb128 0x2
 2520 075c 91       		.byte	0x91
 2521 075d 6C       		.sleb128 -20
 2522 075e 0F       		.uleb128 0xf
 2523 075f E9000000 		.4byte	.LASF41
 2524 0763 02       		.byte	0x2
 2525 0764 E1       		.byte	0xe1
 2526 0765 6F000000 		.4byte	0x6f
 2527 0769 02       		.uleb128 0x2
 2528 076a 91       		.byte	0x91
 2529 076b 68       		.sleb128 -24
 2530 076c 00       		.byte	0
 2531 076d 10       		.uleb128 0x10
 2532 076e CB020000 		.4byte	.LASF46
 2533 0772 02       		.byte	0x2
 2534 0773 0601     		.2byte	0x106
 2535 0775 68000000 		.4byte	0x68
 2536 0779 00000000 		.4byte	.LFB73
 2537 077d 3C000000 		.4byte	.LFE73-.LFB73
 2538 0781 01       		.uleb128 0x1
 2539 0782 9C       		.byte	0x9c
 2540 0783 00080000 		.4byte	0x800
 2541 0787 0A       		.uleb128 0xa
 2542 0788 B7010000 		.4byte	.LASF22
 2543 078c 02       		.byte	0x2
 2544 078d 0601     		.2byte	0x106
 2545 078f 6F000000 		.4byte	0x6f
 2546 0793 02       		.uleb128 0x2
 2547 0794 91       		.byte	0x91
 2548 0795 64       		.sleb128 -28
 2549 0796 0A       		.uleb128 0xa
 2550 0797 85010000 		.4byte	.LASF23
 2551 079b 02       		.byte	0x2
 2552 079c 0601     		.2byte	0x106
 2553 079e A9000000 		.4byte	0xa9
 2554 07a2 02       		.uleb128 0x2
 2555 07a3 91       		.byte	0x91
 2556 07a4 60       		.sleb128 -32
 2557 07a5 0A       		.uleb128 0xa
 2558 07a6 8D010000 		.4byte	.LASF24
 2559 07aa 02       		.byte	0x2
 2560 07ab 0601     		.2byte	0x106
 2561 07ad 6F000000 		.4byte	0x6f
 2562 07b1 02       		.uleb128 0x2
 2563 07b2 91       		.byte	0x91
 2564 07b3 5C       		.sleb128 -36
 2565 07b4 0A       		.uleb128 0xa
 2566 07b5 95010000 		.4byte	.LASF25
ARM GAS  C:\Users\glenn\AppData\Local\Temp\ccftzDgr.s 			page 64


 2567 07b9 02       		.byte	0x2
 2568 07ba 0701     		.2byte	0x107
 2569 07bc 6F000000 		.4byte	0x6f
 2570 07c0 02       		.uleb128 0x2
 2571 07c1 91       		.byte	0x91
 2572 07c2 58       		.sleb128 -40
 2573 07c3 0A       		.uleb128 0xa
 2574 07c4 9D010000 		.4byte	.LASF26
 2575 07c8 02       		.byte	0x2
 2576 07c9 0701     		.2byte	0x107
 2577 07cb 6F000000 		.4byte	0x6f
 2578 07cf 02       		.uleb128 0x2
 2579 07d0 91       		.byte	0x91
 2580 07d1 00       		.sleb128 0
 2581 07d2 0A       		.uleb128 0xa
 2582 07d3 D7010000 		.4byte	.LASF27
 2583 07d7 02       		.byte	0x2
 2584 07d8 0701     		.2byte	0x107
 2585 07da 6F000000 		.4byte	0x6f
 2586 07de 02       		.uleb128 0x2
 2587 07df 91       		.byte	0x91
 2588 07e0 04       		.sleb128 4
 2589 07e1 0A       		.uleb128 0xa
 2590 07e2 4B010000 		.4byte	.LASF28
 2591 07e6 02       		.byte	0x2
 2592 07e7 0701     		.2byte	0x107
 2593 07e9 6F000000 		.4byte	0x6f
 2594 07ed 02       		.uleb128 0x2
 2595 07ee 91       		.byte	0x91
 2596 07ef 08       		.sleb128 8
 2597 07f0 0B       		.uleb128 0xb
 2598 07f1 1A010000 		.4byte	.LASF33
 2599 07f5 02       		.byte	0x2
 2600 07f6 0901     		.2byte	0x109
 2601 07f8 68000000 		.4byte	0x68
 2602 07fc 02       		.uleb128 0x2
 2603 07fd 91       		.byte	0x91
 2604 07fe 6C       		.sleb128 -20
 2605 07ff 00       		.byte	0
 2606 0800 10       		.uleb128 0x10
 2607 0801 22020000 		.4byte	.LASF47
 2608 0805 02       		.byte	0x2
 2609 0806 1801     		.2byte	0x118
 2610 0808 68000000 		.4byte	0x68
 2611 080c 00000000 		.4byte	.LFB74
 2612 0810 6C000000 		.4byte	.LFE74-.LFB74
 2613 0814 01       		.uleb128 0x1
 2614 0815 9C       		.byte	0x9c
 2615 0816 A2080000 		.4byte	0x8a2
 2616 081a 0A       		.uleb128 0xa
 2617 081b B7010000 		.4byte	.LASF22
 2618 081f 02       		.byte	0x2
 2619 0820 1801     		.2byte	0x118
 2620 0822 6F000000 		.4byte	0x6f
 2621 0826 02       		.uleb128 0x2
 2622 0827 91       		.byte	0x91
 2623 0828 6C       		.sleb128 -20
ARM GAS  C:\Users\glenn\AppData\Local\Temp\ccftzDgr.s 			page 65


 2624 0829 0A       		.uleb128 0xa
 2625 082a 85010000 		.4byte	.LASF23
 2626 082e 02       		.byte	0x2
 2627 082f 1801     		.2byte	0x118
 2628 0831 A9000000 		.4byte	0xa9
 2629 0835 02       		.uleb128 0x2
 2630 0836 91       		.byte	0x91
 2631 0837 68       		.sleb128 -24
 2632 0838 0A       		.uleb128 0xa
 2633 0839 8D010000 		.4byte	.LASF24
 2634 083d 02       		.byte	0x2
 2635 083e 1801     		.2byte	0x118
 2636 0840 6F000000 		.4byte	0x6f
 2637 0844 02       		.uleb128 0x2
 2638 0845 91       		.byte	0x91
 2639 0846 64       		.sleb128 -28
 2640 0847 0A       		.uleb128 0xa
 2641 0848 95010000 		.4byte	.LASF25
 2642 084c 02       		.byte	0x2
 2643 084d 1901     		.2byte	0x119
 2644 084f 6F000000 		.4byte	0x6f
 2645 0853 02       		.uleb128 0x2
 2646 0854 91       		.byte	0x91
 2647 0855 60       		.sleb128 -32
 2648 0856 0A       		.uleb128 0xa
 2649 0857 9D010000 		.4byte	.LASF26
 2650 085b 02       		.byte	0x2
 2651 085c 1901     		.2byte	0x119
 2652 085e 6F000000 		.4byte	0x6f
 2653 0862 02       		.uleb128 0x2
 2654 0863 91       		.byte	0x91
 2655 0864 00       		.sleb128 0
 2656 0865 0A       		.uleb128 0xa
 2657 0866 D7010000 		.4byte	.LASF27
 2658 086a 02       		.byte	0x2
 2659 086b 1901     		.2byte	0x119
 2660 086d 6F000000 		.4byte	0x6f
 2661 0871 02       		.uleb128 0x2
 2662 0872 91       		.byte	0x91
 2663 0873 04       		.sleb128 4
 2664 0874 0A       		.uleb128 0xa
 2665 0875 4B010000 		.4byte	.LASF28
 2666 0879 02       		.byte	0x2
 2667 087a 1901     		.2byte	0x119
 2668 087c 6F000000 		.4byte	0x6f
 2669 0880 02       		.uleb128 0x2
 2670 0881 91       		.byte	0x91
 2671 0882 08       		.sleb128 8
 2672 0883 0B       		.uleb128 0xb
 2673 0884 1A010000 		.4byte	.LASF33
 2674 0888 02       		.byte	0x2
 2675 0889 1B01     		.2byte	0x11b
 2676 088b 68000000 		.4byte	0x68
 2677 088f 02       		.uleb128 0x2
 2678 0890 91       		.byte	0x91
 2679 0891 74       		.sleb128 -12
 2680 0892 0B       		.uleb128 0xb
ARM GAS  C:\Users\glenn\AppData\Local\Temp\ccftzDgr.s 			page 66


 2681 0893 E9000000 		.4byte	.LASF41
 2682 0897 02       		.byte	0x2
 2683 0898 1C01     		.2byte	0x11c
 2684 089a 6F000000 		.4byte	0x6f
 2685 089e 02       		.uleb128 0x2
 2686 089f 91       		.byte	0x91
 2687 08a0 70       		.sleb128 -16
 2688 08a1 00       		.byte	0
 2689 08a2 11       		.uleb128 0x11
 2690 08a3 CB030000 		.4byte	.LASF48
 2691 08a7 02       		.byte	0x2
 2692 08a8 3C01     		.2byte	0x13c
 2693 08aa 68000000 		.4byte	0x68
 2694 08ae 00000000 		.4byte	.LFB75
 2695 08b2 2A000000 		.4byte	.LFE75-.LFB75
 2696 08b6 01       		.uleb128 0x1
 2697 08b7 9C       		.byte	0x9c
 2698 08b8 35090000 		.4byte	0x935
 2699 08bc 0A       		.uleb128 0xa
 2700 08bd B7010000 		.4byte	.LASF22
 2701 08c1 02       		.byte	0x2
 2702 08c2 3C01     		.2byte	0x13c
 2703 08c4 6F000000 		.4byte	0x6f
 2704 08c8 02       		.uleb128 0x2
 2705 08c9 91       		.byte	0x91
 2706 08ca 6C       		.sleb128 -20
 2707 08cb 0A       		.uleb128 0xa
 2708 08cc 85010000 		.4byte	.LASF23
 2709 08d0 02       		.byte	0x2
 2710 08d1 3C01     		.2byte	0x13c
 2711 08d3 A9000000 		.4byte	0xa9
 2712 08d7 02       		.uleb128 0x2
 2713 08d8 91       		.byte	0x91
 2714 08d9 68       		.sleb128 -24
 2715 08da 0A       		.uleb128 0xa
 2716 08db 8D010000 		.4byte	.LASF24
 2717 08df 02       		.byte	0x2
 2718 08e0 3C01     		.2byte	0x13c
 2719 08e2 6F000000 		.4byte	0x6f
 2720 08e6 02       		.uleb128 0x2
 2721 08e7 91       		.byte	0x91
 2722 08e8 64       		.sleb128 -28
 2723 08e9 0A       		.uleb128 0xa
 2724 08ea 95010000 		.4byte	.LASF25
 2725 08ee 02       		.byte	0x2
 2726 08ef 3D01     		.2byte	0x13d
 2727 08f1 6F000000 		.4byte	0x6f
 2728 08f5 02       		.uleb128 0x2
 2729 08f6 91       		.byte	0x91
 2730 08f7 60       		.sleb128 -32
 2731 08f8 0A       		.uleb128 0xa
 2732 08f9 9D010000 		.4byte	.LASF26
 2733 08fd 02       		.byte	0x2
 2734 08fe 3D01     		.2byte	0x13d
 2735 0900 6F000000 		.4byte	0x6f
 2736 0904 02       		.uleb128 0x2
 2737 0905 91       		.byte	0x91
ARM GAS  C:\Users\glenn\AppData\Local\Temp\ccftzDgr.s 			page 67


 2738 0906 00       		.sleb128 0
 2739 0907 0A       		.uleb128 0xa
 2740 0908 D7010000 		.4byte	.LASF27
 2741 090c 02       		.byte	0x2
 2742 090d 3D01     		.2byte	0x13d
 2743 090f 6F000000 		.4byte	0x6f
 2744 0913 02       		.uleb128 0x2
 2745 0914 91       		.byte	0x91
 2746 0915 04       		.sleb128 4
 2747 0916 0A       		.uleb128 0xa
 2748 0917 4B010000 		.4byte	.LASF28
 2749 091b 02       		.byte	0x2
 2750 091c 3D01     		.2byte	0x13d
 2751 091e 6F000000 		.4byte	0x6f
 2752 0922 02       		.uleb128 0x2
 2753 0923 91       		.byte	0x91
 2754 0924 08       		.sleb128 8
 2755 0925 0B       		.uleb128 0xb
 2756 0926 1A010000 		.4byte	.LASF33
 2757 092a 02       		.byte	0x2
 2758 092b 4001     		.2byte	0x140
 2759 092d 68000000 		.4byte	0x68
 2760 0931 02       		.uleb128 0x2
 2761 0932 91       		.byte	0x91
 2762 0933 74       		.sleb128 -12
 2763 0934 00       		.byte	0
 2764 0935 10       		.uleb128 0x10
 2765 0936 3A000000 		.4byte	.LASF49
 2766 093a 02       		.byte	0x2
 2767 093b 4E01     		.2byte	0x14e
 2768 093d 68000000 		.4byte	0x68
 2769 0941 00000000 		.4byte	.LFB76
 2770 0945 66000000 		.4byte	.LFE76-.LFB76
 2771 0949 01       		.uleb128 0x1
 2772 094a 9C       		.byte	0x9c
 2773 094b C8090000 		.4byte	0x9c8
 2774 094f 0A       		.uleb128 0xa
 2775 0950 B7010000 		.4byte	.LASF22
 2776 0954 02       		.byte	0x2
 2777 0955 4E01     		.2byte	0x14e
 2778 0957 6F000000 		.4byte	0x6f
 2779 095b 02       		.uleb128 0x2
 2780 095c 91       		.byte	0x91
 2781 095d 6C       		.sleb128 -20
 2782 095e 0A       		.uleb128 0xa
 2783 095f 85010000 		.4byte	.LASF23
 2784 0963 02       		.byte	0x2
 2785 0964 4E01     		.2byte	0x14e
 2786 0966 A9000000 		.4byte	0xa9
 2787 096a 02       		.uleb128 0x2
 2788 096b 91       		.byte	0x91
 2789 096c 68       		.sleb128 -24
 2790 096d 0A       		.uleb128 0xa
 2791 096e 8D010000 		.4byte	.LASF24
 2792 0972 02       		.byte	0x2
 2793 0973 4E01     		.2byte	0x14e
 2794 0975 6F000000 		.4byte	0x6f
ARM GAS  C:\Users\glenn\AppData\Local\Temp\ccftzDgr.s 			page 68


 2795 0979 02       		.uleb128 0x2
 2796 097a 91       		.byte	0x91
 2797 097b 64       		.sleb128 -28
 2798 097c 0A       		.uleb128 0xa
 2799 097d 95010000 		.4byte	.LASF25
 2800 0981 02       		.byte	0x2
 2801 0982 4F01     		.2byte	0x14f
 2802 0984 6F000000 		.4byte	0x6f
 2803 0988 02       		.uleb128 0x2
 2804 0989 91       		.byte	0x91
 2805 098a 60       		.sleb128 -32
 2806 098b 0A       		.uleb128 0xa
 2807 098c 9D010000 		.4byte	.LASF26
 2808 0990 02       		.byte	0x2
 2809 0991 4F01     		.2byte	0x14f
 2810 0993 6F000000 		.4byte	0x6f
 2811 0997 02       		.uleb128 0x2
 2812 0998 91       		.byte	0x91
 2813 0999 00       		.sleb128 0
 2814 099a 0A       		.uleb128 0xa
 2815 099b D7010000 		.4byte	.LASF27
 2816 099f 02       		.byte	0x2
 2817 09a0 4F01     		.2byte	0x14f
 2818 09a2 6F000000 		.4byte	0x6f
 2819 09a6 02       		.uleb128 0x2
 2820 09a7 91       		.byte	0x91
 2821 09a8 04       		.sleb128 4
 2822 09a9 0A       		.uleb128 0xa
 2823 09aa 4B010000 		.4byte	.LASF28
 2824 09ae 02       		.byte	0x2
 2825 09af 4F01     		.2byte	0x14f
 2826 09b1 6F000000 		.4byte	0x6f
 2827 09b5 02       		.uleb128 0x2
 2828 09b6 91       		.byte	0x91
 2829 09b7 08       		.sleb128 8
 2830 09b8 0B       		.uleb128 0xb
 2831 09b9 70020000 		.4byte	.LASF37
 2832 09bd 02       		.byte	0x2
 2833 09be 5101     		.2byte	0x151
 2834 09c0 8F000000 		.4byte	0x8f
 2835 09c4 02       		.uleb128 0x2
 2836 09c5 91       		.byte	0x91
 2837 09c6 74       		.sleb128 -12
 2838 09c7 00       		.byte	0
 2839 09c8 11       		.uleb128 0x11
 2840 09c9 36010000 		.4byte	.LASF50
 2841 09cd 02       		.byte	0x2
 2842 09ce 6301     		.2byte	0x163
 2843 09d0 68000000 		.4byte	0x68
 2844 09d4 00000000 		.4byte	.LFB77
 2845 09d8 22000000 		.4byte	.LFE77-.LFB77
 2846 09dc 01       		.uleb128 0x1
 2847 09dd 9C       		.byte	0x9c
 2848 09de 4C0A0000 		.4byte	0xa4c
 2849 09e2 0A       		.uleb128 0xa
 2850 09e3 B7010000 		.4byte	.LASF22
 2851 09e7 02       		.byte	0x2
ARM GAS  C:\Users\glenn\AppData\Local\Temp\ccftzDgr.s 			page 69


 2852 09e8 6301     		.2byte	0x163
 2853 09ea 6F000000 		.4byte	0x6f
 2854 09ee 02       		.uleb128 0x2
 2855 09ef 91       		.byte	0x91
 2856 09f0 74       		.sleb128 -12
 2857 09f1 0A       		.uleb128 0xa
 2858 09f2 85010000 		.4byte	.LASF23
 2859 09f6 02       		.byte	0x2
 2860 09f7 6301     		.2byte	0x163
 2861 09f9 A9000000 		.4byte	0xa9
 2862 09fd 02       		.uleb128 0x2
 2863 09fe 91       		.byte	0x91
 2864 09ff 70       		.sleb128 -16
 2865 0a00 0A       		.uleb128 0xa
 2866 0a01 8D010000 		.4byte	.LASF24
 2867 0a05 02       		.byte	0x2
 2868 0a06 6301     		.2byte	0x163
 2869 0a08 6F000000 		.4byte	0x6f
 2870 0a0c 02       		.uleb128 0x2
 2871 0a0d 91       		.byte	0x91
 2872 0a0e 6C       		.sleb128 -20
 2873 0a0f 0A       		.uleb128 0xa
 2874 0a10 95010000 		.4byte	.LASF25
 2875 0a14 02       		.byte	0x2
 2876 0a15 6401     		.2byte	0x164
 2877 0a17 6F000000 		.4byte	0x6f
 2878 0a1b 02       		.uleb128 0x2
 2879 0a1c 91       		.byte	0x91
 2880 0a1d 68       		.sleb128 -24
 2881 0a1e 0A       		.uleb128 0xa
 2882 0a1f 9D010000 		.4byte	.LASF26
 2883 0a23 02       		.byte	0x2
 2884 0a24 6401     		.2byte	0x164
 2885 0a26 6F000000 		.4byte	0x6f
 2886 0a2a 02       		.uleb128 0x2
 2887 0a2b 91       		.byte	0x91
 2888 0a2c 00       		.sleb128 0
 2889 0a2d 0A       		.uleb128 0xa
 2890 0a2e D7010000 		.4byte	.LASF27
 2891 0a32 02       		.byte	0x2
 2892 0a33 6401     		.2byte	0x164
 2893 0a35 6F000000 		.4byte	0x6f
 2894 0a39 02       		.uleb128 0x2
 2895 0a3a 91       		.byte	0x91
 2896 0a3b 04       		.sleb128 4
 2897 0a3c 0A       		.uleb128 0xa
 2898 0a3d 4B010000 		.4byte	.LASF28
 2899 0a41 02       		.byte	0x2
 2900 0a42 6401     		.2byte	0x164
 2901 0a44 6F000000 		.4byte	0x6f
 2902 0a48 02       		.uleb128 0x2
 2903 0a49 91       		.byte	0x91
 2904 0a4a 08       		.sleb128 8
 2905 0a4b 00       		.byte	0
 2906 0a4c 10       		.uleb128 0x10
 2907 0a4d EF020000 		.4byte	.LASF51
 2908 0a51 02       		.byte	0x2
ARM GAS  C:\Users\glenn\AppData\Local\Temp\ccftzDgr.s 			page 70


 2909 0a52 7401     		.2byte	0x174
 2910 0a54 68000000 		.4byte	0x68
 2911 0a58 00000000 		.4byte	.LFB78
 2912 0a5c 2A000000 		.4byte	.LFE78-.LFB78
 2913 0a60 01       		.uleb128 0x1
 2914 0a61 9C       		.byte	0x9c
 2915 0a62 D00A0000 		.4byte	0xad0
 2916 0a66 0A       		.uleb128 0xa
 2917 0a67 B7010000 		.4byte	.LASF22
 2918 0a6b 02       		.byte	0x2
 2919 0a6c 7401     		.2byte	0x174
 2920 0a6e 6F000000 		.4byte	0x6f
 2921 0a72 02       		.uleb128 0x2
 2922 0a73 91       		.byte	0x91
 2923 0a74 74       		.sleb128 -12
 2924 0a75 0A       		.uleb128 0xa
 2925 0a76 85010000 		.4byte	.LASF23
 2926 0a7a 02       		.byte	0x2
 2927 0a7b 7401     		.2byte	0x174
 2928 0a7d A9000000 		.4byte	0xa9
 2929 0a81 02       		.uleb128 0x2
 2930 0a82 91       		.byte	0x91
 2931 0a83 70       		.sleb128 -16
 2932 0a84 0A       		.uleb128 0xa
 2933 0a85 9B020000 		.4byte	.LASF52
 2934 0a89 02       		.byte	0x2
 2935 0a8a 7401     		.2byte	0x174
 2936 0a8c 6F000000 		.4byte	0x6f
 2937 0a90 02       		.uleb128 0x2
 2938 0a91 91       		.byte	0x91
 2939 0a92 6C       		.sleb128 -20
 2940 0a93 0A       		.uleb128 0xa
 2941 0a94 57020000 		.4byte	.LASF53
 2942 0a98 02       		.byte	0x2
 2943 0a99 7501     		.2byte	0x175
 2944 0a9b 6F000000 		.4byte	0x6f
 2945 0a9f 02       		.uleb128 0x2
 2946 0aa0 91       		.byte	0x91
 2947 0aa1 68       		.sleb128 -24
 2948 0aa2 0A       		.uleb128 0xa
 2949 0aa3 9D010000 		.4byte	.LASF26
 2950 0aa7 02       		.byte	0x2
 2951 0aa8 7501     		.2byte	0x175
 2952 0aaa 6F000000 		.4byte	0x6f
 2953 0aae 02       		.uleb128 0x2
 2954 0aaf 91       		.byte	0x91
 2955 0ab0 00       		.sleb128 0
 2956 0ab1 0A       		.uleb128 0xa
 2957 0ab2 D7010000 		.4byte	.LASF27
 2958 0ab6 02       		.byte	0x2
 2959 0ab7 7501     		.2byte	0x175
 2960 0ab9 6F000000 		.4byte	0x6f
 2961 0abd 02       		.uleb128 0x2
 2962 0abe 91       		.byte	0x91
 2963 0abf 04       		.sleb128 4
 2964 0ac0 0A       		.uleb128 0xa
 2965 0ac1 4B010000 		.4byte	.LASF28
ARM GAS  C:\Users\glenn\AppData\Local\Temp\ccftzDgr.s 			page 71


 2966 0ac5 02       		.byte	0x2
 2967 0ac6 7501     		.2byte	0x175
 2968 0ac8 6F000000 		.4byte	0x6f
 2969 0acc 02       		.uleb128 0x2
 2970 0acd 91       		.byte	0x91
 2971 0ace 08       		.sleb128 8
 2972 0acf 00       		.byte	0
 2973 0ad0 10       		.uleb128 0x10
 2974 0ad1 0E000000 		.4byte	.LASF54
 2975 0ad5 02       		.byte	0x2
 2976 0ad6 8001     		.2byte	0x180
 2977 0ad8 68000000 		.4byte	0x68
 2978 0adc 00000000 		.4byte	.LFB79
 2979 0ae0 1C000000 		.4byte	.LFE79-.LFB79
 2980 0ae4 01       		.uleb128 0x1
 2981 0ae5 9C       		.byte	0x9c
 2982 0ae6 540B0000 		.4byte	0xb54
 2983 0aea 0A       		.uleb128 0xa
 2984 0aeb B7010000 		.4byte	.LASF22
 2985 0aef 02       		.byte	0x2
 2986 0af0 8001     		.2byte	0x180
 2987 0af2 6F000000 		.4byte	0x6f
 2988 0af6 02       		.uleb128 0x2
 2989 0af7 91       		.byte	0x91
 2990 0af8 74       		.sleb128 -12
 2991 0af9 0A       		.uleb128 0xa
 2992 0afa 85010000 		.4byte	.LASF23
 2993 0afe 02       		.byte	0x2
 2994 0aff 8001     		.2byte	0x180
 2995 0b01 A9000000 		.4byte	0xa9
 2996 0b05 02       		.uleb128 0x2
 2997 0b06 91       		.byte	0x91
 2998 0b07 70       		.sleb128 -16
 2999 0b08 0A       		.uleb128 0xa
 3000 0b09 8D010000 		.4byte	.LASF24
 3001 0b0d 02       		.byte	0x2
 3002 0b0e 8001     		.2byte	0x180
 3003 0b10 6F000000 		.4byte	0x6f
 3004 0b14 02       		.uleb128 0x2
 3005 0b15 91       		.byte	0x91
 3006 0b16 6C       		.sleb128 -20
 3007 0b17 0A       		.uleb128 0xa
 3008 0b18 95010000 		.4byte	.LASF25
 3009 0b1c 02       		.byte	0x2
 3010 0b1d 8101     		.2byte	0x181
 3011 0b1f 6F000000 		.4byte	0x6f
 3012 0b23 02       		.uleb128 0x2
 3013 0b24 91       		.byte	0x91
 3014 0b25 68       		.sleb128 -24
 3015 0b26 0A       		.uleb128 0xa
 3016 0b27 9D010000 		.4byte	.LASF26
 3017 0b2b 02       		.byte	0x2
 3018 0b2c 8101     		.2byte	0x181
 3019 0b2e 6F000000 		.4byte	0x6f
 3020 0b32 02       		.uleb128 0x2
 3021 0b33 91       		.byte	0x91
 3022 0b34 00       		.sleb128 0
ARM GAS  C:\Users\glenn\AppData\Local\Temp\ccftzDgr.s 			page 72


 3023 0b35 0A       		.uleb128 0xa
 3024 0b36 D7010000 		.4byte	.LASF27
 3025 0b3a 02       		.byte	0x2
 3026 0b3b 8101     		.2byte	0x181
 3027 0b3d 6F000000 		.4byte	0x6f
 3028 0b41 02       		.uleb128 0x2
 3029 0b42 91       		.byte	0x91
 3030 0b43 04       		.sleb128 4
 3031 0b44 0A       		.uleb128 0xa
 3032 0b45 4B010000 		.4byte	.LASF28
 3033 0b49 02       		.byte	0x2
 3034 0b4a 8101     		.2byte	0x181
 3035 0b4c 6F000000 		.4byte	0x6f
 3036 0b50 02       		.uleb128 0x2
 3037 0b51 91       		.byte	0x91
 3038 0b52 08       		.sleb128 8
 3039 0b53 00       		.byte	0
 3040 0b54 10       		.uleb128 0x10
 3041 0b55 DF020000 		.4byte	.LASF55
 3042 0b59 02       		.byte	0x2
 3043 0b5a 8701     		.2byte	0x187
 3044 0b5c 68000000 		.4byte	0x68
 3045 0b60 00000000 		.4byte	.LFB80
 3046 0b64 48000000 		.4byte	.LFE80-.LFB80
 3047 0b68 01       		.uleb128 0x1
 3048 0b69 9C       		.byte	0x9c
 3049 0b6a D80B0000 		.4byte	0xbd8
 3050 0b6e 0A       		.uleb128 0xa
 3051 0b6f B7010000 		.4byte	.LASF22
 3052 0b73 02       		.byte	0x2
 3053 0b74 8701     		.2byte	0x187
 3054 0b76 6F000000 		.4byte	0x6f
 3055 0b7a 02       		.uleb128 0x2
 3056 0b7b 91       		.byte	0x91
 3057 0b7c 74       		.sleb128 -12
 3058 0b7d 0A       		.uleb128 0xa
 3059 0b7e 85010000 		.4byte	.LASF23
 3060 0b82 02       		.byte	0x2
 3061 0b83 8701     		.2byte	0x187
 3062 0b85 A9000000 		.4byte	0xa9
 3063 0b89 02       		.uleb128 0x2
 3064 0b8a 91       		.byte	0x91
 3065 0b8b 70       		.sleb128 -16
 3066 0b8c 0A       		.uleb128 0xa
 3067 0b8d 8D010000 		.4byte	.LASF24
 3068 0b91 02       		.byte	0x2
 3069 0b92 8701     		.2byte	0x187
 3070 0b94 6F000000 		.4byte	0x6f
 3071 0b98 02       		.uleb128 0x2
 3072 0b99 91       		.byte	0x91
 3073 0b9a 6C       		.sleb128 -20
 3074 0b9b 0A       		.uleb128 0xa
 3075 0b9c 95010000 		.4byte	.LASF25
 3076 0ba0 02       		.byte	0x2
 3077 0ba1 8801     		.2byte	0x188
 3078 0ba3 6F000000 		.4byte	0x6f
 3079 0ba7 02       		.uleb128 0x2
ARM GAS  C:\Users\glenn\AppData\Local\Temp\ccftzDgr.s 			page 73


 3080 0ba8 91       		.byte	0x91
 3081 0ba9 68       		.sleb128 -24
 3082 0baa 0A       		.uleb128 0xa
 3083 0bab 9D010000 		.4byte	.LASF26
 3084 0baf 02       		.byte	0x2
 3085 0bb0 8801     		.2byte	0x188
 3086 0bb2 6F000000 		.4byte	0x6f
 3087 0bb6 02       		.uleb128 0x2
 3088 0bb7 91       		.byte	0x91
 3089 0bb8 00       		.sleb128 0
 3090 0bb9 0A       		.uleb128 0xa
 3091 0bba D7010000 		.4byte	.LASF27
 3092 0bbe 02       		.byte	0x2
 3093 0bbf 8801     		.2byte	0x188
 3094 0bc1 6F000000 		.4byte	0x6f
 3095 0bc5 02       		.uleb128 0x2
 3096 0bc6 91       		.byte	0x91
 3097 0bc7 04       		.sleb128 4
 3098 0bc8 0A       		.uleb128 0xa
 3099 0bc9 4B010000 		.4byte	.LASF28
 3100 0bcd 02       		.byte	0x2
 3101 0bce 8801     		.2byte	0x188
 3102 0bd0 6F000000 		.4byte	0x6f
 3103 0bd4 02       		.uleb128 0x2
 3104 0bd5 91       		.byte	0x91
 3105 0bd6 08       		.sleb128 8
 3106 0bd7 00       		.byte	0
 3107 0bd8 10       		.uleb128 0x10
 3108 0bd9 1E000000 		.4byte	.LASF56
 3109 0bdd 02       		.byte	0x2
 3110 0bde 9F01     		.2byte	0x19f
 3111 0be0 68000000 		.4byte	0x68
 3112 0be4 00000000 		.4byte	.LFB81
 3113 0be8 48000000 		.4byte	.LFE81-.LFB81
 3114 0bec 01       		.uleb128 0x1
 3115 0bed 9C       		.byte	0x9c
 3116 0bee 5C0C0000 		.4byte	0xc5c
 3117 0bf2 0A       		.uleb128 0xa
 3118 0bf3 B7010000 		.4byte	.LASF22
 3119 0bf7 02       		.byte	0x2
 3120 0bf8 9F01     		.2byte	0x19f
 3121 0bfa 6F000000 		.4byte	0x6f
 3122 0bfe 02       		.uleb128 0x2
 3123 0bff 91       		.byte	0x91
 3124 0c00 74       		.sleb128 -12
 3125 0c01 0A       		.uleb128 0xa
 3126 0c02 85010000 		.4byte	.LASF23
 3127 0c06 02       		.byte	0x2
 3128 0c07 9F01     		.2byte	0x19f
 3129 0c09 A9000000 		.4byte	0xa9
 3130 0c0d 02       		.uleb128 0x2
 3131 0c0e 91       		.byte	0x91
 3132 0c0f 70       		.sleb128 -16
 3133 0c10 0A       		.uleb128 0xa
 3134 0c11 8D010000 		.4byte	.LASF24
 3135 0c15 02       		.byte	0x2
 3136 0c16 9F01     		.2byte	0x19f
ARM GAS  C:\Users\glenn\AppData\Local\Temp\ccftzDgr.s 			page 74


 3137 0c18 6F000000 		.4byte	0x6f
 3138 0c1c 02       		.uleb128 0x2
 3139 0c1d 91       		.byte	0x91
 3140 0c1e 6C       		.sleb128 -20
 3141 0c1f 0A       		.uleb128 0xa
 3142 0c20 95010000 		.4byte	.LASF25
 3143 0c24 02       		.byte	0x2
 3144 0c25 A001     		.2byte	0x1a0
 3145 0c27 6F000000 		.4byte	0x6f
 3146 0c2b 02       		.uleb128 0x2
 3147 0c2c 91       		.byte	0x91
 3148 0c2d 68       		.sleb128 -24
 3149 0c2e 0A       		.uleb128 0xa
 3150 0c2f 9D010000 		.4byte	.LASF26
 3151 0c33 02       		.byte	0x2
 3152 0c34 A001     		.2byte	0x1a0
 3153 0c36 6F000000 		.4byte	0x6f
 3154 0c3a 02       		.uleb128 0x2
 3155 0c3b 91       		.byte	0x91
 3156 0c3c 00       		.sleb128 0
 3157 0c3d 0A       		.uleb128 0xa
 3158 0c3e D7010000 		.4byte	.LASF27
 3159 0c42 02       		.byte	0x2
 3160 0c43 A001     		.2byte	0x1a0
 3161 0c45 6F000000 		.4byte	0x6f
 3162 0c49 02       		.uleb128 0x2
 3163 0c4a 91       		.byte	0x91
 3164 0c4b 04       		.sleb128 4
 3165 0c4c 0A       		.uleb128 0xa
 3166 0c4d 4B010000 		.4byte	.LASF28
 3167 0c51 02       		.byte	0x2
 3168 0c52 A001     		.2byte	0x1a0
 3169 0c54 6F000000 		.4byte	0x6f
 3170 0c58 02       		.uleb128 0x2
 3171 0c59 91       		.byte	0x91
 3172 0c5a 08       		.sleb128 8
 3173 0c5b 00       		.byte	0
 3174 0c5c 10       		.uleb128 0x10
 3175 0c5d BF010000 		.4byte	.LASF57
 3176 0c61 02       		.byte	0x2
 3177 0c62 BA01     		.2byte	0x1ba
 3178 0c64 68000000 		.4byte	0x68
 3179 0c68 00000000 		.4byte	.LFB82
 3180 0c6c 36000000 		.4byte	.LFE82-.LFB82
 3181 0c70 01       		.uleb128 0x1
 3182 0c71 9C       		.byte	0x9c
 3183 0c72 E00C0000 		.4byte	0xce0
 3184 0c76 0A       		.uleb128 0xa
 3185 0c77 B7010000 		.4byte	.LASF22
 3186 0c7b 02       		.byte	0x2
 3187 0c7c BA01     		.2byte	0x1ba
 3188 0c7e 6F000000 		.4byte	0x6f
 3189 0c82 02       		.uleb128 0x2
 3190 0c83 91       		.byte	0x91
 3191 0c84 74       		.sleb128 -12
 3192 0c85 0A       		.uleb128 0xa
 3193 0c86 85010000 		.4byte	.LASF23
ARM GAS  C:\Users\glenn\AppData\Local\Temp\ccftzDgr.s 			page 75


 3194 0c8a 02       		.byte	0x2
 3195 0c8b BA01     		.2byte	0x1ba
 3196 0c8d A9000000 		.4byte	0xa9
 3197 0c91 02       		.uleb128 0x2
 3198 0c92 91       		.byte	0x91
 3199 0c93 70       		.sleb128 -16
 3200 0c94 0A       		.uleb128 0xa
 3201 0c95 8D010000 		.4byte	.LASF24
 3202 0c99 02       		.byte	0x2
 3203 0c9a BA01     		.2byte	0x1ba
 3204 0c9c 6F000000 		.4byte	0x6f
 3205 0ca0 02       		.uleb128 0x2
 3206 0ca1 91       		.byte	0x91
 3207 0ca2 6C       		.sleb128 -20
 3208 0ca3 0A       		.uleb128 0xa
 3209 0ca4 95010000 		.4byte	.LASF25
 3210 0ca8 02       		.byte	0x2
 3211 0ca9 BB01     		.2byte	0x1bb
 3212 0cab 6F000000 		.4byte	0x6f
 3213 0caf 02       		.uleb128 0x2
 3214 0cb0 91       		.byte	0x91
 3215 0cb1 68       		.sleb128 -24
 3216 0cb2 0A       		.uleb128 0xa
 3217 0cb3 9D010000 		.4byte	.LASF26
 3218 0cb7 02       		.byte	0x2
 3219 0cb8 BB01     		.2byte	0x1bb
 3220 0cba 6F000000 		.4byte	0x6f
 3221 0cbe 02       		.uleb128 0x2
 3222 0cbf 91       		.byte	0x91
 3223 0cc0 00       		.sleb128 0
 3224 0cc1 0A       		.uleb128 0xa
 3225 0cc2 D7010000 		.4byte	.LASF27
 3226 0cc6 02       		.byte	0x2
 3227 0cc7 BB01     		.2byte	0x1bb
 3228 0cc9 6F000000 		.4byte	0x6f
 3229 0ccd 02       		.uleb128 0x2
 3230 0cce 91       		.byte	0x91
 3231 0ccf 04       		.sleb128 4
 3232 0cd0 0A       		.uleb128 0xa
 3233 0cd1 4B010000 		.4byte	.LASF28
 3234 0cd5 02       		.byte	0x2
 3235 0cd6 BB01     		.2byte	0x1bb
 3236 0cd8 6F000000 		.4byte	0x6f
 3237 0cdc 02       		.uleb128 0x2
 3238 0cdd 91       		.byte	0x91
 3239 0cde 08       		.sleb128 8
 3240 0cdf 00       		.byte	0
 3241 0ce0 12       		.uleb128 0x12
 3242 0ce1 24030000 		.4byte	.LASF61
 3243 0ce5 02       		.byte	0x2
 3244 0ce6 C701     		.2byte	0x1c7
 3245 0ce8 68000000 		.4byte	0x68
 3246 0cec 00000000 		.4byte	.LFB83
 3247 0cf0 36000000 		.4byte	.LFE83-.LFB83
 3248 0cf4 01       		.uleb128 0x1
 3249 0cf5 9C       		.byte	0x9c
 3250 0cf6 0A       		.uleb128 0xa
ARM GAS  C:\Users\glenn\AppData\Local\Temp\ccftzDgr.s 			page 76


 3251 0cf7 B7010000 		.4byte	.LASF22
 3252 0cfb 02       		.byte	0x2
 3253 0cfc C701     		.2byte	0x1c7
 3254 0cfe 6F000000 		.4byte	0x6f
 3255 0d02 02       		.uleb128 0x2
 3256 0d03 91       		.byte	0x91
 3257 0d04 74       		.sleb128 -12
 3258 0d05 0A       		.uleb128 0xa
 3259 0d06 85010000 		.4byte	.LASF23
 3260 0d0a 02       		.byte	0x2
 3261 0d0b C701     		.2byte	0x1c7
 3262 0d0d A9000000 		.4byte	0xa9
 3263 0d11 02       		.uleb128 0x2
 3264 0d12 91       		.byte	0x91
 3265 0d13 70       		.sleb128 -16
 3266 0d14 0A       		.uleb128 0xa
 3267 0d15 8D010000 		.4byte	.LASF24
 3268 0d19 02       		.byte	0x2
 3269 0d1a C701     		.2byte	0x1c7
 3270 0d1c 6F000000 		.4byte	0x6f
 3271 0d20 02       		.uleb128 0x2
 3272 0d21 91       		.byte	0x91
 3273 0d22 6C       		.sleb128 -20
 3274 0d23 0A       		.uleb128 0xa
 3275 0d24 95010000 		.4byte	.LASF25
 3276 0d28 02       		.byte	0x2
 3277 0d29 C801     		.2byte	0x1c8
 3278 0d2b 6F000000 		.4byte	0x6f
 3279 0d2f 02       		.uleb128 0x2
 3280 0d30 91       		.byte	0x91
 3281 0d31 68       		.sleb128 -24
 3282 0d32 0A       		.uleb128 0xa
 3283 0d33 9D010000 		.4byte	.LASF26
 3284 0d37 02       		.byte	0x2
 3285 0d38 C801     		.2byte	0x1c8
 3286 0d3a 6F000000 		.4byte	0x6f
 3287 0d3e 02       		.uleb128 0x2
 3288 0d3f 91       		.byte	0x91
 3289 0d40 00       		.sleb128 0
 3290 0d41 0A       		.uleb128 0xa
 3291 0d42 D7010000 		.4byte	.LASF27
 3292 0d46 02       		.byte	0x2
 3293 0d47 C801     		.2byte	0x1c8
 3294 0d49 6F000000 		.4byte	0x6f
 3295 0d4d 02       		.uleb128 0x2
 3296 0d4e 91       		.byte	0x91
 3297 0d4f 04       		.sleb128 4
 3298 0d50 0A       		.uleb128 0xa
 3299 0d51 4B010000 		.4byte	.LASF28
 3300 0d55 02       		.byte	0x2
 3301 0d56 C801     		.2byte	0x1c8
 3302 0d58 6F000000 		.4byte	0x6f
 3303 0d5c 02       		.uleb128 0x2
 3304 0d5d 91       		.byte	0x91
 3305 0d5e 08       		.sleb128 8
 3306 0d5f 00       		.byte	0
 3307 0d60 00       		.byte	0
ARM GAS  C:\Users\glenn\AppData\Local\Temp\ccftzDgr.s 			page 77


 3308              		.section	.debug_abbrev,"",%progbits
 3309              	.Ldebug_abbrev0:
 3310 0000 01       		.uleb128 0x1
 3311 0001 11       		.uleb128 0x11
 3312 0002 01       		.byte	0x1
 3313 0003 25       		.uleb128 0x25
 3314 0004 0E       		.uleb128 0xe
 3315 0005 13       		.uleb128 0x13
 3316 0006 0B       		.uleb128 0xb
 3317 0007 03       		.uleb128 0x3
 3318 0008 0E       		.uleb128 0xe
 3319 0009 1B       		.uleb128 0x1b
 3320 000a 0E       		.uleb128 0xe
 3321 000b 55       		.uleb128 0x55
 3322 000c 17       		.uleb128 0x17
 3323 000d 11       		.uleb128 0x11
 3324 000e 01       		.uleb128 0x1
 3325 000f 10       		.uleb128 0x10
 3326 0010 17       		.uleb128 0x17
 3327 0011 00       		.byte	0
 3328 0012 00       		.byte	0
 3329 0013 02       		.uleb128 0x2
 3330 0014 24       		.uleb128 0x24
 3331 0015 00       		.byte	0
 3332 0016 0B       		.uleb128 0xb
 3333 0017 0B       		.uleb128 0xb
 3334 0018 3E       		.uleb128 0x3e
 3335 0019 0B       		.uleb128 0xb
 3336 001a 03       		.uleb128 0x3
 3337 001b 0E       		.uleb128 0xe
 3338 001c 00       		.byte	0
 3339 001d 00       		.byte	0
 3340 001e 03       		.uleb128 0x3
 3341 001f 16       		.uleb128 0x16
 3342 0020 00       		.byte	0
 3343 0021 03       		.uleb128 0x3
 3344 0022 0E       		.uleb128 0xe
 3345 0023 3A       		.uleb128 0x3a
 3346 0024 0B       		.uleb128 0xb
 3347 0025 3B       		.uleb128 0x3b
 3348 0026 0B       		.uleb128 0xb
 3349 0027 49       		.uleb128 0x49
 3350 0028 13       		.uleb128 0x13
 3351 0029 00       		.byte	0
 3352 002a 00       		.byte	0
 3353 002b 04       		.uleb128 0x4
 3354 002c 24       		.uleb128 0x24
 3355 002d 00       		.byte	0
 3356 002e 0B       		.uleb128 0xb
 3357 002f 0B       		.uleb128 0xb
 3358 0030 3E       		.uleb128 0x3e
 3359 0031 0B       		.uleb128 0xb
 3360 0032 03       		.uleb128 0x3
 3361 0033 08       		.uleb128 0x8
 3362 0034 00       		.byte	0
 3363 0035 00       		.byte	0
 3364 0036 05       		.uleb128 0x5
ARM GAS  C:\Users\glenn\AppData\Local\Temp\ccftzDgr.s 			page 78


 3365 0037 16       		.uleb128 0x16
 3366 0038 00       		.byte	0
 3367 0039 03       		.uleb128 0x3
 3368 003a 0E       		.uleb128 0xe
 3369 003b 3A       		.uleb128 0x3a
 3370 003c 0B       		.uleb128 0xb
 3371 003d 3B       		.uleb128 0x3b
 3372 003e 05       		.uleb128 0x5
 3373 003f 49       		.uleb128 0x49
 3374 0040 13       		.uleb128 0x13
 3375 0041 00       		.byte	0
 3376 0042 00       		.byte	0
 3377 0043 06       		.uleb128 0x6
 3378 0044 0F       		.uleb128 0xf
 3379 0045 00       		.byte	0
 3380 0046 0B       		.uleb128 0xb
 3381 0047 0B       		.uleb128 0xb
 3382 0048 49       		.uleb128 0x49
 3383 0049 13       		.uleb128 0x13
 3384 004a 00       		.byte	0
 3385 004b 00       		.byte	0
 3386 004c 07       		.uleb128 0x7
 3387 004d 15       		.uleb128 0x15
 3388 004e 01       		.byte	0x1
 3389 004f 27       		.uleb128 0x27
 3390 0050 19       		.uleb128 0x19
 3391 0051 49       		.uleb128 0x49
 3392 0052 13       		.uleb128 0x13
 3393 0053 01       		.uleb128 0x1
 3394 0054 13       		.uleb128 0x13
 3395 0055 00       		.byte	0
 3396 0056 00       		.byte	0
 3397 0057 08       		.uleb128 0x8
 3398 0058 05       		.uleb128 0x5
 3399 0059 00       		.byte	0
 3400 005a 49       		.uleb128 0x49
 3401 005b 13       		.uleb128 0x13
 3402 005c 00       		.byte	0
 3403 005d 00       		.byte	0
 3404 005e 09       		.uleb128 0x9
 3405 005f 2E       		.uleb128 0x2e
 3406 0060 01       		.byte	0x1
 3407 0061 03       		.uleb128 0x3
 3408 0062 0E       		.uleb128 0xe
 3409 0063 3A       		.uleb128 0x3a
 3410 0064 0B       		.uleb128 0xb
 3411 0065 3B       		.uleb128 0x3b
 3412 0066 05       		.uleb128 0x5
 3413 0067 27       		.uleb128 0x27
 3414 0068 19       		.uleb128 0x19
 3415 0069 49       		.uleb128 0x49
 3416 006a 13       		.uleb128 0x13
 3417 006b 11       		.uleb128 0x11
 3418 006c 01       		.uleb128 0x1
 3419 006d 12       		.uleb128 0x12
 3420 006e 06       		.uleb128 0x6
 3421 006f 40       		.uleb128 0x40
ARM GAS  C:\Users\glenn\AppData\Local\Temp\ccftzDgr.s 			page 79


 3422 0070 18       		.uleb128 0x18
 3423 0071 9742     		.uleb128 0x2117
 3424 0073 19       		.uleb128 0x19
 3425 0074 01       		.uleb128 0x1
 3426 0075 13       		.uleb128 0x13
 3427 0076 00       		.byte	0
 3428 0077 00       		.byte	0
 3429 0078 0A       		.uleb128 0xa
 3430 0079 05       		.uleb128 0x5
 3431 007a 00       		.byte	0
 3432 007b 03       		.uleb128 0x3
 3433 007c 0E       		.uleb128 0xe
 3434 007d 3A       		.uleb128 0x3a
 3435 007e 0B       		.uleb128 0xb
 3436 007f 3B       		.uleb128 0x3b
 3437 0080 05       		.uleb128 0x5
 3438 0081 49       		.uleb128 0x49
 3439 0082 13       		.uleb128 0x13
 3440 0083 02       		.uleb128 0x2
 3441 0084 18       		.uleb128 0x18
 3442 0085 00       		.byte	0
 3443 0086 00       		.byte	0
 3444 0087 0B       		.uleb128 0xb
 3445 0088 34       		.uleb128 0x34
 3446 0089 00       		.byte	0
 3447 008a 03       		.uleb128 0x3
 3448 008b 0E       		.uleb128 0xe
 3449 008c 3A       		.uleb128 0x3a
 3450 008d 0B       		.uleb128 0xb
 3451 008e 3B       		.uleb128 0x3b
 3452 008f 05       		.uleb128 0x5
 3453 0090 49       		.uleb128 0x49
 3454 0091 13       		.uleb128 0x13
 3455 0092 02       		.uleb128 0x2
 3456 0093 18       		.uleb128 0x18
 3457 0094 00       		.byte	0
 3458 0095 00       		.byte	0
 3459 0096 0C       		.uleb128 0xc
 3460 0097 2E       		.uleb128 0x2e
 3461 0098 01       		.byte	0x1
 3462 0099 3F       		.uleb128 0x3f
 3463 009a 19       		.uleb128 0x19
 3464 009b 03       		.uleb128 0x3
 3465 009c 0E       		.uleb128 0xe
 3466 009d 3A       		.uleb128 0x3a
 3467 009e 0B       		.uleb128 0xb
 3468 009f 3B       		.uleb128 0x3b
 3469 00a0 0B       		.uleb128 0xb
 3470 00a1 27       		.uleb128 0x27
 3471 00a2 19       		.uleb128 0x19
 3472 00a3 49       		.uleb128 0x49
 3473 00a4 13       		.uleb128 0x13
 3474 00a5 11       		.uleb128 0x11
 3475 00a6 01       		.uleb128 0x1
 3476 00a7 12       		.uleb128 0x12
 3477 00a8 06       		.uleb128 0x6
 3478 00a9 40       		.uleb128 0x40
ARM GAS  C:\Users\glenn\AppData\Local\Temp\ccftzDgr.s 			page 80


 3479 00aa 18       		.uleb128 0x18
 3480 00ab 9742     		.uleb128 0x2117
 3481 00ad 19       		.uleb128 0x19
 3482 00ae 01       		.uleb128 0x1
 3483 00af 13       		.uleb128 0x13
 3484 00b0 00       		.byte	0
 3485 00b1 00       		.byte	0
 3486 00b2 0D       		.uleb128 0xd
 3487 00b3 05       		.uleb128 0x5
 3488 00b4 00       		.byte	0
 3489 00b5 03       		.uleb128 0x3
 3490 00b6 0E       		.uleb128 0xe
 3491 00b7 3A       		.uleb128 0x3a
 3492 00b8 0B       		.uleb128 0xb
 3493 00b9 3B       		.uleb128 0x3b
 3494 00ba 0B       		.uleb128 0xb
 3495 00bb 49       		.uleb128 0x49
 3496 00bc 13       		.uleb128 0x13
 3497 00bd 02       		.uleb128 0x2
 3498 00be 18       		.uleb128 0x18
 3499 00bf 00       		.byte	0
 3500 00c0 00       		.byte	0
 3501 00c1 0E       		.uleb128 0xe
 3502 00c2 2E       		.uleb128 0x2e
 3503 00c3 01       		.byte	0x1
 3504 00c4 3F       		.uleb128 0x3f
 3505 00c5 19       		.uleb128 0x19
 3506 00c6 03       		.uleb128 0x3
 3507 00c7 0E       		.uleb128 0xe
 3508 00c8 3A       		.uleb128 0x3a
 3509 00c9 0B       		.uleb128 0xb
 3510 00ca 3B       		.uleb128 0x3b
 3511 00cb 0B       		.uleb128 0xb
 3512 00cc 27       		.uleb128 0x27
 3513 00cd 19       		.uleb128 0x19
 3514 00ce 49       		.uleb128 0x49
 3515 00cf 13       		.uleb128 0x13
 3516 00d0 11       		.uleb128 0x11
 3517 00d1 01       		.uleb128 0x1
 3518 00d2 12       		.uleb128 0x12
 3519 00d3 06       		.uleb128 0x6
 3520 00d4 40       		.uleb128 0x40
 3521 00d5 18       		.uleb128 0x18
 3522 00d6 9642     		.uleb128 0x2116
 3523 00d8 19       		.uleb128 0x19
 3524 00d9 01       		.uleb128 0x1
 3525 00da 13       		.uleb128 0x13
 3526 00db 00       		.byte	0
 3527 00dc 00       		.byte	0
 3528 00dd 0F       		.uleb128 0xf
 3529 00de 34       		.uleb128 0x34
 3530 00df 00       		.byte	0
 3531 00e0 03       		.uleb128 0x3
 3532 00e1 0E       		.uleb128 0xe
 3533 00e2 3A       		.uleb128 0x3a
 3534 00e3 0B       		.uleb128 0xb
 3535 00e4 3B       		.uleb128 0x3b
ARM GAS  C:\Users\glenn\AppData\Local\Temp\ccftzDgr.s 			page 81


 3536 00e5 0B       		.uleb128 0xb
 3537 00e6 49       		.uleb128 0x49
 3538 00e7 13       		.uleb128 0x13
 3539 00e8 02       		.uleb128 0x2
 3540 00e9 18       		.uleb128 0x18
 3541 00ea 00       		.byte	0
 3542 00eb 00       		.byte	0
 3543 00ec 10       		.uleb128 0x10
 3544 00ed 2E       		.uleb128 0x2e
 3545 00ee 01       		.byte	0x1
 3546 00ef 3F       		.uleb128 0x3f
 3547 00f0 19       		.uleb128 0x19
 3548 00f1 03       		.uleb128 0x3
 3549 00f2 0E       		.uleb128 0xe
 3550 00f3 3A       		.uleb128 0x3a
 3551 00f4 0B       		.uleb128 0xb
 3552 00f5 3B       		.uleb128 0x3b
 3553 00f6 05       		.uleb128 0x5
 3554 00f7 27       		.uleb128 0x27
 3555 00f8 19       		.uleb128 0x19
 3556 00f9 49       		.uleb128 0x49
 3557 00fa 13       		.uleb128 0x13
 3558 00fb 11       		.uleb128 0x11
 3559 00fc 01       		.uleb128 0x1
 3560 00fd 12       		.uleb128 0x12
 3561 00fe 06       		.uleb128 0x6
 3562 00ff 40       		.uleb128 0x40
 3563 0100 18       		.uleb128 0x18
 3564 0101 9642     		.uleb128 0x2116
 3565 0103 19       		.uleb128 0x19
 3566 0104 01       		.uleb128 0x1
 3567 0105 13       		.uleb128 0x13
 3568 0106 00       		.byte	0
 3569 0107 00       		.byte	0
 3570 0108 11       		.uleb128 0x11
 3571 0109 2E       		.uleb128 0x2e
 3572 010a 01       		.byte	0x1
 3573 010b 3F       		.uleb128 0x3f
 3574 010c 19       		.uleb128 0x19
 3575 010d 03       		.uleb128 0x3
 3576 010e 0E       		.uleb128 0xe
 3577 010f 3A       		.uleb128 0x3a
 3578 0110 0B       		.uleb128 0xb
 3579 0111 3B       		.uleb128 0x3b
 3580 0112 05       		.uleb128 0x5
 3581 0113 27       		.uleb128 0x27
 3582 0114 19       		.uleb128 0x19
 3583 0115 49       		.uleb128 0x49
 3584 0116 13       		.uleb128 0x13
 3585 0117 11       		.uleb128 0x11
 3586 0118 01       		.uleb128 0x1
 3587 0119 12       		.uleb128 0x12
 3588 011a 06       		.uleb128 0x6
 3589 011b 40       		.uleb128 0x40
 3590 011c 18       		.uleb128 0x18
 3591 011d 9742     		.uleb128 0x2117
 3592 011f 19       		.uleb128 0x19
ARM GAS  C:\Users\glenn\AppData\Local\Temp\ccftzDgr.s 			page 82


 3593 0120 01       		.uleb128 0x1
 3594 0121 13       		.uleb128 0x13
 3595 0122 00       		.byte	0
 3596 0123 00       		.byte	0
 3597 0124 12       		.uleb128 0x12
 3598 0125 2E       		.uleb128 0x2e
 3599 0126 01       		.byte	0x1
 3600 0127 3F       		.uleb128 0x3f
 3601 0128 19       		.uleb128 0x19
 3602 0129 03       		.uleb128 0x3
 3603 012a 0E       		.uleb128 0xe
 3604 012b 3A       		.uleb128 0x3a
 3605 012c 0B       		.uleb128 0xb
 3606 012d 3B       		.uleb128 0x3b
 3607 012e 05       		.uleb128 0x5
 3608 012f 27       		.uleb128 0x27
 3609 0130 19       		.uleb128 0x19
 3610 0131 49       		.uleb128 0x49
 3611 0132 13       		.uleb128 0x13
 3612 0133 11       		.uleb128 0x11
 3613 0134 01       		.uleb128 0x1
 3614 0135 12       		.uleb128 0x12
 3615 0136 06       		.uleb128 0x6
 3616 0137 40       		.uleb128 0x40
 3617 0138 18       		.uleb128 0x18
 3618 0139 9642     		.uleb128 0x2116
 3619 013b 19       		.uleb128 0x19
 3620 013c 00       		.byte	0
 3621 013d 00       		.byte	0
 3622 013e 00       		.byte	0
 3623              		.section	.debug_aranges,"",%progbits
 3624 0000 DC000000 		.4byte	0xdc
 3625 0004 0200     		.2byte	0x2
 3626 0006 00000000 		.4byte	.Ldebug_info0
 3627 000a 04       		.byte	0x4
 3628 000b 00       		.byte	0
 3629 000c 0000     		.2byte	0
 3630 000e 0000     		.2byte	0
 3631 0010 00000000 		.4byte	.LFB37
 3632 0014 30000000 		.4byte	.LFE37-.LFB37
 3633 0018 00000000 		.4byte	.LFB38
 3634 001c 36000000 		.4byte	.LFE38-.LFB38
 3635 0020 00000000 		.4byte	.LFB39
 3636 0024 36000000 		.4byte	.LFE39-.LFB39
 3637 0028 00000000 		.4byte	.LFB62
 3638 002c 18000000 		.4byte	.LFE62-.LFB62
 3639 0030 00000000 		.4byte	.LFB63
 3640 0034 18000000 		.4byte	.LFE63-.LFB63
 3641 0038 00000000 		.4byte	.LFB64
 3642 003c 18000000 		.4byte	.LFE64-.LFB64
 3643 0040 00000000 		.4byte	.LFB65
 3644 0044 3E000000 		.4byte	.LFE65-.LFB65
 3645 0048 00000000 		.4byte	.LFB66
 3646 004c 2E000000 		.4byte	.LFE66-.LFB66
 3647 0050 00000000 		.4byte	.LFB67
 3648 0054 2A000000 		.4byte	.LFE67-.LFB67
 3649 0058 00000000 		.4byte	.LFB68
ARM GAS  C:\Users\glenn\AppData\Local\Temp\ccftzDgr.s 			page 83


 3650 005c 66000000 		.4byte	.LFE68-.LFB68
 3651 0060 00000000 		.4byte	.LFB69
 3652 0064 6A000000 		.4byte	.LFE69-.LFB69
 3653 0068 00000000 		.4byte	.LFB70
 3654 006c 80000000 		.4byte	.LFE70-.LFB70
 3655 0070 00000000 		.4byte	.LFB71
 3656 0074 6A000000 		.4byte	.LFE71-.LFB71
 3657 0078 00000000 		.4byte	.LFB72
 3658 007c A6000000 		.4byte	.LFE72-.LFB72
 3659 0080 00000000 		.4byte	.LFB73
 3660 0084 3C000000 		.4byte	.LFE73-.LFB73
 3661 0088 00000000 		.4byte	.LFB74
 3662 008c 6C000000 		.4byte	.LFE74-.LFB74
 3663 0090 00000000 		.4byte	.LFB75
 3664 0094 2A000000 		.4byte	.LFE75-.LFB75
 3665 0098 00000000 		.4byte	.LFB76
 3666 009c 66000000 		.4byte	.LFE76-.LFB76
 3667 00a0 00000000 		.4byte	.LFB77
 3668 00a4 22000000 		.4byte	.LFE77-.LFB77
 3669 00a8 00000000 		.4byte	.LFB78
 3670 00ac 2A000000 		.4byte	.LFE78-.LFB78
 3671 00b0 00000000 		.4byte	.LFB79
 3672 00b4 1C000000 		.4byte	.LFE79-.LFB79
 3673 00b8 00000000 		.4byte	.LFB80
 3674 00bc 48000000 		.4byte	.LFE80-.LFB80
 3675 00c0 00000000 		.4byte	.LFB81
 3676 00c4 48000000 		.4byte	.LFE81-.LFB81
 3677 00c8 00000000 		.4byte	.LFB82
 3678 00cc 36000000 		.4byte	.LFE82-.LFB82
 3679 00d0 00000000 		.4byte	.LFB83
 3680 00d4 36000000 		.4byte	.LFE83-.LFB83
 3681 00d8 00000000 		.4byte	0
 3682 00dc 00000000 		.4byte	0
 3683              		.section	.debug_ranges,"",%progbits
 3684              	.Ldebug_ranges0:
 3685 0000 00000000 		.4byte	.LFB37
 3686 0004 30000000 		.4byte	.LFE37
 3687 0008 00000000 		.4byte	.LFB38
 3688 000c 36000000 		.4byte	.LFE38
 3689 0010 00000000 		.4byte	.LFB39
 3690 0014 36000000 		.4byte	.LFE39
 3691 0018 00000000 		.4byte	.LFB62
 3692 001c 18000000 		.4byte	.LFE62
 3693 0020 00000000 		.4byte	.LFB63
 3694 0024 18000000 		.4byte	.LFE63
 3695 0028 00000000 		.4byte	.LFB64
 3696 002c 18000000 		.4byte	.LFE64
 3697 0030 00000000 		.4byte	.LFB65
 3698 0034 3E000000 		.4byte	.LFE65
 3699 0038 00000000 		.4byte	.LFB66
 3700 003c 2E000000 		.4byte	.LFE66
 3701 0040 00000000 		.4byte	.LFB67
 3702 0044 2A000000 		.4byte	.LFE67
 3703 0048 00000000 		.4byte	.LFB68
 3704 004c 66000000 		.4byte	.LFE68
 3705 0050 00000000 		.4byte	.LFB69
 3706 0054 6A000000 		.4byte	.LFE69
ARM GAS  C:\Users\glenn\AppData\Local\Temp\ccftzDgr.s 			page 84


 3707 0058 00000000 		.4byte	.LFB70
 3708 005c 80000000 		.4byte	.LFE70
 3709 0060 00000000 		.4byte	.LFB71
 3710 0064 6A000000 		.4byte	.LFE71
 3711 0068 00000000 		.4byte	.LFB72
 3712 006c A6000000 		.4byte	.LFE72
 3713 0070 00000000 		.4byte	.LFB73
 3714 0074 3C000000 		.4byte	.LFE73
 3715 0078 00000000 		.4byte	.LFB74
 3716 007c 6C000000 		.4byte	.LFE74
 3717 0080 00000000 		.4byte	.LFB75
 3718 0084 2A000000 		.4byte	.LFE75
 3719 0088 00000000 		.4byte	.LFB76
 3720 008c 66000000 		.4byte	.LFE76
 3721 0090 00000000 		.4byte	.LFB77
 3722 0094 22000000 		.4byte	.LFE77
 3723 0098 00000000 		.4byte	.LFB78
 3724 009c 2A000000 		.4byte	.LFE78
 3725 00a0 00000000 		.4byte	.LFB79
 3726 00a4 1C000000 		.4byte	.LFE79
 3727 00a8 00000000 		.4byte	.LFB80
 3728 00ac 48000000 		.4byte	.LFE80
 3729 00b0 00000000 		.4byte	.LFB81
 3730 00b4 48000000 		.4byte	.LFE81
 3731 00b8 00000000 		.4byte	.LFB82
 3732 00bc 36000000 		.4byte	.LFE82
 3733 00c0 00000000 		.4byte	.LFB83
 3734 00c4 36000000 		.4byte	.LFE83
 3735 00c8 00000000 		.4byte	0
 3736 00cc 00000000 		.4byte	0
 3737              		.section	.debug_line,"",%progbits
 3738              	.Ldebug_line0:
 3739 0000 15040000 		.section	.debug_str,"MS",%progbits,1
 3739      02007A01 
 3739      00000201 
 3739      FB0E0D00 
 3739      01010101 
 3740              	.LASF6:
 3741 0000 6C6F6E67 		.ascii	"long long int\000"
 3741      206C6F6E 
 3741      6720696E 
 3741      7400
 3742              	.LASF54:
 3743 000e 73797374 		.ascii	"system_reset_fn\000"
 3743      656D5F72 
 3743      65736574 
 3743      5F666E00 
 3744              	.LASF56:
 3745 001e 64697361 		.ascii	"disable_chain_fn\000"
 3745      626C655F 
 3745      63686169 
 3745      6E5F666E 
 3745      00
 3746              	.LASF9:
 3747 002f 5F5F696E 		.ascii	"__intptr_t\000"
 3747      74707472 
 3747      5F7400
ARM GAS  C:\Users\glenn\AppData\Local\Temp\ccftzDgr.s 			page 85


 3748              	.LASF49:
 3749 003a 76657269 		.ascii	"verify_not_tod_fn\000"
 3749      66795F6E 
 3749      6F745F74 
 3749      6F645F66 
 3749      6E00
 3750              	.LASF21:
 3751 004c 5254435F 		.ascii	"RTC_1_GetHours\000"
 3751      315F4765 
 3751      74486F75 
 3751      727300
 3752              	.LASF58:
 3753 005b 474E5520 		.ascii	"GNU C 4.9.3 20150303 (release) [ARM/embedded-4_9-br"
 3753      4320342E 
 3753      392E3320 
 3753      32303135 
 3753      30333033 
 3754 008e 616E6368 		.ascii	"anch revision 221220] -mcpu=cortex-m0 -mthumb -g -O"
 3754      20726576 
 3754      6973696F 
 3754      6E203232 
 3754      31323230 
 3755 00c1 30202D66 		.ascii	"0 -ffunction-sections -ffat-lto-objects\000"
 3755      66756E63 
 3755      74696F6E 
 3755      2D736563 
 3755      74696F6E 
 3756              	.LASF41:
 3757 00e9 76616C75 		.ascii	"value\000"
 3757      6500
 3758              	.LASF38:
 3759 00ef 77616974 		.ascii	"wait_event_count_fn\000"
 3759      5F657665 
 3759      6E745F63 
 3759      6F756E74 
 3759      5F666E00 
 3760              	.LASF31:
 3761 0103 72657365 		.ascii	"reset_fn\000"
 3761      745F666E 
 3761      00
 3762              	.LASF15:
 3763 010c 646F7562 		.ascii	"double\000"
 3763      6C6500
 3764              	.LASF20:
 3765 0113 72657456 		.ascii	"retVal\000"
 3765      616C00
 3766              	.LASF33:
 3767 011a 72657475 		.ascii	"return_value\000"
 3767      726E5F76 
 3767      616C7565 
 3767      00
 3768              	.LASF14:
 3769 0127 666C6F61 		.ascii	"float\000"
 3769      7400
 3770              	.LASF39:
 3771 012d 72785F65 		.ascii	"rx_event\000"
 3771      76656E74 
ARM GAS  C:\Users\glenn\AppData\Local\Temp\ccftzDgr.s 			page 86


 3771      00
 3772              	.LASF50:
 3773 0136 6E6F705F 		.ascii	"nop_fn\000"
 3773      666E00
 3774              	.LASF1:
 3775 013d 756E7369 		.ascii	"unsigned char\000"
 3775      676E6564 
 3775      20636861 
 3775      7200
 3776              	.LASF28:
 3777 014b 6576656E 		.ascii	"event_data\000"
 3777      745F6461 
 3777      746100
 3778              	.LASF19:
 3779 0156 696E7075 		.ascii	"inputTime\000"
 3779      7454696D 
 3779      6500
 3780              	.LASF5:
 3781 0160 6C6F6E67 		.ascii	"long unsigned int\000"
 3781      20756E73 
 3781      69676E65 
 3781      6420696E 
 3781      7400
 3782              	.LASF3:
 3783 0172 73686F72 		.ascii	"short unsigned int\000"
 3783      7420756E 
 3783      7369676E 
 3783      65642069 
 3783      6E7400
 3784              	.LASF23:
 3785 0185 70617261 		.ascii	"param_1\000"
 3785      6D5F3100 
 3786              	.LASF24:
 3787 018d 70617261 		.ascii	"param_2\000"
 3787      6D5F3200 
 3788              	.LASF25:
 3789 0195 70617261 		.ascii	"param_3\000"
 3789      6D5F3300 
 3790              	.LASF26:
 3791 019d 70617261 		.ascii	"param_4\000"
 3791      6D5F3400 
 3792              	.LASF45:
 3793 01a5 77616974 		.ascii	"wait_condition_fn\000"
 3793      5F636F6E 
 3793      64697469 
 3793      6F6E5F66 
 3793      6E00
 3794              	.LASF22:
 3795 01b7 6C696E6B 		.ascii	"link_id\000"
 3795      5F696400 
 3796              	.LASF57:
 3797 01bf 73757370 		.ascii	"suspend_chain_fn\000"
 3797      656E645F 
 3797      63686169 
 3797      6E5F666E 
 3797      00
 3798              	.LASF13:
ARM GAS  C:\Users\glenn\AppData\Local\Temp\ccftzDgr.s 			page 87


 3799 01d0 75696E74 		.ascii	"uint32\000"
 3799      333200
 3800              	.LASF27:
 3801 01d7 6576656E 		.ascii	"event\000"
 3801      7400
 3802              	.LASF44:
 3803 01dd 77616974 		.ascii	"wait_time_fn\000"
 3803      5F74696D 
 3803      655F666E 
 3803      00
 3804              	.LASF59:
 3805 01ea 63686169 		.ascii	"chain_flow\\cf_runtime_functions.c\000"
 3805      6E5F666C 
 3805      6F775C63 
 3805      665F7275 
 3805      6E74696D 
 3806              	.LASF8:
 3807 020c 756E7369 		.ascii	"unsigned int\000"
 3807      676E6564 
 3807      20696E74 
 3807      00
 3808              	.LASF10:
 3809 0219 696E7470 		.ascii	"intptr_t\000"
 3809      74725F74 
 3809      00
 3810              	.LASF47:
 3811 0222 76657269 		.ascii	"verify_not_timeout_fn\000"
 3811      66795F6E 
 3811      6F745F74 
 3811      696D656F 
 3811      75745F66 
 3812              	.LASF30:
 3813 0238 68616C74 		.ascii	"halt_fn\000"
 3813      5F666E00 
 3814              	.LASF7:
 3815 0240 6C6F6E67 		.ascii	"long long unsigned int\000"
 3815      206C6F6E 
 3815      6720756E 
 3815      7369676E 
 3815      65642069 
 3816              	.LASF53:
 3817 0257 6C696E6B 		.ascii	"link_index\000"
 3817      5F696E64 
 3817      657800
 3818              	.LASF35:
 3819 0262 73656E64 		.ascii	"send_event_fn\000"
 3819      5F657665 
 3819      6E745F66 
 3819      6E00
 3820              	.LASF37:
 3821 0270 74696D65 		.ascii	"time\000"
 3821      00
 3822              	.LASF11:
 3823 0275 73697A65 		.ascii	"sizetype\000"
 3823      74797065 
 3823      00
 3824              	.LASF29:
ARM GAS  C:\Users\glenn\AppData\Local\Temp\ccftzDgr.s 			page 88


 3825 027e 7465726D 		.ascii	"terminate_fn\000"
 3825      696E6174 
 3825      655F666E 
 3825      00
 3826              	.LASF16:
 3827 028b 43465F46 		.ascii	"CF_FUN_AUX\000"
 3827      554E5F41 
 3827      555800
 3828              	.LASF12:
 3829 0296 63686172 		.ascii	"char\000"
 3829      00
 3830              	.LASF52:
 3831 029b 63686169 		.ascii	"chain_id\000"
 3831      6E5F6964 
 3831      00
 3832              	.LASF32:
 3833 02a4 6F6E655F 		.ascii	"one_step_fn\000"
 3833      73746570 
 3833      5F666E00 
 3834              	.LASF18:
 3835 02b0 5254435F 		.ascii	"RTC_1_GetMinutes\000"
 3835      315F4765 
 3835      744D696E 
 3835      75746573 
 3835      00
 3836              	.LASF2:
 3837 02c1 73686F72 		.ascii	"short int\000"
 3837      7420696E 
 3837      7400
 3838              	.LASF46:
 3839 02cb 76657269 		.ascii	"verify_condition_fn\000"
 3839      66795F63 
 3839      6F6E6469 
 3839      74696F6E 
 3839      5F666E00 
 3840              	.LASF55:
 3841 02df 656E6162 		.ascii	"enable_chain_fn\000"
 3841      6C655F63 
 3841      6861696E 
 3841      5F666E00 
 3842              	.LASF51:
 3843 02ef 6368616E 		.ascii	"change_state_fn\000"
 3843      67655F73 
 3843      74617465 
 3843      5F666E00 
 3844              	.LASF36:
 3845 02ff 77616974 		.ascii	"wait_tod_fn\000"
 3845      5F746F64 
 3845      5F666E00 
 3846              	.LASF17:
 3847 030b 5254435F 		.ascii	"RTC_1_GetSecond\000"
 3847      315F4765 
 3847      74536563 
 3847      6F6E6400 
 3848              	.LASF4:
 3849 031b 6C6F6E67 		.ascii	"long int\000"
 3849      20696E74 
ARM GAS  C:\Users\glenn\AppData\Local\Temp\ccftzDgr.s 			page 89


 3849      00
 3850              	.LASF61:
 3851 0324 72657375 		.ascii	"resume_chain_fn\000"
 3851      6D655F63 
 3851      6861696E 
 3851      5F666E00 
 3852              	.LASF43:
 3853 0334 74696D65 		.ascii	"time_count\000"
 3853      5F636F75 
 3853      6E7400
 3854              	.LASF60:
 3855 033f 433A5C55 		.ascii	"C:\\Users\\glenn\\OneDrive\\PSOC\\moisture_sensor_4"
 3855      73657273 
 3855      5C676C65 
 3855      6E6E5C4F 
 3855      6E654472 
 3856 036d 6D5C4D6F 		.ascii	"m\\Moisture_Sensor\\Moisture_Sensor.cydsn\000"
 3856      69737475 
 3856      72655F53 
 3856      656E736F 
 3856      725C4D6F 
 3857              	.LASF0:
 3858 0395 7369676E 		.ascii	"signed char\000"
 3858      65642063 
 3858      68617200 
 3859              	.LASF34:
 3860 03a1 636F6465 		.ascii	"code_step_fn\000"
 3860      5F737465 
 3860      705F666E 
 3860      00
 3861              	.LASF42:
 3862 03ae 77616974 		.ascii	"wait_event_fn\000"
 3862      5F657665 
 3862      6E745F66 
 3862      6E00
 3863              	.LASF40:
 3864 03bc 72785F65 		.ascii	"rx_event_count\000"
 3864      76656E74 
 3864      5F636F75 
 3864      6E7400
 3865              	.LASF48:
 3866 03cb 76657269 		.ascii	"verify_not_event_fn\000"
 3866      66795F6E 
 3866      6F745F65 
 3866      76656E74 
 3866      5F666E00 
 3867              		.ident	"GCC: (GNU Tools for ARM Embedded Processors) 4.9.3 20150303 (release) [ARM/embedded-4_9-br
