ARM GAS  C:\Users\glenn\AppData\Local\Temp\ccXr8H9M.s 			page 1


   1              		.cpu cortex-m0
   2              		.fpu softvfp
   3              		.eabi_attribute 20, 1
   4              		.eabi_attribute 21, 1
   5              		.eabi_attribute 23, 3
   6              		.eabi_attribute 24, 1
   7              		.eabi_attribute 25, 1
   8              		.eabi_attribute 26, 1
   9              		.eabi_attribute 30, 6
  10              		.eabi_attribute 34, 0
  11              		.eabi_attribute 18, 4
  12              		.code	16
  13              		.file	"cf_status_bit.c"
  14              		.text
  15              	.Ltext0:
  16              		.cfi_sections	.debug_frame
  17              		.bss
  18              		.align	2
  19              	cf_status_register:
  20 0000 00000000 		.space	4
  21              		.section	.text.cf_initialize_status_manager,"ax",%progbits
  22              		.align	2
  23              		.global	cf_initialize_status_manager
  24              		.code	16
  25              		.thumb_func
  26              		.type	cf_initialize_status_manager, %function
  27              	cf_initialize_status_manager:
  28              	.LFB62:
  29              		.file 1 "chain_flow\\cf_status_bit.c"
   1:chain_flow/cf_status_bit.c **** /*
   2:chain_flow/cf_status_bit.c **** **
   3:chain_flow/cf_status_bit.c **** ** File cf_status_bit.c
   4:chain_flow/cf_status_bit.c **** **
   5:chain_flow/cf_status_bit.c **** **
   6:chain_flow/cf_status_bit.c **** **
   7:chain_flow/cf_status_bit.c **** */
   8:chain_flow/cf_status_bit.c **** #include <project.h>
   9:chain_flow/cf_status_bit.c **** #include "cf_status_bit.h"
  10:chain_flow/cf_status_bit.c **** 
  11:chain_flow/cf_status_bit.c **** 
  12:chain_flow/cf_status_bit.c **** static uint32 cf_status_register;
  13:chain_flow/cf_status_bit.c **** 
  14:chain_flow/cf_status_bit.c **** 
  15:chain_flow/cf_status_bit.c **** 
  16:chain_flow/cf_status_bit.c **** void cf_initialize_status_manager( void )
  17:chain_flow/cf_status_bit.c **** {
  30              		.loc 1 17 0
  31              		.cfi_startproc
  32 0000 80B5     		push	{r7, lr}
  33              		.cfi_def_cfa_offset 8
  34              		.cfi_offset 7, -8
  35              		.cfi_offset 14, -4
  36 0002 00AF     		add	r7, sp, #0
  37              		.cfi_def_cfa_register 7
  18:chain_flow/cf_status_bit.c ****    cf_status_register = 0;
  38              		.loc 1 18 0
  39 0004 024B     		ldr	r3, .L2
ARM GAS  C:\Users\glenn\AppData\Local\Temp\ccXr8H9M.s 			page 2


  40 0006 0022     		mov	r2, #0
  41 0008 1A60     		str	r2, [r3]
  19:chain_flow/cf_status_bit.c **** }
  42              		.loc 1 19 0
  43 000a BD46     		mov	sp, r7
  44              		@ sp needed
  45 000c 80BD     		pop	{r7, pc}
  46              	.L3:
  47 000e C046     		.align	2
  48              	.L2:
  49 0010 00000000 		.word	cf_status_register
  50              		.cfi_endproc
  51              	.LFE62:
  52              		.size	cf_initialize_status_manager, .-cf_initialize_status_manager
  53              		.section	.text.cf_status_clear_bit,"ax",%progbits
  54              		.align	2
  55              		.global	cf_status_clear_bit
  56              		.code	16
  57              		.thumb_func
  58              		.type	cf_status_clear_bit, %function
  59              	cf_status_clear_bit:
  60              	.LFB63:
  20:chain_flow/cf_status_bit.c **** 
  21:chain_flow/cf_status_bit.c **** void  cf_status_clear_bit( uint32 status_bit)
  22:chain_flow/cf_status_bit.c **** {
  61              		.loc 1 22 0
  62              		.cfi_startproc
  63 0000 90B5     		push	{r4, r7, lr}
  64              		.cfi_def_cfa_offset 12
  65              		.cfi_offset 4, -12
  66              		.cfi_offset 7, -8
  67              		.cfi_offset 14, -4
  68 0002 85B0     		sub	sp, sp, #20
  69              		.cfi_def_cfa_offset 32
  70 0004 00AF     		add	r7, sp, #0
  71              		.cfi_def_cfa_register 7
  72 0006 7860     		str	r0, [r7, #4]
  23:chain_flow/cf_status_bit.c ****   uint8  criticalState;
  24:chain_flow/cf_status_bit.c ****     criticalState = CyEnterCriticalSection();
  73              		.loc 1 24 0
  74 0008 0F23     		mov	r3, #15
  75 000a FC18     		add	r4, r7, r3
  76 000c FFF7FEFF 		bl	CyEnterCriticalSection
  77 0010 031C     		mov	r3, r0
  78 0012 2370     		strb	r3, [r4]
  25:chain_flow/cf_status_bit.c **** 
  26:chain_flow/cf_status_bit.c ****     cf_status_register = cf_status_register &(~status_bit);
  79              		.loc 1 26 0
  80 0014 7B68     		ldr	r3, [r7, #4]
  81 0016 DA43     		mvn	r2, r3
  82 0018 064B     		ldr	r3, .L5
  83 001a 1B68     		ldr	r3, [r3]
  84 001c 1A40     		and	r2, r3
  85 001e 054B     		ldr	r3, .L5
  86 0020 1A60     		str	r2, [r3]
  27:chain_flow/cf_status_bit.c ****     CyExitCriticalSection(criticalState);
  87              		.loc 1 27 0
ARM GAS  C:\Users\glenn\AppData\Local\Temp\ccXr8H9M.s 			page 3


  88 0022 0F23     		mov	r3, #15
  89 0024 FB18     		add	r3, r7, r3
  90 0026 1B78     		ldrb	r3, [r3]
  91 0028 181C     		mov	r0, r3
  92 002a FFF7FEFF 		bl	CyExitCriticalSection
  28:chain_flow/cf_status_bit.c **** }
  93              		.loc 1 28 0
  94 002e BD46     		mov	sp, r7
  95 0030 05B0     		add	sp, sp, #20
  96              		@ sp needed
  97 0032 90BD     		pop	{r4, r7, pc}
  98              	.L6:
  99              		.align	2
 100              	.L5:
 101 0034 00000000 		.word	cf_status_register
 102              		.cfi_endproc
 103              	.LFE63:
 104              		.size	cf_status_clear_bit, .-cf_status_clear_bit
 105              		.section	.text.cf_clear_status,"ax",%progbits
 106              		.align	2
 107              		.global	cf_clear_status
 108              		.code	16
 109              		.thumb_func
 110              		.type	cf_clear_status, %function
 111              	cf_clear_status:
 112              	.LFB64:
  29:chain_flow/cf_status_bit.c **** 
  30:chain_flow/cf_status_bit.c **** void cf_clear_status(void )
  31:chain_flow/cf_status_bit.c **** {
 113              		.loc 1 31 0
 114              		.cfi_startproc
 115 0000 90B5     		push	{r4, r7, lr}
 116              		.cfi_def_cfa_offset 12
 117              		.cfi_offset 4, -12
 118              		.cfi_offset 7, -8
 119              		.cfi_offset 14, -4
 120 0002 83B0     		sub	sp, sp, #12
 121              		.cfi_def_cfa_offset 24
 122 0004 00AF     		add	r7, sp, #0
 123              		.cfi_def_cfa_register 7
  32:chain_flow/cf_status_bit.c ****       
  33:chain_flow/cf_status_bit.c ****    uint8  criticalState;
  34:chain_flow/cf_status_bit.c ****     criticalState = CyEnterCriticalSection();
 124              		.loc 1 34 0
 125 0006 FC1D     		add	r4, r7, #7
 126 0008 FFF7FEFF 		bl	CyEnterCriticalSection
 127 000c 031C     		mov	r3, r0
 128 000e 2370     		strb	r3, [r4]
  35:chain_flow/cf_status_bit.c **** 
  36:chain_flow/cf_status_bit.c ****     cf_status_register = 0;
 129              		.loc 1 36 0
 130 0010 054B     		ldr	r3, .L8
 131 0012 0022     		mov	r2, #0
 132 0014 1A60     		str	r2, [r3]
  37:chain_flow/cf_status_bit.c ****     CyExitCriticalSection(criticalState);
 133              		.loc 1 37 0
 134 0016 FB1D     		add	r3, r7, #7
ARM GAS  C:\Users\glenn\AppData\Local\Temp\ccXr8H9M.s 			page 4


 135 0018 1B78     		ldrb	r3, [r3]
 136 001a 181C     		mov	r0, r3
 137 001c FFF7FEFF 		bl	CyExitCriticalSection
  38:chain_flow/cf_status_bit.c **** }
 138              		.loc 1 38 0
 139 0020 BD46     		mov	sp, r7
 140 0022 03B0     		add	sp, sp, #12
 141              		@ sp needed
 142 0024 90BD     		pop	{r4, r7, pc}
 143              	.L9:
 144 0026 C046     		.align	2
 145              	.L8:
 146 0028 00000000 		.word	cf_status_register
 147              		.cfi_endproc
 148              	.LFE64:
 149              		.size	cf_clear_status, .-cf_clear_status
 150              		.section	.text.cf_set_interrupt_status_bit,"ax",%progbits
 151              		.align	2
 152              		.global	cf_set_interrupt_status_bit
 153              		.code	16
 154              		.thumb_func
 155              		.type	cf_set_interrupt_status_bit, %function
 156              	cf_set_interrupt_status_bit:
 157              	.LFB65:
  39:chain_flow/cf_status_bit.c **** 
  40:chain_flow/cf_status_bit.c **** void cf_set_interrupt_status_bit( uint32 status_bit )
  41:chain_flow/cf_status_bit.c **** {
 158              		.loc 1 41 0
 159              		.cfi_startproc
 160 0000 80B5     		push	{r7, lr}
 161              		.cfi_def_cfa_offset 8
 162              		.cfi_offset 7, -8
 163              		.cfi_offset 14, -4
 164 0002 82B0     		sub	sp, sp, #8
 165              		.cfi_def_cfa_offset 16
 166 0004 00AF     		add	r7, sp, #0
 167              		.cfi_def_cfa_register 7
 168 0006 7860     		str	r0, [r7, #4]
  42:chain_flow/cf_status_bit.c ****       cf_status_register |= status_bit;
 169              		.loc 1 42 0
 170 0008 044B     		ldr	r3, .L11
 171 000a 1A68     		ldr	r2, [r3]
 172 000c 7B68     		ldr	r3, [r7, #4]
 173 000e 1A43     		orr	r2, r3
 174 0010 024B     		ldr	r3, .L11
 175 0012 1A60     		str	r2, [r3]
  43:chain_flow/cf_status_bit.c **** 
  44:chain_flow/cf_status_bit.c **** }
 176              		.loc 1 44 0
 177 0014 BD46     		mov	sp, r7
 178 0016 02B0     		add	sp, sp, #8
 179              		@ sp needed
 180 0018 80BD     		pop	{r7, pc}
 181              	.L12:
 182 001a C046     		.align	2
 183              	.L11:
 184 001c 00000000 		.word	cf_status_register
ARM GAS  C:\Users\glenn\AppData\Local\Temp\ccXr8H9M.s 			page 5


 185              		.cfi_endproc
 186              	.LFE65:
 187              		.size	cf_set_interrupt_status_bit, .-cf_set_interrupt_status_bit
 188              		.section	.text.cf_set_status_bit,"ax",%progbits
 189              		.align	2
 190              		.global	cf_set_status_bit
 191              		.code	16
 192              		.thumb_func
 193              		.type	cf_set_status_bit, %function
 194              	cf_set_status_bit:
 195              	.LFB66:
  45:chain_flow/cf_status_bit.c **** 
  46:chain_flow/cf_status_bit.c **** void cf_set_status_bit( uint32 status_bit )
  47:chain_flow/cf_status_bit.c **** {
 196              		.loc 1 47 0
 197              		.cfi_startproc
 198 0000 90B5     		push	{r4, r7, lr}
 199              		.cfi_def_cfa_offset 12
 200              		.cfi_offset 4, -12
 201              		.cfi_offset 7, -8
 202              		.cfi_offset 14, -4
 203 0002 85B0     		sub	sp, sp, #20
 204              		.cfi_def_cfa_offset 32
 205 0004 00AF     		add	r7, sp, #0
 206              		.cfi_def_cfa_register 7
 207 0006 7860     		str	r0, [r7, #4]
  48:chain_flow/cf_status_bit.c ****     
  49:chain_flow/cf_status_bit.c ****     uint8  criticalState;
  50:chain_flow/cf_status_bit.c ****     criticalState = CyEnterCriticalSection();
 208              		.loc 1 50 0
 209 0008 0F23     		mov	r3, #15
 210 000a FC18     		add	r4, r7, r3
 211 000c FFF7FEFF 		bl	CyEnterCriticalSection
 212 0010 031C     		mov	r3, r0
 213 0012 2370     		strb	r3, [r4]
  51:chain_flow/cf_status_bit.c **** 
  52:chain_flow/cf_status_bit.c ****    cf_status_register |= status_bit;
 214              		.loc 1 52 0
 215 0014 074B     		ldr	r3, .L14
 216 0016 1A68     		ldr	r2, [r3]
 217 0018 7B68     		ldr	r3, [r7, #4]
 218 001a 1A43     		orr	r2, r3
 219 001c 054B     		ldr	r3, .L14
 220 001e 1A60     		str	r2, [r3]
  53:chain_flow/cf_status_bit.c ****    CyExitCriticalSection(criticalState);
 221              		.loc 1 53 0
 222 0020 0F23     		mov	r3, #15
 223 0022 FB18     		add	r3, r7, r3
 224 0024 1B78     		ldrb	r3, [r3]
 225 0026 181C     		mov	r0, r3
 226 0028 FFF7FEFF 		bl	CyExitCriticalSection
  54:chain_flow/cf_status_bit.c **** }
 227              		.loc 1 54 0
 228 002c BD46     		mov	sp, r7
 229 002e 05B0     		add	sp, sp, #20
 230              		@ sp needed
 231 0030 90BD     		pop	{r4, r7, pc}
ARM GAS  C:\Users\glenn\AppData\Local\Temp\ccXr8H9M.s 			page 6


 232              	.L15:
 233 0032 C046     		.align	2
 234              	.L14:
 235 0034 00000000 		.word	cf_status_register
 236              		.cfi_endproc
 237              	.LFE66:
 238              		.size	cf_set_status_bit, .-cf_set_status_bit
 239              		.section	.text.cf_get_status,"ax",%progbits
 240              		.align	2
 241              		.global	cf_get_status
 242              		.code	16
 243              		.thumb_func
 244              		.type	cf_get_status, %function
 245              	cf_get_status:
 246              	.LFB67:
  55:chain_flow/cf_status_bit.c **** 
  56:chain_flow/cf_status_bit.c **** 
  57:chain_flow/cf_status_bit.c **** uint32 cf_get_status( )
  58:chain_flow/cf_status_bit.c **** {
 247              		.loc 1 58 0
 248              		.cfi_startproc
 249 0000 90B5     		push	{r4, r7, lr}
 250              		.cfi_def_cfa_offset 12
 251              		.cfi_offset 4, -12
 252              		.cfi_offset 7, -8
 253              		.cfi_offset 14, -4
 254 0002 83B0     		sub	sp, sp, #12
 255              		.cfi_def_cfa_offset 24
 256 0004 00AF     		add	r7, sp, #0
 257              		.cfi_def_cfa_register 7
  59:chain_flow/cf_status_bit.c ****    int return_value;
  60:chain_flow/cf_status_bit.c ****    uint8  criticalState;
  61:chain_flow/cf_status_bit.c ****     criticalState = CyEnterCriticalSection();
 258              		.loc 1 61 0
 259 0006 FC1D     		add	r4, r7, #7
 260 0008 FFF7FEFF 		bl	CyEnterCriticalSection
 261 000c 031C     		mov	r3, r0
 262 000e 2370     		strb	r3, [r4]
  62:chain_flow/cf_status_bit.c **** 
  63:chain_flow/cf_status_bit.c ****    // add interrupt protoection
  64:chain_flow/cf_status_bit.c ****    return_value = cf_status_register;
 263              		.loc 1 64 0
 264 0010 074B     		ldr	r3, .L18
 265 0012 1B68     		ldr	r3, [r3]
 266 0014 3B60     		str	r3, [r7]
  65:chain_flow/cf_status_bit.c ****    cf_status_register = 0;
 267              		.loc 1 65 0
 268 0016 064B     		ldr	r3, .L18
 269 0018 0022     		mov	r2, #0
 270 001a 1A60     		str	r2, [r3]
  66:chain_flow/cf_status_bit.c ****    CyExitCriticalSection(criticalState);
 271              		.loc 1 66 0
 272 001c FB1D     		add	r3, r7, #7
 273 001e 1B78     		ldrb	r3, [r3]
 274 0020 181C     		mov	r0, r3
 275 0022 FFF7FEFF 		bl	CyExitCriticalSection
  67:chain_flow/cf_status_bit.c ****    return return_value;
ARM GAS  C:\Users\glenn\AppData\Local\Temp\ccXr8H9M.s 			page 7


 276              		.loc 1 67 0
 277 0026 3B68     		ldr	r3, [r7]
  68:chain_flow/cf_status_bit.c **** }
 278              		.loc 1 68 0
 279 0028 181C     		mov	r0, r3
 280 002a BD46     		mov	sp, r7
 281 002c 03B0     		add	sp, sp, #12
 282              		@ sp needed
 283 002e 90BD     		pop	{r4, r7, pc}
 284              	.L19:
 285              		.align	2
 286              	.L18:
 287 0030 00000000 		.word	cf_status_register
 288              		.cfi_endproc
 289              	.LFE67:
 290              		.size	cf_get_status, .-cf_get_status
 291              		.text
 292              	.Letext0:
 293              		.file 2 "Generated_Source\\PSoC4/cytypes.h"