ARM GAS  C:\Users\glenn\AppData\Local\Temp\ccVIMYPX.s 			page 1


   1              		.cpu cortex-m0
   2              		.fpu softvfp
   3              		.eabi_attribute 20, 1
   4              		.eabi_attribute 21, 1
   5              		.eabi_attribute 23, 3
   6              		.eabi_attribute 24, 1
   7              		.eabi_attribute 25, 1
   8              		.eabi_attribute 26, 1
   9              		.eabi_attribute 30, 6
  10              		.eabi_attribute 34, 0
  11              		.eabi_attribute 18, 4
  12              		.code	16
  13              		.file	"chain_flow_support.c"
  14              		.text
  15              	.Ltext0:
  16              		.cfi_sections	.debug_frame
  17              		.comm	chain_state,12,4
  18              		.comm	link_state,83,4
  19              		.comm	link_data,332,4
  20              		.global	start_state
  21              		.section	.rodata
  22              		.align	2
  23              		.type	start_state, %object
  24              		.size	start_state, 48
  25              	start_state:
  26 0000 01000000 		.word	1
  27 0004 01000000 		.word	1
  28 0008 01000000 		.word	1
  29 000c 01000000 		.word	1
  30 0010 01000000 		.word	1
  31 0014 01000000 		.word	1
  32 0018 01000000 		.word	1
  33 001c 01000000 		.word	1
  34 0020 01000000 		.word	1
  35 0024 01000000 		.word	1
  36 0028 00000000 		.word	0
  37 002c 01000000 		.word	1
  38              		.global	CHAIN_initialization_LINKS
  39              		.align	2
  40              		.type	CHAIN_initialization_LINKS, %object
  41              		.size	CHAIN_initialization_LINKS, 320
  42              	CHAIN_initialization_LINKS:
  43 0030 00000000 		.word	one_step_fn
  44 0034 00000000 		.word	restore_system_parameters
  45 0038 00000000 		.word	0
  46 003c 00000000 		.word	0
  47 0040 00000000 		.word	0
  48 0044 00000000 		.word	one_step_fn
  49 0048 00000000 		.word	initialize_modbus_bus
  50 004c 00000000 		.word	0
  51 0050 00000000 		.word	0
  52 0054 00000000 		.word	0
  53 0058 00000000 		.word	one_step_fn
  54 005c 00000000 		.word	set_modbus_reset_flag
  55 0060 00000000 		.word	0
  56 0064 00000000 		.word	0
  57 0068 00000000 		.word	0
ARM GAS  C:\Users\glenn\AppData\Local\Temp\ccVIMYPX.s 			page 2


  58 006c 00000000 		.word	one_step_fn
  59 0070 00000000 		.word	set_modbus_watch_dog_flag
  60 0074 00000000 		.word	0
  61 0078 00000000 		.word	0
  62 007c 00000000 		.word	0
  63 0080 00000000 		.word	one_step_fn
  64 0084 00000000 		.word	initialize_analog
  65 0088 00000000 		.word	0
  66 008c 00000000 		.word	0
  67 0090 00000000 		.word	0
  68 0094 00000000 		.word	one_step_fn
  69 0098 00000000 		.word	find_one_wire_devices
  70 009c 00000000 		.word	0
  71 00a0 00000000 		.word	0
  72 00a4 00000000 		.word	0
  73 00a8 00000000 		.word	one_step_fn
  74 00ac 00000000 		.word	pat_watch_dog
  75 00b0 00000000 		.word	0
  76 00b4 00000000 		.word	0
  77 00b8 00000000 		.word	0
  78 00bc 00000000 		.word	one_step_fn
  79 00c0 00000000 		.word	start_ds18B20_temperature_measurement
  80 00c4 00000000 		.word	0
  81 00c8 00000000 		.word	0
  82 00cc 00000000 		.word	0
  83 00d0 00000000 		.word	one_step_fn
  84 00d4 00000000 		.word	pat_watch_dog
  85 00d8 00000000 		.word	0
  86 00dc 00000000 		.word	0
  87 00e0 00000000 		.word	0
  88 00e4 00000000 		.word	wait_time_fn
  89 00e8 00000000 		.word	0
  90 00ec E8030000 		.word	1000
  91 00f0 00000000 		.word	0
  92 00f4 00000000 		.word	0
  93 00f8 00000000 		.word	one_step_fn
  94 00fc 00000000 		.word	pat_watch_dog
  95 0100 00000000 		.word	0
  96 0104 00000000 		.word	0
  97 0108 00000000 		.word	0
  98 010c 00000000 		.word	one_step_fn
  99 0110 00000000 		.word	read_ds18B20_temperature_measurement
 100 0114 00000000 		.word	0
 101 0118 00000000 		.word	0
 102 011c 00000000 		.word	0
 103 0120 00000000 		.word	one_step_fn
 104 0124 00000000 		.word	measure_air_temperature
 105 0128 00000000 		.word	0
 106 012c 00000000 		.word	0
 107 0130 00000000 		.word	0
 108 0134 00000000 		.word	one_step_fn
 109 0138 00000000 		.word	enable_interrupts
 110 013c 00000000 		.word	0
 111 0140 00000000 		.word	0
 112 0144 00000000 		.word	0
 113 0148 00000000 		.word	one_step_fn
 114 014c 00000000 		.word	init_moisture_processing
ARM GAS  C:\Users\glenn\AppData\Local\Temp\ccVIMYPX.s 			page 3


 115 0150 00000000 		.word	0
 116 0154 00000000 		.word	0
 117 0158 00000000 		.word	0
 118 015c 00000000 		.word	terminate_fn
 119 0160 00000000 		.word	0
 120 0164 00000000 		.word	0
 121 0168 00000000 		.word	0
 122 016c 00000000 		.word	0
 123              		.global	CHAIN_second_tick_chain_LINKS
 124              		.align	2
 125              		.type	CHAIN_second_tick_chain_LINKS, %object
 126              		.size	CHAIN_second_tick_chain_LINKS, 100
 127              	CHAIN_second_tick_chain_LINKS:
 128 0170 00000000 		.word	wait_event_fn
 129 0174 00000000 		.word	0
 130 0178 05000000 		.word	5
 131 017c 00000000 		.word	0
 132 0180 00000000 		.word	0
 133 0184 00000000 		.word	one_step_fn
 134 0188 00000000 		.word	set_modbus_watch_dog_flag
 135 018c 00000000 		.word	0
 136 0190 00000000 		.word	0
 137 0194 00000000 		.word	0
 138 0198 00000000 		.word	one_step_fn
 139 019c 00000000 		.word	pat_watch_dog
 140 01a0 00000000 		.word	0
 141 01a4 00000000 		.word	0
 142 01a8 00000000 		.word	0
 143 01ac 00000000 		.word	one_step_fn
 144 01b0 00000000 		.word	update_modbus_rtc_values
 145 01b4 00000000 		.word	0
 146 01b8 00000000 		.word	0
 147 01bc 00000000 		.word	0
 148 01c0 00000000 		.word	reset_fn
 149 01c4 00000000 		.word	0
 150 01c8 00000000 		.word	0
 151 01cc 00000000 		.word	0
 152 01d0 00000000 		.word	0
 153              		.global	CHAIN_minute_tick_chain_LINKS
 154              		.align	2
 155              		.type	CHAIN_minute_tick_chain_LINKS, %object
 156              		.size	CHAIN_minute_tick_chain_LINKS, 80
 157              	CHAIN_minute_tick_chain_LINKS:
 158 01d4 00000000 		.word	wait_event_fn
 159 01d8 00000000 		.word	0
 160 01dc 06000000 		.word	6
 161 01e0 00000000 		.word	0
 162 01e4 00000000 		.word	0
 163 01e8 00000000 		.word	one_step_fn
 164 01ec 00000000 		.word	set_minute_rollover_flag
 165 01f0 00000000 		.word	0
 166 01f4 00000000 		.word	0
 167 01f8 00000000 		.word	0
 168 01fc 00000000 		.word	one_step_fn
 169 0200 00000000 		.word	measure_air_temperature
 170 0204 00000000 		.word	0
 171 0208 00000000 		.word	0
ARM GAS  C:\Users\glenn\AppData\Local\Temp\ccVIMYPX.s 			page 4


 172 020c 00000000 		.word	0
 173 0210 00000000 		.word	reset_fn
 174 0214 00000000 		.word	0
 175 0218 00000000 		.word	0
 176 021c 00000000 		.word	0
 177 0220 00000000 		.word	0
 178              		.global	CHAIN_hour_tick_chain_LINKS
 179              		.align	2
 180              		.type	CHAIN_hour_tick_chain_LINKS, %object
 181              		.size	CHAIN_hour_tick_chain_LINKS, 160
 182              	CHAIN_hour_tick_chain_LINKS:
 183 0224 00000000 		.word	wait_event_fn
 184 0228 00000000 		.word	0
 185 022c 07000000 		.word	7
 186 0230 00000000 		.word	0
 187 0234 00000000 		.word	0
 188 0238 00000000 		.word	one_step_fn
 189 023c 00000000 		.word	pat_watch_dog
 190 0240 00000000 		.word	0
 191 0244 00000000 		.word	0
 192 0248 00000000 		.word	0
 193 024c 00000000 		.word	one_step_fn
 194 0250 00000000 		.word	start_ds18B20_temperature_measurement
 195 0254 00000000 		.word	0
 196 0258 00000000 		.word	0
 197 025c 00000000 		.word	0
 198 0260 00000000 		.word	one_step_fn
 199 0264 00000000 		.word	pat_watch_dog
 200 0268 00000000 		.word	0
 201 026c 00000000 		.word	0
 202 0270 00000000 		.word	0
 203 0274 00000000 		.word	wait_time_fn
 204 0278 00000000 		.word	0
 205 027c E8030000 		.word	1000
 206 0280 00000000 		.word	0
 207 0284 00000000 		.word	0
 208 0288 00000000 		.word	one_step_fn
 209 028c 00000000 		.word	pat_watch_dog
 210 0290 00000000 		.word	0
 211 0294 00000000 		.word	0
 212 0298 00000000 		.word	0
 213 029c 00000000 		.word	one_step_fn
 214 02a0 00000000 		.word	read_ds18B20_temperature_measurement
 215 02a4 00000000 		.word	0
 216 02a8 00000000 		.word	0
 217 02ac 00000000 		.word	0
 218 02b0 00000000 		.word	reset_fn
 219 02b4 00000000 		.word	0
 220 02b8 00000000 		.word	0
 221 02bc 00000000 		.word	0
 222 02c0 00000000 		.word	0
 223              		.global	CHAIN_measure_channel_LINKS
 224              		.align	2
 225              		.type	CHAIN_measure_channel_LINKS, %object
 226              		.size	CHAIN_measure_channel_LINKS, 240
 227              	CHAIN_measure_channel_LINKS:
 228 02c4 00000000 		.word	wait_event_fn
ARM GAS  C:\Users\glenn\AppData\Local\Temp\ccVIMYPX.s 			page 5


 229 02c8 00000000 		.word	0
 230 02cc 09000000 		.word	9
 231 02d0 00000000 		.word	0
 232 02d4 00000000 		.word	0
 233 02d8 00000000 		.word	one_step_fn
 234 02dc 00000000 		.word	clear_new_moisture_measurement_flag
 235 02e0 00000000 		.word	0
 236 02e4 00000000 		.word	0
 237 02e8 00000000 		.word	0
 238 02ec 00000000 		.word	one_step_fn
 239 02f0 00000000 		.word	set_source_channel
 240 02f4 00000000 		.word	0
 241 02f8 00000000 		.word	0
 242 02fc 00000000 		.word	0
 243 0300 00000000 		.word	one_step_fn
 244 0304 00000000 		.word	make_source_measurement
 245 0308 00000000 		.word	0
 246 030c 00000000 		.word	0
 247 0310 00000000 		.word	0
 248 0314 00000000 		.word	one_step_fn
 249 0318 00000000 		.word	remove_power
 250 031c 00000000 		.word	0
 251 0320 00000000 		.word	0
 252 0324 00000000 		.word	0
 253 0328 00000000 		.word	one_step_fn
 254 032c 00000000 		.word	set_sink_channel
 255 0330 00000000 		.word	0
 256 0334 00000000 		.word	0
 257 0338 00000000 		.word	0
 258 033c 00000000 		.word	one_step_fn
 259 0340 00000000 		.word	make_dummy_measurement
 260 0344 00000000 		.word	0
 261 0348 00000000 		.word	0
 262 034c 00000000 		.word	0
 263 0350 00000000 		.word	one_step_fn
 264 0354 00000000 		.word	remove_power
 265 0358 00000000 		.word	0
 266 035c 00000000 		.word	0
 267 0360 00000000 		.word	0
 268 0364 00000000 		.word	one_step_fn
 269 0368 00000000 		.word	update_new_measurement_available
 270 036c 00000000 		.word	0
 271 0370 00000000 		.word	0
 272 0374 00000000 		.word	0
 273 0378 00000000 		.word	one_step_fn
 274 037c 00000000 		.word	make_capacitance_measurements
 275 0380 00000000 		.word	0
 276 0384 00000000 		.word	0
 277 0388 00000000 		.word	0
 278 038c 00000000 		.word	one_step_fn
 279 0390 00000000 		.word	set_new_moisture_measurement_flag
 280 0394 00000000 		.word	0
 281 0398 00000000 		.word	0
 282 039c 00000000 		.word	0
 283 03a0 00000000 		.word	reset_fn
 284 03a4 00000000 		.word	0
 285 03a8 00000000 		.word	0
ARM GAS  C:\Users\glenn\AppData\Local\Temp\ccVIMYPX.s 			page 6


 286 03ac 00000000 		.word	0
 287 03b0 00000000 		.word	0
 288              		.global	CHAIN_one_wire_presence_LINKS
 289              		.align	2
 290              		.type	CHAIN_one_wire_presence_LINKS, %object
 291              		.size	CHAIN_one_wire_presence_LINKS, 60
 292              	CHAIN_one_wire_presence_LINKS:
 293 03b4 00000000 		.word	wait_event_fn
 294 03b8 00000000 		.word	0
 295 03bc 10000000 		.word	16
 296 03c0 00000000 		.word	0
 297 03c4 00000000 		.word	0
 298 03c8 00000000 		.word	one_step_fn
 299 03cc 00000000 		.word	find_one_wire_devices
 300 03d0 00000000 		.word	0
 301 03d4 00000000 		.word	0
 302 03d8 00000000 		.word	0
 303 03dc 00000000 		.word	reset_fn
 304 03e0 00000000 		.word	0
 305 03e4 00000000 		.word	0
 306 03e8 00000000 		.word	0
 307 03ec 00000000 		.word	0
 308              		.global	CHAIN_make_soil_measurement_LINKS
 309              		.align	2
 310              		.type	CHAIN_make_soil_measurement_LINKS, %object
 311              		.size	CHAIN_make_soil_measurement_LINKS, 160
 312              	CHAIN_make_soil_measurement_LINKS:
 313 03f0 00000000 		.word	wait_event_fn
 314 03f4 00000000 		.word	0
 315 03f8 11000000 		.word	17
 316 03fc 00000000 		.word	0
 317 0400 00000000 		.word	0
 318 0404 00000000 		.word	one_step_fn
 319 0408 00000000 		.word	pat_watch_dog
 320 040c 00000000 		.word	0
 321 0410 00000000 		.word	0
 322 0414 00000000 		.word	0
 323 0418 00000000 		.word	one_step_fn
 324 041c 00000000 		.word	start_ds18B20_temperature_measurement
 325 0420 00000000 		.word	0
 326 0424 00000000 		.word	0
 327 0428 00000000 		.word	0
 328 042c 00000000 		.word	one_step_fn
 329 0430 00000000 		.word	pat_watch_dog
 330 0434 00000000 		.word	0
 331 0438 00000000 		.word	0
 332 043c 00000000 		.word	0
 333 0440 00000000 		.word	wait_time_fn
 334 0444 00000000 		.word	0
 335 0448 E8030000 		.word	1000
 336 044c 00000000 		.word	0
 337 0450 00000000 		.word	0
 338 0454 00000000 		.word	one_step_fn
 339 0458 00000000 		.word	pat_watch_dog
 340 045c 00000000 		.word	0
 341 0460 00000000 		.word	0
 342 0464 00000000 		.word	0
ARM GAS  C:\Users\glenn\AppData\Local\Temp\ccVIMYPX.s 			page 7


 343 0468 00000000 		.word	one_step_fn
 344 046c 00000000 		.word	read_ds18B20_temperature_measurement
 345 0470 00000000 		.word	0
 346 0474 00000000 		.word	0
 347 0478 00000000 		.word	0
 348 047c 00000000 		.word	reset_fn
 349 0480 00000000 		.word	0
 350 0484 00000000 		.word	0
 351 0488 00000000 		.word	0
 352 048c 00000000 		.word	0
 353              		.global	CHAIN_make_air_temperature_LINKS
 354              		.align	2
 355              		.type	CHAIN_make_air_temperature_LINKS, %object
 356              		.size	CHAIN_make_air_temperature_LINKS, 60
 357              	CHAIN_make_air_temperature_LINKS:
 358 0490 00000000 		.word	wait_event_fn
 359 0494 00000000 		.word	0
 360 0498 12000000 		.word	18
 361 049c 00000000 		.word	0
 362 04a0 00000000 		.word	0
 363 04a4 00000000 		.word	one_step_fn
 364 04a8 00000000 		.word	read_ds18B20_temperature_measurement
 365 04ac 00000000 		.word	0
 366 04b0 00000000 		.word	0
 367 04b4 00000000 		.word	0
 368 04b8 00000000 		.word	reset_fn
 369 04bc 00000000 		.word	0
 370 04c0 00000000 		.word	0
 371 04c4 00000000 		.word	0
 372 04c8 00000000 		.word	0
 373              		.global	CHAIN_flash_update_LINKS
 374              		.align	2
 375              		.type	CHAIN_flash_update_LINKS, %object
 376              		.size	CHAIN_flash_update_LINKS, 80
 377              	CHAIN_flash_update_LINKS:
 378 04cc 00000000 		.word	wait_event_fn
 379 04d0 00000000 		.word	0
 380 04d4 0F000000 		.word	15
 381 04d8 00000000 		.word	0
 382 04dc 00000000 		.word	0
 383 04e0 00000000 		.word	one_step_fn
 384 04e4 00000000 		.word	program_flash
 385 04e8 00000000 		.word	0
 386 04ec 00000000 		.word	0
 387 04f0 00000000 		.word	0
 388 04f4 00000000 		.word	one_step_fn
 389 04f8 00000000 		.word	restore_system_parameters
 390 04fc 00000000 		.word	0
 391 0500 00000000 		.word	0
 392 0504 00000000 		.word	0
 393 0508 00000000 		.word	reset_fn
 394 050c 00000000 		.word	0
 395 0510 00000000 		.word	0
 396 0514 00000000 		.word	0
 397 0518 00000000 		.word	0
 398              		.global	CHAIN_heart_beat_LINKS
 399              		.align	2
ARM GAS  C:\Users\glenn\AppData\Local\Temp\ccVIMYPX.s 			page 8


 400              		.type	CHAIN_heart_beat_LINKS, %object
 401              		.size	CHAIN_heart_beat_LINKS, 80
 402              	CHAIN_heart_beat_LINKS:
 403 051c 00000000 		.word	wait_time_fn
 404 0520 00000000 		.word	0
 405 0524 E8030000 		.word	1000
 406 0528 00000000 		.word	0
 407 052c 00000000 		.word	0
 408 0530 00000000 		.word	one_step_fn
 409 0534 00000000 		.word	toggle_heart_beat
 410 0538 00000000 		.word	0
 411 053c 00000000 		.word	0
 412 0540 00000000 		.word	0
 413 0544 00000000 		.word	one_step_fn
 414 0548 00000000 		.word	pat_watch_dog
 415 054c 00000000 		.word	0
 416 0550 00000000 		.word	0
 417 0554 00000000 		.word	0
 418 0558 00000000 		.word	reset_fn
 419 055c 00000000 		.word	0
 420 0560 00000000 		.word	0
 421 0564 00000000 		.word	0
 422 0568 00000000 		.word	0
 423              		.global	CHAIN_commissioning_heart_beat_LINKS
 424              		.align	2
 425              		.type	CHAIN_commissioning_heart_beat_LINKS, %object
 426              		.size	CHAIN_commissioning_heart_beat_LINKS, 80
 427              	CHAIN_commissioning_heart_beat_LINKS:
 428 056c 00000000 		.word	wait_time_fn
 429 0570 00000000 		.word	0
 430 0574 64000000 		.word	100
 431 0578 00000000 		.word	0
 432 057c 00000000 		.word	0
 433 0580 00000000 		.word	one_step_fn
 434 0584 00000000 		.word	toggle_heart_beat
 435 0588 00000000 		.word	0
 436 058c 00000000 		.word	0
 437 0590 00000000 		.word	0
 438 0594 00000000 		.word	one_step_fn
 439 0598 00000000 		.word	pat_watch_dog
 440 059c 00000000 		.word	0
 441 05a0 00000000 		.word	0
 442 05a4 00000000 		.word	0
 443 05a8 00000000 		.word	reset_fn
 444 05ac 00000000 		.word	0
 445 05b0 00000000 		.word	0
 446 05b4 00000000 		.word	0
 447 05b8 00000000 		.word	0
 448              		.global	CHAIN_handle_commissioning_LINKS
 449              		.align	2
 450              		.type	CHAIN_handle_commissioning_LINKS, %object
 451              		.size	CHAIN_handle_commissioning_LINKS, 240
 452              	CHAIN_handle_commissioning_LINKS:
 453 05bc 00000000 		.word	one_step_fn
 454 05c0 00000000 		.word	set_normal_modbus_address
 455 05c4 00000000 		.word	0
 456 05c8 00000000 		.word	0
ARM GAS  C:\Users\glenn\AppData\Local\Temp\ccVIMYPX.s 			page 9


 457 05cc 00000000 		.word	0
 458 05d0 00000000 		.word	disable_chain_fn
 459 05d4 00000000 		.word	0
 460 05d8 0A000000 		.word	10
 461 05dc FFFFFFFF 		.word	-1
 462 05e0 FFFFFFFF 		.word	-1
 463 05e4 00000000 		.word	enable_chain_fn
 464 05e8 00000000 		.word	0
 465 05ec 09000000 		.word	9
 466 05f0 FFFFFFFF 		.word	-1
 467 05f4 FFFFFFFF 		.word	-1
 468 05f8 00000000 		.word	wait_condition_fn
 469 05fc 00000000 		.word	switch_off_fn
 470 0600 00000000 		.word	0
 471 0604 00000000 		.word	0
 472 0608 00000000 		.word	0
 473 060c 00000000 		.word	wait_condition_fn
 474 0610 00000000 		.word	switch_on_fn
 475 0614 00000000 		.word	0
 476 0618 00000000 		.word	0
 477 061c 00000000 		.word	0
 478 0620 00000000 		.word	wait_condition_fn
 479 0624 00000000 		.word	switch_off_fn
 480 0628 00000000 		.word	0
 481 062c 00000000 		.word	0
 482 0630 00000000 		.word	0
 483 0634 00000000 		.word	disable_chain_fn
 484 0638 00000000 		.word	0
 485 063c 09000000 		.word	9
 486 0640 FFFFFFFF 		.word	-1
 487 0644 FFFFFFFF 		.word	-1
 488 0648 00000000 		.word	enable_chain_fn
 489 064c 00000000 		.word	0
 490 0650 0A000000 		.word	10
 491 0654 FFFFFFFF 		.word	-1
 492 0658 FFFFFFFF 		.word	-1
 493 065c 00000000 		.word	one_step_fn
 494 0660 00000000 		.word	set_commissiong_address
 495 0664 00000000 		.word	0
 496 0668 00000000 		.word	0
 497 066c 00000000 		.word	0
 498 0670 00000000 		.word	verify_condition_fn
 499 0674 00000000 		.word	switch_off_fn
 500 0678 00000000 		.word	0
 501 067c 00000000 		.word	0
 502 0680 00000000 		.word	0
 503 0684 00000000 		.word	wait_event_fn
 504 0688 00000000 		.word	0
 505 068c 08000000 		.word	8
 506 0690 E0930400 		.word	300000
 507 0694 00000000 		.word	0
 508 0698 00000000 		.word	reset_fn
 509 069c 00000000 		.word	0
 510 06a0 00000000 		.word	0
 511 06a4 00000000 		.word	0
 512 06a8 00000000 		.word	0
 513              		.global	chain_control
ARM GAS  C:\Users\glenn\AppData\Local\Temp\ccVIMYPX.s 			page 10


 514              		.align	2
 515              		.type	chain_control, %object
 516              		.size	chain_control, 192
 517              	chain_control:
 518 06ac 00000000 		.word	0
 519 06b0 00000000 		.word	0
 520 06b4 10000000 		.word	16
 521 06b8 00000000 		.word	CHAIN_initialization_LINKS
 522 06bc 10000000 		.word	16
 523 06c0 01000000 		.word	1
 524 06c4 05000000 		.word	5
 525 06c8 00000000 		.word	CHAIN_second_tick_chain_LINKS
 526 06cc 15000000 		.word	21
 527 06d0 02000000 		.word	2
 528 06d4 04000000 		.word	4
 529 06d8 00000000 		.word	CHAIN_minute_tick_chain_LINKS
 530 06dc 19000000 		.word	25
 531 06e0 03000000 		.word	3
 532 06e4 08000000 		.word	8
 533 06e8 00000000 		.word	CHAIN_hour_tick_chain_LINKS
 534 06ec 21000000 		.word	33
 535 06f0 04000000 		.word	4
 536 06f4 0C000000 		.word	12
 537 06f8 00000000 		.word	CHAIN_measure_channel_LINKS
 538 06fc 2D000000 		.word	45
 539 0700 05000000 		.word	5
 540 0704 03000000 		.word	3
 541 0708 00000000 		.word	CHAIN_one_wire_presence_LINKS
 542 070c 30000000 		.word	48
 543 0710 06000000 		.word	6
 544 0714 08000000 		.word	8
 545 0718 00000000 		.word	CHAIN_make_soil_measurement_LINKS
 546 071c 38000000 		.word	56
 547 0720 07000000 		.word	7
 548 0724 03000000 		.word	3
 549 0728 00000000 		.word	CHAIN_make_air_temperature_LINKS
 550 072c 3B000000 		.word	59
 551 0730 08000000 		.word	8
 552 0734 04000000 		.word	4
 553 0738 00000000 		.word	CHAIN_flash_update_LINKS
 554 073c 3F000000 		.word	63
 555 0740 09000000 		.word	9
 556 0744 04000000 		.word	4
 557 0748 00000000 		.word	CHAIN_heart_beat_LINKS
 558 074c 43000000 		.word	67
 559 0750 0A000000 		.word	10
 560 0754 04000000 		.word	4
 561 0758 00000000 		.word	CHAIN_commissioning_heart_beat_LINKS
 562 075c 47000000 		.word	71
 563 0760 0B000000 		.word	11
 564 0764 0C000000 		.word	12
 565 0768 00000000 		.word	CHAIN_handle_commissioning_LINKS
 566              		.section	.text.chain_enable_for_event,"ax",%progbits
 567              		.align	2
 568              		.code	16
 569              		.thumb_func
 570              		.type	chain_enable_for_event, %function
ARM GAS  C:\Users\glenn\AppData\Local\Temp\ccVIMYPX.s 			page 11


 571              	chain_enable_for_event:
 572              	.LFB62:
 573              		.file 1 "chain_flow\\chain_flow_support.c"
   1:chain_flow/chain_flow_support.c **** /*
   2:chain_flow/chain_flow_support.c **** **
   3:chain_flow/chain_flow_support.c **** ** File: cf_chain_flow_support.c
   4:chain_flow/chain_flow_support.c **** **
   5:chain_flow/chain_flow_support.c **** **
   6:chain_flow/chain_flow_support.c **** */
   7:chain_flow/chain_flow_support.c **** #include <stdio.h>
   8:chain_flow/chain_flow_support.c **** #include <assert.h>
   9:chain_flow/chain_flow_support.c **** #include <string.h>
  10:chain_flow/chain_flow_support.c **** 
  11:chain_flow/chain_flow_support.c **** #include "cf_chain_flow_support.h"
  12:chain_flow/chain_flow_support.c **** 
  13:chain_flow/chain_flow_support.c **** #include "cf_runtime_functions.h"
  14:chain_flow/chain_flow_support.c **** #include "cf_external_functions.h"
  15:chain_flow/chain_flow_support.c **** #include "cf_events.h"
  16:chain_flow/chain_flow_support.c **** 
  17:chain_flow/chain_flow_support.c **** int blink_heart_beat( unsigned link_id, CF_FUN_AUX param_1, unsigned param_2,
  18:chain_flow/chain_flow_support.c ****                       unsigned param_3, unsigned param_4,  unsigned event, unsigned event_data);
  19:chain_flow/chain_flow_support.c **** #include "cf_chain_flow_include.h"
  20:chain_flow/chain_flow_support.c **** 
  21:chain_flow/chain_flow_support.c **** 
  22:chain_flow/chain_flow_support.c **** 
  23:chain_flow/chain_flow_support.c **** #define CHAIN_ENABLE_MASK  1
  24:chain_flow/chain_flow_support.c **** #define CHAIN_RESUME_MASK 2
  25:chain_flow/chain_flow_support.c **** #define CHAIN_ACTIVE_MASK  3
  26:chain_flow/chain_flow_support.c **** 
  27:chain_flow/chain_flow_support.c **** #define LINK_ACTIVE_MASK 1
  28:chain_flow/chain_flow_support.c **** #define LINK_INIT_MASK   2
  29:chain_flow/chain_flow_support.c **** #define LINK_RESET_STATE 1
  30:chain_flow/chain_flow_support.c **** 
  31:chain_flow/chain_flow_support.c **** 
  32:chain_flow/chain_flow_support.c **** 
  33:chain_flow/chain_flow_support.c **** static void chain_execute_chain( unsigned chain_id, unsigned event, unsigned event_data );
  34:chain_flow/chain_flow_support.c **** static unsigned execute_cell( unsigned link_index,  const LINK_CELL *cell_ptr, unsigned event, unsi
  35:chain_flow/chain_flow_support.c **** static unsigned check_return_code( unsigned chain_id, unsigned link_offset, unsigned return_code );
  36:chain_flow/chain_flow_support.c **** 
  37:chain_flow/chain_flow_support.c **** static inline int  chain_enable_for_event( unsigned chain_id )
  38:chain_flow/chain_flow_support.c **** {
 574              		.loc 1 38 0
 575              		.cfi_startproc
 576 0000 80B5     		push	{r7, lr}
 577              		.cfi_def_cfa_offset 8
 578              		.cfi_offset 7, -8
 579              		.cfi_offset 14, -4
 580 0002 84B0     		sub	sp, sp, #16
 581              		.cfi_def_cfa_offset 24
 582 0004 00AF     		add	r7, sp, #0
 583              		.cfi_def_cfa_register 7
 584 0006 7860     		str	r0, [r7, #4]
  39:chain_flow/chain_flow_support.c ****    int return_value;
  40:chain_flow/chain_flow_support.c ****    if( chain_state[chain_id] == CHAIN_ACTIVE_MASK )
 585              		.loc 1 40 0
 586 0008 074A     		ldr	r2, .L5
 587 000a 7B68     		ldr	r3, [r7, #4]
ARM GAS  C:\Users\glenn\AppData\Local\Temp\ccVIMYPX.s 			page 12


 588 000c D318     		add	r3, r2, r3
 589 000e 1B78     		ldrb	r3, [r3]
 590 0010 032B     		cmp	r3, #3
 591 0012 02D1     		bne	.L2
  41:chain_flow/chain_flow_support.c ****    {
  42:chain_flow/chain_flow_support.c ****          return_value = 1;
 592              		.loc 1 42 0
 593 0014 0123     		mov	r3, #1
 594 0016 FB60     		str	r3, [r7, #12]
 595 0018 01E0     		b	.L3
 596              	.L2:
  43:chain_flow/chain_flow_support.c ****    }
  44:chain_flow/chain_flow_support.c ****    else
  45:chain_flow/chain_flow_support.c ****    {
  46:chain_flow/chain_flow_support.c ****           return_value = 0;
 597              		.loc 1 46 0
 598 001a 0023     		mov	r3, #0
 599 001c FB60     		str	r3, [r7, #12]
 600              	.L3:
  47:chain_flow/chain_flow_support.c ****    }
  48:chain_flow/chain_flow_support.c ****    return return_value;
 601              		.loc 1 48 0
 602 001e FB68     		ldr	r3, [r7, #12]
  49:chain_flow/chain_flow_support.c **** }
 603              		.loc 1 49 0
 604 0020 181C     		mov	r0, r3
 605 0022 BD46     		mov	sp, r7
 606 0024 04B0     		add	sp, sp, #16
 607              		@ sp needed
 608 0026 80BD     		pop	{r7, pc}
 609              	.L6:
 610              		.align	2
 611              	.L5:
 612 0028 00000000 		.word	chain_state
 613              		.cfi_endproc
 614              	.LFE62:
 615              		.size	chain_enable_for_event, .-chain_enable_for_event
 616              		.section	.text.chain_get_link_number,"ax",%progbits
 617              		.align	2
 618              		.code	16
 619              		.thumb_func
 620              		.type	chain_get_link_number, %function
 621              	chain_get_link_number:
 622              	.LFB63:
  50:chain_flow/chain_flow_support.c **** 
  51:chain_flow/chain_flow_support.c **** 
  52:chain_flow/chain_flow_support.c **** static inline int  chain_get_link_number( unsigned chain_id )
  53:chain_flow/chain_flow_support.c **** {
 623              		.loc 1 53 0
 624              		.cfi_startproc
 625 0000 80B5     		push	{r7, lr}
 626              		.cfi_def_cfa_offset 8
 627              		.cfi_offset 7, -8
 628              		.cfi_offset 14, -4
 629 0002 82B0     		sub	sp, sp, #8
 630              		.cfi_def_cfa_offset 16
 631 0004 00AF     		add	r7, sp, #0
ARM GAS  C:\Users\glenn\AppData\Local\Temp\ccVIMYPX.s 			page 13


 632              		.cfi_def_cfa_register 7
 633 0006 7860     		str	r0, [r7, #4]
  54:chain_flow/chain_flow_support.c ****    return chain_control[chain_id].link_number;
 634              		.loc 1 54 0
 635 0008 044A     		ldr	r2, .L9
 636 000a 7B68     		ldr	r3, [r7, #4]
 637 000c 1B01     		lsl	r3, r3, #4
 638 000e D318     		add	r3, r2, r3
 639 0010 0833     		add	r3, r3, #8
 640 0012 1B68     		ldr	r3, [r3]
  55:chain_flow/chain_flow_support.c **** }
 641              		.loc 1 55 0
 642 0014 181C     		mov	r0, r3
 643 0016 BD46     		mov	sp, r7
 644 0018 02B0     		add	sp, sp, #8
 645              		@ sp needed
 646 001a 80BD     		pop	{r7, pc}
 647              	.L10:
 648              		.align	2
 649              	.L9:
 650 001c 00000000 		.word	chain_control
 651              		.cfi_endproc
 652              	.LFE63:
 653              		.size	chain_get_link_number, .-chain_get_link_number
 654              		.section	.text.chain_get_link_offset,"ax",%progbits
 655              		.align	2
 656              		.code	16
 657              		.thumb_func
 658              		.type	chain_get_link_offset, %function
 659              	chain_get_link_offset:
 660              	.LFB64:
  56:chain_flow/chain_flow_support.c **** 
  57:chain_flow/chain_flow_support.c **** static inline int  chain_get_link_offset( unsigned chain_id )
  58:chain_flow/chain_flow_support.c **** {
 661              		.loc 1 58 0
 662              		.cfi_startproc
 663 0000 80B5     		push	{r7, lr}
 664              		.cfi_def_cfa_offset 8
 665              		.cfi_offset 7, -8
 666              		.cfi_offset 14, -4
 667 0002 82B0     		sub	sp, sp, #8
 668              		.cfi_def_cfa_offset 16
 669 0004 00AF     		add	r7, sp, #0
 670              		.cfi_def_cfa_register 7
 671 0006 7860     		str	r0, [r7, #4]
  59:chain_flow/chain_flow_support.c ****    return chain_control[chain_id].link_index;
 672              		.loc 1 59 0
 673 0008 034B     		ldr	r3, .L13
 674 000a 7A68     		ldr	r2, [r7, #4]
 675 000c 1201     		lsl	r2, r2, #4
 676 000e D358     		ldr	r3, [r2, r3]
  60:chain_flow/chain_flow_support.c **** }
 677              		.loc 1 60 0
 678 0010 181C     		mov	r0, r3
 679 0012 BD46     		mov	sp, r7
 680 0014 02B0     		add	sp, sp, #8
 681              		@ sp needed
ARM GAS  C:\Users\glenn\AppData\Local\Temp\ccVIMYPX.s 			page 14


 682 0016 80BD     		pop	{r7, pc}
 683              	.L14:
 684              		.align	2
 685              	.L13:
 686 0018 00000000 		.word	chain_control
 687              		.cfi_endproc
 688              	.LFE64:
 689              		.size	chain_get_link_offset, .-chain_get_link_offset
 690              		.section	.text.get_cell_pointer,"ax",%progbits
 691              		.align	2
 692              		.code	16
 693              		.thumb_func
 694              		.type	get_cell_pointer, %function
 695              	get_cell_pointer:
 696              	.LFB65:
  61:chain_flow/chain_flow_support.c **** 
  62:chain_flow/chain_flow_support.c **** static inline const LINK_CELL *get_cell_pointer( unsigned chain_id )
  63:chain_flow/chain_flow_support.c **** {
 697              		.loc 1 63 0
 698              		.cfi_startproc
 699 0000 80B5     		push	{r7, lr}
 700              		.cfi_def_cfa_offset 8
 701              		.cfi_offset 7, -8
 702              		.cfi_offset 14, -4
 703 0002 82B0     		sub	sp, sp, #8
 704              		.cfi_def_cfa_offset 16
 705 0004 00AF     		add	r7, sp, #0
 706              		.cfi_def_cfa_register 7
 707 0006 7860     		str	r0, [r7, #4]
  64:chain_flow/chain_flow_support.c ****   return chain_control[chain_id].link_cells;
 708              		.loc 1 64 0
 709 0008 044A     		ldr	r2, .L17
 710 000a 7B68     		ldr	r3, [r7, #4]
 711 000c 1B01     		lsl	r3, r3, #4
 712 000e D318     		add	r3, r2, r3
 713 0010 0833     		add	r3, r3, #8
 714 0012 5B68     		ldr	r3, [r3, #4]
  65:chain_flow/chain_flow_support.c **** }
 715              		.loc 1 65 0
 716 0014 181C     		mov	r0, r3
 717 0016 BD46     		mov	sp, r7
 718 0018 02B0     		add	sp, sp, #8
 719              		@ sp needed
 720 001a 80BD     		pop	{r7, pc}
 721              	.L18:
 722              		.align	2
 723              	.L17:
 724 001c 00000000 		.word	chain_control
 725              		.cfi_endproc
 726              	.LFE65:
 727              		.size	get_cell_pointer, .-get_cell_pointer
 728              		.section	.text.reset_all_links,"ax",%progbits
 729              		.align	2
 730              		.code	16
 731              		.thumb_func
 732              		.type	reset_all_links, %function
 733              	reset_all_links:
ARM GAS  C:\Users\glenn\AppData\Local\Temp\ccVIMYPX.s 			page 15


 734              	.LFB66:
  66:chain_flow/chain_flow_support.c **** 
  67:chain_flow/chain_flow_support.c **** static inline void reset_all_links( int chain_id )
  68:chain_flow/chain_flow_support.c **** {
 735              		.loc 1 68 0
 736              		.cfi_startproc
 737 0000 80B5     		push	{r7, lr}
 738              		.cfi_def_cfa_offset 8
 739              		.cfi_offset 7, -8
 740              		.cfi_offset 14, -4
 741 0002 86B0     		sub	sp, sp, #24
 742              		.cfi_def_cfa_offset 32
 743 0004 00AF     		add	r7, sp, #0
 744              		.cfi_def_cfa_register 7
 745 0006 7860     		str	r0, [r7, #4]
  69:chain_flow/chain_flow_support.c ****     unsigned link_number;
  70:chain_flow/chain_flow_support.c ****     unsigned link_offset;
  71:chain_flow/chain_flow_support.c ****     unsigned i;
  72:chain_flow/chain_flow_support.c **** 
  73:chain_flow/chain_flow_support.c ****     link_offset = chain_control[ chain_id ].link_index;
 746              		.loc 1 73 0
 747 0008 0F4B     		ldr	r3, .L22
 748 000a 7A68     		ldr	r2, [r7, #4]
 749 000c 1201     		lsl	r2, r2, #4
 750 000e D358     		ldr	r3, [r2, r3]
 751 0010 7B61     		str	r3, [r7, #20]
  74:chain_flow/chain_flow_support.c ****     link_number = chain_control[ chain_id ].link_number;
 752              		.loc 1 74 0
 753 0012 0D4A     		ldr	r2, .L22
 754 0014 7B68     		ldr	r3, [r7, #4]
 755 0016 1B01     		lsl	r3, r3, #4
 756 0018 D318     		add	r3, r2, r3
 757 001a 0833     		add	r3, r3, #8
 758 001c 1B68     		ldr	r3, [r3]
 759 001e FB60     		str	r3, [r7, #12]
  75:chain_flow/chain_flow_support.c ****     for( i = 0; i< link_number; i++ )
 760              		.loc 1 75 0
 761 0020 0023     		mov	r3, #0
 762 0022 3B61     		str	r3, [r7, #16]
 763 0024 08E0     		b	.L20
 764              	.L21:
  76:chain_flow/chain_flow_support.c ****     {
  77:chain_flow/chain_flow_support.c ****         link_state[link_offset++] = LINK_RESET_STATE;
 765              		.loc 1 77 0 discriminator 3
 766 0026 7B69     		ldr	r3, [r7, #20]
 767 0028 5A1C     		add	r2, r3, #1
 768 002a 7A61     		str	r2, [r7, #20]
 769 002c 074A     		ldr	r2, .L22+4
 770 002e 0121     		mov	r1, #1
 771 0030 D154     		strb	r1, [r2, r3]
  75:chain_flow/chain_flow_support.c ****     for( i = 0; i< link_number; i++ )
 772              		.loc 1 75 0 discriminator 3
 773 0032 3B69     		ldr	r3, [r7, #16]
 774 0034 0133     		add	r3, r3, #1
 775 0036 3B61     		str	r3, [r7, #16]
 776              	.L20:
  75:chain_flow/chain_flow_support.c ****     for( i = 0; i< link_number; i++ )
ARM GAS  C:\Users\glenn\AppData\Local\Temp\ccVIMYPX.s 			page 16


 777              		.loc 1 75 0 is_stmt 0 discriminator 1
 778 0038 3A69     		ldr	r2, [r7, #16]
 779 003a FB68     		ldr	r3, [r7, #12]
 780 003c 9A42     		cmp	r2, r3
 781 003e F2D3     		bcc	.L21
  78:chain_flow/chain_flow_support.c ****     }
  79:chain_flow/chain_flow_support.c ****     
  80:chain_flow/chain_flow_support.c **** }
 782              		.loc 1 80 0 is_stmt 1
 783 0040 BD46     		mov	sp, r7
 784 0042 06B0     		add	sp, sp, #24
 785              		@ sp needed
 786 0044 80BD     		pop	{r7, pc}
 787              	.L23:
 788 0046 C046     		.align	2
 789              	.L22:
 790 0048 00000000 		.word	chain_control
 791 004c 00000000 		.word	link_state
 792              		.cfi_endproc
 793              	.LFE66:
 794              		.size	reset_all_links, .-reset_all_links
 795              		.section	.text.is_link_active,"ax",%progbits
 796              		.align	2
 797              		.code	16
 798              		.thumb_func
 799              		.type	is_link_active, %function
 800              	is_link_active:
 801              	.LFB67:
  81:chain_flow/chain_flow_support.c **** 
  82:chain_flow/chain_flow_support.c **** static inline unsigned is_link_active( unsigned link_offset )
  83:chain_flow/chain_flow_support.c **** {
 802              		.loc 1 83 0
 803              		.cfi_startproc
 804 0000 80B5     		push	{r7, lr}
 805              		.cfi_def_cfa_offset 8
 806              		.cfi_offset 7, -8
 807              		.cfi_offset 14, -4
 808 0002 82B0     		sub	sp, sp, #8
 809              		.cfi_def_cfa_offset 16
 810 0004 00AF     		add	r7, sp, #0
 811              		.cfi_def_cfa_register 7
 812 0006 7860     		str	r0, [r7, #4]
  84:chain_flow/chain_flow_support.c ****    return link_state[ link_offset] &LINK_ACTIVE_MASK;
 813              		.loc 1 84 0
 814 0008 054A     		ldr	r2, .L26
 815 000a 7B68     		ldr	r3, [r7, #4]
 816 000c D318     		add	r3, r2, r3
 817 000e 1B78     		ldrb	r3, [r3]
 818 0010 1A1C     		mov	r2, r3
 819 0012 0123     		mov	r3, #1
 820 0014 1340     		and	r3, r2
  85:chain_flow/chain_flow_support.c **** }
 821              		.loc 1 85 0
 822 0016 181C     		mov	r0, r3
 823 0018 BD46     		mov	sp, r7
 824 001a 02B0     		add	sp, sp, #8
 825              		@ sp needed
ARM GAS  C:\Users\glenn\AppData\Local\Temp\ccVIMYPX.s 			page 17


 826 001c 80BD     		pop	{r7, pc}
 827              	.L27:
 828 001e C046     		.align	2
 829              	.L26:
 830 0020 00000000 		.word	link_state
 831              		.cfi_endproc
 832              	.LFE67:
 833              		.size	is_link_active, .-is_link_active
 834              		.section	.text.is_link_initialized,"ax",%progbits
 835              		.align	2
 836              		.code	16
 837              		.thumb_func
 838              		.type	is_link_initialized, %function
 839              	is_link_initialized:
 840              	.LFB68:
  86:chain_flow/chain_flow_support.c **** 
  87:chain_flow/chain_flow_support.c **** static inline unsigned is_link_initialized( unsigned link_offset )
  88:chain_flow/chain_flow_support.c **** {
 841              		.loc 1 88 0
 842              		.cfi_startproc
 843 0000 80B5     		push	{r7, lr}
 844              		.cfi_def_cfa_offset 8
 845              		.cfi_offset 7, -8
 846              		.cfi_offset 14, -4
 847 0002 82B0     		sub	sp, sp, #8
 848              		.cfi_def_cfa_offset 16
 849 0004 00AF     		add	r7, sp, #0
 850              		.cfi_def_cfa_register 7
 851 0006 7860     		str	r0, [r7, #4]
  89:chain_flow/chain_flow_support.c ****    return link_state[ link_offset] &LINK_INIT_MASK;
 852              		.loc 1 89 0
 853 0008 054A     		ldr	r2, .L30
 854 000a 7B68     		ldr	r3, [r7, #4]
 855 000c D318     		add	r3, r2, r3
 856 000e 1B78     		ldrb	r3, [r3]
 857 0010 1A1C     		mov	r2, r3
 858 0012 0223     		mov	r3, #2
 859 0014 1340     		and	r3, r2
  90:chain_flow/chain_flow_support.c **** }
 860              		.loc 1 90 0
 861 0016 181C     		mov	r0, r3
 862 0018 BD46     		mov	sp, r7
 863 001a 02B0     		add	sp, sp, #8
 864              		@ sp needed
 865 001c 80BD     		pop	{r7, pc}
 866              	.L31:
 867 001e C046     		.align	2
 868              	.L30:
 869 0020 00000000 		.word	link_state
 870              		.cfi_endproc
 871              	.LFE68:
 872              		.size	is_link_initialized, .-is_link_initialized
 873              		.section	.text.mark_disable_link,"ax",%progbits
 874              		.align	2
 875              		.code	16
 876              		.thumb_func
 877              		.type	mark_disable_link, %function
ARM GAS  C:\Users\glenn\AppData\Local\Temp\ccVIMYPX.s 			page 18


 878              	mark_disable_link:
 879              	.LFB69:
  91:chain_flow/chain_flow_support.c **** 
  92:chain_flow/chain_flow_support.c **** static inline void mark_disable_link( unsigned link_offset )
  93:chain_flow/chain_flow_support.c **** {
 880              		.loc 1 93 0
 881              		.cfi_startproc
 882 0000 80B5     		push	{r7, lr}
 883              		.cfi_def_cfa_offset 8
 884              		.cfi_offset 7, -8
 885              		.cfi_offset 14, -4
 886 0002 82B0     		sub	sp, sp, #8
 887              		.cfi_def_cfa_offset 16
 888 0004 00AF     		add	r7, sp, #0
 889              		.cfi_def_cfa_register 7
 890 0006 7860     		str	r0, [r7, #4]
  94:chain_flow/chain_flow_support.c ****    link_state[ link_offset] &= ~LINK_ACTIVE_MASK;
 891              		.loc 1 94 0
 892 0008 074A     		ldr	r2, .L33
 893 000a 7B68     		ldr	r3, [r7, #4]
 894 000c D318     		add	r3, r2, r3
 895 000e 1B78     		ldrb	r3, [r3]
 896 0010 0122     		mov	r2, #1
 897 0012 9343     		bic	r3, r2
 898 0014 D9B2     		uxtb	r1, r3
 899 0016 044A     		ldr	r2, .L33
 900 0018 7B68     		ldr	r3, [r7, #4]
 901 001a D318     		add	r3, r2, r3
 902 001c 0A1C     		add	r2, r1, #0
 903 001e 1A70     		strb	r2, [r3]
  95:chain_flow/chain_flow_support.c **** }
 904              		.loc 1 95 0
 905 0020 BD46     		mov	sp, r7
 906 0022 02B0     		add	sp, sp, #8
 907              		@ sp needed
 908 0024 80BD     		pop	{r7, pc}
 909              	.L34:
 910 0026 C046     		.align	2
 911              	.L33:
 912 0028 00000000 		.word	link_state
 913              		.cfi_endproc
 914              	.LFE69:
 915              		.size	mark_disable_link, .-mark_disable_link
 916              		.section	.text.mark_initialize_link,"ax",%progbits
 917              		.align	2
 918              		.code	16
 919              		.thumb_func
 920              		.type	mark_initialize_link, %function
 921              	mark_initialize_link:
 922              	.LFB70:
  96:chain_flow/chain_flow_support.c **** 
  97:chain_flow/chain_flow_support.c **** static inline void mark_initialize_link( unsigned link_offset )
  98:chain_flow/chain_flow_support.c **** {
 923              		.loc 1 98 0
 924              		.cfi_startproc
 925 0000 80B5     		push	{r7, lr}
 926              		.cfi_def_cfa_offset 8
ARM GAS  C:\Users\glenn\AppData\Local\Temp\ccVIMYPX.s 			page 19


 927              		.cfi_offset 7, -8
 928              		.cfi_offset 14, -4
 929 0002 82B0     		sub	sp, sp, #8
 930              		.cfi_def_cfa_offset 16
 931 0004 00AF     		add	r7, sp, #0
 932              		.cfi_def_cfa_register 7
 933 0006 7860     		str	r0, [r7, #4]
  99:chain_flow/chain_flow_support.c ****    link_state[ link_offset ] |= LINK_INIT_MASK;
 934              		.loc 1 99 0
 935 0008 074A     		ldr	r2, .L36
 936 000a 7B68     		ldr	r3, [r7, #4]
 937 000c D318     		add	r3, r2, r3
 938 000e 1B78     		ldrb	r3, [r3]
 939 0010 0222     		mov	r2, #2
 940 0012 1343     		orr	r3, r2
 941 0014 D9B2     		uxtb	r1, r3
 942 0016 044A     		ldr	r2, .L36
 943 0018 7B68     		ldr	r3, [r7, #4]
 944 001a D318     		add	r3, r2, r3
 945 001c 0A1C     		add	r2, r1, #0
 946 001e 1A70     		strb	r2, [r3]
 100:chain_flow/chain_flow_support.c **** }
 947              		.loc 1 100 0
 948 0020 BD46     		mov	sp, r7
 949 0022 02B0     		add	sp, sp, #8
 950              		@ sp needed
 951 0024 80BD     		pop	{r7, pc}
 952              	.L37:
 953 0026 C046     		.align	2
 954              	.L36:
 955 0028 00000000 		.word	link_state
 956              		.cfi_endproc
 957              	.LFE70:
 958              		.size	mark_initialize_link, .-mark_initialize_link
 959              		.section	.text.cf_change_state,"ax",%progbits
 960              		.align	2
 961              		.global	cf_change_state
 962              		.code	16
 963              		.thumb_func
 964              		.type	cf_change_state, %function
 965              	cf_change_state:
 966              	.LFB71:
 101:chain_flow/chain_flow_support.c **** 
 102:chain_flow/chain_flow_support.c **** void cf_change_state( unsigned chain_id, unsigned link_index)
 103:chain_flow/chain_flow_support.c **** {
 967              		.loc 1 103 0
 968              		.cfi_startproc
 969 0000 80B5     		push	{r7, lr}
 970              		.cfi_def_cfa_offset 8
 971              		.cfi_offset 7, -8
 972              		.cfi_offset 14, -4
 973 0002 86B0     		sub	sp, sp, #24
 974              		.cfi_def_cfa_offset 32
 975 0004 00AF     		add	r7, sp, #0
 976              		.cfi_def_cfa_register 7
 977 0006 7860     		str	r0, [r7, #4]
 978 0008 3960     		str	r1, [r7]
ARM GAS  C:\Users\glenn\AppData\Local\Temp\ccVIMYPX.s 			page 20


 104:chain_flow/chain_flow_support.c ****     unsigned link_base;
 105:chain_flow/chain_flow_support.c ****     unsigned link_number;
 106:chain_flow/chain_flow_support.c ****     unsigned      i;
 107:chain_flow/chain_flow_support.c ****     
 108:chain_flow/chain_flow_support.c ****     link_base    =  chain_get_link_offset( chain_id );
 979              		.loc 1 108 0
 980 000a 7B68     		ldr	r3, [r7, #4]
 981 000c 181C     		mov	r0, r3
 982 000e FFF7FEFF 		bl	chain_get_link_offset
 983 0012 031C     		mov	r3, r0
 984 0014 3B61     		str	r3, [r7, #16]
 109:chain_flow/chain_flow_support.c ****     link_number  =  chain_get_link_number(  chain_id );
 985              		.loc 1 109 0
 986 0016 7B68     		ldr	r3, [r7, #4]
 987 0018 181C     		mov	r0, r3
 988 001a FFF7FEFF 		bl	chain_get_link_number
 989 001e 031C     		mov	r3, r0
 990 0020 FB60     		str	r3, [r7, #12]
 110:chain_flow/chain_flow_support.c ****     /*
 111:chain_flow/chain_flow_support.c ****        Mark all cells except for the first cell inactive
 112:chain_flow/chain_flow_support.c ****     */
 113:chain_flow/chain_flow_support.c ****     for( i = 1; i < link_number; i++)
 991              		.loc 1 113 0
 992 0022 0123     		mov	r3, #1
 993 0024 7B61     		str	r3, [r7, #20]
 994 0026 0FE0     		b	.L39
 995              	.L40:
 114:chain_flow/chain_flow_support.c ****     {
 115:chain_flow/chain_flow_support.c ****        link_state[i+link_base] &= ~LINK_ACTIVE_MASK;
 996              		.loc 1 115 0 discriminator 3
 997 0028 7A69     		ldr	r2, [r7, #20]
 998 002a 3B69     		ldr	r3, [r7, #16]
 999 002c D318     		add	r3, r2, r3
 1000 002e 7969     		ldr	r1, [r7, #20]
 1001 0030 3A69     		ldr	r2, [r7, #16]
 1002 0032 8A18     		add	r2, r1, r2
 1003 0034 0E49     		ldr	r1, .L42
 1004 0036 8A5C     		ldrb	r2, [r1, r2]
 1005 0038 0121     		mov	r1, #1
 1006 003a 8A43     		bic	r2, r1
 1007 003c D1B2     		uxtb	r1, r2
 1008 003e 0C4A     		ldr	r2, .L42
 1009 0040 D154     		strb	r1, [r2, r3]
 113:chain_flow/chain_flow_support.c ****     {
 1010              		.loc 1 113 0 discriminator 3
 1011 0042 7B69     		ldr	r3, [r7, #20]
 1012 0044 0133     		add	r3, r3, #1
 1013 0046 7B61     		str	r3, [r7, #20]
 1014              	.L39:
 113:chain_flow/chain_flow_support.c ****     {
 1015              		.loc 1 113 0 is_stmt 0 discriminator 1
 1016 0048 7A69     		ldr	r2, [r7, #20]
 1017 004a FB68     		ldr	r3, [r7, #12]
 1018 004c 9A42     		cmp	r2, r3
 1019 004e EBD3     		bcc	.L40
 116:chain_flow/chain_flow_support.c ****     }
 117:chain_flow/chain_flow_support.c ****     if( ( link_index < link_number ) && ( link_index != 0 ))
ARM GAS  C:\Users\glenn\AppData\Local\Temp\ccVIMYPX.s 			page 21


 1020              		.loc 1 117 0 is_stmt 1
 1021 0050 3A68     		ldr	r2, [r7]
 1022 0052 FB68     		ldr	r3, [r7, #12]
 1023 0054 9A42     		cmp	r2, r3
 1024 0056 08D2     		bcs	.L38
 1025              		.loc 1 117 0 is_stmt 0 discriminator 1
 1026 0058 3B68     		ldr	r3, [r7]
 1027 005a 002B     		cmp	r3, #0
 1028 005c 05D0     		beq	.L38
 118:chain_flow/chain_flow_support.c ****     {
 119:chain_flow/chain_flow_support.c ****         link_state[ link_index +link_base] = LINK_RESET_STATE;
 1029              		.loc 1 119 0 is_stmt 1
 1030 005e 3A68     		ldr	r2, [r7]
 1031 0060 3B69     		ldr	r3, [r7, #16]
 1032 0062 D318     		add	r3, r2, r3
 1033 0064 024A     		ldr	r2, .L42
 1034 0066 0121     		mov	r1, #1
 1035 0068 D154     		strb	r1, [r2, r3]
 1036              	.L38:
 120:chain_flow/chain_flow_support.c ****     }
 121:chain_flow/chain_flow_support.c ****     
 122:chain_flow/chain_flow_support.c **** }
 1037              		.loc 1 122 0
 1038 006a BD46     		mov	sp, r7
 1039 006c 06B0     		add	sp, sp, #24
 1040              		@ sp needed
 1041 006e 80BD     		pop	{r7, pc}
 1042              	.L43:
 1043              		.align	2
 1044              	.L42:
 1045 0070 00000000 		.word	link_state
 1046              		.cfi_endproc
 1047              	.LFE71:
 1048              		.size	cf_change_state, .-cf_change_state
 1049              		.section	.text.cf_get_cell_value,"ax",%progbits
 1050              		.align	2
 1051              		.global	cf_get_cell_value
 1052              		.code	16
 1053              		.thumb_func
 1054              		.type	cf_get_cell_value, %function
 1055              	cf_get_cell_value:
 1056              	.LFB72:
 123:chain_flow/chain_flow_support.c **** 
 124:chain_flow/chain_flow_support.c **** unsigned cf_get_cell_value( unsigned link_id )
 125:chain_flow/chain_flow_support.c **** {
 1057              		.loc 1 125 0
 1058              		.cfi_startproc
 1059 0000 80B5     		push	{r7, lr}
 1060              		.cfi_def_cfa_offset 8
 1061              		.cfi_offset 7, -8
 1062              		.cfi_offset 14, -4
 1063 0002 82B0     		sub	sp, sp, #8
 1064              		.cfi_def_cfa_offset 16
 1065 0004 00AF     		add	r7, sp, #0
 1066              		.cfi_def_cfa_register 7
 1067 0006 7860     		str	r0, [r7, #4]
 126:chain_flow/chain_flow_support.c ****     return link_data[link_id];
ARM GAS  C:\Users\glenn\AppData\Local\Temp\ccVIMYPX.s 			page 22


 1068              		.loc 1 126 0
 1069 0008 034B     		ldr	r3, .L46
 1070 000a 7A68     		ldr	r2, [r7, #4]
 1071 000c 9200     		lsl	r2, r2, #2
 1072 000e D358     		ldr	r3, [r2, r3]
 127:chain_flow/chain_flow_support.c **** }
 1073              		.loc 1 127 0
 1074 0010 181C     		mov	r0, r3
 1075 0012 BD46     		mov	sp, r7
 1076 0014 02B0     		add	sp, sp, #8
 1077              		@ sp needed
 1078 0016 80BD     		pop	{r7, pc}
 1079              	.L47:
 1080              		.align	2
 1081              	.L46:
 1082 0018 00000000 		.word	link_data
 1083              		.cfi_endproc
 1084              	.LFE72:
 1085              		.size	cf_get_cell_value, .-cf_get_cell_value
 1086              		.section	.text.cf_store_cell_value,"ax",%progbits
 1087              		.align	2
 1088              		.global	cf_store_cell_value
 1089              		.code	16
 1090              		.thumb_func
 1091              		.type	cf_store_cell_value, %function
 1092              	cf_store_cell_value:
 1093              	.LFB73:
 128:chain_flow/chain_flow_support.c **** 
 129:chain_flow/chain_flow_support.c **** void  cf_store_cell_value( unsigned link_id , unsigned value )
 130:chain_flow/chain_flow_support.c **** {
 1094              		.loc 1 130 0
 1095              		.cfi_startproc
 1096 0000 80B5     		push	{r7, lr}
 1097              		.cfi_def_cfa_offset 8
 1098              		.cfi_offset 7, -8
 1099              		.cfi_offset 14, -4
 1100 0002 82B0     		sub	sp, sp, #8
 1101              		.cfi_def_cfa_offset 16
 1102 0004 00AF     		add	r7, sp, #0
 1103              		.cfi_def_cfa_register 7
 1104 0006 7860     		str	r0, [r7, #4]
 1105 0008 3960     		str	r1, [r7]
 131:chain_flow/chain_flow_support.c ****     link_data[link_id] = value;
 1106              		.loc 1 131 0
 1107 000a 044B     		ldr	r3, .L49
 1108 000c 7A68     		ldr	r2, [r7, #4]
 1109 000e 9200     		lsl	r2, r2, #2
 1110 0010 3968     		ldr	r1, [r7]
 1111 0012 D150     		str	r1, [r2, r3]
 132:chain_flow/chain_flow_support.c **** }
 1112              		.loc 1 132 0
 1113 0014 BD46     		mov	sp, r7
 1114 0016 02B0     		add	sp, sp, #8
 1115              		@ sp needed
 1116 0018 80BD     		pop	{r7, pc}
 1117              	.L50:
 1118 001a C046     		.align	2
ARM GAS  C:\Users\glenn\AppData\Local\Temp\ccVIMYPX.s 			page 23


 1119              	.L49:
 1120 001c 00000000 		.word	link_data
 1121              		.cfi_endproc
 1122              	.LFE73:
 1123              		.size	cf_store_cell_value, .-cf_store_cell_value
 1124              		.section	.text.initialize_cf_system,"ax",%progbits
 1125              		.align	2
 1126              		.global	initialize_cf_system
 1127              		.code	16
 1128              		.thumb_func
 1129              		.type	initialize_cf_system, %function
 1130              	initialize_cf_system:
 1131              	.LFB74:
 133:chain_flow/chain_flow_support.c **** 
 134:chain_flow/chain_flow_support.c **** 
 135:chain_flow/chain_flow_support.c **** void initialize_cf_system( void )
 136:chain_flow/chain_flow_support.c **** {
 1132              		.loc 1 136 0
 1133              		.cfi_startproc
 1134 0000 80B5     		push	{r7, lr}
 1135              		.cfi_def_cfa_offset 8
 1136              		.cfi_offset 7, -8
 1137              		.cfi_offset 14, -4
 1138 0002 82B0     		sub	sp, sp, #8
 1139              		.cfi_def_cfa_offset 16
 1140 0004 00AF     		add	r7, sp, #0
 1141              		.cfi_def_cfa_register 7
 137:chain_flow/chain_flow_support.c ****    int i;
 138:chain_flow/chain_flow_support.c ****    cf_initialize_event_manager();
 1142              		.loc 1 138 0
 1143 0006 FFF7FEFF 		bl	cf_initialize_event_manager
 139:chain_flow/chain_flow_support.c ****    memset(link_state,0,sizeof(link_state));
 1144              		.loc 1 139 0
 1145 000a 174B     		ldr	r3, .L56
 1146 000c 181C     		mov	r0, r3
 1147 000e 0021     		mov	r1, #0
 1148 0010 5322     		mov	r2, #83
 1149 0012 FFF7FEFF 		bl	memset
 140:chain_flow/chain_flow_support.c ****    memset(link_data,0,sizeof(start_state));
 1150              		.loc 1 140 0
 1151 0016 154B     		ldr	r3, .L56+4
 1152 0018 181C     		mov	r0, r3
 1153 001a 0021     		mov	r1, #0
 1154 001c 3022     		mov	r2, #48
 1155 001e FFF7FEFF 		bl	memset
 141:chain_flow/chain_flow_support.c ****    for( i = 0; i < CHAIN_NUM; i++ )
 1156              		.loc 1 141 0
 1157 0022 0023     		mov	r3, #0
 1158 0024 7B60     		str	r3, [r7, #4]
 1159 0026 19E0     		b	.L52
 1160              	.L55:
 142:chain_flow/chain_flow_support.c ****    {
 143:chain_flow/chain_flow_support.c ****      if( start_state[i] != 0 )
 1161              		.loc 1 143 0
 1162 0028 114B     		ldr	r3, .L56+8
 1163 002a 7A68     		ldr	r2, [r7, #4]
 1164 002c 9200     		lsl	r2, r2, #2
ARM GAS  C:\Users\glenn\AppData\Local\Temp\ccVIMYPX.s 			page 24


 1165 002e D358     		ldr	r3, [r2, r3]
 1166 0030 002B     		cmp	r3, #0
 1167 0032 04D0     		beq	.L53
 144:chain_flow/chain_flow_support.c ****      {
 145:chain_flow/chain_flow_support.c ****         cf_enable_chain( i );
 1168              		.loc 1 145 0
 1169 0034 7B68     		ldr	r3, [r7, #4]
 1170 0036 181C     		mov	r0, r3
 1171 0038 FFF7FEFF 		bl	cf_enable_chain
 1172 003c 0BE0     		b	.L54
 1173              	.L53:
 146:chain_flow/chain_flow_support.c ****         
 147:chain_flow/chain_flow_support.c ****      }
 148:chain_flow/chain_flow_support.c ****      else
 149:chain_flow/chain_flow_support.c ****      {
 150:chain_flow/chain_flow_support.c ****         chain_state[i] &= ~CHAIN_ACTIVE_MASK;
 1174              		.loc 1 150 0
 1175 003e 0D4A     		ldr	r2, .L56+12
 1176 0040 7B68     		ldr	r3, [r7, #4]
 1177 0042 D318     		add	r3, r2, r3
 1178 0044 1B78     		ldrb	r3, [r3]
 1179 0046 0322     		mov	r2, #3
 1180 0048 9343     		bic	r3, r2
 1181 004a D9B2     		uxtb	r1, r3
 1182 004c 094A     		ldr	r2, .L56+12
 1183 004e 7B68     		ldr	r3, [r7, #4]
 1184 0050 D318     		add	r3, r2, r3
 1185 0052 0A1C     		add	r2, r1, #0
 1186 0054 1A70     		strb	r2, [r3]
 1187              	.L54:
 141:chain_flow/chain_flow_support.c ****    {
 1188              		.loc 1 141 0 discriminator 2
 1189 0056 7B68     		ldr	r3, [r7, #4]
 1190 0058 0133     		add	r3, r3, #1
 1191 005a 7B60     		str	r3, [r7, #4]
 1192              	.L52:
 141:chain_flow/chain_flow_support.c ****    {
 1193              		.loc 1 141 0 is_stmt 0 discriminator 1
 1194 005c 7B68     		ldr	r3, [r7, #4]
 1195 005e 0B2B     		cmp	r3, #11
 1196 0060 E2DD     		ble	.L55
 151:chain_flow/chain_flow_support.c ****      }
 152:chain_flow/chain_flow_support.c ****    }
 153:chain_flow/chain_flow_support.c **** }
 1197              		.loc 1 153 0 is_stmt 1
 1198 0062 BD46     		mov	sp, r7
 1199 0064 02B0     		add	sp, sp, #8
 1200              		@ sp needed
 1201 0066 80BD     		pop	{r7, pc}
 1202              	.L57:
 1203              		.align	2
 1204              	.L56:
 1205 0068 00000000 		.word	link_state
 1206 006c 00000000 		.word	link_data
 1207 0070 00000000 		.word	start_state
 1208 0074 00000000 		.word	chain_state
 1209              		.cfi_endproc
ARM GAS  C:\Users\glenn\AppData\Local\Temp\ccVIMYPX.s 			page 25


 1210              	.LFE74:
 1211              		.size	initialize_cf_system, .-initialize_cf_system
 1212              		.section	.rodata
 1213              		.align	2
 1214              	.LC17:
 1215 076c 63686169 		.ascii	"chain_flow\\chain_flow_support.c\000"
 1215      6E5F666C 
 1215      6F775C63 
 1215      6861696E 
 1215      5F666C6F 
 1216              		.align	2
 1217              	.LC20:
 1218 078c 63686169 		.ascii	"chain_id<CHAIN_NUM\000"
 1218      6E5F6964 
 1218      3C434841 
 1218      494E5F4E 
 1218      554D00
 1219              		.section	.text.cf_enable_chain,"ax",%progbits
 1220              		.align	2
 1221              		.global	cf_enable_chain
 1222              		.code	16
 1223              		.thumb_func
 1224              		.type	cf_enable_chain, %function
 1225              	cf_enable_chain:
 1226              	.LFB75:
 154:chain_flow/chain_flow_support.c **** 
 155:chain_flow/chain_flow_support.c **** void cf_enable_chain(unsigned chain_id )
 156:chain_flow/chain_flow_support.c **** {
 1227              		.loc 1 156 0
 1228              		.cfi_startproc
 1229 0000 80B5     		push	{r7, lr}
 1230              		.cfi_def_cfa_offset 8
 1231              		.cfi_offset 7, -8
 1232              		.cfi_offset 14, -4
 1233 0002 82B0     		sub	sp, sp, #8
 1234              		.cfi_def_cfa_offset 16
 1235 0004 00AF     		add	r7, sp, #0
 1236              		.cfi_def_cfa_register 7
 1237 0006 7860     		str	r0, [r7, #4]
 157:chain_flow/chain_flow_support.c ****    assert(chain_id<CHAIN_NUM);
 1238              		.loc 1 157 0
 1239 0008 7B68     		ldr	r3, [r7, #4]
 1240 000a 0B2B     		cmp	r3, #11
 1241 000c 06D9     		bls	.L59
 1242              		.loc 1 157 0 is_stmt 0 discriminator 1
 1243 000e 0D49     		ldr	r1, .L60
 1244 0010 0D4A     		ldr	r2, .L60+4
 1245 0012 0E4B     		ldr	r3, .L60+8
 1246 0014 081C     		mov	r0, r1
 1247 0016 9D21     		mov	r1, #157
 1248 0018 FFF7FEFF 		bl	__assert_func
 1249              	.L59:
 158:chain_flow/chain_flow_support.c ****    chain_state[chain_id] |= CHAIN_ACTIVE_MASK;
 1250              		.loc 1 158 0 is_stmt 1
 1251 001c 0C4A     		ldr	r2, .L60+12
 1252 001e 7B68     		ldr	r3, [r7, #4]
 1253 0020 D318     		add	r3, r2, r3
ARM GAS  C:\Users\glenn\AppData\Local\Temp\ccVIMYPX.s 			page 26


 1254 0022 1B78     		ldrb	r3, [r3]
 1255 0024 0322     		mov	r2, #3
 1256 0026 1343     		orr	r3, r2
 1257 0028 D9B2     		uxtb	r1, r3
 1258 002a 094A     		ldr	r2, .L60+12
 1259 002c 7B68     		ldr	r3, [r7, #4]
 1260 002e D318     		add	r3, r2, r3
 1261 0030 0A1C     		add	r2, r1, #0
 1262 0032 1A70     		strb	r2, [r3]
 159:chain_flow/chain_flow_support.c ****    reset_all_links(chain_id);
 1263              		.loc 1 159 0
 1264 0034 7B68     		ldr	r3, [r7, #4]
 1265 0036 181C     		mov	r0, r3
 1266 0038 FFF7FEFF 		bl	reset_all_links
 160:chain_flow/chain_flow_support.c **** }
 1267              		.loc 1 160 0
 1268 003c BD46     		mov	sp, r7
 1269 003e 02B0     		add	sp, sp, #8
 1270              		@ sp needed
 1271 0040 80BD     		pop	{r7, pc}
 1272              	.L61:
 1273 0042 C046     		.align	2
 1274              	.L60:
 1275 0044 6C070000 		.word	.LC17
 1276 0048 B8070000 		.word	__FUNCTION__.7610
 1277 004c 8C070000 		.word	.LC20
 1278 0050 00000000 		.word	chain_state
 1279              		.cfi_endproc
 1280              	.LFE75:
 1281              		.size	cf_enable_chain, .-cf_enable_chain
 1282              		.section	.text.cf_disable_chain,"ax",%progbits
 1283              		.align	2
 1284              		.global	cf_disable_chain
 1285              		.code	16
 1286              		.thumb_func
 1287              		.type	cf_disable_chain, %function
 1288              	cf_disable_chain:
 1289              	.LFB76:
 161:chain_flow/chain_flow_support.c **** 
 162:chain_flow/chain_flow_support.c **** void cf_disable_chain(unsigned chain_id )
 163:chain_flow/chain_flow_support.c **** {
 1290              		.loc 1 163 0
 1291              		.cfi_startproc
 1292 0000 80B5     		push	{r7, lr}
 1293              		.cfi_def_cfa_offset 8
 1294              		.cfi_offset 7, -8
 1295              		.cfi_offset 14, -4
 1296 0002 82B0     		sub	sp, sp, #8
 1297              		.cfi_def_cfa_offset 16
 1298 0004 00AF     		add	r7, sp, #0
 1299              		.cfi_def_cfa_register 7
 1300 0006 7860     		str	r0, [r7, #4]
 164:chain_flow/chain_flow_support.c ****    assert(chain_id<CHAIN_NUM);
 1301              		.loc 1 164 0
 1302 0008 7B68     		ldr	r3, [r7, #4]
 1303 000a 0B2B     		cmp	r3, #11
 1304 000c 06D9     		bls	.L63
ARM GAS  C:\Users\glenn\AppData\Local\Temp\ccVIMYPX.s 			page 27


 1305              		.loc 1 164 0 is_stmt 0 discriminator 1
 1306 000e 0B49     		ldr	r1, .L64
 1307 0010 0B4A     		ldr	r2, .L64+4
 1308 0012 0C4B     		ldr	r3, .L64+8
 1309 0014 081C     		mov	r0, r1
 1310 0016 A421     		mov	r1, #164
 1311 0018 FFF7FEFF 		bl	__assert_func
 1312              	.L63:
 165:chain_flow/chain_flow_support.c ****    chain_state[chain_id] &= ~CHAIN_ENABLE_MASK;
 1313              		.loc 1 165 0 is_stmt 1
 1314 001c 0A4A     		ldr	r2, .L64+12
 1315 001e 7B68     		ldr	r3, [r7, #4]
 1316 0020 D318     		add	r3, r2, r3
 1317 0022 1B78     		ldrb	r3, [r3]
 1318 0024 0122     		mov	r2, #1
 1319 0026 9343     		bic	r3, r2
 1320 0028 D9B2     		uxtb	r1, r3
 1321 002a 074A     		ldr	r2, .L64+12
 1322 002c 7B68     		ldr	r3, [r7, #4]
 1323 002e D318     		add	r3, r2, r3
 1324 0030 0A1C     		add	r2, r1, #0
 1325 0032 1A70     		strb	r2, [r3]
 166:chain_flow/chain_flow_support.c ****    
 167:chain_flow/chain_flow_support.c **** }
 1326              		.loc 1 167 0
 1327 0034 BD46     		mov	sp, r7
 1328 0036 02B0     		add	sp, sp, #8
 1329              		@ sp needed
 1330 0038 80BD     		pop	{r7, pc}
 1331              	.L65:
 1332 003a C046     		.align	2
 1333              	.L64:
 1334 003c 6C070000 		.word	.LC17
 1335 0040 C8070000 		.word	__FUNCTION__.7614
 1336 0044 8C070000 		.word	.LC20
 1337 0048 00000000 		.word	chain_state
 1338              		.cfi_endproc
 1339              	.LFE76:
 1340              		.size	cf_disable_chain, .-cf_disable_chain
 1341              		.section	.text.cf_resume_chain,"ax",%progbits
 1342              		.align	2
 1343              		.global	cf_resume_chain
 1344              		.code	16
 1345              		.thumb_func
 1346              		.type	cf_resume_chain, %function
 1347              	cf_resume_chain:
 1348              	.LFB77:
 168:chain_flow/chain_flow_support.c **** 
 169:chain_flow/chain_flow_support.c **** 
 170:chain_flow/chain_flow_support.c **** 
 171:chain_flow/chain_flow_support.c **** void cf_resume_chain(unsigned chain_id )
 172:chain_flow/chain_flow_support.c **** {
 1349              		.loc 1 172 0
 1350              		.cfi_startproc
 1351 0000 80B5     		push	{r7, lr}
 1352              		.cfi_def_cfa_offset 8
 1353              		.cfi_offset 7, -8
ARM GAS  C:\Users\glenn\AppData\Local\Temp\ccVIMYPX.s 			page 28


 1354              		.cfi_offset 14, -4
 1355 0002 82B0     		sub	sp, sp, #8
 1356              		.cfi_def_cfa_offset 16
 1357 0004 00AF     		add	r7, sp, #0
 1358              		.cfi_def_cfa_register 7
 1359 0006 7860     		str	r0, [r7, #4]
 173:chain_flow/chain_flow_support.c ****     assert(chain_id<CHAIN_NUM);
 1360              		.loc 1 173 0
 1361 0008 7B68     		ldr	r3, [r7, #4]
 1362 000a 0B2B     		cmp	r3, #11
 1363 000c 06D9     		bls	.L67
 1364              		.loc 1 173 0 is_stmt 0 discriminator 1
 1365 000e 0B49     		ldr	r1, .L68
 1366 0010 0B4A     		ldr	r2, .L68+4
 1367 0012 0C4B     		ldr	r3, .L68+8
 1368 0014 081C     		mov	r0, r1
 1369 0016 AD21     		mov	r1, #173
 1370 0018 FFF7FEFF 		bl	__assert_func
 1371              	.L67:
 174:chain_flow/chain_flow_support.c ****    chain_state[chain_id] |= CHAIN_RESUME_MASK;
 1372              		.loc 1 174 0 is_stmt 1
 1373 001c 0A4A     		ldr	r2, .L68+12
 1374 001e 7B68     		ldr	r3, [r7, #4]
 1375 0020 D318     		add	r3, r2, r3
 1376 0022 1B78     		ldrb	r3, [r3]
 1377 0024 0222     		mov	r2, #2
 1378 0026 1343     		orr	r3, r2
 1379 0028 D9B2     		uxtb	r1, r3
 1380 002a 074A     		ldr	r2, .L68+12
 1381 002c 7B68     		ldr	r3, [r7, #4]
 1382 002e D318     		add	r3, r2, r3
 1383 0030 0A1C     		add	r2, r1, #0
 1384 0032 1A70     		strb	r2, [r3]
 175:chain_flow/chain_flow_support.c **** 
 176:chain_flow/chain_flow_support.c **** }
 1385              		.loc 1 176 0
 1386 0034 BD46     		mov	sp, r7
 1387 0036 02B0     		add	sp, sp, #8
 1388              		@ sp needed
 1389 0038 80BD     		pop	{r7, pc}
 1390              	.L69:
 1391 003a C046     		.align	2
 1392              	.L68:
 1393 003c 6C070000 		.word	.LC17
 1394 0040 DC070000 		.word	__FUNCTION__.7618
 1395 0044 8C070000 		.word	.LC20
 1396 0048 00000000 		.word	chain_state
 1397              		.cfi_endproc
 1398              	.LFE77:
 1399              		.size	cf_resume_chain, .-cf_resume_chain
 1400              		.section	.text.cf_suspend_chain,"ax",%progbits
 1401              		.align	2
 1402              		.global	cf_suspend_chain
 1403              		.code	16
 1404              		.thumb_func
 1405              		.type	cf_suspend_chain, %function
 1406              	cf_suspend_chain:
ARM GAS  C:\Users\glenn\AppData\Local\Temp\ccVIMYPX.s 			page 29


 1407              	.LFB78:
 177:chain_flow/chain_flow_support.c **** 
 178:chain_flow/chain_flow_support.c **** void cf_suspend_chain(unsigned chain_id )
 179:chain_flow/chain_flow_support.c **** {
 1408              		.loc 1 179 0
 1409              		.cfi_startproc
 1410 0000 80B5     		push	{r7, lr}
 1411              		.cfi_def_cfa_offset 8
 1412              		.cfi_offset 7, -8
 1413              		.cfi_offset 14, -4
 1414 0002 82B0     		sub	sp, sp, #8
 1415              		.cfi_def_cfa_offset 16
 1416 0004 00AF     		add	r7, sp, #0
 1417              		.cfi_def_cfa_register 7
 1418 0006 7860     		str	r0, [r7, #4]
 180:chain_flow/chain_flow_support.c ****    assert(chain_id<CHAIN_NUM);
 1419              		.loc 1 180 0
 1420 0008 7B68     		ldr	r3, [r7, #4]
 1421 000a 0B2B     		cmp	r3, #11
 1422 000c 06D9     		bls	.L71
 1423              		.loc 1 180 0 is_stmt 0 discriminator 1
 1424 000e 0B49     		ldr	r1, .L72
 1425 0010 0B4A     		ldr	r2, .L72+4
 1426 0012 0C4B     		ldr	r3, .L72+8
 1427 0014 081C     		mov	r0, r1
 1428 0016 B421     		mov	r1, #180
 1429 0018 FFF7FEFF 		bl	__assert_func
 1430              	.L71:
 181:chain_flow/chain_flow_support.c ****    chain_state[chain_id] &= ~CHAIN_RESUME_MASK;
 1431              		.loc 1 181 0 is_stmt 1
 1432 001c 0A4A     		ldr	r2, .L72+12
 1433 001e 7B68     		ldr	r3, [r7, #4]
 1434 0020 D318     		add	r3, r2, r3
 1435 0022 1B78     		ldrb	r3, [r3]
 1436 0024 0222     		mov	r2, #2
 1437 0026 9343     		bic	r3, r2
 1438 0028 D9B2     		uxtb	r1, r3
 1439 002a 074A     		ldr	r2, .L72+12
 1440 002c 7B68     		ldr	r3, [r7, #4]
 1441 002e D318     		add	r3, r2, r3
 1442 0030 0A1C     		add	r2, r1, #0
 1443 0032 1A70     		strb	r2, [r3]
 182:chain_flow/chain_flow_support.c **** 
 183:chain_flow/chain_flow_support.c **** }
 1444              		.loc 1 183 0
 1445 0034 BD46     		mov	sp, r7
 1446 0036 02B0     		add	sp, sp, #8
 1447              		@ sp needed
 1448 0038 80BD     		pop	{r7, pc}
 1449              	.L73:
 1450 003a C046     		.align	2
 1451              	.L72:
 1452 003c 6C070000 		.word	.LC17
 1453 0040 EC070000 		.word	__FUNCTION__.7622
 1454 0044 8C070000 		.word	.LC20
 1455 0048 00000000 		.word	chain_state
 1456              		.cfi_endproc
ARM GAS  C:\Users\glenn\AppData\Local\Temp\ccVIMYPX.s 			page 30


 1457              	.LFE78:
 1458              		.size	cf_suspend_chain, .-cf_suspend_chain
 1459              		.section	.text.cf_process_cf_event,"ax",%progbits
 1460              		.align	2
 1461              		.global	cf_process_cf_event
 1462              		.code	16
 1463              		.thumb_func
 1464              		.type	cf_process_cf_event, %function
 1465              	cf_process_cf_event:
 1466              	.LFB79:
 184:chain_flow/chain_flow_support.c **** 
 185:chain_flow/chain_flow_support.c **** 
 186:chain_flow/chain_flow_support.c **** 
 187:chain_flow/chain_flow_support.c **** void cf_process_cf_event( unsigned event, unsigned event_data )
 188:chain_flow/chain_flow_support.c **** {
 1467              		.loc 1 188 0
 1468              		.cfi_startproc
 1469 0000 80B5     		push	{r7, lr}
 1470              		.cfi_def_cfa_offset 8
 1471              		.cfi_offset 7, -8
 1472              		.cfi_offset 14, -4
 1473 0002 84B0     		sub	sp, sp, #16
 1474              		.cfi_def_cfa_offset 24
 1475 0004 00AF     		add	r7, sp, #0
 1476              		.cfi_def_cfa_register 7
 1477 0006 7860     		str	r0, [r7, #4]
 1478 0008 3960     		str	r1, [r7]
 189:chain_flow/chain_flow_support.c ****    
 190:chain_flow/chain_flow_support.c ****    int i;
 191:chain_flow/chain_flow_support.c ****    for( i = 0; i < CHAIN_NUM; i++ )
 1479              		.loc 1 191 0
 1480 000a 0023     		mov	r3, #0
 1481 000c FB60     		str	r3, [r7, #12]
 1482 000e 10E0     		b	.L75
 1483              	.L77:
 192:chain_flow/chain_flow_support.c ****    {
 193:chain_flow/chain_flow_support.c ****      if( chain_enable_for_event( i ) != 0 )
 1484              		.loc 1 193 0
 1485 0010 FB68     		ldr	r3, [r7, #12]
 1486 0012 181C     		mov	r0, r3
 1487 0014 FFF7FEFF 		bl	chain_enable_for_event
 1488 0018 031E     		sub	r3, r0, #0
 1489 001a 07D0     		beq	.L76
 194:chain_flow/chain_flow_support.c ****      {
 195:chain_flow/chain_flow_support.c ****             chain_execute_chain( i, event, event_data );
 1490              		.loc 1 195 0
 1491 001c F968     		ldr	r1, [r7, #12]
 1492 001e 7A68     		ldr	r2, [r7, #4]
 1493 0020 3B68     		ldr	r3, [r7]
 1494 0022 081C     		mov	r0, r1
 1495 0024 111C     		mov	r1, r2
 1496 0026 1A1C     		mov	r2, r3
 1497 0028 FFF7FEFF 		bl	chain_execute_chain
 1498              	.L76:
 191:chain_flow/chain_flow_support.c ****    {
 1499              		.loc 1 191 0 discriminator 2
 1500 002c FB68     		ldr	r3, [r7, #12]
ARM GAS  C:\Users\glenn\AppData\Local\Temp\ccVIMYPX.s 			page 31


 1501 002e 0133     		add	r3, r3, #1
 1502 0030 FB60     		str	r3, [r7, #12]
 1503              	.L75:
 191:chain_flow/chain_flow_support.c ****    {
 1504              		.loc 1 191 0 is_stmt 0 discriminator 1
 1505 0032 FB68     		ldr	r3, [r7, #12]
 1506 0034 0B2B     		cmp	r3, #11
 1507 0036 EBDD     		ble	.L77
 196:chain_flow/chain_flow_support.c ****      }
 197:chain_flow/chain_flow_support.c **** 
 198:chain_flow/chain_flow_support.c **** 
 199:chain_flow/chain_flow_support.c ****   }
 200:chain_flow/chain_flow_support.c **** 
 201:chain_flow/chain_flow_support.c ****   
 202:chain_flow/chain_flow_support.c **** }
 1508              		.loc 1 202 0 is_stmt 1
 1509 0038 BD46     		mov	sp, r7
 1510 003a 04B0     		add	sp, sp, #16
 1511              		@ sp needed
 1512 003c 80BD     		pop	{r7, pc}
 1513              		.cfi_endproc
 1514              	.LFE79:
 1515              		.size	cf_process_cf_event, .-cf_process_cf_event
 1516 003e C046     		.section	.text.chain_execute_chain,"ax",%progbits
 1517              		.align	2
 1518              		.code	16
 1519              		.thumb_func
 1520              		.type	chain_execute_chain, %function
 1521              	chain_execute_chain:
 1522              	.LFB80:
 203:chain_flow/chain_flow_support.c **** 
 204:chain_flow/chain_flow_support.c **** 
 205:chain_flow/chain_flow_support.c **** 
 206:chain_flow/chain_flow_support.c **** 
 207:chain_flow/chain_flow_support.c **** 
 208:chain_flow/chain_flow_support.c **** static void chain_execute_chain( unsigned chain_id, unsigned event, unsigned event_data )
 209:chain_flow/chain_flow_support.c **** {
 1523              		.loc 1 209 0
 1524              		.cfi_startproc
 1525 0000 80B5     		push	{r7, lr}
 1526              		.cfi_def_cfa_offset 8
 1527              		.cfi_offset 7, -8
 1528              		.cfi_offset 14, -4
 1529 0002 8AB0     		sub	sp, sp, #40
 1530              		.cfi_def_cfa_offset 48
 1531 0004 00AF     		add	r7, sp, #0
 1532              		.cfi_def_cfa_register 7
 1533 0006 F860     		str	r0, [r7, #12]
 1534 0008 B960     		str	r1, [r7, #8]
 1535 000a 7A60     		str	r2, [r7, #4]
 210:chain_flow/chain_flow_support.c ****    unsigned        return_code;
 211:chain_flow/chain_flow_support.c ****    unsigned        link_number;
 212:chain_flow/chain_flow_support.c ****    unsigned        link_offset;
 213:chain_flow/chain_flow_support.c ****    unsigned        i;
 214:chain_flow/chain_flow_support.c ****    const LINK_CELL *cell_ptr;
 215:chain_flow/chain_flow_support.c **** 
 216:chain_flow/chain_flow_support.c ****    if( chain_enable_for_event( chain_id ) == 0 )
ARM GAS  C:\Users\glenn\AppData\Local\Temp\ccVIMYPX.s 			page 32


 1536              		.loc 1 216 0
 1537 000c FB68     		ldr	r3, [r7, #12]
 1538 000e 181C     		mov	r0, r3
 1539 0010 FFF7FEFF 		bl	chain_enable_for_event
 1540 0014 031E     		sub	r3, r0, #0
 1541 0016 00D1     		bne	.L79
 217:chain_flow/chain_flow_support.c ****    {
 218:chain_flow/chain_flow_support.c ****        return;
 1542              		.loc 1 218 0
 1543 0018 3AE0     		b	.L78
 1544              	.L79:
 219:chain_flow/chain_flow_support.c ****    }
 220:chain_flow/chain_flow_support.c ****    link_number = chain_get_link_number( chain_id );
 1545              		.loc 1 220 0
 1546 001a FB68     		ldr	r3, [r7, #12]
 1547 001c 181C     		mov	r0, r3
 1548 001e FFF7FEFF 		bl	chain_get_link_number
 1549 0022 031C     		mov	r3, r0
 1550 0024 BB61     		str	r3, [r7, #24]
 221:chain_flow/chain_flow_support.c ****    link_offset = chain_get_link_offset( chain_id );
 1551              		.loc 1 221 0
 1552 0026 FB68     		ldr	r3, [r7, #12]
 1553 0028 181C     		mov	r0, r3
 1554 002a FFF7FEFF 		bl	chain_get_link_offset
 1555 002e 031C     		mov	r3, r0
 1556 0030 7B62     		str	r3, [r7, #36]
 222:chain_flow/chain_flow_support.c ****    cell_ptr    = get_cell_pointer( chain_id );
 1557              		.loc 1 222 0
 1558 0032 FB68     		ldr	r3, [r7, #12]
 1559 0034 181C     		mov	r0, r3
 1560 0036 FFF7FEFF 		bl	get_cell_pointer
 1561 003a 031C     		mov	r3, r0
 1562 003c FB61     		str	r3, [r7, #28]
 223:chain_flow/chain_flow_support.c ****    for( i = 0; i < link_number; i++ )
 1563              		.loc 1 223 0
 1564 003e 0023     		mov	r3, #0
 1565 0040 3B62     		str	r3, [r7, #32]
 1566 0042 21E0     		b	.L81
 1567              	.L83:
 224:chain_flow/chain_flow_support.c ****    {
 225:chain_flow/chain_flow_support.c ****       if( is_link_active( link_offset ) != 0 )
 1568              		.loc 1 225 0
 1569 0044 7B6A     		ldr	r3, [r7, #36]
 1570 0046 181C     		mov	r0, r3
 1571 0048 FFF7FEFF 		bl	is_link_active
 1572 004c 031E     		sub	r3, r0, #0
 1573 004e 12D0     		beq	.L82
 226:chain_flow/chain_flow_support.c ****       {
 227:chain_flow/chain_flow_support.c ****          return_code = execute_cell( link_offset, cell_ptr, event,event_data );
 1574              		.loc 1 227 0
 1575 0050 786A     		ldr	r0, [r7, #36]
 1576 0052 F969     		ldr	r1, [r7, #28]
 1577 0054 BA68     		ldr	r2, [r7, #8]
 1578 0056 7B68     		ldr	r3, [r7, #4]
 1579 0058 FFF7FEFF 		bl	execute_cell
 1580 005c 031C     		mov	r3, r0
 1581 005e 7B61     		str	r3, [r7, #20]
ARM GAS  C:\Users\glenn\AppData\Local\Temp\ccVIMYPX.s 			page 33


 228:chain_flow/chain_flow_support.c ****          if( check_return_code( chain_id, link_offset,return_code ) == 0 )
 1582              		.loc 1 228 0
 1583 0060 F968     		ldr	r1, [r7, #12]
 1584 0062 7A6A     		ldr	r2, [r7, #36]
 1585 0064 7B69     		ldr	r3, [r7, #20]
 1586 0066 081C     		mov	r0, r1
 1587 0068 111C     		mov	r1, r2
 1588 006a 1A1C     		mov	r2, r3
 1589 006c FFF7FEFF 		bl	check_return_code
 1590 0070 031E     		sub	r3, r0, #0
 1591 0072 00D1     		bne	.L82
 229:chain_flow/chain_flow_support.c ****          {
 230:chain_flow/chain_flow_support.c ****             break;
 1592              		.loc 1 230 0
 1593 0074 0CE0     		b	.L78
 1594              	.L82:
 231:chain_flow/chain_flow_support.c ****          }
 232:chain_flow/chain_flow_support.c ****       }
 233:chain_flow/chain_flow_support.c ****       cell_ptr++;
 1595              		.loc 1 233 0 discriminator 2
 1596 0076 FB69     		ldr	r3, [r7, #28]
 1597 0078 1433     		add	r3, r3, #20
 1598 007a FB61     		str	r3, [r7, #28]
 234:chain_flow/chain_flow_support.c ****       link_offset++;
 1599              		.loc 1 234 0 discriminator 2
 1600 007c 7B6A     		ldr	r3, [r7, #36]
 1601 007e 0133     		add	r3, r3, #1
 1602 0080 7B62     		str	r3, [r7, #36]
 223:chain_flow/chain_flow_support.c ****    {
 1603              		.loc 1 223 0 discriminator 2
 1604 0082 3B6A     		ldr	r3, [r7, #32]
 1605 0084 0133     		add	r3, r3, #1
 1606 0086 3B62     		str	r3, [r7, #32]
 1607              	.L81:
 223:chain_flow/chain_flow_support.c ****    {
 1608              		.loc 1 223 0 is_stmt 0 discriminator 1
 1609 0088 3A6A     		ldr	r2, [r7, #32]
 1610 008a BB69     		ldr	r3, [r7, #24]
 1611 008c 9A42     		cmp	r2, r3
 1612 008e D9D3     		bcc	.L83
 1613              	.L78:
 235:chain_flow/chain_flow_support.c ****    }
 236:chain_flow/chain_flow_support.c **** }
 1614              		.loc 1 236 0 is_stmt 1
 1615 0090 BD46     		mov	sp, r7
 1616 0092 0AB0     		add	sp, sp, #40
 1617              		@ sp needed
 1618 0094 80BD     		pop	{r7, pc}
 1619              		.cfi_endproc
 1620              	.LFE80:
 1621              		.size	chain_execute_chain, .-chain_execute_chain
 1622 0096 C046     		.section	.text.execute_cell,"ax",%progbits
 1623              		.align	2
 1624              		.code	16
 1625              		.thumb_func
 1626              		.type	execute_cell, %function
 1627              	execute_cell:
ARM GAS  C:\Users\glenn\AppData\Local\Temp\ccVIMYPX.s 			page 34


 1628              	.LFB81:
 237:chain_flow/chain_flow_support.c **** 
 238:chain_flow/chain_flow_support.c **** 
 239:chain_flow/chain_flow_support.c **** static unsigned execute_cell(  unsigned link_index,  const LINK_CELL *cell_ptr, unsigned event, uns
 240:chain_flow/chain_flow_support.c **** {
 1629              		.loc 1 240 0
 1630              		.cfi_startproc
 1631 0000 B0B5     		push	{r4, r5, r7, lr}
 1632              		.cfi_def_cfa_offset 16
 1633              		.cfi_offset 4, -16
 1634              		.cfi_offset 5, -12
 1635              		.cfi_offset 7, -8
 1636              		.cfi_offset 14, -4
 1637 0002 8AB0     		sub	sp, sp, #40
 1638              		.cfi_def_cfa_offset 56
 1639 0004 04AF     		add	r7, sp, #16
 1640              		.cfi_def_cfa 7, 40
 1641 0006 F860     		str	r0, [r7, #12]
 1642 0008 B960     		str	r1, [r7, #8]
 1643 000a 7A60     		str	r2, [r7, #4]
 1644 000c 3B60     		str	r3, [r7]
 241:chain_flow/chain_flow_support.c ****     unsigned return_code;
 242:chain_flow/chain_flow_support.c **** 
 243:chain_flow/chain_flow_support.c ****     if( is_link_initialized( link_index ) == 0 )
 1645              		.loc 1 243 0
 1646 000e FB68     		ldr	r3, [r7, #12]
 1647 0010 181C     		mov	r0, r3
 1648 0012 FFF7FEFF 		bl	is_link_initialized
 1649 0016 031E     		sub	r3, r0, #0
 1650 0018 15D1     		bne	.L85
 244:chain_flow/chain_flow_support.c ****     {
 245:chain_flow/chain_flow_support.c ****        cell_ptr->func( link_index, cell_ptr->param_1, cell_ptr->param_2, 
 1651              		.loc 1 245 0
 1652 001a BB68     		ldr	r3, [r7, #8]
 1653 001c 1C68     		ldr	r4, [r3]
 1654 001e BB68     		ldr	r3, [r7, #8]
 1655 0020 5968     		ldr	r1, [r3, #4]
 1656 0022 BB68     		ldr	r3, [r7, #8]
 1657 0024 9A68     		ldr	r2, [r3, #8]
 1658 0026 BB68     		ldr	r3, [r7, #8]
 1659 0028 DD68     		ldr	r5, [r3, #12]
 1660 002a BB68     		ldr	r3, [r7, #8]
 1661 002c 1B69     		ldr	r3, [r3, #16]
 1662 002e F868     		ldr	r0, [r7, #12]
 1663 0030 0093     		str	r3, [sp]
 1664 0032 0123     		mov	r3, #1
 1665 0034 0193     		str	r3, [sp, #4]
 1666 0036 0023     		mov	r3, #0
 1667 0038 0293     		str	r3, [sp, #8]
 1668 003a 2B1C     		mov	r3, r5
 1669 003c A047     		blx	r4
 246:chain_flow/chain_flow_support.c ****         cell_ptr->param_3,cell_ptr->param_4, CF_INIT_EVENT, 0 );
 247:chain_flow/chain_flow_support.c ****        
 248:chain_flow/chain_flow_support.c ****        mark_initialize_link( link_index );
 1670              		.loc 1 248 0
 1671 003e FB68     		ldr	r3, [r7, #12]
 1672 0040 181C     		mov	r0, r3
ARM GAS  C:\Users\glenn\AppData\Local\Temp\ccVIMYPX.s 			page 35


 1673 0042 FFF7FEFF 		bl	mark_initialize_link
 1674              	.L85:
 249:chain_flow/chain_flow_support.c ****     }
 250:chain_flow/chain_flow_support.c ****     return_code = cell_ptr->func( link_index, cell_ptr->param_1, cell_ptr->param_2,
 1675              		.loc 1 250 0
 1676 0046 BB68     		ldr	r3, [r7, #8]
 1677 0048 1C68     		ldr	r4, [r3]
 1678 004a BB68     		ldr	r3, [r7, #8]
 1679 004c 5968     		ldr	r1, [r3, #4]
 1680 004e BB68     		ldr	r3, [r7, #8]
 1681 0050 9A68     		ldr	r2, [r3, #8]
 1682 0052 BB68     		ldr	r3, [r7, #8]
 1683 0054 DD68     		ldr	r5, [r3, #12]
 1684 0056 BB68     		ldr	r3, [r7, #8]
 1685 0058 1B69     		ldr	r3, [r3, #16]
 1686 005a F868     		ldr	r0, [r7, #12]
 1687 005c 0093     		str	r3, [sp]
 1688 005e 7B68     		ldr	r3, [r7, #4]
 1689 0060 0193     		str	r3, [sp, #4]
 1690 0062 3B68     		ldr	r3, [r7]
 1691 0064 0293     		str	r3, [sp, #8]
 1692 0066 2B1C     		mov	r3, r5
 1693 0068 A047     		blx	r4
 1694 006a 031C     		mov	r3, r0
 1695 006c 7B61     		str	r3, [r7, #20]
 251:chain_flow/chain_flow_support.c ****         cell_ptr->param_3,cell_ptr->param_4, event, event_data );
 252:chain_flow/chain_flow_support.c **** 
 253:chain_flow/chain_flow_support.c ****     return return_code;
 1696              		.loc 1 253 0
 1697 006e 7B69     		ldr	r3, [r7, #20]
 254:chain_flow/chain_flow_support.c **** }
 1698              		.loc 1 254 0
 1699 0070 181C     		mov	r0, r3
 1700 0072 BD46     		mov	sp, r7
 1701 0074 06B0     		add	sp, sp, #24
 1702              		@ sp needed
 1703 0076 B0BD     		pop	{r4, r5, r7, pc}
 1704              		.cfi_endproc
 1705              	.LFE81:
 1706              		.size	execute_cell, .-execute_cell
 1707              		.section	.rodata
 1708 079f 00       		.align	2
 1709              	.LC38:
 1710 07a0 3000     		.ascii	"0\000"
 1711              		.section	.text.check_return_code,"ax",%progbits
 1712              		.align	2
 1713              		.code	16
 1714              		.thumb_func
 1715              		.type	check_return_code, %function
 1716              	check_return_code:
 1717              	.LFB82:
 255:chain_flow/chain_flow_support.c **** 
 256:chain_flow/chain_flow_support.c **** static unsigned check_return_code( unsigned chain_id, unsigned link_offset, unsigned return_code )
 257:chain_flow/chain_flow_support.c **** {
 1718              		.loc 1 257 0
 1719              		.cfi_startproc
 1720 0000 80B5     		push	{r7, lr}
ARM GAS  C:\Users\glenn\AppData\Local\Temp\ccVIMYPX.s 			page 36


 1721              		.cfi_def_cfa_offset 8
 1722              		.cfi_offset 7, -8
 1723              		.cfi_offset 14, -4
 1724 0002 86B0     		sub	sp, sp, #24
 1725              		.cfi_def_cfa_offset 32
 1726 0004 00AF     		add	r7, sp, #0
 1727              		.cfi_def_cfa_register 7
 1728 0006 F860     		str	r0, [r7, #12]
 1729 0008 B960     		str	r1, [r7, #8]
 1730 000a 7A60     		str	r2, [r7, #4]
 258:chain_flow/chain_flow_support.c ****       unsigned return_value;
 259:chain_flow/chain_flow_support.c **** 
 260:chain_flow/chain_flow_support.c ****       switch( return_code )
 1731              		.loc 1 260 0
 1732 000c 7B68     		ldr	r3, [r7, #4]
 1733 000e 042B     		cmp	r3, #4
 1734 0010 20D8     		bhi	.L88
 1735 0012 7B68     		ldr	r3, [r7, #4]
 1736 0014 9A00     		lsl	r2, r3, #2
 1737 0016 154B     		ldr	r3, .L97
 1738 0018 D318     		add	r3, r2, r3
 1739 001a 1B68     		ldr	r3, [r3]
 1740 001c 9F46     		mov	pc, r3
 1741              		.section	.rodata
 1742 07a2 0000     		.align	2
 1743              	.L90:
 1744 07a4 1E000000 		.word	.L89
 1745 07a8 24000000 		.word	.L91
 1746 07ac 2A000000 		.word	.L92
 1747 07b0 38000000 		.word	.L93
 1748 07b4 46000000 		.word	.L94
 1749              		.section	.text.check_return_code
 1750              	.L89:
 261:chain_flow/chain_flow_support.c ****       {
 262:chain_flow/chain_flow_support.c ****           case CF_CONTINUE:
 263:chain_flow/chain_flow_support.c ****                 return_value = 1;
 1751              		.loc 1 263 0
 1752 001e 0123     		mov	r3, #1
 1753 0020 7B61     		str	r3, [r7, #20]
 264:chain_flow/chain_flow_support.c ****                 break;
 1754              		.loc 1 264 0
 1755 0022 1EE0     		b	.L95
 1756              	.L91:
 265:chain_flow/chain_flow_support.c **** 
 266:chain_flow/chain_flow_support.c ****           case CF_HALT:
 267:chain_flow/chain_flow_support.c ****                 return_value = 0;
 1757              		.loc 1 267 0
 1758 0024 0023     		mov	r3, #0
 1759 0026 7B61     		str	r3, [r7, #20]
 268:chain_flow/chain_flow_support.c ****                 break;
 1760              		.loc 1 268 0
 1761 0028 1BE0     		b	.L95
 1762              	.L92:
 269:chain_flow/chain_flow_support.c **** 
 270:chain_flow/chain_flow_support.c ****           case CF_DISABLE:
 271:chain_flow/chain_flow_support.c ****                return_value = 1;
 1763              		.loc 1 271 0
ARM GAS  C:\Users\glenn\AppData\Local\Temp\ccVIMYPX.s 			page 37


 1764 002a 0123     		mov	r3, #1
 1765 002c 7B61     		str	r3, [r7, #20]
 272:chain_flow/chain_flow_support.c ****                mark_disable_link( link_offset );
 1766              		.loc 1 272 0
 1767 002e BB68     		ldr	r3, [r7, #8]
 1768 0030 181C     		mov	r0, r3
 1769 0032 FFF7FEFF 		bl	mark_disable_link
 273:chain_flow/chain_flow_support.c ****                break;
 1770              		.loc 1 273 0
 1771 0036 14E0     		b	.L95
 1772              	.L93:
 274:chain_flow/chain_flow_support.c **** 
 275:chain_flow/chain_flow_support.c ****           case CF_RESET:
 276:chain_flow/chain_flow_support.c ****                return_value = 0;
 1773              		.loc 1 276 0
 1774 0038 0023     		mov	r3, #0
 1775 003a 7B61     		str	r3, [r7, #20]
 277:chain_flow/chain_flow_support.c ****                reset_all_links(chain_id);
 1776              		.loc 1 277 0
 1777 003c FB68     		ldr	r3, [r7, #12]
 1778 003e 181C     		mov	r0, r3
 1779 0040 FFF7FEFF 		bl	reset_all_links
 278:chain_flow/chain_flow_support.c ****                break;
 1780              		.loc 1 278 0
 1781 0044 0DE0     		b	.L95
 1782              	.L94:
 279:chain_flow/chain_flow_support.c **** 
 280:chain_flow/chain_flow_support.c ****            case CF_TERMINATE:
 281:chain_flow/chain_flow_support.c ****                return_value = 0;
 1783              		.loc 1 281 0
 1784 0046 0023     		mov	r3, #0
 1785 0048 7B61     		str	r3, [r7, #20]
 282:chain_flow/chain_flow_support.c ****                cf_disable_chain( chain_id );
 1786              		.loc 1 282 0
 1787 004a FB68     		ldr	r3, [r7, #12]
 1788 004c 181C     		mov	r0, r3
 1789 004e FFF7FEFF 		bl	cf_disable_chain
 283:chain_flow/chain_flow_support.c ****                break;
 1790              		.loc 1 283 0
 1791 0052 06E0     		b	.L95
 1792              	.L88:
 284:chain_flow/chain_flow_support.c **** 
 285:chain_flow/chain_flow_support.c ****            default:
 286:chain_flow/chain_flow_support.c ****                 assert(0); // should not happen
 1793              		.loc 1 286 0
 1794 0054 0648     		ldr	r0, .L97+4
 1795 0056 8F23     		mov	r3, #143
 1796 0058 5900     		lsl	r1, r3, #1
 1797 005a 064A     		ldr	r2, .L97+8
 1798 005c 064B     		ldr	r3, .L97+12
 1799 005e FFF7FEFF 		bl	__assert_func
 1800              	.L95:
 287:chain_flow/chain_flow_support.c ****      }
 288:chain_flow/chain_flow_support.c ****      return return_value;
 1801              		.loc 1 288 0
 1802 0062 7B69     		ldr	r3, [r7, #20]
 289:chain_flow/chain_flow_support.c **** }
ARM GAS  C:\Users\glenn\AppData\Local\Temp\ccVIMYPX.s 			page 38


 1803              		.loc 1 289 0
 1804 0064 181C     		mov	r0, r3
 1805 0066 BD46     		mov	sp, r7
 1806 0068 06B0     		add	sp, sp, #24
 1807              		@ sp needed
 1808 006a 80BD     		pop	{r7, pc}
 1809              	.L98:
 1810              		.align	2
 1811              	.L97:
 1812 006c A4070000 		.word	.L90
 1813 0070 6C070000 		.word	.LC17
 1814 0074 00080000 		.word	__FUNCTION__.7664
 1815 0078 A0070000 		.word	.LC38
 1816              		.cfi_endproc
 1817              	.LFE82:
 1818              		.size	check_return_code, .-check_return_code
 1819              		.section	.rodata
 1820              		.align	2
 1821              		.type	__FUNCTION__.7610, %object
 1822              		.size	__FUNCTION__.7610, 16
 1823              	__FUNCTION__.7610:
 1824 07b8 63665F65 		.ascii	"cf_enable_chain\000"
 1824      6E61626C 
 1824      655F6368 
 1824      61696E00 
 1825              		.align	2
 1826              		.type	__FUNCTION__.7614, %object
 1827              		.size	__FUNCTION__.7614, 17
 1828              	__FUNCTION__.7614:
 1829 07c8 63665F64 		.ascii	"cf_disable_chain\000"
 1829      69736162 
 1829      6C655F63 
 1829      6861696E 
 1829      00
 1830 07d9 000000   		.align	2
 1831              		.type	__FUNCTION__.7618, %object
 1832              		.size	__FUNCTION__.7618, 16
 1833              	__FUNCTION__.7618:
 1834 07dc 63665F72 		.ascii	"cf_resume_chain\000"
 1834      6573756D 
 1834      655F6368 
 1834      61696E00 
 1835              		.align	2
 1836              		.type	__FUNCTION__.7622, %object
 1837              		.size	__FUNCTION__.7622, 17
 1838              	__FUNCTION__.7622:
 1839 07ec 63665F73 		.ascii	"cf_suspend_chain\000"
 1839      75737065 
 1839      6E645F63 
 1839      6861696E 
 1839      00
 1840 07fd 000000   		.align	2
 1841              		.type	__FUNCTION__.7664, %object
 1842              		.size	__FUNCTION__.7664, 18
 1843              	__FUNCTION__.7664:
 1844 0800 63686563 		.ascii	"check_return_code\000"
 1844      6B5F7265 
ARM GAS  C:\Users\glenn\AppData\Local\Temp\ccVIMYPX.s 			page 39


 1844      7475726E 
 1844      5F636F64 
 1844      6500
 1845 0812 0000     		.text
 1846              	.Letext0:
 1847              		.file 2 "chain_flow\\cf_chain_flow_support.h"
 1848              		.file 3 ".\\chain_flow\\chain_flow_assembler/cf_chain_flow_include.h"