ARM GAS  C:\Users\glenn\AppData\Local\Temp\ccjge9sh.s 			page 1


   1              		.cpu cortex-m0
   2              		.fpu softvfp
   3              		.eabi_attribute 20, 1
   4              		.eabi_attribute 21, 1
   5              		.eabi_attribute 23, 3
   6              		.eabi_attribute 24, 1
   7              		.eabi_attribute 25, 1
   8              		.eabi_attribute 26, 1
   9              		.eabi_attribute 30, 2
  10              		.eabi_attribute 34, 0
  11              		.eabi_attribute 18, 4
  12              		.code	16
  13              		.file	"CyDMA.c"
  14              		.text
  15              	.Ltext0:
  16              		.cfi_sections	.debug_frame
  17              		.section	.text.CyDmaInterrupt,"ax",%progbits
  18              		.align	2
  19              		.global	CyDmaInterrupt
  20              		.code	16
  21              		.thumb_func
  22              		.type	CyDmaInterrupt, %function
  23              	CyDmaInterrupt:
  24              	.LFB15:
  25              		.file 1 "Generated_Source\\PSoC4\\CyDMA.c"
   1:Generated_Source\PSoC4/CyDMA.c **** /*******************************************************************************
   2:Generated_Source\PSoC4/CyDMA.c **** * File Name: CyDMA.c
   3:Generated_Source\PSoC4/CyDMA.c **** * Version 1.10
   4:Generated_Source\PSoC4/CyDMA.c **** *
   5:Generated_Source\PSoC4/CyDMA.c **** * Description:
   6:Generated_Source\PSoC4/CyDMA.c **** *  This file contains all of the global DMA API functions.
   7:Generated_Source\PSoC4/CyDMA.c **** *
   8:Generated_Source\PSoC4/CyDMA.c **** ********************************************************************************
   9:Generated_Source\PSoC4/CyDMA.c **** * Copyright 2015, Cypress Semiconductor Corporation. All rights reserved.
  10:Generated_Source\PSoC4/CyDMA.c **** * You may use this file only in accordance with the license, terms, conditions,
  11:Generated_Source\PSoC4/CyDMA.c **** * disclaimers, and limitations in the end user license agreement accompanying
  12:Generated_Source\PSoC4/CyDMA.c **** * the software package with which this file was provided.
  13:Generated_Source\PSoC4/CyDMA.c **** *******************************************************************************/
  14:Generated_Source\PSoC4/CyDMA.c **** 
  15:Generated_Source\PSoC4/CyDMA.c **** #include "CyDMA.h"
  16:Generated_Source\PSoC4/CyDMA.c **** #include "CyLib.h"
  17:Generated_Source\PSoC4/CyDMA.c **** 
  18:Generated_Source\PSoC4/CyDMA.c **** /* Default callback function. It is invoked if the user callback function is
  19:Generated_Source\PSoC4/CyDMA.c **** * undefined.
  20:Generated_Source\PSoC4/CyDMA.c **** */
  21:Generated_Source\PSoC4/CyDMA.c **** static void CyDmaDefaultInterruptCallback(void);
  22:Generated_Source\PSoC4/CyDMA.c **** 
  23:Generated_Source\PSoC4/CyDMA.c **** /* Array of pointers to user defined callback functions to be called
  24:Generated_Source\PSoC4/CyDMA.c **** * from DMA interrupt.
  25:Generated_Source\PSoC4/CyDMA.c **** */
  26:Generated_Source\PSoC4/CyDMA.c **** static cydma_callback_t CyDmaInterruptCallback[CYDMA_CH_NR] = {
  27:Generated_Source\PSoC4/CyDMA.c ****     &CyDmaDefaultInterruptCallback, &CyDmaDefaultInterruptCallback,
  28:Generated_Source\PSoC4/CyDMA.c ****     &CyDmaDefaultInterruptCallback, &CyDmaDefaultInterruptCallback,
  29:Generated_Source\PSoC4/CyDMA.c ****     &CyDmaDefaultInterruptCallback, &CyDmaDefaultInterruptCallback,
  30:Generated_Source\PSoC4/CyDMA.c ****     &CyDmaDefaultInterruptCallback, &CyDmaDefaultInterruptCallback
  31:Generated_Source\PSoC4/CyDMA.c **** };
  32:Generated_Source\PSoC4/CyDMA.c **** 
ARM GAS  C:\Users\glenn\AppData\Local\Temp\ccjge9sh.s 			page 2


  33:Generated_Source\PSoC4/CyDMA.c **** /* The live status of all DMA channels usage. Bit i is associated to channel i,
  34:Generated_Source\PSoC4/CyDMA.c **** * with i = 0..CYDMA_CH_NR-1. '0' - channel is free. '1' - channel is in use.
  35:Generated_Source\PSoC4/CyDMA.c **** * All the channels allocated for DMA instances placed on a schematic are in use
  36:Generated_Source\PSoC4/CyDMA.c **** * by default and cannot be freed. 
  37:Generated_Source\PSoC4/CyDMA.c **** * DMA_CHANNELS_USED__MASK is generated during the build time and is a bit field
  38:Generated_Source\PSoC4/CyDMA.c **** * corresponding to the DMA channels placed on a design schematic.
  39:Generated_Source\PSoC4/CyDMA.c **** */
  40:Generated_Source\PSoC4/CyDMA.c **** static uint32 CyDmaChannelUsedMask = DMA_CHANNELS_USED__MASK;
  41:Generated_Source\PSoC4/CyDMA.c **** 
  42:Generated_Source\PSoC4/CyDMA.c **** 
  43:Generated_Source\PSoC4/CyDMA.c **** /*******************************************************************************
  44:Generated_Source\PSoC4/CyDMA.c **** * Function Name: CyDmaEnable
  45:Generated_Source\PSoC4/CyDMA.c **** ********************************************************************************
  46:Generated_Source\PSoC4/CyDMA.c **** *
  47:Generated_Source\PSoC4/CyDMA.c **** * Summary:
  48:Generated_Source\PSoC4/CyDMA.c **** *  Sets the default ISR to be called by the DMA interrupt and enables the DMA
  49:Generated_Source\PSoC4/CyDMA.c **** *  transfer engine.
  50:Generated_Source\PSoC4/CyDMA.c **** *
  51:Generated_Source\PSoC4/CyDMA.c **** * Parameters:
  52:Generated_Source\PSoC4/CyDMA.c **** *  None.
  53:Generated_Source\PSoC4/CyDMA.c **** *                   
  54:Generated_Source\PSoC4/CyDMA.c **** * Return:
  55:Generated_Source\PSoC4/CyDMA.c **** *  None.
  56:Generated_Source\PSoC4/CyDMA.c **** *
  57:Generated_Source\PSoC4/CyDMA.c **** * Side effect:
  58:Generated_Source\PSoC4/CyDMA.c **** *  Does not affect the channel enable status. Overrides the interrupt vector
  59:Generated_Source\PSoC4/CyDMA.c **** *  set prior the first time CyDmaEnable() is called.
  60:Generated_Source\PSoC4/CyDMA.c **** *
  61:Generated_Source\PSoC4/CyDMA.c **** *******************************************************************************/
  62:Generated_Source\PSoC4/CyDMA.c **** void CyDmaEnable(void)
  63:Generated_Source\PSoC4/CyDMA.c **** {
  64:Generated_Source\PSoC4/CyDMA.c ****     static uint8 initIntrVector = 0u;
  65:Generated_Source\PSoC4/CyDMA.c **** 
  66:Generated_Source\PSoC4/CyDMA.c ****     if(0u == initIntrVector)
  67:Generated_Source\PSoC4/CyDMA.c ****     {
  68:Generated_Source\PSoC4/CyDMA.c ****         CyDmaSetInterruptVector(&CyDmaInterrupt);
  69:Generated_Source\PSoC4/CyDMA.c ****         CyIntSetPriority(CYDMA_INTR_NUMBER, CYDMA_INTR_PRIO);
  70:Generated_Source\PSoC4/CyDMA.c ****         initIntrVector = 1u;
  71:Generated_Source\PSoC4/CyDMA.c ****     }
  72:Generated_Source\PSoC4/CyDMA.c ****     CYDMA_CTL_REG = CYDMA_ENABLED;
  73:Generated_Source\PSoC4/CyDMA.c **** }
  74:Generated_Source\PSoC4/CyDMA.c **** 
  75:Generated_Source\PSoC4/CyDMA.c **** 
  76:Generated_Source\PSoC4/CyDMA.c **** /*******************************************************************************
  77:Generated_Source\PSoC4/CyDMA.c **** * Function Name: CyDmaDisable
  78:Generated_Source\PSoC4/CyDMA.c **** ********************************************************************************
  79:Generated_Source\PSoC4/CyDMA.c **** *
  80:Generated_Source\PSoC4/CyDMA.c **** * Summary:
  81:Generated_Source\PSoC4/CyDMA.c **** *  Disables the DMA transfer engine.
  82:Generated_Source\PSoC4/CyDMA.c **** *
  83:Generated_Source\PSoC4/CyDMA.c **** * Parameters:
  84:Generated_Source\PSoC4/CyDMA.c **** *  None.
  85:Generated_Source\PSoC4/CyDMA.c **** *                   
  86:Generated_Source\PSoC4/CyDMA.c **** * Return:
  87:Generated_Source\PSoC4/CyDMA.c **** *  None.
  88:Generated_Source\PSoC4/CyDMA.c **** *
  89:Generated_Source\PSoC4/CyDMA.c **** * Side effect:
ARM GAS  C:\Users\glenn\AppData\Local\Temp\ccjge9sh.s 			page 3


  90:Generated_Source\PSoC4/CyDMA.c **** *  Does not affect the channel enable status.
  91:Generated_Source\PSoC4/CyDMA.c **** *
  92:Generated_Source\PSoC4/CyDMA.c **** *******************************************************************************/
  93:Generated_Source\PSoC4/CyDMA.c **** void CyDmaDisable(void)
  94:Generated_Source\PSoC4/CyDMA.c **** {
  95:Generated_Source\PSoC4/CyDMA.c ****     CYDMA_CTL_REG = (uint32)~CYDMA_ENABLED;
  96:Generated_Source\PSoC4/CyDMA.c **** }
  97:Generated_Source\PSoC4/CyDMA.c **** 
  98:Generated_Source\PSoC4/CyDMA.c **** 
  99:Generated_Source\PSoC4/CyDMA.c **** /*******************************************************************************
 100:Generated_Source\PSoC4/CyDMA.c **** * Function Name: CyDmaGetStatus
 101:Generated_Source\PSoC4/CyDMA.c **** ********************************************************************************
 102:Generated_Source\PSoC4/CyDMA.c **** *
 103:Generated_Source\PSoC4/CyDMA.c **** * Summary:
 104:Generated_Source\PSoC4/CyDMA.c **** *  Returns the status of the DMA transfer engine.
 105:Generated_Source\PSoC4/CyDMA.c **** *
 106:Generated_Source\PSoC4/CyDMA.c **** * Parameters:
 107:Generated_Source\PSoC4/CyDMA.c **** *  None.
 108:Generated_Source\PSoC4/CyDMA.c **** *                   
 109:Generated_Source\PSoC4/CyDMA.c **** * Return:
 110:Generated_Source\PSoC4/CyDMA.c **** *  The contents of the DMA status register. Refer to the status register bit
 111:Generated_Source\PSoC4/CyDMA.c **** *  definitions in CyDMA_P4.h or the API description in the DMA channel
 112:Generated_Source\PSoC4/CyDMA.c **** *  datasheet.
 113:Generated_Source\PSoC4/CyDMA.c **** *
 114:Generated_Source\PSoC4/CyDMA.c **** * Side effect:
 115:Generated_Source\PSoC4/CyDMA.c **** *  The series of function calls CyDmaGetActiveSrcAddress(),
 116:Generated_Source\PSoC4/CyDMA.c **** *  CyDmaGetActiveDstAddress(), CyDmaGetStatus() are not atomic, the DMA
 117:Generated_Source\PSoC4/CyDMA.c **** *  engine may have advanced after one or more of these function calls. Meaning
 118:Generated_Source\PSoC4/CyDMA.c **** *  the returns from these three functions may not be related to each other.
 119:Generated_Source\PSoC4/CyDMA.c **** *
 120:Generated_Source\PSoC4/CyDMA.c **** *******************************************************************************/
 121:Generated_Source\PSoC4/CyDMA.c **** uint32 CyDmaGetStatus(void)
 122:Generated_Source\PSoC4/CyDMA.c **** {
 123:Generated_Source\PSoC4/CyDMA.c ****     return (CYDMA_STATUS_REG);
 124:Generated_Source\PSoC4/CyDMA.c **** }
 125:Generated_Source\PSoC4/CyDMA.c **** 
 126:Generated_Source\PSoC4/CyDMA.c **** 
 127:Generated_Source\PSoC4/CyDMA.c **** /*******************************************************************************
 128:Generated_Source\PSoC4/CyDMA.c **** * Function Name: CyDmaGetActiveChannels
 129:Generated_Source\PSoC4/CyDMA.c **** ********************************************************************************
 130:Generated_Source\PSoC4/CyDMA.c **** *
 131:Generated_Source\PSoC4/CyDMA.c **** * Summary:
 132:Generated_Source\PSoC4/CyDMA.c **** *  Returns a bit field of all the DMA channels that are either active or
 133:Generated_Source\PSoC4/CyDMA.c **** *  pending.
 134:Generated_Source\PSoC4/CyDMA.c **** *
 135:Generated_Source\PSoC4/CyDMA.c **** * Parameters:
 136:Generated_Source\PSoC4/CyDMA.c **** *  None.
 137:Generated_Source\PSoC4/CyDMA.c **** *                   
 138:Generated_Source\PSoC4/CyDMA.c **** * Return:
 139:Generated_Source\PSoC4/CyDMA.c **** *  Bit field of active and pending channels. 
 140:Generated_Source\PSoC4/CyDMA.c **** *
 141:Generated_Source\PSoC4/CyDMA.c **** *******************************************************************************/
 142:Generated_Source\PSoC4/CyDMA.c **** uint32 CyDmaGetActiveChannels(void)
 143:Generated_Source\PSoC4/CyDMA.c **** {
 144:Generated_Source\PSoC4/CyDMA.c ****     return (CYDMA_STATUS_CH_ACT_REG);
 145:Generated_Source\PSoC4/CyDMA.c **** }
 146:Generated_Source\PSoC4/CyDMA.c **** 
ARM GAS  C:\Users\glenn\AppData\Local\Temp\ccjge9sh.s 			page 4


 147:Generated_Source\PSoC4/CyDMA.c **** 
 148:Generated_Source\PSoC4/CyDMA.c **** /*******************************************************************************
 149:Generated_Source\PSoC4/CyDMA.c **** * Function Name: CyDmaGetActiveSrcAddress
 150:Generated_Source\PSoC4/CyDMA.c **** ********************************************************************************
 151:Generated_Source\PSoC4/CyDMA.c **** *
 152:Generated_Source\PSoC4/CyDMA.c **** * Summary:
 153:Generated_Source\PSoC4/CyDMA.c **** *  Returns the source address currently being used by the DMA transfer engine.
 154:Generated_Source\PSoC4/CyDMA.c **** *  This function can be used to debug the DMA, or observe where it is at in a
 155:Generated_Source\PSoC4/CyDMA.c **** *  transfer. It will not be used in normal DMA operation.
 156:Generated_Source\PSoC4/CyDMA.c **** *
 157:Generated_Source\PSoC4/CyDMA.c **** * Parameters:
 158:Generated_Source\PSoC4/CyDMA.c **** *  None.
 159:Generated_Source\PSoC4/CyDMA.c **** *                   
 160:Generated_Source\PSoC4/CyDMA.c **** * Return:
 161:Generated_Source\PSoC4/CyDMA.c **** *  Source address currently being used by the DMA transfer engine.
 162:Generated_Source\PSoC4/CyDMA.c **** *
 163:Generated_Source\PSoC4/CyDMA.c **** * Side effect:
 164:Generated_Source\PSoC4/CyDMA.c **** *  The series of function calls CyDmaGetActiveSrcAddress(),
 165:Generated_Source\PSoC4/CyDMA.c **** *  CyDmaGetActiveDstAddress(), CyDmaGetStatus() are not atomic, the DMA
 166:Generated_Source\PSoC4/CyDMA.c **** *  engine may have advanced after one or more of these function calls. Meaning
 167:Generated_Source\PSoC4/CyDMA.c **** *  the returns from these three functions may not be related to each other.
 168:Generated_Source\PSoC4/CyDMA.c **** *
 169:Generated_Source\PSoC4/CyDMA.c **** *******************************************************************************/
 170:Generated_Source\PSoC4/CyDMA.c **** void * CyDmaGetActiveSrcAddress(void)
 171:Generated_Source\PSoC4/CyDMA.c **** {
 172:Generated_Source\PSoC4/CyDMA.c ****     return ((void *)CYDMA_STATUS_SRC_ADDR_REG);
 173:Generated_Source\PSoC4/CyDMA.c **** }
 174:Generated_Source\PSoC4/CyDMA.c **** 
 175:Generated_Source\PSoC4/CyDMA.c **** 
 176:Generated_Source\PSoC4/CyDMA.c **** /*******************************************************************************
 177:Generated_Source\PSoC4/CyDMA.c **** * Function Name: CyDmaGetActiveDstAddress
 178:Generated_Source\PSoC4/CyDMA.c **** ********************************************************************************
 179:Generated_Source\PSoC4/CyDMA.c **** *
 180:Generated_Source\PSoC4/CyDMA.c **** * Summary:
 181:Generated_Source\PSoC4/CyDMA.c **** *  Returns the destination address currently being used by the DMA transfer
 182:Generated_Source\PSoC4/CyDMA.c **** *  engine. This function can be used to debug the DMA, or observe where it is at
 183:Generated_Source\PSoC4/CyDMA.c **** *  in a transfer. It will not be used in normal DMA operation.
 184:Generated_Source\PSoC4/CyDMA.c **** *
 185:Generated_Source\PSoC4/CyDMA.c **** * Parameters:
 186:Generated_Source\PSoC4/CyDMA.c **** *  None.
 187:Generated_Source\PSoC4/CyDMA.c **** *                   
 188:Generated_Source\PSoC4/CyDMA.c **** * Return:
 189:Generated_Source\PSoC4/CyDMA.c **** *  Destination address currently being used by the DMA transfer engine.
 190:Generated_Source\PSoC4/CyDMA.c **** *
 191:Generated_Source\PSoC4/CyDMA.c **** * Side effect:
 192:Generated_Source\PSoC4/CyDMA.c **** *  The series of function calls CyDmaGetActiveSrcAddress(),
 193:Generated_Source\PSoC4/CyDMA.c **** *  CyDmaGetActiveDstAddress(), CyDmaGetStatus() are not atomic, the DMA
 194:Generated_Source\PSoC4/CyDMA.c **** *  engine may have advanced after one or more of these function calls. Meaning
 195:Generated_Source\PSoC4/CyDMA.c **** *  the returns from these three functions may not be related to each other.
 196:Generated_Source\PSoC4/CyDMA.c **** *
 197:Generated_Source\PSoC4/CyDMA.c **** *******************************************************************************/
 198:Generated_Source\PSoC4/CyDMA.c **** void * CyDmaGetActiveDstAddress(void)
 199:Generated_Source\PSoC4/CyDMA.c **** {
 200:Generated_Source\PSoC4/CyDMA.c ****     return ((void *)CYDMA_STATUS_DST_ADDR_REG);
 201:Generated_Source\PSoC4/CyDMA.c **** }
 202:Generated_Source\PSoC4/CyDMA.c **** 
 203:Generated_Source\PSoC4/CyDMA.c **** 
ARM GAS  C:\Users\glenn\AppData\Local\Temp\ccjge9sh.s 			page 5


 204:Generated_Source\PSoC4/CyDMA.c **** /*******************************************************************************
 205:Generated_Source\PSoC4/CyDMA.c **** * Function Name: CyDmaSetInterruptVector
 206:Generated_Source\PSoC4/CyDMA.c **** ********************************************************************************
 207:Generated_Source\PSoC4/CyDMA.c **** *
 208:Generated_Source\PSoC4/CyDMA.c **** * Summary:
 209:Generated_Source\PSoC4/CyDMA.c **** *  Sets the function that will be called by the DMA interrupt. Note, calling
 210:Generated_Source\PSoC4/CyDMA.c **** *  CyDmaEnable() for the first time overrides any effect this API could have.
 211:Generated_Source\PSoC4/CyDMA.c **** *  Call CyDmaSetInterruptVector() after calling CyDmaEnable() to change
 212:Generated_Source\PSoC4/CyDMA.c **** *  the default ISR.
 213:Generated_Source\PSoC4/CyDMA.c **** *
 214:Generated_Source\PSoC4/CyDMA.c **** * Parameters:
 215:Generated_Source\PSoC4/CyDMA.c **** *  interruptVector: Address of the function that will be called by the DMA
 216:Generated_Source\PSoC4/CyDMA.c **** *                   interrupt.
 217:Generated_Source\PSoC4/CyDMA.c **** * Return:
 218:Generated_Source\PSoC4/CyDMA.c **** *  None.
 219:Generated_Source\PSoC4/CyDMA.c **** *
 220:Generated_Source\PSoC4/CyDMA.c **** * Side effect:
 221:Generated_Source\PSoC4/CyDMA.c **** *  Other components that use DMA may register their callback functions to be
 222:Generated_Source\PSoC4/CyDMA.c **** *  called from the default DMA ISR. Therefore, changing the DMA ISR to a user
 223:Generated_Source\PSoC4/CyDMA.c **** *  defined ISR using this API may prevent these other components from
 224:Generated_Source\PSoC4/CyDMA.c **** *  functioning correctly.
 225:Generated_Source\PSoC4/CyDMA.c **** *
 226:Generated_Source\PSoC4/CyDMA.c **** *******************************************************************************/
 227:Generated_Source\PSoC4/CyDMA.c **** void CyDmaSetInterruptVector(cyisraddress interruptVector)
 228:Generated_Source\PSoC4/CyDMA.c **** {
 229:Generated_Source\PSoC4/CyDMA.c ****     (void)CyIntSetVector(CYDMA_INTR_NUMBER, interruptVector);
 230:Generated_Source\PSoC4/CyDMA.c **** }
 231:Generated_Source\PSoC4/CyDMA.c **** 
 232:Generated_Source\PSoC4/CyDMA.c **** 
 233:Generated_Source\PSoC4/CyDMA.c **** /*******************************************************************************
 234:Generated_Source\PSoC4/CyDMA.c **** * Function Name: CyDmaGetInterruptSource
 235:Generated_Source\PSoC4/CyDMA.c **** ********************************************************************************
 236:Generated_Source\PSoC4/CyDMA.c **** *
 237:Generated_Source\PSoC4/CyDMA.c **** * Summary:
 238:Generated_Source\PSoC4/CyDMA.c **** *  Returns the bit field of which channels generated an interrupt request.
 239:Generated_Source\PSoC4/CyDMA.c **** *
 240:Generated_Source\PSoC4/CyDMA.c **** * Parameters:
 241:Generated_Source\PSoC4/CyDMA.c **** *  None.
 242:Generated_Source\PSoC4/CyDMA.c **** *                   
 243:Generated_Source\PSoC4/CyDMA.c **** * Return:
 244:Generated_Source\PSoC4/CyDMA.c **** *  Bit filed of which channels generated an interrupt request.
 245:Generated_Source\PSoC4/CyDMA.c **** *
 246:Generated_Source\PSoC4/CyDMA.c **** *******************************************************************************/
 247:Generated_Source\PSoC4/CyDMA.c **** uint32 CyDmaGetInterruptSource(void)
 248:Generated_Source\PSoC4/CyDMA.c **** {
 249:Generated_Source\PSoC4/CyDMA.c ****     return (CYDMA_INTR_REG);
 250:Generated_Source\PSoC4/CyDMA.c **** }
 251:Generated_Source\PSoC4/CyDMA.c **** 
 252:Generated_Source\PSoC4/CyDMA.c **** 
 253:Generated_Source\PSoC4/CyDMA.c **** /*******************************************************************************
 254:Generated_Source\PSoC4/CyDMA.c **** * Function Name: CyDmaClearInterruptSource
 255:Generated_Source\PSoC4/CyDMA.c **** ********************************************************************************
 256:Generated_Source\PSoC4/CyDMA.c **** *
 257:Generated_Source\PSoC4/CyDMA.c **** * Summary:
 258:Generated_Source\PSoC4/CyDMA.c **** *  Clears the pending interrupts.
 259:Generated_Source\PSoC4/CyDMA.c **** *
 260:Generated_Source\PSoC4/CyDMA.c **** * Parameters:
ARM GAS  C:\Users\glenn\AppData\Local\Temp\ccjge9sh.s 			page 6


 261:Generated_Source\PSoC4/CyDMA.c **** *  interruptMask: Bit field of interrupts to clear.
 262:Generated_Source\PSoC4/CyDMA.c **** *                   
 263:Generated_Source\PSoC4/CyDMA.c **** * Return:
 264:Generated_Source\PSoC4/CyDMA.c **** *  None.
 265:Generated_Source\PSoC4/CyDMA.c **** *
 266:Generated_Source\PSoC4/CyDMA.c **** *******************************************************************************/
 267:Generated_Source\PSoC4/CyDMA.c **** void CyDmaClearInterruptSource(uint32 interruptMask)
 268:Generated_Source\PSoC4/CyDMA.c **** {
 269:Generated_Source\PSoC4/CyDMA.c ****     CYDMA_INTR_REG = interruptMask;
 270:Generated_Source\PSoC4/CyDMA.c **** }
 271:Generated_Source\PSoC4/CyDMA.c **** 
 272:Generated_Source\PSoC4/CyDMA.c **** 
 273:Generated_Source\PSoC4/CyDMA.c **** /*******************************************************************************
 274:Generated_Source\PSoC4/CyDMA.c **** * Function Name: CyDmaSetInterruptSourceMask
 275:Generated_Source\PSoC4/CyDMA.c **** ********************************************************************************
 276:Generated_Source\PSoC4/CyDMA.c **** *
 277:Generated_Source\PSoC4/CyDMA.c **** * Summary:
 278:Generated_Source\PSoC4/CyDMA.c **** *  Sets mask for interrupt source.
 279:Generated_Source\PSoC4/CyDMA.c **** *
 280:Generated_Source\PSoC4/CyDMA.c **** * Parameters:
 281:Generated_Source\PSoC4/CyDMA.c **** *  interruptmask: Mask corresponding to interrupt bit field.
 282:Generated_Source\PSoC4/CyDMA.c **** *                   
 283:Generated_Source\PSoC4/CyDMA.c **** * Return:
 284:Generated_Source\PSoC4/CyDMA.c **** *  None.
 285:Generated_Source\PSoC4/CyDMA.c **** *
 286:Generated_Source\PSoC4/CyDMA.c **** *******************************************************************************/
 287:Generated_Source\PSoC4/CyDMA.c **** void CyDmaSetInterruptSourceMask(uint32 interruptMask)
 288:Generated_Source\PSoC4/CyDMA.c **** {
 289:Generated_Source\PSoC4/CyDMA.c ****     CYDMA_INTR_MASK_REG = interruptMask;
 290:Generated_Source\PSoC4/CyDMA.c **** }
 291:Generated_Source\PSoC4/CyDMA.c **** 
 292:Generated_Source\PSoC4/CyDMA.c **** 
 293:Generated_Source\PSoC4/CyDMA.c **** /*******************************************************************************
 294:Generated_Source\PSoC4/CyDMA.c **** * Function Name: CyDmaGetInterruptSourceMask
 295:Generated_Source\PSoC4/CyDMA.c **** ********************************************************************************
 296:Generated_Source\PSoC4/CyDMA.c **** *
 297:Generated_Source\PSoC4/CyDMA.c **** * Summary:
 298:Generated_Source\PSoC4/CyDMA.c **** *  Returns mask for interrupt source.
 299:Generated_Source\PSoC4/CyDMA.c **** *
 300:Generated_Source\PSoC4/CyDMA.c **** * Parameters:
 301:Generated_Source\PSoC4/CyDMA.c **** *  None.
 302:Generated_Source\PSoC4/CyDMA.c **** *                   
 303:Generated_Source\PSoC4/CyDMA.c **** * Return:
 304:Generated_Source\PSoC4/CyDMA.c **** *  Mask corresponding to interrupt bit field.
 305:Generated_Source\PSoC4/CyDMA.c **** *
 306:Generated_Source\PSoC4/CyDMA.c **** *******************************************************************************/
 307:Generated_Source\PSoC4/CyDMA.c **** uint32 CyDmaGetInterruptSourceMask(void)
 308:Generated_Source\PSoC4/CyDMA.c **** {
 309:Generated_Source\PSoC4/CyDMA.c ****     return (CYDMA_INTR_MASK_REG);
 310:Generated_Source\PSoC4/CyDMA.c **** }
 311:Generated_Source\PSoC4/CyDMA.c **** 
 312:Generated_Source\PSoC4/CyDMA.c **** 
 313:Generated_Source\PSoC4/CyDMA.c **** /*******************************************************************************
 314:Generated_Source\PSoC4/CyDMA.c **** * Function Name: CyDmaGetInterruptSourceMasked
 315:Generated_Source\PSoC4/CyDMA.c **** ********************************************************************************
 316:Generated_Source\PSoC4/CyDMA.c **** *
 317:Generated_Source\PSoC4/CyDMA.c **** * Summary:
ARM GAS  C:\Users\glenn\AppData\Local\Temp\ccjge9sh.s 			page 7


 318:Generated_Source\PSoC4/CyDMA.c **** *  Returns the bitwise AND of the interrupt source and the interrupt mask.
 319:Generated_Source\PSoC4/CyDMA.c **** *
 320:Generated_Source\PSoC4/CyDMA.c **** * Parameters:
 321:Generated_Source\PSoC4/CyDMA.c **** *  None.
 322:Generated_Source\PSoC4/CyDMA.c **** *                   
 323:Generated_Source\PSoC4/CyDMA.c **** * Return:
 324:Generated_Source\PSoC4/CyDMA.c **** *  Bitwise AND of the interrupt source and the interrupt mask.
 325:Generated_Source\PSoC4/CyDMA.c **** *
 326:Generated_Source\PSoC4/CyDMA.c **** *******************************************************************************/
 327:Generated_Source\PSoC4/CyDMA.c **** uint32 CyDmaGetInterruptSourceMasked(void)
 328:Generated_Source\PSoC4/CyDMA.c **** {
 329:Generated_Source\PSoC4/CyDMA.c ****     return (CYDMA_INTR_MASKED_REG);
 330:Generated_Source\PSoC4/CyDMA.c **** }
 331:Generated_Source\PSoC4/CyDMA.c **** 
 332:Generated_Source\PSoC4/CyDMA.c **** 
 333:Generated_Source\PSoC4/CyDMA.c **** /*******************************************************************************
 334:Generated_Source\PSoC4/CyDMA.c **** * Function Name: CyDmaSetInterruptCallback
 335:Generated_Source\PSoC4/CyDMA.c **** ********************************************************************************
 336:Generated_Source\PSoC4/CyDMA.c **** *
 337:Generated_Source\PSoC4/CyDMA.c **** * Summary:
 338:Generated_Source\PSoC4/CyDMA.c **** *  Sets a user defined callback function to be called by the DMA interrupt. The
 339:Generated_Source\PSoC4/CyDMA.c **** *  function should contain code to process the interrupt request for the 
 340:Generated_Source\PSoC4/CyDMA.c **** *  associated DMA channel.
 341:Generated_Source\PSoC4/CyDMA.c **** *
 342:Generated_Source\PSoC4/CyDMA.c **** * Parameters:
 343:Generated_Source\PSoC4/CyDMA.c **** *  channel:  Channel used by this function.
 344:Generated_Source\PSoC4/CyDMA.c **** *  callback: Pointer to the user defined callback function.
 345:Generated_Source\PSoC4/CyDMA.c **** *
 346:Generated_Source\PSoC4/CyDMA.c **** * Return:
 347:Generated_Source\PSoC4/CyDMA.c **** *  Pointer to the function previously set for the specified channel. 
 348:Generated_Source\PSoC4/CyDMA.c **** *
 349:Generated_Source\PSoC4/CyDMA.c **** *******************************************************************************/
 350:Generated_Source\PSoC4/CyDMA.c **** cydma_callback_t CyDmaSetInterruptCallback(int32 channel, cydma_callback_t callback)
 351:Generated_Source\PSoC4/CyDMA.c **** {
 352:Generated_Source\PSoC4/CyDMA.c ****     cydma_callback_t prevCallback;
 353:Generated_Source\PSoC4/CyDMA.c **** 
 354:Generated_Source\PSoC4/CyDMA.c ****     CYASSERT((channel >= 0) && (channel < CYDMA_CH_NR));
 355:Generated_Source\PSoC4/CyDMA.c **** 
 356:Generated_Source\PSoC4/CyDMA.c ****     prevCallback = CyDmaInterruptCallback[channel];
 357:Generated_Source\PSoC4/CyDMA.c ****     CyDmaInterruptCallback[channel] = callback;
 358:Generated_Source\PSoC4/CyDMA.c ****     return (prevCallback);
 359:Generated_Source\PSoC4/CyDMA.c **** }
 360:Generated_Source\PSoC4/CyDMA.c **** 
 361:Generated_Source\PSoC4/CyDMA.c **** 
 362:Generated_Source\PSoC4/CyDMA.c **** /*******************************************************************************
 363:Generated_Source\PSoC4/CyDMA.c **** * Function Name: CyDmaGetInterruptCallback
 364:Generated_Source\PSoC4/CyDMA.c **** ********************************************************************************
 365:Generated_Source\PSoC4/CyDMA.c **** *
 366:Generated_Source\PSoC4/CyDMA.c **** * Summary:
 367:Generated_Source\PSoC4/CyDMA.c **** *  Returns the pointer to the interrupt callback function for the specified DMA
 368:Generated_Source\PSoC4/CyDMA.c **** *  channel.
 369:Generated_Source\PSoC4/CyDMA.c **** *
 370:Generated_Source\PSoC4/CyDMA.c **** * Parameters:
 371:Generated_Source\PSoC4/CyDMA.c **** *  channel: Channel used by this function.
 372:Generated_Source\PSoC4/CyDMA.c **** *
 373:Generated_Source\PSoC4/CyDMA.c **** * Return:
 374:Generated_Source\PSoC4/CyDMA.c **** *  Callback function pointer for the specified channel.
ARM GAS  C:\Users\glenn\AppData\Local\Temp\ccjge9sh.s 			page 8


 375:Generated_Source\PSoC4/CyDMA.c **** *
 376:Generated_Source\PSoC4/CyDMA.c **** *******************************************************************************/
 377:Generated_Source\PSoC4/CyDMA.c **** cydma_callback_t CyDmaGetInterruptCallback(int32 channel)
 378:Generated_Source\PSoC4/CyDMA.c **** {
 379:Generated_Source\PSoC4/CyDMA.c ****     CYASSERT((channel >= 0) && (channel < CYDMA_CH_NR));
 380:Generated_Source\PSoC4/CyDMA.c ****     
 381:Generated_Source\PSoC4/CyDMA.c ****     return (CyDmaInterruptCallback[channel]);
 382:Generated_Source\PSoC4/CyDMA.c **** }
 383:Generated_Source\PSoC4/CyDMA.c **** 
 384:Generated_Source\PSoC4/CyDMA.c **** 
 385:Generated_Source\PSoC4/CyDMA.c **** /*******************************************************************************
 386:Generated_Source\PSoC4/CyDMA.c **** * Function Name: CyDmaInterrupt
 387:Generated_Source\PSoC4/CyDMA.c **** ********************************************************************************
 388:Generated_Source\PSoC4/CyDMA.c **** *
 389:Generated_Source\PSoC4/CyDMA.c **** * Summary:
 390:Generated_Source\PSoC4/CyDMA.c **** *  The default ISR for DMA interrupts. The handler checks which DMA channel has
 391:Generated_Source\PSoC4/CyDMA.c **** *  triggered the interrupt and calls the user defined callback function.
 392:Generated_Source\PSoC4/CyDMA.c **** *  The callback function is set using CyDmaSetInteruptCallback() API.
 393:Generated_Source\PSoC4/CyDMA.c **** *
 394:Generated_Source\PSoC4/CyDMA.c **** * Parameters:
 395:Generated_Source\PSoC4/CyDMA.c **** *  None.
 396:Generated_Source\PSoC4/CyDMA.c **** *
 397:Generated_Source\PSoC4/CyDMA.c **** * Return:
 398:Generated_Source\PSoC4/CyDMA.c **** *  None.
 399:Generated_Source\PSoC4/CyDMA.c **** *
 400:Generated_Source\PSoC4/CyDMA.c **** * Side Effects:
 401:Generated_Source\PSoC4/CyDMA.c **** *  This function clears the pending interrupts.
 402:Generated_Source\PSoC4/CyDMA.c **** *
 403:Generated_Source\PSoC4/CyDMA.c **** *******************************************************************************/
 404:Generated_Source\PSoC4/CyDMA.c **** CY_ISR(CyDmaInterrupt)
 405:Generated_Source\PSoC4/CyDMA.c **** {
  26              		.loc 1 405 0
  27              		.cfi_startproc
  28              	.LVL0:
 406:Generated_Source\PSoC4/CyDMA.c ****     uint32 intr;
 407:Generated_Source\PSoC4/CyDMA.c ****     uint32 cbIdx = 0u;
 408:Generated_Source\PSoC4/CyDMA.c **** 
 409:Generated_Source\PSoC4/CyDMA.c ****     /* Get interrupt source. */
 410:Generated_Source\PSoC4/CyDMA.c ****     intr = CYDMA_INTR_MASKED_REG;
  29              		.loc 1 410 0
  30 0000 0B4B     		ldr	r3, .L11
 405:Generated_Source\PSoC4/CyDMA.c ****     uint32 intr;
  31              		.loc 1 405 0
  32 0002 70B5     		push	{r4, r5, r6, lr}
  33              		.cfi_def_cfa_offset 16
  34              		.cfi_offset 4, -16
  35              		.cfi_offset 5, -12
  36              		.cfi_offset 6, -8
  37              		.cfi_offset 14, -4
  38              		.loc 1 410 0
  39 0004 1C68     		ldr	r4, [r3]
  40              	.LVL1:
 411:Generated_Source\PSoC4/CyDMA.c **** 
 412:Generated_Source\PSoC4/CyDMA.c ****     /* Clear pending interrupts. */
 413:Generated_Source\PSoC4/CyDMA.c ****     CYDMA_INTR_REG = intr;
  41              		.loc 1 413 0
  42 0006 0B4B     		ldr	r3, .L11+4
ARM GAS  C:\Users\glenn\AppData\Local\Temp\ccjge9sh.s 			page 9


  43 0008 1C60     		str	r4, [r3]
 414:Generated_Source\PSoC4/CyDMA.c **** 
 415:Generated_Source\PSoC4/CyDMA.c ****     /* Call user defined callback functions for triggered interrupt sources. */
 416:Generated_Source\PSoC4/CyDMA.c ****     while(0u != intr)
  44              		.loc 1 416 0
  45 000a 002C     		cmp	r4, #0
  46 000c 0ED0     		beq	.L1
  47 000e 0A4D     		ldr	r5, .L11+8
 417:Generated_Source\PSoC4/CyDMA.c ****     {
 418:Generated_Source\PSoC4/CyDMA.c ****         if(0u != (intr & 0x1u))
  48              		.loc 1 418 0
  49 0010 0126     		mov	r6, #1
  50 0012 03E0     		b	.L4
  51              	.LVL2:
  52              	.L3:
 419:Generated_Source\PSoC4/CyDMA.c ****         {
 420:Generated_Source\PSoC4/CyDMA.c ****             CyDmaInterruptCallback[cbIdx]();
 421:Generated_Source\PSoC4/CyDMA.c ****         }
 422:Generated_Source\PSoC4/CyDMA.c ****         intr >>= 1;
  53              		.loc 1 422 0
  54 0014 6408     		lsr	r4, r4, #1
  55              	.LVL3:
  56 0016 0435     		add	r5, r5, #4
 416:Generated_Source\PSoC4/CyDMA.c ****     {
  57              		.loc 1 416 0
  58 0018 002C     		cmp	r4, #0
  59 001a 07D0     		beq	.L1
  60              	.L4:
 418:Generated_Source\PSoC4/CyDMA.c ****         {
  61              		.loc 1 418 0
  62 001c 2642     		tst	r6, r4
  63 001e F9D0     		beq	.L3
 420:Generated_Source\PSoC4/CyDMA.c ****         }
  64              		.loc 1 420 0
  65 0020 2B68     		ldr	r3, [r5]
  66 0022 9847     		blx	r3
  67              	.LVL4:
  68              		.loc 1 422 0
  69 0024 6408     		lsr	r4, r4, #1
  70              	.LVL5:
  71 0026 0435     		add	r5, r5, #4
 416:Generated_Source\PSoC4/CyDMA.c ****     {
  72              		.loc 1 416 0
  73 0028 002C     		cmp	r4, #0
  74 002a F7D1     		bne	.L4
  75              	.L1:
 423:Generated_Source\PSoC4/CyDMA.c ****         ++cbIdx;
 424:Generated_Source\PSoC4/CyDMA.c ****     }
 425:Generated_Source\PSoC4/CyDMA.c **** }
  76              		.loc 1 425 0
  77              		@ sp needed
  78              	.LVL6:
  79 002c 70BD     		pop	{r4, r5, r6, pc}
  80              	.L12:
  81 002e C046     		.align	2
  82              	.L11:
  83 0030 FC171040 		.word	1074796540
ARM GAS  C:\Users\glenn\AppData\Local\Temp\ccjge9sh.s 			page 10


  84 0034 F0171040 		.word	1074796528
  85 0038 00000000 		.word	.LANCHOR0
  86              		.cfi_endproc
  87              	.LFE15:
  88              		.size	CyDmaInterrupt, .-CyDmaInterrupt
  89              		.section	.text.CyDmaDefaultInterruptCallback,"ax",%progbits
  90              		.align	2
  91              		.code	16
  92              		.thumb_func
  93              		.type	CyDmaDefaultInterruptCallback, %function
  94              	CyDmaDefaultInterruptCallback:
  95              	.LFB16:
 426:Generated_Source\PSoC4/CyDMA.c **** 
 427:Generated_Source\PSoC4/CyDMA.c **** 
 428:Generated_Source\PSoC4/CyDMA.c **** /*******************************************************************************
 429:Generated_Source\PSoC4/CyDMA.c **** * Function Name: CyDmaDefaultInterruptCallback
 430:Generated_Source\PSoC4/CyDMA.c **** ********************************************************************************
 431:Generated_Source\PSoC4/CyDMA.c **** *
 432:Generated_Source\PSoC4/CyDMA.c **** * Summary:
 433:Generated_Source\PSoC4/CyDMA.c **** *  This function is invoked when the user defined callback function is undefined
 434:Generated_Source\PSoC4/CyDMA.c **** *  for the interrupt source.
 435:Generated_Source\PSoC4/CyDMA.c **** *
 436:Generated_Source\PSoC4/CyDMA.c **** * Parameters:
 437:Generated_Source\PSoC4/CyDMA.c **** *  None.
 438:Generated_Source\PSoC4/CyDMA.c **** *
 439:Generated_Source\PSoC4/CyDMA.c **** * Return:
 440:Generated_Source\PSoC4/CyDMA.c **** *  None.
 441:Generated_Source\PSoC4/CyDMA.c **** *
 442:Generated_Source\PSoC4/CyDMA.c **** *******************************************************************************/
 443:Generated_Source\PSoC4/CyDMA.c **** static void CyDmaDefaultInterruptCallback(void)
 444:Generated_Source\PSoC4/CyDMA.c **** {
  96              		.loc 1 444 0
  97              		.cfi_startproc
  98 0000 08B5     		push	{r3, lr}
  99              		.cfi_def_cfa_offset 8
 100              		.cfi_offset 3, -8
 101              		.cfi_offset 14, -4
 445:Generated_Source\PSoC4/CyDMA.c ****     /* Halt CPU in debug mode. We get here because there is no user defined
 446:Generated_Source\PSoC4/CyDMA.c ****     * callback function for the interrupt source. You should either set a
 447:Generated_Source\PSoC4/CyDMA.c ****     * callback function or disable generating an interrupt from this
 448:Generated_Source\PSoC4/CyDMA.c ****     * interrupt source.
 449:Generated_Source\PSoC4/CyDMA.c ****     * To set a callback, use the CyDmaSetInterruptCallback() API function.
 450:Generated_Source\PSoC4/CyDMA.c ****     * To disable interrupt generation, write '0' to the corresponding bit
 451:Generated_Source\PSoC4/CyDMA.c ****     * in the interrupt mask by calling CyDmaSetInterruptSourceMask().
 452:Generated_Source\PSoC4/CyDMA.c ****     */
 453:Generated_Source\PSoC4/CyDMA.c ****     CYASSERT(0 != 0);
 102              		.loc 1 453 0
 103 0002 0020     		mov	r0, #0
 104 0004 FFF7FEFF 		bl	CyHalt
 105              	.LVL7:
 454:Generated_Source\PSoC4/CyDMA.c **** }
 106              		.loc 1 454 0
 107              		@ sp needed
 108 0008 08BD     		pop	{r3, pc}
 109              		.cfi_endproc
 110              	.LFE16:
 111              		.size	CyDmaDefaultInterruptCallback, .-CyDmaDefaultInterruptCallback
ARM GAS  C:\Users\glenn\AppData\Local\Temp\ccjge9sh.s 			page 11


 112 000a C046     		.section	.text.CyDmaEnable,"ax",%progbits
 113              		.align	2
 114              		.global	CyDmaEnable
 115              		.code	16
 116              		.thumb_func
 117              		.type	CyDmaEnable, %function
 118              	CyDmaEnable:
 119              	.LFB1:
  63:Generated_Source\PSoC4/CyDMA.c ****     static uint8 initIntrVector = 0u;
 120              		.loc 1 63 0
 121              		.cfi_startproc
 122 0000 10B5     		push	{r4, lr}
 123              		.cfi_def_cfa_offset 8
 124              		.cfi_offset 4, -8
 125              		.cfi_offset 14, -4
  66:Generated_Source\PSoC4/CyDMA.c ****     {
 126              		.loc 1 66 0
 127 0002 094C     		ldr	r4, .L16
 128 0004 2378     		ldrb	r3, [r4]
 129 0006 002B     		cmp	r3, #0
 130 0008 09D1     		bne	.L15
 131              	.LVL8:
 132              	.LBB4:
 133              	.LBB5:
 229:Generated_Source\PSoC4/CyDMA.c **** }
 134              		.loc 1 229 0
 135 000a 0849     		ldr	r1, .L16+4
 136 000c 0D20     		mov	r0, #13
 137 000e FFF7FEFF 		bl	CyIntSetVector
 138              	.LVL9:
 139              	.LBE5:
 140              	.LBE4:
  69:Generated_Source\PSoC4/CyDMA.c ****         initIntrVector = 1u;
 141              		.loc 1 69 0
 142 0012 0D20     		mov	r0, #13
 143 0014 0321     		mov	r1, #3
 144 0016 FFF7FEFF 		bl	CyIntSetPriority
 145              	.LVL10:
  70:Generated_Source\PSoC4/CyDMA.c ****     }
 146              		.loc 1 70 0
 147 001a 0123     		mov	r3, #1
 148 001c 2370     		strb	r3, [r4]
 149              	.LVL11:
 150              	.L15:
  72:Generated_Source\PSoC4/CyDMA.c **** }
 151              		.loc 1 72 0
 152 001e 8022     		mov	r2, #128
 153 0020 034B     		ldr	r3, .L16+8
 154 0022 1206     		lsl	r2, r2, #24
 155 0024 1A60     		str	r2, [r3]
  73:Generated_Source\PSoC4/CyDMA.c **** 
 156              		.loc 1 73 0
 157              		@ sp needed
 158 0026 10BD     		pop	{r4, pc}
 159              	.L17:
 160              		.align	2
 161              	.L16:
ARM GAS  C:\Users\glenn\AppData\Local\Temp\ccjge9sh.s 			page 12


 162 0028 00000000 		.word	.LANCHOR1
 163 002c 00000000 		.word	CyDmaInterrupt
 164 0030 00101040 		.word	1074794496
 165              		.cfi_endproc
 166              	.LFE1:
 167              		.size	CyDmaEnable, .-CyDmaEnable
 168              		.section	.text.CyDmaDisable,"ax",%progbits
 169              		.align	2
 170              		.global	CyDmaDisable
 171              		.code	16
 172              		.thumb_func
 173              		.type	CyDmaDisable, %function
 174              	CyDmaDisable:
 175              	.LFB2:
  94:Generated_Source\PSoC4/CyDMA.c ****     CYDMA_CTL_REG = (uint32)~CYDMA_ENABLED;
 176              		.loc 1 94 0
 177              		.cfi_startproc
  95:Generated_Source\PSoC4/CyDMA.c **** }
 178              		.loc 1 95 0
 179 0000 014A     		ldr	r2, .L19
 180 0002 024B     		ldr	r3, .L19+4
  96:Generated_Source\PSoC4/CyDMA.c **** 
 181              		.loc 1 96 0
 182              		@ sp needed
  95:Generated_Source\PSoC4/CyDMA.c **** }
 183              		.loc 1 95 0
 184 0004 1A60     		str	r2, [r3]
  96:Generated_Source\PSoC4/CyDMA.c **** 
 185              		.loc 1 96 0
 186 0006 7047     		bx	lr
 187              	.L20:
 188              		.align	2
 189              	.L19:
 190 0008 FFFFFF7F 		.word	2147483647
 191 000c 00101040 		.word	1074794496
 192              		.cfi_endproc
 193              	.LFE2:
 194              		.size	CyDmaDisable, .-CyDmaDisable
 195              		.section	.text.CyDmaGetStatus,"ax",%progbits
 196              		.align	2
 197              		.global	CyDmaGetStatus
 198              		.code	16
 199              		.thumb_func
 200              		.type	CyDmaGetStatus, %function
 201              	CyDmaGetStatus:
 202              	.LFB3:
 122:Generated_Source\PSoC4/CyDMA.c ****     return (CYDMA_STATUS_REG);
 203              		.loc 1 122 0
 204              		.cfi_startproc
 123:Generated_Source\PSoC4/CyDMA.c **** }
 205              		.loc 1 123 0
 206 0000 014B     		ldr	r3, .L22
 124:Generated_Source\PSoC4/CyDMA.c **** 
 207              		.loc 1 124 0
 208              		@ sp needed
 123:Generated_Source\PSoC4/CyDMA.c **** }
 209              		.loc 1 123 0
ARM GAS  C:\Users\glenn\AppData\Local\Temp\ccjge9sh.s 			page 13


 210 0002 1868     		ldr	r0, [r3]
 124:Generated_Source\PSoC4/CyDMA.c **** 
 211              		.loc 1 124 0
 212 0004 7047     		bx	lr
 213              	.L23:
 214 0006 C046     		.align	2
 215              	.L22:
 216 0008 10101040 		.word	1074794512
 217              		.cfi_endproc
 218              	.LFE3:
 219              		.size	CyDmaGetStatus, .-CyDmaGetStatus
 220              		.section	.text.CyDmaGetActiveChannels,"ax",%progbits
 221              		.align	2
 222              		.global	CyDmaGetActiveChannels
 223              		.code	16
 224              		.thumb_func
 225              		.type	CyDmaGetActiveChannels, %function
 226              	CyDmaGetActiveChannels:
 227              	.LFB4:
 143:Generated_Source\PSoC4/CyDMA.c ****     return (CYDMA_STATUS_CH_ACT_REG);
 228              		.loc 1 143 0
 229              		.cfi_startproc
 144:Generated_Source\PSoC4/CyDMA.c **** }
 230              		.loc 1 144 0
 231 0000 014B     		ldr	r3, .L25
 145:Generated_Source\PSoC4/CyDMA.c **** 
 232              		.loc 1 145 0
 233              		@ sp needed
 144:Generated_Source\PSoC4/CyDMA.c **** }
 234              		.loc 1 144 0
 235 0002 1868     		ldr	r0, [r3]
 145:Generated_Source\PSoC4/CyDMA.c **** 
 236              		.loc 1 145 0
 237 0004 7047     		bx	lr
 238              	.L26:
 239 0006 C046     		.align	2
 240              	.L25:
 241 0008 1C101040 		.word	1074794524
 242              		.cfi_endproc
 243              	.LFE4:
 244              		.size	CyDmaGetActiveChannels, .-CyDmaGetActiveChannels
 245              		.section	.text.CyDmaGetActiveSrcAddress,"ax",%progbits
 246              		.align	2
 247              		.global	CyDmaGetActiveSrcAddress
 248              		.code	16
 249              		.thumb_func
 250              		.type	CyDmaGetActiveSrcAddress, %function
 251              	CyDmaGetActiveSrcAddress:
 252              	.LFB5:
 171:Generated_Source\PSoC4/CyDMA.c ****     return ((void *)CYDMA_STATUS_SRC_ADDR_REG);
 253              		.loc 1 171 0
 254              		.cfi_startproc
 172:Generated_Source\PSoC4/CyDMA.c **** }
 255              		.loc 1 172 0
 256 0000 014B     		ldr	r3, .L28
 173:Generated_Source\PSoC4/CyDMA.c **** 
 257              		.loc 1 173 0
ARM GAS  C:\Users\glenn\AppData\Local\Temp\ccjge9sh.s 			page 14


 258              		@ sp needed
 172:Generated_Source\PSoC4/CyDMA.c **** }
 259              		.loc 1 172 0
 260 0002 1868     		ldr	r0, [r3]
 173:Generated_Source\PSoC4/CyDMA.c **** 
 261              		.loc 1 173 0
 262 0004 7047     		bx	lr
 263              	.L29:
 264 0006 C046     		.align	2
 265              	.L28:
 266 0008 14101040 		.word	1074794516
 267              		.cfi_endproc
 268              	.LFE5:
 269              		.size	CyDmaGetActiveSrcAddress, .-CyDmaGetActiveSrcAddress
 270              		.section	.text.CyDmaGetActiveDstAddress,"ax",%progbits
 271              		.align	2
 272              		.global	CyDmaGetActiveDstAddress
 273              		.code	16
 274              		.thumb_func
 275              		.type	CyDmaGetActiveDstAddress, %function
 276              	CyDmaGetActiveDstAddress:
 277              	.LFB6:
 199:Generated_Source\PSoC4/CyDMA.c ****     return ((void *)CYDMA_STATUS_DST_ADDR_REG);
 278              		.loc 1 199 0
 279              		.cfi_startproc
 200:Generated_Source\PSoC4/CyDMA.c **** }
 280              		.loc 1 200 0
 281 0000 014B     		ldr	r3, .L31
 201:Generated_Source\PSoC4/CyDMA.c **** 
 282              		.loc 1 201 0
 283              		@ sp needed
 200:Generated_Source\PSoC4/CyDMA.c **** }
 284              		.loc 1 200 0
 285 0002 1868     		ldr	r0, [r3]
 201:Generated_Source\PSoC4/CyDMA.c **** 
 286              		.loc 1 201 0
 287 0004 7047     		bx	lr
 288              	.L32:
 289 0006 C046     		.align	2
 290              	.L31:
 291 0008 18101040 		.word	1074794520
 292              		.cfi_endproc
 293              	.LFE6:
 294              		.size	CyDmaGetActiveDstAddress, .-CyDmaGetActiveDstAddress
 295              		.section	.text.CyDmaSetInterruptVector,"ax",%progbits
 296              		.align	2
 297              		.global	CyDmaSetInterruptVector
 298              		.code	16
 299              		.thumb_func
 300              		.type	CyDmaSetInterruptVector, %function
 301              	CyDmaSetInterruptVector:
 302              	.LFB7:
 228:Generated_Source\PSoC4/CyDMA.c ****     (void)CyIntSetVector(CYDMA_INTR_NUMBER, interruptVector);
 303              		.loc 1 228 0
 304              		.cfi_startproc
 305              	.LVL12:
 306 0000 08B5     		push	{r3, lr}
ARM GAS  C:\Users\glenn\AppData\Local\Temp\ccjge9sh.s 			page 15


 307              		.cfi_def_cfa_offset 8
 308              		.cfi_offset 3, -8
 309              		.cfi_offset 14, -4
 228:Generated_Source\PSoC4/CyDMA.c ****     (void)CyIntSetVector(CYDMA_INTR_NUMBER, interruptVector);
 310              		.loc 1 228 0
 311 0002 011C     		mov	r1, r0
 229:Generated_Source\PSoC4/CyDMA.c **** }
 312              		.loc 1 229 0
 313 0004 0D20     		mov	r0, #13
 314              	.LVL13:
 315 0006 FFF7FEFF 		bl	CyIntSetVector
 316              	.LVL14:
 230:Generated_Source\PSoC4/CyDMA.c **** 
 317              		.loc 1 230 0
 318              		@ sp needed
 319 000a 08BD     		pop	{r3, pc}
 320              		.cfi_endproc
 321              	.LFE7:
 322              		.size	CyDmaSetInterruptVector, .-CyDmaSetInterruptVector
 323              		.section	.text.CyDmaGetInterruptSource,"ax",%progbits
 324              		.align	2
 325              		.global	CyDmaGetInterruptSource
 326              		.code	16
 327              		.thumb_func
 328              		.type	CyDmaGetInterruptSource, %function
 329              	CyDmaGetInterruptSource:
 330              	.LFB8:
 248:Generated_Source\PSoC4/CyDMA.c ****     return (CYDMA_INTR_REG);
 331              		.loc 1 248 0
 332              		.cfi_startproc
 249:Generated_Source\PSoC4/CyDMA.c **** }
 333              		.loc 1 249 0
 334 0000 014B     		ldr	r3, .L35
 250:Generated_Source\PSoC4/CyDMA.c **** 
 335              		.loc 1 250 0
 336              		@ sp needed
 249:Generated_Source\PSoC4/CyDMA.c **** }
 337              		.loc 1 249 0
 338 0002 1868     		ldr	r0, [r3]
 250:Generated_Source\PSoC4/CyDMA.c **** 
 339              		.loc 1 250 0
 340 0004 7047     		bx	lr
 341              	.L36:
 342 0006 C046     		.align	2
 343              	.L35:
 344 0008 F0171040 		.word	1074796528
 345              		.cfi_endproc
 346              	.LFE8:
 347              		.size	CyDmaGetInterruptSource, .-CyDmaGetInterruptSource
 348              		.section	.text.CyDmaClearInterruptSource,"ax",%progbits
 349              		.align	2
 350              		.global	CyDmaClearInterruptSource
 351              		.code	16
 352              		.thumb_func
 353              		.type	CyDmaClearInterruptSource, %function
 354              	CyDmaClearInterruptSource:
 355              	.LFB9:
ARM GAS  C:\Users\glenn\AppData\Local\Temp\ccjge9sh.s 			page 16


 268:Generated_Source\PSoC4/CyDMA.c ****     CYDMA_INTR_REG = interruptMask;
 356              		.loc 1 268 0
 357              		.cfi_startproc
 358              	.LVL15:
 269:Generated_Source\PSoC4/CyDMA.c **** }
 359              		.loc 1 269 0
 360 0000 014B     		ldr	r3, .L38
 270:Generated_Source\PSoC4/CyDMA.c **** 
 361              		.loc 1 270 0
 362              		@ sp needed
 269:Generated_Source\PSoC4/CyDMA.c **** }
 363              		.loc 1 269 0
 364 0002 1860     		str	r0, [r3]
 270:Generated_Source\PSoC4/CyDMA.c **** 
 365              		.loc 1 270 0
 366 0004 7047     		bx	lr
 367              	.L39:
 368 0006 C046     		.align	2
 369              	.L38:
 370 0008 F0171040 		.word	1074796528
 371              		.cfi_endproc
 372              	.LFE9:
 373              		.size	CyDmaClearInterruptSource, .-CyDmaClearInterruptSource
 374              		.section	.text.CyDmaSetInterruptSourceMask,"ax",%progbits
 375              		.align	2
 376              		.global	CyDmaSetInterruptSourceMask
 377              		.code	16
 378              		.thumb_func
 379              		.type	CyDmaSetInterruptSourceMask, %function
 380              	CyDmaSetInterruptSourceMask:
 381              	.LFB10:
 288:Generated_Source\PSoC4/CyDMA.c ****     CYDMA_INTR_MASK_REG = interruptMask;
 382              		.loc 1 288 0
 383              		.cfi_startproc
 384              	.LVL16:
 289:Generated_Source\PSoC4/CyDMA.c **** }
 385              		.loc 1 289 0
 386 0000 014B     		ldr	r3, .L41
 290:Generated_Source\PSoC4/CyDMA.c **** 
 387              		.loc 1 290 0
 388              		@ sp needed
 289:Generated_Source\PSoC4/CyDMA.c **** }
 389              		.loc 1 289 0
 390 0002 1860     		str	r0, [r3]
 290:Generated_Source\PSoC4/CyDMA.c **** 
 391              		.loc 1 290 0
 392 0004 7047     		bx	lr
 393              	.L42:
 394 0006 C046     		.align	2
 395              	.L41:
 396 0008 F8171040 		.word	1074796536
 397              		.cfi_endproc
 398              	.LFE10:
 399              		.size	CyDmaSetInterruptSourceMask, .-CyDmaSetInterruptSourceMask
 400              		.section	.text.CyDmaGetInterruptSourceMask,"ax",%progbits
 401              		.align	2
 402              		.global	CyDmaGetInterruptSourceMask
ARM GAS  C:\Users\glenn\AppData\Local\Temp\ccjge9sh.s 			page 17


 403              		.code	16
 404              		.thumb_func
 405              		.type	CyDmaGetInterruptSourceMask, %function
 406              	CyDmaGetInterruptSourceMask:
 407              	.LFB11:
 308:Generated_Source\PSoC4/CyDMA.c ****     return (CYDMA_INTR_MASK_REG);
 408              		.loc 1 308 0
 409              		.cfi_startproc
 309:Generated_Source\PSoC4/CyDMA.c **** }
 410              		.loc 1 309 0
 411 0000 014B     		ldr	r3, .L44
 310:Generated_Source\PSoC4/CyDMA.c **** 
 412              		.loc 1 310 0
 413              		@ sp needed
 309:Generated_Source\PSoC4/CyDMA.c **** }
 414              		.loc 1 309 0
 415 0002 1868     		ldr	r0, [r3]
 310:Generated_Source\PSoC4/CyDMA.c **** 
 416              		.loc 1 310 0
 417 0004 7047     		bx	lr
 418              	.L45:
 419 0006 C046     		.align	2
 420              	.L44:
 421 0008 F8171040 		.word	1074796536
 422              		.cfi_endproc
 423              	.LFE11:
 424              		.size	CyDmaGetInterruptSourceMask, .-CyDmaGetInterruptSourceMask
 425              		.section	.text.CyDmaGetInterruptSourceMasked,"ax",%progbits
 426              		.align	2
 427              		.global	CyDmaGetInterruptSourceMasked
 428              		.code	16
 429              		.thumb_func
 430              		.type	CyDmaGetInterruptSourceMasked, %function
 431              	CyDmaGetInterruptSourceMasked:
 432              	.LFB12:
 328:Generated_Source\PSoC4/CyDMA.c ****     return (CYDMA_INTR_MASKED_REG);
 433              		.loc 1 328 0
 434              		.cfi_startproc
 329:Generated_Source\PSoC4/CyDMA.c **** }
 435              		.loc 1 329 0
 436 0000 014B     		ldr	r3, .L47
 330:Generated_Source\PSoC4/CyDMA.c **** 
 437              		.loc 1 330 0
 438              		@ sp needed
 329:Generated_Source\PSoC4/CyDMA.c **** }
 439              		.loc 1 329 0
 440 0002 1868     		ldr	r0, [r3]
 330:Generated_Source\PSoC4/CyDMA.c **** 
 441              		.loc 1 330 0
 442 0004 7047     		bx	lr
 443              	.L48:
 444 0006 C046     		.align	2
 445              	.L47:
 446 0008 FC171040 		.word	1074796540
 447              		.cfi_endproc
 448              	.LFE12:
 449              		.size	CyDmaGetInterruptSourceMasked, .-CyDmaGetInterruptSourceMasked
ARM GAS  C:\Users\glenn\AppData\Local\Temp\ccjge9sh.s 			page 18


 450              		.section	.text.CyDmaSetInterruptCallback,"ax",%progbits
 451              		.align	2
 452              		.global	CyDmaSetInterruptCallback
 453              		.code	16
 454              		.thumb_func
 455              		.type	CyDmaSetInterruptCallback, %function
 456              	CyDmaSetInterruptCallback:
 457              	.LFB13:
 351:Generated_Source\PSoC4/CyDMA.c ****     cydma_callback_t prevCallback;
 458              		.loc 1 351 0
 459              		.cfi_startproc
 460              	.LVL17:
 461 0000 38B5     		push	{r3, r4, r5, lr}
 462              		.cfi_def_cfa_offset 16
 463              		.cfi_offset 3, -16
 464              		.cfi_offset 4, -12
 465              		.cfi_offset 5, -8
 466              		.cfi_offset 14, -4
 351:Generated_Source\PSoC4/CyDMA.c ****     cydma_callback_t prevCallback;
 467              		.loc 1 351 0
 468 0002 041C     		mov	r4, r0
 469 0004 0D1C     		mov	r5, r1
 354:Generated_Source\PSoC4/CyDMA.c **** 
 470              		.loc 1 354 0
 471 0006 0728     		cmp	r0, #7
 472 0008 02D9     		bls	.L50
 354:Generated_Source\PSoC4/CyDMA.c **** 
 473              		.loc 1 354 0 is_stmt 0 discriminator 1
 474 000a 0020     		mov	r0, #0
 475              	.LVL18:
 476 000c FFF7FEFF 		bl	CyHalt
 477              	.LVL19:
 478              	.L50:
 356:Generated_Source\PSoC4/CyDMA.c ****     CyDmaInterruptCallback[channel] = callback;
 479              		.loc 1 356 0 is_stmt 1
 480 0010 024B     		ldr	r3, .L51
 481 0012 A400     		lsl	r4, r4, #2
 482              	.LVL20:
 483 0014 E058     		ldr	r0, [r4, r3]
 484              	.LVL21:
 359:Generated_Source\PSoC4/CyDMA.c **** 
 485              		.loc 1 359 0
 486              		@ sp needed
 357:Generated_Source\PSoC4/CyDMA.c ****     return (prevCallback);
 487              		.loc 1 357 0
 488 0016 E550     		str	r5, [r4, r3]
 489              	.LVL22:
 359:Generated_Source\PSoC4/CyDMA.c **** 
 490              		.loc 1 359 0
 491 0018 38BD     		pop	{r3, r4, r5, pc}
 492              	.L52:
 493 001a C046     		.align	2
 494              	.L51:
 495 001c 00000000 		.word	.LANCHOR0
 496              		.cfi_endproc
 497              	.LFE13:
 498              		.size	CyDmaSetInterruptCallback, .-CyDmaSetInterruptCallback
ARM GAS  C:\Users\glenn\AppData\Local\Temp\ccjge9sh.s 			page 19


 499              		.section	.text.CyDmaGetInterruptCallback,"ax",%progbits
 500              		.align	2
 501              		.global	CyDmaGetInterruptCallback
 502              		.code	16
 503              		.thumb_func
 504              		.type	CyDmaGetInterruptCallback, %function
 505              	CyDmaGetInterruptCallback:
 506              	.LFB14:
 378:Generated_Source\PSoC4/CyDMA.c ****     CYASSERT((channel >= 0) && (channel < CYDMA_CH_NR));
 507              		.loc 1 378 0
 508              		.cfi_startproc
 509              	.LVL23:
 510 0000 10B5     		push	{r4, lr}
 511              		.cfi_def_cfa_offset 8
 512              		.cfi_offset 4, -8
 513              		.cfi_offset 14, -4
 378:Generated_Source\PSoC4/CyDMA.c ****     CYASSERT((channel >= 0) && (channel < CYDMA_CH_NR));
 514              		.loc 1 378 0
 515 0002 041E     		sub	r4, r0, #0
 379:Generated_Source\PSoC4/CyDMA.c ****     
 516              		.loc 1 379 0
 517 0004 072C     		cmp	r4, #7
 518 0006 02D9     		bls	.L54
 379:Generated_Source\PSoC4/CyDMA.c ****     
 519              		.loc 1 379 0 is_stmt 0 discriminator 1
 520 0008 0020     		mov	r0, #0
 521              	.LVL24:
 522 000a FFF7FEFF 		bl	CyHalt
 523              	.LVL25:
 524              	.L54:
 381:Generated_Source\PSoC4/CyDMA.c **** }
 525              		.loc 1 381 0 is_stmt 1
 526 000e 024B     		ldr	r3, .L55
 527 0010 A400     		lsl	r4, r4, #2
 528              	.LVL26:
 529 0012 E058     		ldr	r0, [r4, r3]
 382:Generated_Source\PSoC4/CyDMA.c **** 
 530              		.loc 1 382 0
 531              		@ sp needed
 532 0014 10BD     		pop	{r4, pc}
 533              	.L56:
 534 0016 C046     		.align	2
 535              	.L55:
 536 0018 00000000 		.word	.LANCHOR0
 537              		.cfi_endproc
 538              	.LFE14:
 539              		.size	CyDmaGetInterruptCallback, .-CyDmaGetInterruptCallback
 540              		.section	.text.CyDmaChAlloc,"ax",%progbits
 541              		.align	2
 542              		.global	CyDmaChAlloc
 543              		.code	16
 544              		.thumb_func
 545              		.type	CyDmaChAlloc, %function
 546              	CyDmaChAlloc:
 547              	.LFB17:
 455:Generated_Source\PSoC4/CyDMA.c **** 
 456:Generated_Source\PSoC4/CyDMA.c **** 
ARM GAS  C:\Users\glenn\AppData\Local\Temp\ccjge9sh.s 			page 20


 457:Generated_Source\PSoC4/CyDMA.c **** /*******************************************************************************
 458:Generated_Source\PSoC4/CyDMA.c **** * Function Name: CyDmaChAlloc
 459:Generated_Source\PSoC4/CyDMA.c **** ********************************************************************************
 460:Generated_Source\PSoC4/CyDMA.c **** *
 461:Generated_Source\PSoC4/CyDMA.c **** * Summary:
 462:Generated_Source\PSoC4/CyDMA.c **** *  Allocates a channel number to use with later DMA functions.
 463:Generated_Source\PSoC4/CyDMA.c **** *
 464:Generated_Source\PSoC4/CyDMA.c **** * Parameters:
 465:Generated_Source\PSoC4/CyDMA.c **** *  None.
 466:Generated_Source\PSoC4/CyDMA.c **** *                   
 467:Generated_Source\PSoC4/CyDMA.c **** * Return:
 468:Generated_Source\PSoC4/CyDMA.c **** *  The allocated channel number. Zero is a valid channel number.
 469:Generated_Source\PSoC4/CyDMA.c **** *  CYDMA_INVALID_CHANNEL is returned if there are no channels available.
 470:Generated_Source\PSoC4/CyDMA.c **** *
 471:Generated_Source\PSoC4/CyDMA.c **** *******************************************************************************/
 472:Generated_Source\PSoC4/CyDMA.c **** int32 CyDmaChAlloc(void)
 473:Generated_Source\PSoC4/CyDMA.c **** {
 548              		.loc 1 473 0
 549              		.cfi_startproc
 550              	.LVL27:
 474:Generated_Source\PSoC4/CyDMA.c ****     int32  channel = CYDMA_CH_NR-1;
 475:Generated_Source\PSoC4/CyDMA.c ****     uint32 channelMask = (uint32)(1UL << (CYDMA_CH_NR-1));
 551              		.loc 1 475 0
 552 0000 8023     		mov	r3, #128
 474:Generated_Source\PSoC4/CyDMA.c ****     int32  channel = CYDMA_CH_NR-1;
 553              		.loc 1 474 0
 554 0002 0720     		mov	r0, #7
 555 0004 0549     		ldr	r1, .L63
 556 0006 4A68     		ldr	r2, [r1, #4]
 557              	.LVL28:
 558              	.L60:
 476:Generated_Source\PSoC4/CyDMA.c ****     
 477:Generated_Source\PSoC4/CyDMA.c ****     while (channel >= 0)
 478:Generated_Source\PSoC4/CyDMA.c ****     {
 479:Generated_Source\PSoC4/CyDMA.c ****         if(0u == (CyDmaChannelUsedMask & channelMask))
 559              		.loc 1 479 0
 560 0008 1A42     		tst	r2, r3
 561 000a 03D0     		beq	.L62
 480:Generated_Source\PSoC4/CyDMA.c ****         {
 481:Generated_Source\PSoC4/CyDMA.c ****             /* Mark channel as used and exit loop. */ 
 482:Generated_Source\PSoC4/CyDMA.c ****             CyDmaChannelUsedMask |= channelMask;
 483:Generated_Source\PSoC4/CyDMA.c ****             break;
 484:Generated_Source\PSoC4/CyDMA.c ****         }
 485:Generated_Source\PSoC4/CyDMA.c ****         channelMask >>= 1;
 562              		.loc 1 485 0
 563 000c 5B08     		lsr	r3, r3, #1
 564              	.LVL29:
 477:Generated_Source\PSoC4/CyDMA.c ****     {
 565              		.loc 1 477 0
 566 000e 0138     		sub	r0, r0, #1
 567 0010 FAD2     		bcs	.L60
 568              	.LVL30:
 569              	.L59:
 486:Generated_Source\PSoC4/CyDMA.c ****         --channel;
 487:Generated_Source\PSoC4/CyDMA.c ****     }
 488:Generated_Source\PSoC4/CyDMA.c ****     return (channel);
 489:Generated_Source\PSoC4/CyDMA.c **** }
ARM GAS  C:\Users\glenn\AppData\Local\Temp\ccjge9sh.s 			page 21


 570              		.loc 1 489 0
 571              		@ sp needed
 572 0012 7047     		bx	lr
 573              	.LVL31:
 574              	.L62:
 482:Generated_Source\PSoC4/CyDMA.c ****             break;
 575              		.loc 1 482 0
 576 0014 1343     		orr	r3, r2
 577              	.LVL32:
 578 0016 4B60     		str	r3, [r1, #4]
 483:Generated_Source\PSoC4/CyDMA.c ****         }
 579              		.loc 1 483 0
 580 0018 FBE7     		b	.L59
 581              	.L64:
 582 001a C046     		.align	2
 583              	.L63:
 584 001c 00000000 		.word	.LANCHOR1
 585              		.cfi_endproc
 586              	.LFE17:
 587              		.size	CyDmaChAlloc, .-CyDmaChAlloc
 588              		.section	.text.CyDmaChFree,"ax",%progbits
 589              		.align	2
 590              		.global	CyDmaChFree
 591              		.code	16
 592              		.thumb_func
 593              		.type	CyDmaChFree, %function
 594              	CyDmaChFree:
 595              	.LFB18:
 490:Generated_Source\PSoC4/CyDMA.c **** 
 491:Generated_Source\PSoC4/CyDMA.c **** 
 492:Generated_Source\PSoC4/CyDMA.c **** /*******************************************************************************
 493:Generated_Source\PSoC4/CyDMA.c **** * Function Name: CyDmaChFree
 494:Generated_Source\PSoC4/CyDMA.c **** ********************************************************************************
 495:Generated_Source\PSoC4/CyDMA.c **** *
 496:Generated_Source\PSoC4/CyDMA.c **** * Summary:
 497:Generated_Source\PSoC4/CyDMA.c **** *  Frees a channel handle allocated by CyDmaChAlloc(). Channels allocated for
 498:Generated_Source\PSoC4/CyDMA.c **** *  DMA instances placed on a schematic cannot be freed.
 499:Generated_Source\PSoC4/CyDMA.c **** *
 500:Generated_Source\PSoC4/CyDMA.c **** * Parameters:
 501:Generated_Source\PSoC4/CyDMA.c **** *  channel: The handle previously returned by CyDmaChAlloc().
 502:Generated_Source\PSoC4/CyDMA.c **** *                   
 503:Generated_Source\PSoC4/CyDMA.c **** * Return:
 504:Generated_Source\PSoC4/CyDMA.c **** *  CYRET_SUCCESS if successful.
 505:Generated_Source\PSoC4/CyDMA.c **** *  CYRET_BAD_PARAM if channel is invalid.
 506:Generated_Source\PSoC4/CyDMA.c **** *
 507:Generated_Source\PSoC4/CyDMA.c **** *******************************************************************************/
 508:Generated_Source\PSoC4/CyDMA.c **** cystatus CyDmaChFree(int32 channel)
 509:Generated_Source\PSoC4/CyDMA.c **** {
 596              		.loc 1 509 0
 597              		.cfi_startproc
 598              	.LVL33:
 599 0000 10B5     		push	{r4, lr}
 600              		.cfi_def_cfa_offset 8
 601              		.cfi_offset 4, -8
 602              		.cfi_offset 14, -4
 603              		.loc 1 509 0
 604 0002 041E     		sub	r4, r0, #0
ARM GAS  C:\Users\glenn\AppData\Local\Temp\ccjge9sh.s 			page 22


 510:Generated_Source\PSoC4/CyDMA.c ****     uint32   channelMask;
 511:Generated_Source\PSoC4/CyDMA.c ****     cystatus result = CYRET_BAD_PARAM;
 512:Generated_Source\PSoC4/CyDMA.c **** 
 513:Generated_Source\PSoC4/CyDMA.c ****     CYASSERT((channel >= 0) && (channel < CYDMA_CH_NR));
 605              		.loc 1 513 0
 606 0004 072C     		cmp	r4, #7
 607 0006 02D9     		bls	.L66
 608              		.loc 1 513 0 is_stmt 0 discriminator 1
 609 0008 0020     		mov	r0, #0
 610              	.LVL34:
 611 000a FFF7FEFF 		bl	CyHalt
 612              	.LVL35:
 613              	.L66:
 514:Generated_Source\PSoC4/CyDMA.c ****     
 515:Generated_Source\PSoC4/CyDMA.c ****     channelMask = (uint32)(1UL << channel);
 614              		.loc 1 515 0 is_stmt 1
 615 000e 0120     		mov	r0, #1
 616 0010 A040     		lsl	r0, r0, r4
 617              	.LVL36:
 516:Generated_Source\PSoC4/CyDMA.c **** 
 517:Generated_Source\PSoC4/CyDMA.c ****     /* Check against attempt to free channel allocated for DMA instance
 518:Generated_Source\PSoC4/CyDMA.c ****     * placed on schematic.
 519:Generated_Source\PSoC4/CyDMA.c ****     */
 520:Generated_Source\PSoC4/CyDMA.c ****     if(0u == (channelMask & DMA_CHANNELS_USED__MASK))
 521:Generated_Source\PSoC4/CyDMA.c ****     {
 522:Generated_Source\PSoC4/CyDMA.c ****         CyDmaChannelUsedMask &= (uint32)~channelMask;
 618              		.loc 1 522 0
 619 0012 034A     		ldr	r2, .L67
 523:Generated_Source\PSoC4/CyDMA.c ****         result = CYRET_SUCCESS;
 524:Generated_Source\PSoC4/CyDMA.c ****     }
 525:Generated_Source\PSoC4/CyDMA.c ****     
 526:Generated_Source\PSoC4/CyDMA.c ****     return (result);
 527:Generated_Source\PSoC4/CyDMA.c **** }
 620              		.loc 1 527 0
 621              		@ sp needed
 522:Generated_Source\PSoC4/CyDMA.c ****         result = CYRET_SUCCESS;
 622              		.loc 1 522 0
 623 0014 5368     		ldr	r3, [r2, #4]
 624 0016 8343     		bic	r3, r0
 625 0018 5360     		str	r3, [r2, #4]
 626              	.LVL37:
 627              		.loc 1 527 0
 628 001a 0020     		mov	r0, #0
 629              	.LVL38:
 630              	.LVL39:
 631 001c 10BD     		pop	{r4, pc}
 632              	.L68:
 633 001e C046     		.align	2
 634              	.L67:
 635 0020 00000000 		.word	.LANCHOR1
 636              		.cfi_endproc
 637              	.LFE18:
 638              		.size	CyDmaChFree, .-CyDmaChFree
 639              		.section	.text.CyDmaChEnable,"ax",%progbits
 640              		.align	2
 641              		.global	CyDmaChEnable
 642              		.code	16
ARM GAS  C:\Users\glenn\AppData\Local\Temp\ccjge9sh.s 			page 23


 643              		.thumb_func
 644              		.type	CyDmaChEnable, %function
 645              	CyDmaChEnable:
 646              	.LFB19:
 528:Generated_Source\PSoC4/CyDMA.c **** 
 529:Generated_Source\PSoC4/CyDMA.c **** 
 530:Generated_Source\PSoC4/CyDMA.c **** /*******************************************************************************
 531:Generated_Source\PSoC4/CyDMA.c **** * Function Name: CyDmaChEnable
 532:Generated_Source\PSoC4/CyDMA.c **** ********************************************************************************
 533:Generated_Source\PSoC4/CyDMA.c **** *
 534:Generated_Source\PSoC4/CyDMA.c **** * Summary:
 535:Generated_Source\PSoC4/CyDMA.c **** *  Enables the DMA channel.
 536:Generated_Source\PSoC4/CyDMA.c **** *
 537:Generated_Source\PSoC4/CyDMA.c **** * Parameters:
 538:Generated_Source\PSoC4/CyDMA.c **** *  channel: Channel used by this function.
 539:Generated_Source\PSoC4/CyDMA.c **** *                   
 540:Generated_Source\PSoC4/CyDMA.c **** * Return:
 541:Generated_Source\PSoC4/CyDMA.c **** *  None.
 542:Generated_Source\PSoC4/CyDMA.c **** *
 543:Generated_Source\PSoC4/CyDMA.c **** * Side effect:
 544:Generated_Source\PSoC4/CyDMA.c **** *  If this function is called before CyDmaSetConfiguration(), and
 545:Generated_Source\PSoC4/CyDMA.c **** *  CyDmaSetSrcAddress() and CyDmaSetDstAddress(), the operation of
 546:Generated_Source\PSoC4/CyDMA.c **** *  the DMA is undefined and could result in system data corruption. 
 547:Generated_Source\PSoC4/CyDMA.c **** *
 548:Generated_Source\PSoC4/CyDMA.c **** *******************************************************************************/
 549:Generated_Source\PSoC4/CyDMA.c **** void CyDmaChEnable(int32 channel)
 550:Generated_Source\PSoC4/CyDMA.c **** {
 647              		.loc 1 550 0
 648              		.cfi_startproc
 649              	.LVL40:
 650 0000 10B5     		push	{r4, lr}
 651              		.cfi_def_cfa_offset 8
 652              		.cfi_offset 4, -8
 653              		.cfi_offset 14, -4
 654              		.loc 1 550 0
 655 0002 041E     		sub	r4, r0, #0
 551:Generated_Source\PSoC4/CyDMA.c ****     CYASSERT((channel >= 0) && (channel < CYDMA_CH_NR));
 656              		.loc 1 551 0
 657 0004 072C     		cmp	r4, #7
 658 0006 02D9     		bls	.L70
 659              		.loc 1 551 0 is_stmt 0 discriminator 1
 660 0008 0020     		mov	r0, #0
 661              	.LVL41:
 662 000a FFF7FEFF 		bl	CyHalt
 663              	.LVL42:
 664              	.L70:
 665 000e 054B     		ldr	r3, .L71
 552:Generated_Source\PSoC4/CyDMA.c **** 
 553:Generated_Source\PSoC4/CyDMA.c ****     CYDMA_CH_CTL_BASE.ctl[channel] |= CYDMA_ENABLED;
 666              		.loc 1 553 0 is_stmt 1
 667 0010 8022     		mov	r2, #128
 668 0012 9C46     		mov	ip, r3
 669 0014 A400     		lsl	r4, r4, #2
 670              	.LVL43:
 671 0016 6444     		add	r4, r4, ip
 672 0018 2368     		ldr	r3, [r4]
 673 001a 1206     		lsl	r2, r2, #24
ARM GAS  C:\Users\glenn\AppData\Local\Temp\ccjge9sh.s 			page 24


 674 001c 1343     		orr	r3, r2
 675 001e 2360     		str	r3, [r4]
 554:Generated_Source\PSoC4/CyDMA.c **** }
 676              		.loc 1 554 0
 677              		@ sp needed
 678 0020 10BD     		pop	{r4, pc}
 679              	.L72:
 680 0022 C046     		.align	2
 681              	.L71:
 682 0024 80101040 		.word	1074794624
 683              		.cfi_endproc
 684              	.LFE19:
 685              		.size	CyDmaChEnable, .-CyDmaChEnable
 686              		.section	.text.CyDmaChDisable,"ax",%progbits
 687              		.align	2
 688              		.global	CyDmaChDisable
 689              		.code	16
 690              		.thumb_func
 691              		.type	CyDmaChDisable, %function
 692              	CyDmaChDisable:
 693              	.LFB20:
 555:Generated_Source\PSoC4/CyDMA.c **** 
 556:Generated_Source\PSoC4/CyDMA.c **** 
 557:Generated_Source\PSoC4/CyDMA.c **** /*******************************************************************************
 558:Generated_Source\PSoC4/CyDMA.c **** * Function Name: CyDmaChDisable
 559:Generated_Source\PSoC4/CyDMA.c **** ********************************************************************************
 560:Generated_Source\PSoC4/CyDMA.c **** *
 561:Generated_Source\PSoC4/CyDMA.c **** * Summary:
 562:Generated_Source\PSoC4/CyDMA.c **** *  Disables the DMA channel.
 563:Generated_Source\PSoC4/CyDMA.c **** *
 564:Generated_Source\PSoC4/CyDMA.c **** * Parameters:
 565:Generated_Source\PSoC4/CyDMA.c **** *  channel: Channel used by this function.
 566:Generated_Source\PSoC4/CyDMA.c **** *                   
 567:Generated_Source\PSoC4/CyDMA.c **** * Return:
 568:Generated_Source\PSoC4/CyDMA.c **** *  None.
 569:Generated_Source\PSoC4/CyDMA.c **** *
 570:Generated_Source\PSoC4/CyDMA.c **** * Side effect:
 571:Generated_Source\PSoC4/CyDMA.c **** *  If this function is called during a DMA transfer the transfer is aborted. 
 572:Generated_Source\PSoC4/CyDMA.c **** *
 573:Generated_Source\PSoC4/CyDMA.c **** *******************************************************************************/
 574:Generated_Source\PSoC4/CyDMA.c **** void CyDmaChDisable(int32 channel)
 575:Generated_Source\PSoC4/CyDMA.c **** {
 694              		.loc 1 575 0
 695              		.cfi_startproc
 696              	.LVL44:
 697 0000 10B5     		push	{r4, lr}
 698              		.cfi_def_cfa_offset 8
 699              		.cfi_offset 4, -8
 700              		.cfi_offset 14, -4
 701              		.loc 1 575 0
 702 0002 041E     		sub	r4, r0, #0
 576:Generated_Source\PSoC4/CyDMA.c ****     CYASSERT((channel >= 0) && (channel < CYDMA_CH_NR));
 703              		.loc 1 576 0
 704 0004 072C     		cmp	r4, #7
 705 0006 02D9     		bls	.L74
 706              		.loc 1 576 0 is_stmt 0 discriminator 1
 707 0008 0020     		mov	r0, #0
ARM GAS  C:\Users\glenn\AppData\Local\Temp\ccjge9sh.s 			page 25


 708              	.LVL45:
 709 000a FFF7FEFF 		bl	CyHalt
 710              	.LVL46:
 711              	.L74:
 712 000e 044B     		ldr	r3, .L75
 713 0010 A400     		lsl	r4, r4, #2
 714              	.LVL47:
 715 0012 9C46     		mov	ip, r3
 716 0014 6444     		add	r4, r4, ip
 577:Generated_Source\PSoC4/CyDMA.c **** 
 578:Generated_Source\PSoC4/CyDMA.c ****     CYDMA_CH_CTL_BASE.ctl[channel] &= (uint32)~CYDMA_ENABLED;
 717              		.loc 1 578 0 is_stmt 1
 718 0016 2368     		ldr	r3, [r4]
 579:Generated_Source\PSoC4/CyDMA.c **** }
 719              		.loc 1 579 0
 720              		@ sp needed
 578:Generated_Source\PSoC4/CyDMA.c **** }
 721              		.loc 1 578 0
 722 0018 5B00     		lsl	r3, r3, #1
 723 001a 5B08     		lsr	r3, r3, #1
 724 001c 2360     		str	r3, [r4]
 725              		.loc 1 579 0
 726 001e 10BD     		pop	{r4, pc}
 727              	.L76:
 728              		.align	2
 729              	.L75:
 730 0020 80101040 		.word	1074794624
 731              		.cfi_endproc
 732              	.LFE20:
 733              		.size	CyDmaChDisable, .-CyDmaChDisable
 734              		.section	.text.CyDmaTrigger,"ax",%progbits
 735              		.align	2
 736              		.global	CyDmaTrigger
 737              		.code	16
 738              		.thumb_func
 739              		.type	CyDmaTrigger, %function
 740              	CyDmaTrigger:
 741              	.LFB21:
 580:Generated_Source\PSoC4/CyDMA.c **** 
 581:Generated_Source\PSoC4/CyDMA.c **** 
 582:Generated_Source\PSoC4/CyDMA.c **** /*******************************************************************************
 583:Generated_Source\PSoC4/CyDMA.c **** * Function Name: CyDmaTrigger
 584:Generated_Source\PSoC4/CyDMA.c **** ********************************************************************************
 585:Generated_Source\PSoC4/CyDMA.c **** *
 586:Generated_Source\PSoC4/CyDMA.c **** * Summary:
 587:Generated_Source\PSoC4/CyDMA.c **** *  Triggers the DMA channel, this is useful only for software triggers. This is
 588:Generated_Source\PSoC4/CyDMA.c **** *  not needed when hardware triggers are used.
 589:Generated_Source\PSoC4/CyDMA.c **** *
 590:Generated_Source\PSoC4/CyDMA.c **** * Parameters:
 591:Generated_Source\PSoC4/CyDMA.c **** *  channel: Channel used by this function.
 592:Generated_Source\PSoC4/CyDMA.c **** *                   
 593:Generated_Source\PSoC4/CyDMA.c **** * Return:
 594:Generated_Source\PSoC4/CyDMA.c **** *  None. 
 595:Generated_Source\PSoC4/CyDMA.c **** *
 596:Generated_Source\PSoC4/CyDMA.c **** *******************************************************************************/
 597:Generated_Source\PSoC4/CyDMA.c **** void CyDmaTrigger(int32 channel)
 598:Generated_Source\PSoC4/CyDMA.c **** {
ARM GAS  C:\Users\glenn\AppData\Local\Temp\ccjge9sh.s 			page 26


 742              		.loc 1 598 0
 743              		.cfi_startproc
 744              	.LVL48:
 745 0000 10B5     		push	{r4, lr}
 746              		.cfi_def_cfa_offset 8
 747              		.cfi_offset 4, -8
 748              		.cfi_offset 14, -4
 749              		.loc 1 598 0
 750 0002 041E     		sub	r4, r0, #0
 599:Generated_Source\PSoC4/CyDMA.c ****     /* The LUT is device-dependent, thus it is generated during the build process. */
 600:Generated_Source\PSoC4/CyDMA.c ****     static const uint32 trCtlLut[] = {0xC0020000U};
 601:Generated_Source\PSoC4/CyDMA.c **** 
 602:Generated_Source\PSoC4/CyDMA.c ****     CYASSERT((channel >= 0) && (channel < CYDMA_CH_NR));
 751              		.loc 1 602 0
 752 0004 072C     		cmp	r4, #7
 753 0006 02D9     		bls	.L78
 754              		.loc 1 602 0 is_stmt 0 discriminator 1
 755 0008 0020     		mov	r0, #0
 756              	.LVL49:
 757 000a FFF7FEFF 		bl	CyHalt
 758              	.LVL50:
 759              	.L78:
 603:Generated_Source\PSoC4/CyDMA.c **** 
 604:Generated_Source\PSoC4/CyDMA.c ****     CYDMA_TR_CTL_REG = trCtlLut[(uint32)channel >> CYDMA_TR_GROUP_SHR] | ((uint32)channel & CYDMA_T
 760              		.loc 1 604 0 is_stmt 1
 761 000e 0723     		mov	r3, #7
 762 0010 1C40     		and	r4, r3
 763              	.LVL51:
 764 0012 024B     		ldr	r3, .L79
 605:Generated_Source\PSoC4/CyDMA.c **** }
 765              		.loc 1 605 0
 766              		@ sp needed
 604:Generated_Source\PSoC4/CyDMA.c **** }
 767              		.loc 1 604 0
 768 0014 1C43     		orr	r4, r3
 769 0016 024B     		ldr	r3, .L79+4
 770 0018 1C60     		str	r4, [r3]
 771              		.loc 1 605 0
 772 001a 10BD     		pop	{r4, pc}
 773              	.L80:
 774              		.align	2
 775              	.L79:
 776 001c 000002C0 		.word	-1073610752
 777 0020 00060140 		.word	1073808896
 778              		.cfi_endproc
 779              	.LFE21:
 780              		.size	CyDmaTrigger, .-CyDmaTrigger
 781              		.section	.text.CyDmaSetPriority,"ax",%progbits
 782              		.align	2
 783              		.global	CyDmaSetPriority
 784              		.code	16
 785              		.thumb_func
 786              		.type	CyDmaSetPriority, %function
 787              	CyDmaSetPriority:
 788              	.LFB22:
 606:Generated_Source\PSoC4/CyDMA.c **** 
 607:Generated_Source\PSoC4/CyDMA.c **** 
ARM GAS  C:\Users\glenn\AppData\Local\Temp\ccjge9sh.s 			page 27


 608:Generated_Source\PSoC4/CyDMA.c **** /*******************************************************************************
 609:Generated_Source\PSoC4/CyDMA.c **** * Function Name: CyDmaSetPriority
 610:Generated_Source\PSoC4/CyDMA.c **** ********************************************************************************
 611:Generated_Source\PSoC4/CyDMA.c **** *
 612:Generated_Source\PSoC4/CyDMA.c **** * Summary:
 613:Generated_Source\PSoC4/CyDMA.c **** *  Sets the priority for the channel.
 614:Generated_Source\PSoC4/CyDMA.c **** *
 615:Generated_Source\PSoC4/CyDMA.c **** * Parameters:
 616:Generated_Source\PSoC4/CyDMA.c **** *  channel:  Channel used by this function
 617:Generated_Source\PSoC4/CyDMA.c **** *  priority: Priority for channel. Priority can be 0,1,2, or 3.
 618:Generated_Source\PSoC4/CyDMA.c **** *            0 is the highest priority.
 619:Generated_Source\PSoC4/CyDMA.c **** *                   
 620:Generated_Source\PSoC4/CyDMA.c **** * Return:
 621:Generated_Source\PSoC4/CyDMA.c **** *  None.
 622:Generated_Source\PSoC4/CyDMA.c **** *
 623:Generated_Source\PSoC4/CyDMA.c **** * Side effect:
 624:Generated_Source\PSoC4/CyDMA.c **** *  This function should not be called while the channel is enabled.
 625:Generated_Source\PSoC4/CyDMA.c **** *
 626:Generated_Source\PSoC4/CyDMA.c **** *******************************************************************************/
 627:Generated_Source\PSoC4/CyDMA.c **** void CyDmaSetPriority(int32 channel, int32 priority)
 628:Generated_Source\PSoC4/CyDMA.c **** {
 789              		.loc 1 628 0
 790              		.cfi_startproc
 791              	.LVL52:
 792 0000 38B5     		push	{r3, r4, r5, lr}
 793              		.cfi_def_cfa_offset 16
 794              		.cfi_offset 3, -16
 795              		.cfi_offset 4, -12
 796              		.cfi_offset 5, -8
 797              		.cfi_offset 14, -4
 798              		.loc 1 628 0
 799 0002 041C     		mov	r4, r0
 800 0004 0D1C     		mov	r5, r1
 629:Generated_Source\PSoC4/CyDMA.c ****     uint32 regValue;
 630:Generated_Source\PSoC4/CyDMA.c **** 
 631:Generated_Source\PSoC4/CyDMA.c ****     CYASSERT((channel  >= 0) && (channel  <  CYDMA_CH_NR));
 801              		.loc 1 631 0
 802 0006 0728     		cmp	r0, #7
 803 0008 0FD8     		bhi	.L84
 804              	.LVL53:
 805              	.L82:
 632:Generated_Source\PSoC4/CyDMA.c ****     CYASSERT((priority >= 0) && (priority <= CY_DMA_MAX_PRIO));
 806              		.loc 1 632 0
 807 000a 032D     		cmp	r5, #3
 808 000c 02D9     		bls	.L83
 809              		.loc 1 632 0 is_stmt 0 discriminator 1
 810 000e 0020     		mov	r0, #0
 811 0010 FFF7FEFF 		bl	CyHalt
 812              	.LVL54:
 813              	.L83:
 814 0014 074B     		ldr	r3, .L85
 815 0016 A400     		lsl	r4, r4, #2
 816              	.LVL55:
 817 0018 9C46     		mov	ip, r3
 818 001a 6444     		add	r4, r4, ip
 633:Generated_Source\PSoC4/CyDMA.c **** 
 634:Generated_Source\PSoC4/CyDMA.c ****     regValue = CYDMA_CH_CTL_BASE.ctl[channel] & (uint32)~CYDMA_PRIO;
ARM GAS  C:\Users\glenn\AppData\Local\Temp\ccjge9sh.s 			page 28


 819              		.loc 1 634 0 is_stmt 1
 820 001c 2268     		ldr	r2, [r4]
 821              	.LVL56:
 822 001e 064B     		ldr	r3, .L85+4
 635:Generated_Source\PSoC4/CyDMA.c ****     CYDMA_CH_CTL_BASE.ctl[channel] = regValue | (uint32)((uint32)priority << CYDMA_PRIO_POS);
 823              		.loc 1 635 0
 824 0020 2D07     		lsl	r5, r5, #28
 825              	.LVL57:
 634:Generated_Source\PSoC4/CyDMA.c ****     CYDMA_CH_CTL_BASE.ctl[channel] = regValue | (uint32)((uint32)priority << CYDMA_PRIO_POS);
 826              		.loc 1 634 0
 827 0022 1340     		and	r3, r2
 828              	.LVL58:
 829              		.loc 1 635 0
 830 0024 1D43     		orr	r5, r3
 831 0026 2560     		str	r5, [r4]
 636:Generated_Source\PSoC4/CyDMA.c **** }
 832              		.loc 1 636 0
 833              		@ sp needed
 834 0028 38BD     		pop	{r3, r4, r5, pc}
 835              	.LVL59:
 836              	.L84:
 631:Generated_Source\PSoC4/CyDMA.c ****     CYASSERT((priority >= 0) && (priority <= CY_DMA_MAX_PRIO));
 837              		.loc 1 631 0 discriminator 1
 838 002a 0020     		mov	r0, #0
 839              	.LVL60:
 840 002c FFF7FEFF 		bl	CyHalt
 841              	.LVL61:
 842 0030 EBE7     		b	.L82
 843              	.L86:
 844 0032 C046     		.align	2
 845              	.L85:
 846 0034 80101040 		.word	1074794624
 847 0038 FFFFFFCF 		.word	-805306369
 848              		.cfi_endproc
 849              	.LFE22:
 850              		.size	CyDmaSetPriority, .-CyDmaSetPriority
 851              		.section	.text.CyDmaGetPriority,"ax",%progbits
 852              		.align	2
 853              		.global	CyDmaGetPriority
 854              		.code	16
 855              		.thumb_func
 856              		.type	CyDmaGetPriority, %function
 857              	CyDmaGetPriority:
 858              	.LFB23:
 637:Generated_Source\PSoC4/CyDMA.c **** 
 638:Generated_Source\PSoC4/CyDMA.c **** 
 639:Generated_Source\PSoC4/CyDMA.c **** /*******************************************************************************
 640:Generated_Source\PSoC4/CyDMA.c **** * Function Name: CyDmaGetPriority
 641:Generated_Source\PSoC4/CyDMA.c **** ********************************************************************************
 642:Generated_Source\PSoC4/CyDMA.c **** *
 643:Generated_Source\PSoC4/CyDMA.c **** * Summary:
 644:Generated_Source\PSoC4/CyDMA.c **** *  Gets the priority for the channel.
 645:Generated_Source\PSoC4/CyDMA.c **** *
 646:Generated_Source\PSoC4/CyDMA.c **** * Parameters:
 647:Generated_Source\PSoC4/CyDMA.c **** *  channel: Channel used by this function.
 648:Generated_Source\PSoC4/CyDMA.c **** *                   
 649:Generated_Source\PSoC4/CyDMA.c **** * Return:
ARM GAS  C:\Users\glenn\AppData\Local\Temp\ccjge9sh.s 			page 29


 650:Generated_Source\PSoC4/CyDMA.c **** *  Priority for channel. Priority can be 0,1,2, or 3. 0 is the highest priority.
 651:Generated_Source\PSoC4/CyDMA.c **** *
 652:Generated_Source\PSoC4/CyDMA.c **** *******************************************************************************/
 653:Generated_Source\PSoC4/CyDMA.c **** int32 CyDmaGetPriority(int32 channel)
 654:Generated_Source\PSoC4/CyDMA.c **** {
 859              		.loc 1 654 0
 860              		.cfi_startproc
 861              	.LVL62:
 862 0000 10B5     		push	{r4, lr}
 863              		.cfi_def_cfa_offset 8
 864              		.cfi_offset 4, -8
 865              		.cfi_offset 14, -4
 866              		.loc 1 654 0
 867 0002 041E     		sub	r4, r0, #0
 655:Generated_Source\PSoC4/CyDMA.c ****     uint32 priority;
 656:Generated_Source\PSoC4/CyDMA.c **** 
 657:Generated_Source\PSoC4/CyDMA.c ****     CYASSERT((channel >= 0) && (channel < CYDMA_CH_NR));
 868              		.loc 1 657 0
 869 0004 072C     		cmp	r4, #7
 870 0006 02D9     		bls	.L88
 871              		.loc 1 657 0 is_stmt 0 discriminator 1
 872 0008 0020     		mov	r0, #0
 873              	.LVL63:
 874 000a FFF7FEFF 		bl	CyHalt
 875              	.LVL64:
 876              	.L88:
 658:Generated_Source\PSoC4/CyDMA.c **** 
 659:Generated_Source\PSoC4/CyDMA.c ****     priority = (CYDMA_CH_CTL_BASE.ctl[channel] & CYDMA_PRIO) >> CYDMA_PRIO_POS;
 877              		.loc 1 659 0 is_stmt 1
 878 000e 034B     		ldr	r3, .L89
 879 0010 A400     		lsl	r4, r4, #2
 880              	.LVL65:
 881 0012 E058     		ldr	r0, [r4, r3]
 882              	.LVL66:
 660:Generated_Source\PSoC4/CyDMA.c ****     return ((int32)priority);
 661:Generated_Source\PSoC4/CyDMA.c **** }
 883              		.loc 1 661 0
 884              		@ sp needed
 659:Generated_Source\PSoC4/CyDMA.c ****     return ((int32)priority);
 885              		.loc 1 659 0
 886 0014 8000     		lsl	r0, r0, #2
 887              	.LVL67:
 888 0016 800F     		lsr	r0, r0, #30
 889              		.loc 1 661 0
 890 0018 10BD     		pop	{r4, pc}
 891              	.L90:
 892 001a C046     		.align	2
 893              	.L89:
 894 001c 80101040 		.word	1074794624
 895              		.cfi_endproc
 896              	.LFE23:
 897              		.size	CyDmaGetPriority, .-CyDmaGetPriority
 898              		.section	.text.CyDmaSetNextDescriptor,"ax",%progbits
 899              		.align	2
 900              		.global	CyDmaSetNextDescriptor
 901              		.code	16
 902              		.thumb_func
ARM GAS  C:\Users\glenn\AppData\Local\Temp\ccjge9sh.s 			page 30


 903              		.type	CyDmaSetNextDescriptor, %function
 904              	CyDmaSetNextDescriptor:
 905              	.LFB24:
 662:Generated_Source\PSoC4/CyDMA.c **** 
 663:Generated_Source\PSoC4/CyDMA.c **** 
 664:Generated_Source\PSoC4/CyDMA.c **** /*******************************************************************************
 665:Generated_Source\PSoC4/CyDMA.c **** * Function Name: CyDmaSetNextDescriptor
 666:Generated_Source\PSoC4/CyDMA.c **** ********************************************************************************
 667:Generated_Source\PSoC4/CyDMA.c **** *
 668:Generated_Source\PSoC4/CyDMA.c **** * Summary:
 669:Generated_Source\PSoC4/CyDMA.c **** *  Sets the descriptor that should be run the next time the channel is
 670:Generated_Source\PSoC4/CyDMA.c **** *  triggered.
 671:Generated_Source\PSoC4/CyDMA.c **** *
 672:Generated_Source\PSoC4/CyDMA.c **** * Parameters:
 673:Generated_Source\PSoC4/CyDMA.c **** *  channel:    Channel used by this function.
 674:Generated_Source\PSoC4/CyDMA.c **** *  descriptor: Next Descriptor to run (0 or 1).
 675:Generated_Source\PSoC4/CyDMA.c **** *
 676:Generated_Source\PSoC4/CyDMA.c **** * Return:
 677:Generated_Source\PSoC4/CyDMA.c **** *  None.
 678:Generated_Source\PSoC4/CyDMA.c **** *                   
 679:Generated_Source\PSoC4/CyDMA.c **** * Side effect:
 680:Generated_Source\PSoC4/CyDMA.c **** *  This function should not be called while the channel is enabled.
 681:Generated_Source\PSoC4/CyDMA.c **** *
 682:Generated_Source\PSoC4/CyDMA.c **** *******************************************************************************/
 683:Generated_Source\PSoC4/CyDMA.c **** void CyDmaSetNextDescriptor(int32 channel, int32 descriptor)
 684:Generated_Source\PSoC4/CyDMA.c **** {
 906              		.loc 1 684 0
 907              		.cfi_startproc
 908              	.LVL68:
 909 0000 38B5     		push	{r3, r4, r5, lr}
 910              		.cfi_def_cfa_offset 16
 911              		.cfi_offset 3, -16
 912              		.cfi_offset 4, -12
 913              		.cfi_offset 5, -8
 914              		.cfi_offset 14, -4
 915              		.loc 1 684 0
 916 0002 041C     		mov	r4, r0
 917 0004 0D1C     		mov	r5, r1
 685:Generated_Source\PSoC4/CyDMA.c ****     uint32 regValue;
 686:Generated_Source\PSoC4/CyDMA.c **** 
 687:Generated_Source\PSoC4/CyDMA.c ****     CYASSERT((channel    >= 0) && (channel    < CYDMA_CH_NR));
 918              		.loc 1 687 0
 919 0006 0728     		cmp	r0, #7
 920 0008 0FD8     		bhi	.L94
 921              	.LVL69:
 922              	.L92:
 688:Generated_Source\PSoC4/CyDMA.c ****     CYASSERT((descriptor >= 0) && (descriptor < CYDMA_DESCR_NR));
 923              		.loc 1 688 0
 924 000a 012D     		cmp	r5, #1
 925 000c 02D9     		bls	.L93
 926              		.loc 1 688 0 is_stmt 0 discriminator 1
 927 000e 0020     		mov	r0, #0
 928 0010 FFF7FEFF 		bl	CyHalt
 929              	.LVL70:
 930              	.L93:
 931 0014 074B     		ldr	r3, .L95
 932 0016 A400     		lsl	r4, r4, #2
ARM GAS  C:\Users\glenn\AppData\Local\Temp\ccjge9sh.s 			page 31


 933              	.LVL71:
 934 0018 9C46     		mov	ip, r3
 935 001a 6444     		add	r4, r4, ip
 689:Generated_Source\PSoC4/CyDMA.c **** 
 690:Generated_Source\PSoC4/CyDMA.c ****     regValue = CYDMA_CH_CTL_BASE.ctl[channel] & (uint32)~CYDMA_DESCRIPTOR;
 936              		.loc 1 690 0 is_stmt 1
 937 001c 2268     		ldr	r2, [r4]
 938              	.LVL72:
 939 001e 064B     		ldr	r3, .L95+4
 691:Generated_Source\PSoC4/CyDMA.c ****     CYDMA_CH_CTL_BASE.ctl[channel] = regValue | (uint32)((uint32)descriptor << CYDMA_DESCRIPTOR_POS
 940              		.loc 1 691 0
 941 0020 AD07     		lsl	r5, r5, #30
 942              	.LVL73:
 690:Generated_Source\PSoC4/CyDMA.c ****     CYDMA_CH_CTL_BASE.ctl[channel] = regValue | (uint32)((uint32)descriptor << CYDMA_DESCRIPTOR_POS
 943              		.loc 1 690 0
 944 0022 1340     		and	r3, r2
 945              	.LVL74:
 946              		.loc 1 691 0
 947 0024 1D43     		orr	r5, r3
 948 0026 2560     		str	r5, [r4]
 692:Generated_Source\PSoC4/CyDMA.c **** }
 949              		.loc 1 692 0
 950              		@ sp needed
 951 0028 38BD     		pop	{r3, r4, r5, pc}
 952              	.LVL75:
 953              	.L94:
 687:Generated_Source\PSoC4/CyDMA.c ****     CYASSERT((descriptor >= 0) && (descriptor < CYDMA_DESCR_NR));
 954              		.loc 1 687 0 discriminator 1
 955 002a 0020     		mov	r0, #0
 956              	.LVL76:
 957 002c FFF7FEFF 		bl	CyHalt
 958              	.LVL77:
 959 0030 EBE7     		b	.L92
 960              	.L96:
 961 0032 C046     		.align	2
 962              	.L95:
 963 0034 80101040 		.word	1074794624
 964 0038 FFFFFFBF 		.word	-1073741825
 965              		.cfi_endproc
 966              	.LFE24:
 967              		.size	CyDmaSetNextDescriptor, .-CyDmaSetNextDescriptor
 968              		.section	.text.CyDmaGetNextDescriptor,"ax",%progbits
 969              		.align	2
 970              		.global	CyDmaGetNextDescriptor
 971              		.code	16
 972              		.thumb_func
 973              		.type	CyDmaGetNextDescriptor, %function
 974              	CyDmaGetNextDescriptor:
 975              	.LFB25:
 693:Generated_Source\PSoC4/CyDMA.c **** 
 694:Generated_Source\PSoC4/CyDMA.c **** 
 695:Generated_Source\PSoC4/CyDMA.c **** /*******************************************************************************
 696:Generated_Source\PSoC4/CyDMA.c **** * Function Name: CyDmaGetNextDescriptor
 697:Generated_Source\PSoC4/CyDMA.c **** ********************************************************************************
 698:Generated_Source\PSoC4/CyDMA.c **** *
 699:Generated_Source\PSoC4/CyDMA.c **** * Summary:
 700:Generated_Source\PSoC4/CyDMA.c **** *  Returns the next descriptor that should be run, as set by 
ARM GAS  C:\Users\glenn\AppData\Local\Temp\ccjge9sh.s 			page 32


 701:Generated_Source\PSoC4/CyDMA.c **** *  CyDmaSetNextDescriptor().
 702:Generated_Source\PSoC4/CyDMA.c **** *
 703:Generated_Source\PSoC4/CyDMA.c **** * Parameters:
 704:Generated_Source\PSoC4/CyDMA.c **** *  channel: channel used by this function.
 705:Generated_Source\PSoC4/CyDMA.c **** *                   
 706:Generated_Source\PSoC4/CyDMA.c **** * Return:
 707:Generated_Source\PSoC4/CyDMA.c **** *  Next Descriptor to run (0 or 1).
 708:Generated_Source\PSoC4/CyDMA.c **** *
 709:Generated_Source\PSoC4/CyDMA.c **** *******************************************************************************/
 710:Generated_Source\PSoC4/CyDMA.c **** int32 CyDmaGetNextDescriptor(int32 channel)
 711:Generated_Source\PSoC4/CyDMA.c **** {
 976              		.loc 1 711 0
 977              		.cfi_startproc
 978              	.LVL78:
 979 0000 10B5     		push	{r4, lr}
 980              		.cfi_def_cfa_offset 8
 981              		.cfi_offset 4, -8
 982              		.cfi_offset 14, -4
 983              		.loc 1 711 0
 984 0002 041E     		sub	r4, r0, #0
 712:Generated_Source\PSoC4/CyDMA.c ****     uint32 nextDescriptor;
 713:Generated_Source\PSoC4/CyDMA.c **** 
 714:Generated_Source\PSoC4/CyDMA.c ****     CYASSERT((channel >= 0) && (channel < CYDMA_CH_NR));
 985              		.loc 1 714 0
 986 0004 072C     		cmp	r4, #7
 987 0006 02D9     		bls	.L98
 988              		.loc 1 714 0 is_stmt 0 discriminator 1
 989 0008 0020     		mov	r0, #0
 990              	.LVL79:
 991 000a FFF7FEFF 		bl	CyHalt
 992              	.LVL80:
 993              	.L98:
 715:Generated_Source\PSoC4/CyDMA.c **** 
 716:Generated_Source\PSoC4/CyDMA.c ****     nextDescriptor = (CYDMA_CH_CTL_BASE.ctl[channel] & CYDMA_DESCRIPTOR) >> CYDMA_DESCRIPTOR_POS;
 994              		.loc 1 716 0 is_stmt 1
 995 000e 034B     		ldr	r3, .L99
 996 0010 A400     		lsl	r4, r4, #2
 997              	.LVL81:
 998 0012 E058     		ldr	r0, [r4, r3]
 999              	.LVL82:
 717:Generated_Source\PSoC4/CyDMA.c ****     return ((int32)nextDescriptor);
 718:Generated_Source\PSoC4/CyDMA.c **** }
 1000              		.loc 1 718 0
 1001              		@ sp needed
 716:Generated_Source\PSoC4/CyDMA.c ****     return ((int32)nextDescriptor);
 1002              		.loc 1 716 0
 1003 0014 4000     		lsl	r0, r0, #1
 1004              	.LVL83:
 1005 0016 C00F     		lsr	r0, r0, #31
 1006              		.loc 1 718 0
 1007 0018 10BD     		pop	{r4, pc}
 1008              	.L100:
 1009 001a C046     		.align	2
 1010              	.L99:
 1011 001c 80101040 		.word	1074794624
 1012              		.cfi_endproc
 1013              	.LFE25:
ARM GAS  C:\Users\glenn\AppData\Local\Temp\ccjge9sh.s 			page 33


 1014              		.size	CyDmaGetNextDescriptor, .-CyDmaGetNextDescriptor
 1015              		.section	.text.CyDmaSetConfiguration,"ax",%progbits
 1016              		.align	2
 1017              		.global	CyDmaSetConfiguration
 1018              		.code	16
 1019              		.thumb_func
 1020              		.type	CyDmaSetConfiguration, %function
 1021              	CyDmaSetConfiguration:
 1022              	.LFB26:
 719:Generated_Source\PSoC4/CyDMA.c **** 
 720:Generated_Source\PSoC4/CyDMA.c **** 
 721:Generated_Source\PSoC4/CyDMA.c **** /*******************************************************************************
 722:Generated_Source\PSoC4/CyDMA.c **** * Function Name: CyDmaSetConfiguration
 723:Generated_Source\PSoC4/CyDMA.c **** ********************************************************************************
 724:Generated_Source\PSoC4/CyDMA.c **** *
 725:Generated_Source\PSoC4/CyDMA.c **** * Summary:
 726:Generated_Source\PSoC4/CyDMA.c **** *  Sets configuration information for the specified descriptor.
 727:Generated_Source\PSoC4/CyDMA.c **** *
 728:Generated_Source\PSoC4/CyDMA.c **** * Parameters:
 729:Generated_Source\PSoC4/CyDMA.c **** *  channel:    DMA channel modified by this function.
 730:Generated_Source\PSoC4/CyDMA.c **** *  descriptor: Descriptor (0 or 1) modified by this function.
 731:Generated_Source\PSoC4/CyDMA.c **** *  config:     Pointer to a configuration structure. Refer to cydma_init_struct
 732:Generated_Source\PSoC4/CyDMA.c **** *              structure definition in CyDMA_P4.h and/or DMA channel datasheet
 733:Generated_Source\PSoC4/CyDMA.c **** *              for more information.
 734:Generated_Source\PSoC4/CyDMA.c **** *                   
 735:Generated_Source\PSoC4/CyDMA.c **** * Return:
 736:Generated_Source\PSoC4/CyDMA.c **** *  None.
 737:Generated_Source\PSoC4/CyDMA.c **** *
 738:Generated_Source\PSoC4/CyDMA.c **** * Side effect:
 739:Generated_Source\PSoC4/CyDMA.c **** *  The status register associated with the specified descriptor is reset to
 740:Generated_Source\PSoC4/CyDMA.c **** *  zero after this function call. This function also validates the descriptor.
 741:Generated_Source\PSoC4/CyDMA.c **** *  This function should not be called while the descriptor is active.
 742:Generated_Source\PSoC4/CyDMA.c **** *  This can be checked by calling CyDmaGetStatus().
 743:Generated_Source\PSoC4/CyDMA.c **** *
 744:Generated_Source\PSoC4/CyDMA.c **** *******************************************************************************/
 745:Generated_Source\PSoC4/CyDMA.c **** void CyDmaSetConfiguration(int32 channel, int32 descriptor, const cydma_init_struct * config)
 746:Generated_Source\PSoC4/CyDMA.c **** {  
 1023              		.loc 1 746 0
 1024              		.cfi_startproc
 1025              	.LVL84:
 1026 0000 70B5     		push	{r4, r5, r6, lr}
 1027              		.cfi_def_cfa_offset 16
 1028              		.cfi_offset 4, -16
 1029              		.cfi_offset 5, -12
 1030              		.cfi_offset 6, -8
 1031              		.cfi_offset 14, -4
 1032              		.loc 1 746 0
 1033 0002 061C     		mov	r6, r0
 1034 0004 0D1C     		mov	r5, r1
 1035 0006 141C     		mov	r4, r2
 747:Generated_Source\PSoC4/CyDMA.c ****     CYASSERT((channel        >= 0) && (channel         < CYDMA_CH_NR));
 1036              		.loc 1 747 0
 1037 0008 0728     		cmp	r0, #7
 1038 000a 60D8     		bhi	.L132
 1039              	.LVL85:
 1040              	.L102:
 748:Generated_Source\PSoC4/CyDMA.c ****     CYASSERT((descriptor     >= 0) && (descriptor      < CYDMA_DESCR_NR));
ARM GAS  C:\Users\glenn\AppData\Local\Temp\ccjge9sh.s 			page 34


 1041              		.loc 1 748 0
 1042 000c 012D     		cmp	r5, #1
 1043 000e 02D9     		bls	.L103
 1044              		.loc 1 748 0 is_stmt 0 discriminator 1
 1045 0010 0020     		mov	r0, #0
 1046 0012 FFF7FEFF 		bl	CyHalt
 1047              	.LVL86:
 1048              	.L103:
 749:Generated_Source\PSoC4/CyDMA.c **** 
 750:Generated_Source\PSoC4/CyDMA.c ****     CYASSERT(0u == (config->dataElementSize     & (uint32)~CYDMA_DATA_SIZE));   
 1049              		.loc 1 750 0 is_stmt 1
 1050 0016 304B     		ldr	r3, .L140
 1051 0018 2268     		ldr	r2, [r4]
 1052 001a 1A42     		tst	r2, r3
 1053 001c 53D1     		bne	.L133
 1054              	.L104:
 751:Generated_Source\PSoC4/CyDMA.c ****     CYASSERT((config->numDataElements > 0)     && (config->numDataElements <= CYDMA_MAX_DATA_NR));
 1055              		.loc 1 751 0
 1056 001e 6368     		ldr	r3, [r4, #4]
 1057 0020 2E4A     		ldr	r2, .L140+4
 1058 0022 013B     		sub	r3, r3, #1
 1059 0024 9342     		cmp	r3, r2
 1060 0026 4AD8     		bhi	.L134
 1061              	.L105:
 752:Generated_Source\PSoC4/CyDMA.c ****     CYASSERT(0u == (config->srcDstTransferWidth & (uint32)~CYDMA_TRANSFER_WIDTH));
 1062              		.loc 1 752 0
 1063 0028 2D4B     		ldr	r3, .L140+8
 1064 002a A268     		ldr	r2, [r4, #8]
 1065 002c 1A42     		tst	r2, r3
 1066 002e 42D1     		bne	.L135
 1067              	.L106:
 753:Generated_Source\PSoC4/CyDMA.c ****     CYASSERT(0u == (config->addressIncrement    & (uint32)~CYDMA_ADDR_INCR));
 1068              		.loc 1 753 0
 1069 0030 2C4B     		ldr	r3, .L140+12
 1070 0032 E268     		ldr	r2, [r4, #12]
 1071 0034 1A42     		tst	r2, r3
 1072 0036 3AD1     		bne	.L136
 1073              	.L107:
 754:Generated_Source\PSoC4/CyDMA.c ****     CYASSERT(0u == (config->triggerType         & (uint32)~CYDMA_TRIGGER_TYPE));
 1074              		.loc 1 754 0
 1075 0038 2B4B     		ldr	r3, .L140+16
 1076 003a 2269     		ldr	r2, [r4, #16]
 1077 003c 1A42     		tst	r2, r3
 1078 003e 32D1     		bne	.L137
 1079              	.L108:
 755:Generated_Source\PSoC4/CyDMA.c ****     CYASSERT(0u == (config->transferMode        & (uint32)~CYDMA_TRANSFER_MODE));
 1080              		.loc 1 755 0
 1081 0040 6369     		ldr	r3, [r4, #20]
 1082 0042 9B00     		lsl	r3, r3, #2
 1083 0044 2BD1     		bne	.L138
 1084              	.L109:
 756:Generated_Source\PSoC4/CyDMA.c ****     CYASSERT(0u == (config->preemptable         & (uint32)~CYDMA_PREEMPTABLE));
 1085              		.loc 1 756 0
 1086 0046 294B     		ldr	r3, .L140+20
 1087 0048 A269     		ldr	r2, [r4, #24]
 1088 004a 1A42     		tst	r2, r3
 1089 004c 23D1     		bne	.L139
ARM GAS  C:\Users\glenn\AppData\Local\Temp\ccjge9sh.s 			page 35


 1090              	.L110:
 1091 004e E369     		ldr	r3, [r4, #28]
 757:Generated_Source\PSoC4/CyDMA.c ****     CYASSERT(0u == (config->actions             & (uint32)~CYDMA_POST_COMPLETE_ACTIONS));
 1092              		.loc 1 757 0
 1093 0050 274A     		ldr	r2, .L140+24
 1094 0052 1342     		tst	r3, r2
 1095 0054 03D0     		beq	.L111
 1096              		.loc 1 757 0 is_stmt 0 discriminator 1
 1097 0056 0020     		mov	r0, #0
 1098 0058 FFF7FEFF 		bl	CyHalt
 1099              	.LVL87:
 1100 005c E369     		ldr	r3, [r4, #28]
 1101              	.L111:
 1102 005e 2168     		ldr	r1, [r4]
 1103 0060 A268     		ldr	r2, [r4, #8]
 758:Generated_Source\PSoC4/CyDMA.c ****     
 759:Generated_Source\PSoC4/CyDMA.c ****     CYDMA_DESCR_BASE.descriptor[channel][descriptor].ctl = config->dataElementSize     |
 1104              		.loc 1 759 0 is_stmt 1
 1105 0062 7600     		lsl	r6, r6, #1
 1106              	.LVL88:
 1107 0064 0A43     		orr	r2, r1
 1108 0066 E168     		ldr	r1, [r4, #12]
 1109 0068 7519     		add	r5, r6, r5
 1110              	.LVL89:
 1111 006a 0A43     		orr	r2, r1
 1112 006c 2169     		ldr	r1, [r4, #16]
 1113 006e 2D01     		lsl	r5, r5, #4
 1114 0070 0A43     		orr	r2, r1
 1115 0072 6169     		ldr	r1, [r4, #20]
 760:Generated_Source\PSoC4/CyDMA.c ****                                                   ((uint32)config->numDataElements-1u) |
 761:Generated_Source\PSoC4/CyDMA.c ****                                                            config->srcDstTransferWidth |
 762:Generated_Source\PSoC4/CyDMA.c ****                                                            config->addressIncrement    |
 763:Generated_Source\PSoC4/CyDMA.c ****                                                            config->triggerType         |
 764:Generated_Source\PSoC4/CyDMA.c ****                                                            config->transferMode        |
 765:Generated_Source\PSoC4/CyDMA.c ****                                                            config->preemptable         |
 766:Generated_Source\PSoC4/CyDMA.c ****                                                            config->actions;
 767:Generated_Source\PSoC4/CyDMA.c **** 
 768:Generated_Source\PSoC4/CyDMA.c ****     CYDMA_DESCR_BASE.descriptor[channel][descriptor].status = CYDMA_VALID;
 769:Generated_Source\PSoC4/CyDMA.c **** }
 1116              		.loc 1 769 0
 1117              		@ sp needed
 1118 0074 0A43     		orr	r2, r1
 1119 0076 A169     		ldr	r1, [r4, #24]
 1120 0078 0A43     		orr	r2, r1
 760:Generated_Source\PSoC4/CyDMA.c ****                                                   ((uint32)config->numDataElements-1u) |
 1121              		.loc 1 760 0
 1122 007a 6168     		ldr	r1, [r4, #4]
 1123 007c 0139     		sub	r1, r1, #1
 1124 007e 0A43     		orr	r2, r1
 765:Generated_Source\PSoC4/CyDMA.c ****                                                            config->actions;
 1125              		.loc 1 765 0
 1126 0080 1343     		orr	r3, r2
 759:Generated_Source\PSoC4/CyDMA.c ****                                                   ((uint32)config->numDataElements-1u) |
 1127              		.loc 1 759 0
 1128 0082 1C4A     		ldr	r2, .L140+28
 1129 0084 1C49     		ldr	r1, .L140+32
 1130 0086 AA18     		add	r2, r5, r2
ARM GAS  C:\Users\glenn\AppData\Local\Temp\ccjge9sh.s 			page 36


 1131 0088 9360     		str	r3, [r2, #8]
 1132 008a 8C46     		mov	ip, r1
 768:Generated_Source\PSoC4/CyDMA.c **** }
 1133              		.loc 1 768 0
 1134 008c 8023     		mov	r3, #128
 759:Generated_Source\PSoC4/CyDMA.c ****                                                   ((uint32)config->numDataElements-1u) |
 1135              		.loc 1 759 0
 1136 008e 6544     		add	r5, r5, ip
 768:Generated_Source\PSoC4/CyDMA.c **** }
 1137              		.loc 1 768 0
 1138 0090 1B06     		lsl	r3, r3, #24
 1139 0092 6B60     		str	r3, [r5, #4]
 1140              	.LVL90:
 1141              		.loc 1 769 0
 1142 0094 70BD     		pop	{r4, r5, r6, pc}
 1143              	.LVL91:
 1144              	.L139:
 756:Generated_Source\PSoC4/CyDMA.c ****     CYASSERT(0u == (config->actions             & (uint32)~CYDMA_POST_COMPLETE_ACTIONS));
 1145              		.loc 1 756 0 discriminator 1
 1146 0096 0020     		mov	r0, #0
 1147 0098 FFF7FEFF 		bl	CyHalt
 1148              	.LVL92:
 1149 009c D7E7     		b	.L110
 1150              	.L138:
 755:Generated_Source\PSoC4/CyDMA.c ****     CYASSERT(0u == (config->preemptable         & (uint32)~CYDMA_PREEMPTABLE));
 1151              		.loc 1 755 0 discriminator 1
 1152 009e 0020     		mov	r0, #0
 1153 00a0 FFF7FEFF 		bl	CyHalt
 1154              	.LVL93:
 1155 00a4 CFE7     		b	.L109
 1156              	.L137:
 754:Generated_Source\PSoC4/CyDMA.c ****     CYASSERT(0u == (config->transferMode        & (uint32)~CYDMA_TRANSFER_MODE));
 1157              		.loc 1 754 0 discriminator 1
 1158 00a6 0020     		mov	r0, #0
 1159 00a8 FFF7FEFF 		bl	CyHalt
 1160              	.LVL94:
 1161 00ac C8E7     		b	.L108
 1162              	.L136:
 753:Generated_Source\PSoC4/CyDMA.c ****     CYASSERT(0u == (config->triggerType         & (uint32)~CYDMA_TRIGGER_TYPE));
 1163              		.loc 1 753 0 discriminator 1
 1164 00ae 0020     		mov	r0, #0
 1165 00b0 FFF7FEFF 		bl	CyHalt
 1166              	.LVL95:
 1167 00b4 C0E7     		b	.L107
 1168              	.L135:
 752:Generated_Source\PSoC4/CyDMA.c ****     CYASSERT(0u == (config->addressIncrement    & (uint32)~CYDMA_ADDR_INCR));
 1169              		.loc 1 752 0 discriminator 1
 1170 00b6 0020     		mov	r0, #0
 1171 00b8 FFF7FEFF 		bl	CyHalt
 1172              	.LVL96:
 1173 00bc B8E7     		b	.L106
 1174              	.L134:
 751:Generated_Source\PSoC4/CyDMA.c ****     CYASSERT(0u == (config->srcDstTransferWidth & (uint32)~CYDMA_TRANSFER_WIDTH));
 1175              		.loc 1 751 0 discriminator 1
 1176 00be 0020     		mov	r0, #0
 1177 00c0 FFF7FEFF 		bl	CyHalt
 1178              	.LVL97:
ARM GAS  C:\Users\glenn\AppData\Local\Temp\ccjge9sh.s 			page 37


 1179 00c4 B0E7     		b	.L105
 1180              	.L133:
 750:Generated_Source\PSoC4/CyDMA.c ****     CYASSERT((config->numDataElements > 0)     && (config->numDataElements <= CYDMA_MAX_DATA_NR));
 1181              		.loc 1 750 0 discriminator 1
 1182 00c6 0020     		mov	r0, #0
 1183 00c8 FFF7FEFF 		bl	CyHalt
 1184              	.LVL98:
 1185 00cc A7E7     		b	.L104
 1186              	.LVL99:
 1187              	.L132:
 747:Generated_Source\PSoC4/CyDMA.c ****     CYASSERT((descriptor     >= 0) && (descriptor      < CYDMA_DESCR_NR));
 1188              		.loc 1 747 0 discriminator 1
 1189 00ce 0020     		mov	r0, #0
 1190              	.LVL100:
 1191 00d0 FFF7FEFF 		bl	CyHalt
 1192              	.LVL101:
 1193 00d4 9AE7     		b	.L102
 1194              	.L141:
 1195 00d6 C046     		.align	2
 1196              	.L140:
 1197 00d8 FFFFFCFF 		.word	-196609
 1198 00dc FFFF0000 		.word	65535
 1199 00e0 FFFFAFFF 		.word	-5242881
 1200 00e4 FFFF5FFF 		.word	-10485761
 1201 00e8 FFFFFFFC 		.word	-50331649
 1202 00ec FFFFFFEF 		.word	-268435457
 1203 00f0 FFFFFFD3 		.word	-738197505
 1204 00f4 00181040 		.word	1074796544
 1205 00f8 08181040 		.word	1074796552
 1206              		.cfi_endproc
 1207              	.LFE26:
 1208              		.size	CyDmaSetConfiguration, .-CyDmaSetConfiguration
 1209              		.section	.text.CyDmaValidateDescriptor,"ax",%progbits
 1210              		.align	2
 1211              		.global	CyDmaValidateDescriptor
 1212              		.code	16
 1213              		.thumb_func
 1214              		.type	CyDmaValidateDescriptor, %function
 1215              	CyDmaValidateDescriptor:
 1216              	.LFB27:
 770:Generated_Source\PSoC4/CyDMA.c **** 
 771:Generated_Source\PSoC4/CyDMA.c **** 
 772:Generated_Source\PSoC4/CyDMA.c **** /*******************************************************************************
 773:Generated_Source\PSoC4/CyDMA.c **** * Function Name: CyDmaValidateDescriptor
 774:Generated_Source\PSoC4/CyDMA.c **** ********************************************************************************
 775:Generated_Source\PSoC4/CyDMA.c **** *
 776:Generated_Source\PSoC4/CyDMA.c **** * Summary:
 777:Generated_Source\PSoC4/CyDMA.c **** *  Validates the specified descriptor after it has been invalidated.
 778:Generated_Source\PSoC4/CyDMA.c **** *
 779:Generated_Source\PSoC4/CyDMA.c **** * Parameters:
 780:Generated_Source\PSoC4/CyDMA.c **** *  channel:    Channel used by this function.
 781:Generated_Source\PSoC4/CyDMA.c **** *  descriptor: Descriptor (0 or 1) modified by this function.
 782:Generated_Source\PSoC4/CyDMA.c **** *                   
 783:Generated_Source\PSoC4/CyDMA.c **** * Return:
 784:Generated_Source\PSoC4/CyDMA.c **** *  None. 
 785:Generated_Source\PSoC4/CyDMA.c **** *
 786:Generated_Source\PSoC4/CyDMA.c **** * Side effect:
ARM GAS  C:\Users\glenn\AppData\Local\Temp\ccjge9sh.s 			page 38


 787:Generated_Source\PSoC4/CyDMA.c **** *  The status register associated with the specified descriptor is reset to
 788:Generated_Source\PSoC4/CyDMA.c **** *  zero after this function call.
 789:Generated_Source\PSoC4/CyDMA.c **** *  This function should not be called when the specified descriptor is active
 790:Generated_Source\PSoC4/CyDMA.c **** *  in the DMA transfer engine. This can be checked by calling CyDmaGetStatus().
 791:Generated_Source\PSoC4/CyDMA.c **** *
 792:Generated_Source\PSoC4/CyDMA.c **** *******************************************************************************/
 793:Generated_Source\PSoC4/CyDMA.c **** void CyDmaValidateDescriptor(int32 channel, int32 descriptor)
 794:Generated_Source\PSoC4/CyDMA.c **** {
 1217              		.loc 1 794 0
 1218              		.cfi_startproc
 1219              	.LVL102:
 1220 0000 38B5     		push	{r3, r4, r5, lr}
 1221              		.cfi_def_cfa_offset 16
 1222              		.cfi_offset 3, -16
 1223              		.cfi_offset 4, -12
 1224              		.cfi_offset 5, -8
 1225              		.cfi_offset 14, -4
 1226              		.loc 1 794 0
 1227 0002 051C     		mov	r5, r0
 1228 0004 0C1C     		mov	r4, r1
 795:Generated_Source\PSoC4/CyDMA.c ****     CYASSERT((channel    >= 0) && (channel    < CYDMA_CH_NR));
 1229              		.loc 1 795 0
 1230 0006 0728     		cmp	r0, #7
 1231 0008 0ED8     		bhi	.L145
 1232              	.LVL103:
 1233              	.L143:
 796:Generated_Source\PSoC4/CyDMA.c ****     CYASSERT((descriptor >= 0) && (descriptor < CYDMA_DESCR_NR));
 1234              		.loc 1 796 0
 1235 000a 012C     		cmp	r4, #1
 1236 000c 02D9     		bls	.L144
 1237              		.loc 1 796 0 is_stmt 0 discriminator 1
 1238 000e 0020     		mov	r0, #0
 1239 0010 FFF7FEFF 		bl	CyHalt
 1240              	.LVL104:
 1241              	.L144:
 797:Generated_Source\PSoC4/CyDMA.c **** 
 798:Generated_Source\PSoC4/CyDMA.c ****     CYDMA_DESCR_BASE.descriptor[channel][descriptor].status = CYDMA_VALID;
 1242              		.loc 1 798 0 is_stmt 1
 1243 0014 064B     		ldr	r3, .L146
 1244 0016 6D00     		lsl	r5, r5, #1
 1245              	.LVL105:
 1246 0018 9C46     		mov	ip, r3
 1247 001a 8023     		mov	r3, #128
 1248 001c 2C19     		add	r4, r5, r4
 1249              	.LVL106:
 1250 001e 2401     		lsl	r4, r4, #4
 1251 0020 6444     		add	r4, r4, ip
 1252 0022 1B06     		lsl	r3, r3, #24
 1253 0024 6360     		str	r3, [r4, #4]
 799:Generated_Source\PSoC4/CyDMA.c **** }
 1254              		.loc 1 799 0
 1255              		@ sp needed
 1256 0026 38BD     		pop	{r3, r4, r5, pc}
 1257              	.LVL107:
 1258              	.L145:
 795:Generated_Source\PSoC4/CyDMA.c ****     CYASSERT((descriptor >= 0) && (descriptor < CYDMA_DESCR_NR));
 1259              		.loc 1 795 0 discriminator 1
ARM GAS  C:\Users\glenn\AppData\Local\Temp\ccjge9sh.s 			page 39


 1260 0028 0020     		mov	r0, #0
 1261              	.LVL108:
 1262 002a FFF7FEFF 		bl	CyHalt
 1263              	.LVL109:
 1264 002e ECE7     		b	.L143
 1265              	.L147:
 1266              		.align	2
 1267              	.L146:
 1268 0030 08181040 		.word	1074796552
 1269              		.cfi_endproc
 1270              	.LFE27:
 1271              		.size	CyDmaValidateDescriptor, .-CyDmaValidateDescriptor
 1272              		.section	.text.CyDmaGetDescriptorStatus,"ax",%progbits
 1273              		.align	2
 1274              		.global	CyDmaGetDescriptorStatus
 1275              		.code	16
 1276              		.thumb_func
 1277              		.type	CyDmaGetDescriptorStatus, %function
 1278              	CyDmaGetDescriptorStatus:
 1279              	.LFB28:
 800:Generated_Source\PSoC4/CyDMA.c **** 
 801:Generated_Source\PSoC4/CyDMA.c **** 
 802:Generated_Source\PSoC4/CyDMA.c **** /*******************************************************************************
 803:Generated_Source\PSoC4/CyDMA.c **** * Function Name: CyDmaGetDescriptorStatus
 804:Generated_Source\PSoC4/CyDMA.c **** ********************************************************************************
 805:Generated_Source\PSoC4/CyDMA.c **** *
 806:Generated_Source\PSoC4/CyDMA.c **** * Summary:
 807:Generated_Source\PSoC4/CyDMA.c **** *  Returns the status of the specified descriptor.
 808:Generated_Source\PSoC4/CyDMA.c **** *
 809:Generated_Source\PSoC4/CyDMA.c **** * Parameters:
 810:Generated_Source\PSoC4/CyDMA.c **** *  channel:    Channel used by this function.
 811:Generated_Source\PSoC4/CyDMA.c **** *  descriptor: Descriptor (0 or 1) modified by this function.
 812:Generated_Source\PSoC4/CyDMA.c **** *                   
 813:Generated_Source\PSoC4/CyDMA.c **** * Return:
 814:Generated_Source\PSoC4/CyDMA.c **** *  Returns the contents of the specified descriptors status register. Refer to 
 815:Generated_Source\PSoC4/CyDMA.c **** *  descriptor status register bit definitions in CyDMA_P4.h or the API
 816:Generated_Source\PSoC4/CyDMA.c **** *  description in the DMA channel datasheet for more information.
 817:Generated_Source\PSoC4/CyDMA.c **** *
 818:Generated_Source\PSoC4/CyDMA.c **** *******************************************************************************/
 819:Generated_Source\PSoC4/CyDMA.c **** uint32 CyDmaGetDescriptorStatus(int32 channel, int32 descriptor)
 820:Generated_Source\PSoC4/CyDMA.c **** {
 1280              		.loc 1 820 0
 1281              		.cfi_startproc
 1282              	.LVL110:
 1283 0000 38B5     		push	{r3, r4, r5, lr}
 1284              		.cfi_def_cfa_offset 16
 1285              		.cfi_offset 3, -16
 1286              		.cfi_offset 4, -12
 1287              		.cfi_offset 5, -8
 1288              		.cfi_offset 14, -4
 1289              		.loc 1 820 0
 1290 0002 051C     		mov	r5, r0
 1291 0004 0C1C     		mov	r4, r1
 821:Generated_Source\PSoC4/CyDMA.c ****     CYASSERT((channel    >= 0) && (channel    < CYDMA_CH_NR));
 1292              		.loc 1 821 0
 1293 0006 0728     		cmp	r0, #7
 1294 0008 0CD8     		bhi	.L151
ARM GAS  C:\Users\glenn\AppData\Local\Temp\ccjge9sh.s 			page 40


 1295              	.LVL111:
 1296              	.L149:
 822:Generated_Source\PSoC4/CyDMA.c ****     CYASSERT((descriptor >= 0) && (descriptor < CYDMA_DESCR_NR));
 1297              		.loc 1 822 0
 1298 000a 012C     		cmp	r4, #1
 1299 000c 02D9     		bls	.L150
 1300              		.loc 1 822 0 is_stmt 0 discriminator 1
 1301 000e 0020     		mov	r0, #0
 1302 0010 FFF7FEFF 		bl	CyHalt
 1303              	.LVL112:
 1304              	.L150:
 823:Generated_Source\PSoC4/CyDMA.c **** 
 824:Generated_Source\PSoC4/CyDMA.c ****     return (CYDMA_DESCR_BASE.descriptor[channel][descriptor].status);
 1305              		.loc 1 824 0 is_stmt 1
 1306 0014 054B     		ldr	r3, .L152
 1307 0016 6D00     		lsl	r5, r5, #1
 1308              	.LVL113:
 1309 0018 9C46     		mov	ip, r3
 1310 001a 2C19     		add	r4, r5, r4
 1311              	.LVL114:
 1312 001c 2401     		lsl	r4, r4, #4
 1313 001e 6444     		add	r4, r4, ip
 1314 0020 6068     		ldr	r0, [r4, #4]
 825:Generated_Source\PSoC4/CyDMA.c **** }
 1315              		.loc 1 825 0
 1316              		@ sp needed
 1317 0022 38BD     		pop	{r3, r4, r5, pc}
 1318              	.LVL115:
 1319              	.L151:
 821:Generated_Source\PSoC4/CyDMA.c ****     CYASSERT((descriptor >= 0) && (descriptor < CYDMA_DESCR_NR));
 1320              		.loc 1 821 0 discriminator 1
 1321 0024 0020     		mov	r0, #0
 1322              	.LVL116:
 1323 0026 FFF7FEFF 		bl	CyHalt
 1324              	.LVL117:
 1325 002a EEE7     		b	.L149
 1326              	.L153:
 1327              		.align	2
 1328              	.L152:
 1329 002c 08181040 		.word	1074796552
 1330              		.cfi_endproc
 1331              	.LFE28:
 1332              		.size	CyDmaGetDescriptorStatus, .-CyDmaGetDescriptorStatus
 1333              		.section	.text.CyDmaSetSrcAddress,"ax",%progbits
 1334              		.align	2
 1335              		.global	CyDmaSetSrcAddress
 1336              		.code	16
 1337              		.thumb_func
 1338              		.type	CyDmaSetSrcAddress, %function
 1339              	CyDmaSetSrcAddress:
 1340              	.LFB29:
 826:Generated_Source\PSoC4/CyDMA.c **** 
 827:Generated_Source\PSoC4/CyDMA.c **** 
 828:Generated_Source\PSoC4/CyDMA.c **** /*******************************************************************************
 829:Generated_Source\PSoC4/CyDMA.c **** * Function Name: CyDmaSetSrcAddress
 830:Generated_Source\PSoC4/CyDMA.c **** ********************************************************************************
 831:Generated_Source\PSoC4/CyDMA.c **** *
ARM GAS  C:\Users\glenn\AppData\Local\Temp\ccjge9sh.s 			page 41


 832:Generated_Source\PSoC4/CyDMA.c **** * Summary:
 833:Generated_Source\PSoC4/CyDMA.c **** *  Configures the source address for the specified descriptor.
 834:Generated_Source\PSoC4/CyDMA.c **** *
 835:Generated_Source\PSoC4/CyDMA.c **** * Parameters:
 836:Generated_Source\PSoC4/CyDMA.c **** *  channel:    Channel used by this function.
 837:Generated_Source\PSoC4/CyDMA.c **** *  descriptor: Descriptor (0 or 1) modified by this function.
 838:Generated_Source\PSoC4/CyDMA.c **** *  srcAddress: Address of DMA transfer source.
 839:Generated_Source\PSoC4/CyDMA.c **** *                   
 840:Generated_Source\PSoC4/CyDMA.c **** * Return:
 841:Generated_Source\PSoC4/CyDMA.c **** *  None.
 842:Generated_Source\PSoC4/CyDMA.c **** *
 843:Generated_Source\PSoC4/CyDMA.c **** * Side effect:
 844:Generated_Source\PSoC4/CyDMA.c **** *  This function should not be called when the specified descriptor is active
 845:Generated_Source\PSoC4/CyDMA.c **** *  in the DMA transfer engine. This can be checked by calling CyDmaGetStatus(). 
 846:Generated_Source\PSoC4/CyDMA.c **** *
 847:Generated_Source\PSoC4/CyDMA.c **** *******************************************************************************/
 848:Generated_Source\PSoC4/CyDMA.c **** void CyDmaSetSrcAddress(int32 channel, int32 descriptor, void * srcAddress)
 849:Generated_Source\PSoC4/CyDMA.c **** {
 1341              		.loc 1 849 0
 1342              		.cfi_startproc
 1343              	.LVL118:
 1344 0000 70B5     		push	{r4, r5, r6, lr}
 1345              		.cfi_def_cfa_offset 16
 1346              		.cfi_offset 4, -16
 1347              		.cfi_offset 5, -12
 1348              		.cfi_offset 6, -8
 1349              		.cfi_offset 14, -4
 1350              		.loc 1 849 0
 1351 0002 051C     		mov	r5, r0
 1352 0004 0C1C     		mov	r4, r1
 1353 0006 161C     		mov	r6, r2
 850:Generated_Source\PSoC4/CyDMA.c ****     CYASSERT((channel    >= 0) && (channel    < CYDMA_CH_NR));
 1354              		.loc 1 850 0
 1355 0008 0728     		cmp	r0, #7
 1356 000a 0AD8     		bhi	.L157
 1357              	.LVL119:
 1358              	.L155:
 851:Generated_Source\PSoC4/CyDMA.c ****     CYASSERT((descriptor >= 0) && (descriptor < CYDMA_DESCR_NR));
 1359              		.loc 1 851 0
 1360 000c 012C     		cmp	r4, #1
 1361 000e 02D9     		bls	.L156
 1362              		.loc 1 851 0 is_stmt 0 discriminator 1
 1363 0010 0020     		mov	r0, #0
 1364 0012 FFF7FEFF 		bl	CyHalt
 1365              	.LVL120:
 1366              	.L156:
 852:Generated_Source\PSoC4/CyDMA.c **** 
 853:Generated_Source\PSoC4/CyDMA.c ****     CYDMA_DESCR_BASE.descriptor[channel][descriptor].src = srcAddress;
 1367              		.loc 1 853 0 is_stmt 1
 1368 0016 6D00     		lsl	r5, r5, #1
 1369              	.LVL121:
 1370 0018 2C19     		add	r4, r5, r4
 1371              	.LVL122:
 1372 001a 044B     		ldr	r3, .L158
 1373 001c 2401     		lsl	r4, r4, #4
 1374 001e E650     		str	r6, [r4, r3]
 854:Generated_Source\PSoC4/CyDMA.c **** }
ARM GAS  C:\Users\glenn\AppData\Local\Temp\ccjge9sh.s 			page 42


 1375              		.loc 1 854 0
 1376              		@ sp needed
 1377              	.LVL123:
 1378 0020 70BD     		pop	{r4, r5, r6, pc}
 1379              	.LVL124:
 1380              	.L157:
 850:Generated_Source\PSoC4/CyDMA.c ****     CYASSERT((descriptor >= 0) && (descriptor < CYDMA_DESCR_NR));
 1381              		.loc 1 850 0 discriminator 1
 1382 0022 0020     		mov	r0, #0
 1383              	.LVL125:
 1384 0024 FFF7FEFF 		bl	CyHalt
 1385              	.LVL126:
 1386 0028 F0E7     		b	.L155
 1387              	.L159:
 1388 002a C046     		.align	2
 1389              	.L158:
 1390 002c 00181040 		.word	1074796544
 1391              		.cfi_endproc
 1392              	.LFE29:
 1393              		.size	CyDmaSetSrcAddress, .-CyDmaSetSrcAddress
 1394              		.section	.text.CyDmaGetSrcAddress,"ax",%progbits
 1395              		.align	2
 1396              		.global	CyDmaGetSrcAddress
 1397              		.code	16
 1398              		.thumb_func
 1399              		.type	CyDmaGetSrcAddress, %function
 1400              	CyDmaGetSrcAddress:
 1401              	.LFB30:
 855:Generated_Source\PSoC4/CyDMA.c **** 
 856:Generated_Source\PSoC4/CyDMA.c **** 
 857:Generated_Source\PSoC4/CyDMA.c **** /*******************************************************************************
 858:Generated_Source\PSoC4/CyDMA.c **** * Function Name: CyDmaGetSrcAddress
 859:Generated_Source\PSoC4/CyDMA.c **** ********************************************************************************
 860:Generated_Source\PSoC4/CyDMA.c **** *
 861:Generated_Source\PSoC4/CyDMA.c **** * Summary:
 862:Generated_Source\PSoC4/CyDMA.c **** *  Returns the source address for the specified descriptor, set by 
 863:Generated_Source\PSoC4/CyDMA.c **** *  CyDmaSetSrcAddress().
 864:Generated_Source\PSoC4/CyDMA.c **** *
 865:Generated_Source\PSoC4/CyDMA.c **** * Parameters:
 866:Generated_Source\PSoC4/CyDMA.c **** *  channel:    Channel used by this function.
 867:Generated_Source\PSoC4/CyDMA.c **** *  descriptor: Specifies descriptor (0 or 1) used by this function.
 868:Generated_Source\PSoC4/CyDMA.c **** *                   
 869:Generated_Source\PSoC4/CyDMA.c **** * Return:
 870:Generated_Source\PSoC4/CyDMA.c **** *  Source address written to specified descriptor.
 871:Generated_Source\PSoC4/CyDMA.c **** *
 872:Generated_Source\PSoC4/CyDMA.c **** *******************************************************************************/
 873:Generated_Source\PSoC4/CyDMA.c **** void * CyDmaGetSrcAddress(int32 channel, int32 descriptor)
 874:Generated_Source\PSoC4/CyDMA.c **** {
 1402              		.loc 1 874 0
 1403              		.cfi_startproc
 1404              	.LVL127:
 1405 0000 38B5     		push	{r3, r4, r5, lr}
 1406              		.cfi_def_cfa_offset 16
 1407              		.cfi_offset 3, -16
 1408              		.cfi_offset 4, -12
 1409              		.cfi_offset 5, -8
 1410              		.cfi_offset 14, -4
ARM GAS  C:\Users\glenn\AppData\Local\Temp\ccjge9sh.s 			page 43


 1411              		.loc 1 874 0
 1412 0002 051C     		mov	r5, r0
 1413 0004 0C1C     		mov	r4, r1
 875:Generated_Source\PSoC4/CyDMA.c ****     CYASSERT((channel    >= 0) && (channel    < CYDMA_CH_NR));
 1414              		.loc 1 875 0
 1415 0006 0728     		cmp	r0, #7
 1416 0008 0AD8     		bhi	.L163
 1417              	.LVL128:
 1418              	.L161:
 876:Generated_Source\PSoC4/CyDMA.c ****     CYASSERT((descriptor >= 0) && (descriptor < CYDMA_DESCR_NR));
 1419              		.loc 1 876 0
 1420 000a 012C     		cmp	r4, #1
 1421 000c 02D9     		bls	.L162
 1422              		.loc 1 876 0 is_stmt 0 discriminator 1
 1423 000e 0020     		mov	r0, #0
 1424 0010 FFF7FEFF 		bl	CyHalt
 1425              	.LVL129:
 1426              	.L162:
 877:Generated_Source\PSoC4/CyDMA.c **** 
 878:Generated_Source\PSoC4/CyDMA.c ****     return (CYDMA_DESCR_BASE.descriptor[channel][descriptor].src);
 1427              		.loc 1 878 0 is_stmt 1
 1428 0014 6D00     		lsl	r5, r5, #1
 1429              	.LVL130:
 1430 0016 2C19     		add	r4, r5, r4
 1431              	.LVL131:
 1432 0018 034B     		ldr	r3, .L164
 1433 001a 2401     		lsl	r4, r4, #4
 1434 001c E058     		ldr	r0, [r4, r3]
 879:Generated_Source\PSoC4/CyDMA.c **** }
 1435              		.loc 1 879 0
 1436              		@ sp needed
 1437 001e 38BD     		pop	{r3, r4, r5, pc}
 1438              	.LVL132:
 1439              	.L163:
 875:Generated_Source\PSoC4/CyDMA.c ****     CYASSERT((descriptor >= 0) && (descriptor < CYDMA_DESCR_NR));
 1440              		.loc 1 875 0 discriminator 1
 1441 0020 0020     		mov	r0, #0
 1442              	.LVL133:
 1443 0022 FFF7FEFF 		bl	CyHalt
 1444              	.LVL134:
 1445 0026 F0E7     		b	.L161
 1446              	.L165:
 1447              		.align	2
 1448              	.L164:
 1449 0028 00181040 		.word	1074796544
 1450              		.cfi_endproc
 1451              	.LFE30:
 1452              		.size	CyDmaGetSrcAddress, .-CyDmaGetSrcAddress
 1453              		.section	.text.CyDmaSetDstAddress,"ax",%progbits
 1454              		.align	2
 1455              		.global	CyDmaSetDstAddress
 1456              		.code	16
 1457              		.thumb_func
 1458              		.type	CyDmaSetDstAddress, %function
 1459              	CyDmaSetDstAddress:
 1460              	.LFB31:
 880:Generated_Source\PSoC4/CyDMA.c **** 
ARM GAS  C:\Users\glenn\AppData\Local\Temp\ccjge9sh.s 			page 44


 881:Generated_Source\PSoC4/CyDMA.c **** 
 882:Generated_Source\PSoC4/CyDMA.c **** /*******************************************************************************
 883:Generated_Source\PSoC4/CyDMA.c **** * Function Name: CyDmaSetDstAddress
 884:Generated_Source\PSoC4/CyDMA.c **** ********************************************************************************
 885:Generated_Source\PSoC4/CyDMA.c **** *
 886:Generated_Source\PSoC4/CyDMA.c **** * Summary:
 887:Generated_Source\PSoC4/CyDMA.c **** *  Configures the destination address for the specified descriptor.
 888:Generated_Source\PSoC4/CyDMA.c **** *
 889:Generated_Source\PSoC4/CyDMA.c **** * Parameters:
 890:Generated_Source\PSoC4/CyDMA.c **** *  channel:    Channel used by this function.
 891:Generated_Source\PSoC4/CyDMA.c **** *  descriptor: Descriptor (0 or 1) modified by this function.
 892:Generated_Source\PSoC4/CyDMA.c **** *  dstAddress: Address of DMA transfer destination.
 893:Generated_Source\PSoC4/CyDMA.c **** *                   
 894:Generated_Source\PSoC4/CyDMA.c **** * Return:
 895:Generated_Source\PSoC4/CyDMA.c **** *  None.
 896:Generated_Source\PSoC4/CyDMA.c **** *
 897:Generated_Source\PSoC4/CyDMA.c **** * Side effect:
 898:Generated_Source\PSoC4/CyDMA.c **** *  This function should not be called when the specified descriptor is active
 899:Generated_Source\PSoC4/CyDMA.c **** *  in the DMA transfer engine. This can be checked by calling CyDmaGetStatus(). 
 900:Generated_Source\PSoC4/CyDMA.c **** *
 901:Generated_Source\PSoC4/CyDMA.c **** *******************************************************************************/
 902:Generated_Source\PSoC4/CyDMA.c **** void CyDmaSetDstAddress(int32 channel, int32 descriptor, void * dstAddress)
 903:Generated_Source\PSoC4/CyDMA.c **** {
 1461              		.loc 1 903 0
 1462              		.cfi_startproc
 1463              	.LVL135:
 1464 0000 70B5     		push	{r4, r5, r6, lr}
 1465              		.cfi_def_cfa_offset 16
 1466              		.cfi_offset 4, -16
 1467              		.cfi_offset 5, -12
 1468              		.cfi_offset 6, -8
 1469              		.cfi_offset 14, -4
 1470              		.loc 1 903 0
 1471 0002 051C     		mov	r5, r0
 1472 0004 0C1C     		mov	r4, r1
 1473 0006 161C     		mov	r6, r2
 904:Generated_Source\PSoC4/CyDMA.c ****     CYASSERT((channel    >= 0) && (channel    < CYDMA_CH_NR));
 1474              		.loc 1 904 0
 1475 0008 0728     		cmp	r0, #7
 1476 000a 0CD8     		bhi	.L169
 1477              	.LVL136:
 1478              	.L167:
 905:Generated_Source\PSoC4/CyDMA.c ****     CYASSERT((descriptor >= 0) && (descriptor < CYDMA_DESCR_NR));
 1479              		.loc 1 905 0
 1480 000c 012C     		cmp	r4, #1
 1481 000e 02D9     		bls	.L168
 1482              		.loc 1 905 0 is_stmt 0 discriminator 1
 1483 0010 0020     		mov	r0, #0
 1484 0012 FFF7FEFF 		bl	CyHalt
 1485              	.LVL137:
 1486              	.L168:
 906:Generated_Source\PSoC4/CyDMA.c **** 
 907:Generated_Source\PSoC4/CyDMA.c ****     CYDMA_DESCR_BASE.descriptor[channel][descriptor].dst = dstAddress;
 1487              		.loc 1 907 0 is_stmt 1
 1488 0016 064B     		ldr	r3, .L170
 1489 0018 6D00     		lsl	r5, r5, #1
 1490              	.LVL138:
ARM GAS  C:\Users\glenn\AppData\Local\Temp\ccjge9sh.s 			page 45


 1491 001a 9C46     		mov	ip, r3
 1492 001c 2C19     		add	r4, r5, r4
 1493              	.LVL139:
 1494 001e 2401     		lsl	r4, r4, #4
 1495 0020 6444     		add	r4, r4, ip
 1496 0022 6660     		str	r6, [r4, #4]
 908:Generated_Source\PSoC4/CyDMA.c **** }
 1497              		.loc 1 908 0
 1498              		@ sp needed
 1499              	.LVL140:
 1500 0024 70BD     		pop	{r4, r5, r6, pc}
 1501              	.LVL141:
 1502              	.L169:
 904:Generated_Source\PSoC4/CyDMA.c ****     CYASSERT((descriptor >= 0) && (descriptor < CYDMA_DESCR_NR));
 1503              		.loc 1 904 0 discriminator 1
 1504 0026 0020     		mov	r0, #0
 1505              	.LVL142:
 1506 0028 FFF7FEFF 		bl	CyHalt
 1507              	.LVL143:
 1508 002c EEE7     		b	.L167
 1509              	.L171:
 1510 002e C046     		.align	2
 1511              	.L170:
 1512 0030 00181040 		.word	1074796544
 1513              		.cfi_endproc
 1514              	.LFE31:
 1515              		.size	CyDmaSetDstAddress, .-CyDmaSetDstAddress
 1516              		.section	.text.CyDmaGetDstAddress,"ax",%progbits
 1517              		.align	2
 1518              		.global	CyDmaGetDstAddress
 1519              		.code	16
 1520              		.thumb_func
 1521              		.type	CyDmaGetDstAddress, %function
 1522              	CyDmaGetDstAddress:
 1523              	.LFB32:
 909:Generated_Source\PSoC4/CyDMA.c **** 
 910:Generated_Source\PSoC4/CyDMA.c **** 
 911:Generated_Source\PSoC4/CyDMA.c **** /*******************************************************************************
 912:Generated_Source\PSoC4/CyDMA.c **** * Function Name: CyDmaGetDstAddress
 913:Generated_Source\PSoC4/CyDMA.c **** ********************************************************************************
 914:Generated_Source\PSoC4/CyDMA.c **** *
 915:Generated_Source\PSoC4/CyDMA.c **** * Summary:
 916:Generated_Source\PSoC4/CyDMA.c **** *  Returns the destination address for the specified descriptor, set by 
 917:Generated_Source\PSoC4/CyDMA.c **** *  CyDmaSetDstAddress().
 918:Generated_Source\PSoC4/CyDMA.c **** *
 919:Generated_Source\PSoC4/CyDMA.c **** * Parameters:
 920:Generated_Source\PSoC4/CyDMA.c **** *  channel:    Channel used by this function.
 921:Generated_Source\PSoC4/CyDMA.c **** *  descriptor: Specifies descriptor (0 or 1) used by this function.
 922:Generated_Source\PSoC4/CyDMA.c **** *                   
 923:Generated_Source\PSoC4/CyDMA.c **** * Return:
 924:Generated_Source\PSoC4/CyDMA.c **** *  Destination address written to specified descriptor.
 925:Generated_Source\PSoC4/CyDMA.c **** *
 926:Generated_Source\PSoC4/CyDMA.c **** *******************************************************************************/
 927:Generated_Source\PSoC4/CyDMA.c **** void * CyDmaGetDstAddress(int32 channel, int32 descriptor)
 928:Generated_Source\PSoC4/CyDMA.c **** {
 1524              		.loc 1 928 0
 1525              		.cfi_startproc
ARM GAS  C:\Users\glenn\AppData\Local\Temp\ccjge9sh.s 			page 46


 1526              	.LVL144:
 1527 0000 38B5     		push	{r3, r4, r5, lr}
 1528              		.cfi_def_cfa_offset 16
 1529              		.cfi_offset 3, -16
 1530              		.cfi_offset 4, -12
 1531              		.cfi_offset 5, -8
 1532              		.cfi_offset 14, -4
 1533              		.loc 1 928 0
 1534 0002 051C     		mov	r5, r0
 1535 0004 0C1C     		mov	r4, r1
 929:Generated_Source\PSoC4/CyDMA.c ****     CYASSERT((channel    >= 0) && (channel    < CYDMA_CH_NR));
 1536              		.loc 1 929 0
 1537 0006 0728     		cmp	r0, #7
 1538 0008 0CD8     		bhi	.L175
 1539              	.LVL145:
 1540              	.L173:
 930:Generated_Source\PSoC4/CyDMA.c ****     CYASSERT((descriptor >= 0) && (descriptor < CYDMA_DESCR_NR));
 1541              		.loc 1 930 0
 1542 000a 012C     		cmp	r4, #1
 1543 000c 02D9     		bls	.L174
 1544              		.loc 1 930 0 is_stmt 0 discriminator 1
 1545 000e 0020     		mov	r0, #0
 1546 0010 FFF7FEFF 		bl	CyHalt
 1547              	.LVL146:
 1548              	.L174:
 931:Generated_Source\PSoC4/CyDMA.c **** 
 932:Generated_Source\PSoC4/CyDMA.c ****     return (CYDMA_DESCR_BASE.descriptor[channel][descriptor].dst);
 1549              		.loc 1 932 0 is_stmt 1
 1550 0014 054B     		ldr	r3, .L176
 1551 0016 6D00     		lsl	r5, r5, #1
 1552              	.LVL147:
 1553 0018 9C46     		mov	ip, r3
 1554 001a 2C19     		add	r4, r5, r4
 1555              	.LVL148:
 1556 001c 2401     		lsl	r4, r4, #4
 1557 001e 6444     		add	r4, r4, ip
 1558 0020 6068     		ldr	r0, [r4, #4]
 933:Generated_Source\PSoC4/CyDMA.c **** }
 1559              		.loc 1 933 0
 1560              		@ sp needed
 1561 0022 38BD     		pop	{r3, r4, r5, pc}
 1562              	.LVL149:
 1563              	.L175:
 929:Generated_Source\PSoC4/CyDMA.c ****     CYASSERT((descriptor >= 0) && (descriptor < CYDMA_DESCR_NR));
 1564              		.loc 1 929 0 discriminator 1
 1565 0024 0020     		mov	r0, #0
 1566              	.LVL150:
 1567 0026 FFF7FEFF 		bl	CyHalt
 1568              	.LVL151:
 1569 002a EEE7     		b	.L173
 1570              	.L177:
 1571              		.align	2
 1572              	.L176:
 1573 002c 00181040 		.word	1074796544
 1574              		.cfi_endproc
 1575              	.LFE32:
 1576              		.size	CyDmaGetDstAddress, .-CyDmaGetDstAddress
ARM GAS  C:\Users\glenn\AppData\Local\Temp\ccjge9sh.s 			page 47


 1577              		.section	.text.CyDmaSetDataElementSize,"ax",%progbits
 1578              		.align	2
 1579              		.global	CyDmaSetDataElementSize
 1580              		.code	16
 1581              		.thumb_func
 1582              		.type	CyDmaSetDataElementSize, %function
 1583              	CyDmaSetDataElementSize:
 1584              	.LFB33:
 934:Generated_Source\PSoC4/CyDMA.c **** 
 935:Generated_Source\PSoC4/CyDMA.c **** /*******************************************************************************
 936:Generated_Source\PSoC4/CyDMA.c **** * Function Name: CyDmaSetDataElementSize
 937:Generated_Source\PSoC4/CyDMA.c **** ********************************************************************************
 938:Generated_Source\PSoC4/CyDMA.c **** *
 939:Generated_Source\PSoC4/CyDMA.c **** * Summary:
 940:Generated_Source\PSoC4/CyDMA.c **** *  Sets the data element size for the specified descriptor.
 941:Generated_Source\PSoC4/CyDMA.c **** *
 942:Generated_Source\PSoC4/CyDMA.c **** * Parameters:
 943:Generated_Source\PSoC4/CyDMA.c **** *  channel:         Channel used by this function.
 944:Generated_Source\PSoC4/CyDMA.c **** *  descriptor:      Descriptor (0 or 1) modified by this function.
 945:Generated_Source\PSoC4/CyDMA.c **** *  dataElementSize: Specifies the size of the data element. The DMA transfer
 946:Generated_Source\PSoC4/CyDMA.c **** *                   engine transfers one data element at a time. How these
 947:Generated_Source\PSoC4/CyDMA.c **** *                   transfers occur is controlled by the transfer mode.
 948:Generated_Source\PSoC4/CyDMA.c **** *                   Refer to the API bit field definitions in CyDMA_P4.h
 949:Generated_Source\PSoC4/CyDMA.c **** *                   or API description in the DMA channel datasheet for the 
 950:Generated_Source\PSoC4/CyDMA.c **** *                   parameter options.
 951:Generated_Source\PSoC4/CyDMA.c **** *
 952:Generated_Source\PSoC4/CyDMA.c **** * Return:
 953:Generated_Source\PSoC4/CyDMA.c **** *  None.
 954:Generated_Source\PSoC4/CyDMA.c **** *
 955:Generated_Source\PSoC4/CyDMA.c **** * Side effect:
 956:Generated_Source\PSoC4/CyDMA.c **** *  This function should not be called when the specified descriptor is active
 957:Generated_Source\PSoC4/CyDMA.c **** *  in the DMA transfer engine. This can be checked by calling CyDmaGetStatus(). 
 958:Generated_Source\PSoC4/CyDMA.c **** *
 959:Generated_Source\PSoC4/CyDMA.c **** *******************************************************************************/
 960:Generated_Source\PSoC4/CyDMA.c **** void CyDmaSetDataElementSize(int32 channel, int32 descriptor, uint32 dataElementSize)
 961:Generated_Source\PSoC4/CyDMA.c **** {
 1585              		.loc 1 961 0
 1586              		.cfi_startproc
 1587              	.LVL152:
 1588 0000 70B5     		push	{r4, r5, r6, lr}
 1589              		.cfi_def_cfa_offset 16
 1590              		.cfi_offset 4, -16
 1591              		.cfi_offset 5, -12
 1592              		.cfi_offset 6, -8
 1593              		.cfi_offset 14, -4
 1594              		.loc 1 961 0
 1595 0002 051C     		mov	r5, r0
 1596 0004 0C1C     		mov	r4, r1
 1597 0006 161C     		mov	r6, r2
 962:Generated_Source\PSoC4/CyDMA.c ****     uint32 regValue;
 963:Generated_Source\PSoC4/CyDMA.c ****     
 964:Generated_Source\PSoC4/CyDMA.c ****     CYASSERT((channel    >= 0) && (channel    < CYDMA_CH_NR));
 1598              		.loc 1 964 0
 1599 0008 0728     		cmp	r0, #7
 1600 000a 16D8     		bhi	.L185
 1601              	.LVL153:
 1602              	.L179:
ARM GAS  C:\Users\glenn\AppData\Local\Temp\ccjge9sh.s 			page 48


 965:Generated_Source\PSoC4/CyDMA.c ****     CYASSERT((descriptor >= 0) && (descriptor < CYDMA_DESCR_NR));
 1603              		.loc 1 965 0
 1604 000c 012C     		cmp	r4, #1
 1605 000e 02D9     		bls	.L180
 1606              		.loc 1 965 0 is_stmt 0 discriminator 1
 1607 0010 0020     		mov	r0, #0
 1608 0012 FFF7FEFF 		bl	CyHalt
 1609              	.LVL154:
 1610              	.L180:
 966:Generated_Source\PSoC4/CyDMA.c ****     CYASSERT(0u == (dataElementSize & (uint32)~CYDMA_DATA_SIZE));
 1611              		.loc 1 966 0 is_stmt 1
 1612 0016 0B4B     		ldr	r3, .L186
 1613 0018 1E42     		tst	r6, r3
 1614 001a 02D0     		beq	.L181
 1615              		.loc 1 966 0 is_stmt 0 discriminator 1
 1616 001c 0020     		mov	r0, #0
 1617 001e FFF7FEFF 		bl	CyHalt
 1618              	.LVL155:
 1619              	.L181:
 967:Generated_Source\PSoC4/CyDMA.c **** 
 968:Generated_Source\PSoC4/CyDMA.c ****     regValue = CYDMA_DESCR_BASE.descriptor[channel][descriptor].ctl & (uint32)~CYDMA_DATA_SIZE;
 1620              		.loc 1 968 0 is_stmt 1
 1621 0022 094B     		ldr	r3, .L186+4
 1622 0024 6D00     		lsl	r5, r5, #1
 1623              	.LVL156:
 1624 0026 9C46     		mov	ip, r3
 1625 0028 2C19     		add	r4, r5, r4
 1626              	.LVL157:
 1627 002a 2401     		lsl	r4, r4, #4
 1628 002c 6444     		add	r4, r4, ip
 1629 002e A268     		ldr	r2, [r4, #8]
 1630              	.LVL158:
 1631 0030 044B     		ldr	r3, .L186
 969:Generated_Source\PSoC4/CyDMA.c ****     CYDMA_DESCR_BASE.descriptor[channel][descriptor].ctl = regValue | dataElementSize;
 970:Generated_Source\PSoC4/CyDMA.c **** }
 1632              		.loc 1 970 0
 1633              		@ sp needed
 968:Generated_Source\PSoC4/CyDMA.c ****     CYDMA_DESCR_BASE.descriptor[channel][descriptor].ctl = regValue | dataElementSize;
 1634              		.loc 1 968 0
 1635 0032 1A40     		and	r2, r3
 1636              	.LVL159:
 969:Generated_Source\PSoC4/CyDMA.c ****     CYDMA_DESCR_BASE.descriptor[channel][descriptor].ctl = regValue | dataElementSize;
 1637              		.loc 1 969 0
 1638 0034 3243     		orr	r2, r6
 1639              	.LVL160:
 1640 0036 A260     		str	r2, [r4, #8]
 1641              	.LVL161:
 1642              		.loc 1 970 0
 1643 0038 70BD     		pop	{r4, r5, r6, pc}
 1644              	.LVL162:
 1645              	.L185:
 964:Generated_Source\PSoC4/CyDMA.c ****     CYASSERT((descriptor >= 0) && (descriptor < CYDMA_DESCR_NR));
 1646              		.loc 1 964 0 discriminator 1
 1647 003a 0020     		mov	r0, #0
 1648              	.LVL163:
 1649 003c FFF7FEFF 		bl	CyHalt
 1650              	.LVL164:
ARM GAS  C:\Users\glenn\AppData\Local\Temp\ccjge9sh.s 			page 49


 1651 0040 E4E7     		b	.L179
 1652              	.L187:
 1653 0042 C046     		.align	2
 1654              	.L186:
 1655 0044 FFFFFCFF 		.word	-196609
 1656 0048 00181040 		.word	1074796544
 1657              		.cfi_endproc
 1658              	.LFE33:
 1659              		.size	CyDmaSetDataElementSize, .-CyDmaSetDataElementSize
 1660              		.section	.text.CyDmaGetDataElementSize,"ax",%progbits
 1661              		.align	2
 1662              		.global	CyDmaGetDataElementSize
 1663              		.code	16
 1664              		.thumb_func
 1665              		.type	CyDmaGetDataElementSize, %function
 1666              	CyDmaGetDataElementSize:
 1667              	.LFB34:
 971:Generated_Source\PSoC4/CyDMA.c **** 
 972:Generated_Source\PSoC4/CyDMA.c **** 
 973:Generated_Source\PSoC4/CyDMA.c **** /*******************************************************************************
 974:Generated_Source\PSoC4/CyDMA.c **** * Function Name: CyDmaGetDataElementSize
 975:Generated_Source\PSoC4/CyDMA.c **** ********************************************************************************
 976:Generated_Source\PSoC4/CyDMA.c **** *
 977:Generated_Source\PSoC4/CyDMA.c **** * Summary:
 978:Generated_Source\PSoC4/CyDMA.c **** *  Returns the data element size configured for the specified descriptor, set by
 979:Generated_Source\PSoC4/CyDMA.c **** *  CyDmaSetDataElementSize() or CyDmaSetConfiguration.
 980:Generated_Source\PSoC4/CyDMA.c **** *
 981:Generated_Source\PSoC4/CyDMA.c **** * Parameters:
 982:Generated_Source\PSoC4/CyDMA.c **** *  channel:    Channel used by this function.
 983:Generated_Source\PSoC4/CyDMA.c **** *  descriptor: Descriptor (0 or 1) modified by this function.
 984:Generated_Source\PSoC4/CyDMA.c **** *                   
 985:Generated_Source\PSoC4/CyDMA.c **** * Return:
 986:Generated_Source\PSoC4/CyDMA.c **** *  The size of the data element. The DMA transfer engine transfers one data
 987:Generated_Source\PSoC4/CyDMA.c **** *  element at a time. How these transfers occur is controlled by the transfer
 988:Generated_Source\PSoC4/CyDMA.c **** *  mode. Refer to the API bit field definitions in CyDMA_P4.h or the API 
 989:Generated_Source\PSoC4/CyDMA.c **** *  description in the DMA channel datasheet for more information.
 990:Generated_Source\PSoC4/CyDMA.c **** *
 991:Generated_Source\PSoC4/CyDMA.c **** * Note:
 992:Generated_Source\PSoC4/CyDMA.c **** *  The size of the source and destination can be configured to use the
 993:Generated_Source\PSoC4/CyDMA.c **** *  data element size, or a Word, this is set in CyDmaSetSrcDstTransferWidth().
 994:Generated_Source\PSoC4/CyDMA.c **** *
 995:Generated_Source\PSoC4/CyDMA.c **** *******************************************************************************/
 996:Generated_Source\PSoC4/CyDMA.c **** uint32 CyDmaGetDataElementSize(int32 channel, int32 descriptor)
 997:Generated_Source\PSoC4/CyDMA.c **** {
 1668              		.loc 1 997 0
 1669              		.cfi_startproc
 1670              	.LVL165:
 1671 0000 38B5     		push	{r3, r4, r5, lr}
 1672              		.cfi_def_cfa_offset 16
 1673              		.cfi_offset 3, -16
 1674              		.cfi_offset 4, -12
 1675              		.cfi_offset 5, -8
 1676              		.cfi_offset 14, -4
 1677              		.loc 1 997 0
 1678 0002 051C     		mov	r5, r0
 1679 0004 0C1C     		mov	r4, r1
 998:Generated_Source\PSoC4/CyDMA.c ****     CYASSERT((channel    >= 0) && (channel    < CYDMA_CH_NR));
ARM GAS  C:\Users\glenn\AppData\Local\Temp\ccjge9sh.s 			page 50


 1680              		.loc 1 998 0
 1681 0006 0728     		cmp	r0, #7
 1682 0008 0FD8     		bhi	.L191
 1683              	.LVL166:
 1684              	.L189:
 999:Generated_Source\PSoC4/CyDMA.c ****     CYASSERT((descriptor >= 0) && (descriptor < CYDMA_DESCR_NR));
 1685              		.loc 1 999 0
 1686 000a 012C     		cmp	r4, #1
 1687 000c 02D9     		bls	.L190
 1688              		.loc 1 999 0 is_stmt 0 discriminator 1
 1689 000e 0020     		mov	r0, #0
 1690 0010 FFF7FEFF 		bl	CyHalt
 1691              	.LVL167:
 1692              	.L190:
1000:Generated_Source\PSoC4/CyDMA.c **** 
1001:Generated_Source\PSoC4/CyDMA.c ****     return (CYDMA_DESCR_BASE.descriptor[channel][descriptor].ctl & CYDMA_DATA_SIZE);
 1693              		.loc 1 1001 0 is_stmt 1
 1694 0014 074B     		ldr	r3, .L192
 1695 0016 6D00     		lsl	r5, r5, #1
 1696              	.LVL168:
 1697 0018 9C46     		mov	ip, r3
 1698 001a C023     		mov	r3, #192
 1699 001c 2C19     		add	r4, r5, r4
 1700              	.LVL169:
 1701 001e 2401     		lsl	r4, r4, #4
 1702 0020 6444     		add	r4, r4, ip
 1703 0022 A068     		ldr	r0, [r4, #8]
 1704 0024 9B02     		lsl	r3, r3, #10
 1705 0026 1840     		and	r0, r3
1002:Generated_Source\PSoC4/CyDMA.c **** }
 1706              		.loc 1 1002 0
 1707              		@ sp needed
 1708 0028 38BD     		pop	{r3, r4, r5, pc}
 1709              	.LVL170:
 1710              	.L191:
 998:Generated_Source\PSoC4/CyDMA.c ****     CYASSERT((descriptor >= 0) && (descriptor < CYDMA_DESCR_NR));
 1711              		.loc 1 998 0 discriminator 1
 1712 002a 0020     		mov	r0, #0
 1713              	.LVL171:
 1714 002c FFF7FEFF 		bl	CyHalt
 1715              	.LVL172:
 1716 0030 EBE7     		b	.L189
 1717              	.L193:
 1718 0032 C046     		.align	2
 1719              	.L192:
 1720 0034 00181040 		.word	1074796544
 1721              		.cfi_endproc
 1722              	.LFE34:
 1723              		.size	CyDmaGetDataElementSize, .-CyDmaGetDataElementSize
 1724              		.section	.text.CyDmaSetNumDataElements,"ax",%progbits
 1725              		.align	2
 1726              		.global	CyDmaSetNumDataElements
 1727              		.code	16
 1728              		.thumb_func
 1729              		.type	CyDmaSetNumDataElements, %function
 1730              	CyDmaSetNumDataElements:
 1731              	.LFB35:
ARM GAS  C:\Users\glenn\AppData\Local\Temp\ccjge9sh.s 			page 51


1003:Generated_Source\PSoC4/CyDMA.c **** 
1004:Generated_Source\PSoC4/CyDMA.c **** 
1005:Generated_Source\PSoC4/CyDMA.c **** /*******************************************************************************
1006:Generated_Source\PSoC4/CyDMA.c **** * Function Name: CyDmaSetNumDataElements
1007:Generated_Source\PSoC4/CyDMA.c **** ********************************************************************************
1008:Generated_Source\PSoC4/CyDMA.c **** *
1009:Generated_Source\PSoC4/CyDMA.c **** * Summary:
1010:Generated_Source\PSoC4/CyDMA.c **** *  Sets the number of data elements to transfer for specified descriptor.
1011:Generated_Source\PSoC4/CyDMA.c **** *
1012:Generated_Source\PSoC4/CyDMA.c **** * Parameters:
1013:Generated_Source\PSoC4/CyDMA.c **** *  channel:         Channel used by this function.
1014:Generated_Source\PSoC4/CyDMA.c **** *  descriptor:      Descriptor (0 or 1) modified by this function.
1015:Generated_Source\PSoC4/CyDMA.c **** *  numDataElements: Total number of data elements this descriptor transfers.
1016:Generated_Source\PSoC4/CyDMA.c **** *                   Valid ranges are 1 to 65536.
1017:Generated_Source\PSoC4/CyDMA.c **** *                   
1018:Generated_Source\PSoC4/CyDMA.c **** * Return:
1019:Generated_Source\PSoC4/CyDMA.c **** *  None.
1020:Generated_Source\PSoC4/CyDMA.c **** *
1021:Generated_Source\PSoC4/CyDMA.c **** * Side effect:
1022:Generated_Source\PSoC4/CyDMA.c **** *  This function should not be called when the specified descriptor is active
1023:Generated_Source\PSoC4/CyDMA.c **** *  in the DMA transfer engine. This can be checked by calling CyDmaGetStatus(). 
1024:Generated_Source\PSoC4/CyDMA.c **** *
1025:Generated_Source\PSoC4/CyDMA.c **** *******************************************************************************/
1026:Generated_Source\PSoC4/CyDMA.c **** void CyDmaSetNumDataElements(int32 channel, int32 descriptor, int32 numDataElements)
1027:Generated_Source\PSoC4/CyDMA.c **** {
 1732              		.loc 1 1027 0
 1733              		.cfi_startproc
 1734              	.LVL173:
 1735 0000 70B5     		push	{r4, r5, r6, lr}
 1736              		.cfi_def_cfa_offset 16
 1737              		.cfi_offset 4, -16
 1738              		.cfi_offset 5, -12
 1739              		.cfi_offset 6, -8
 1740              		.cfi_offset 14, -4
 1741              		.loc 1 1027 0
 1742 0002 061C     		mov	r6, r0
 1743 0004 0C1C     		mov	r4, r1
 1744 0006 151C     		mov	r5, r2
1028:Generated_Source\PSoC4/CyDMA.c ****     uint32 regValue;
1029:Generated_Source\PSoC4/CyDMA.c ****     
1030:Generated_Source\PSoC4/CyDMA.c ****     CYASSERT((channel        >= 0) && (channel         <  CYDMA_CH_NR));
 1745              		.loc 1 1030 0
 1746 0008 0728     		cmp	r0, #7
 1747 000a 17D8     		bhi	.L198
 1748              	.LVL174:
 1749              	.L195:
1031:Generated_Source\PSoC4/CyDMA.c ****     CYASSERT((descriptor     >= 0) && (descriptor      <  CYDMA_DESCR_NR));
 1750              		.loc 1 1031 0
 1751 000c 012C     		cmp	r4, #1
 1752 000e 02D9     		bls	.L196
 1753              		.loc 1 1031 0 is_stmt 0 discriminator 1
 1754 0010 0020     		mov	r0, #0
 1755 0012 FFF7FEFF 		bl	CyHalt
 1756              	.LVL175:
 1757              	.L196:
1032:Generated_Source\PSoC4/CyDMA.c ****     CYASSERT((numDataElements > 0) && (numDataElements <= CYDMA_MAX_DATA_NR));
 1758              		.loc 1 1032 0 is_stmt 1
ARM GAS  C:\Users\glenn\AppData\Local\Temp\ccjge9sh.s 			page 52


 1759 0016 0B4B     		ldr	r3, .L199
 1760 0018 013D     		sub	r5, r5, #1
 1761              	.LVL176:
 1762 001a 9D42     		cmp	r5, r3
 1763 001c 02D9     		bls	.L197
 1764              		.loc 1 1032 0 is_stmt 0 discriminator 1
 1765 001e 0020     		mov	r0, #0
 1766 0020 FFF7FEFF 		bl	CyHalt
 1767              	.LVL177:
 1768              	.L197:
1033:Generated_Source\PSoC4/CyDMA.c ****     
1034:Generated_Source\PSoC4/CyDMA.c ****     --numDataElements;
1035:Generated_Source\PSoC4/CyDMA.c ****     regValue = CYDMA_DESCR_BASE.descriptor[channel][descriptor].ctl & (uint32)~CYDMA_DATA_NR;
 1769              		.loc 1 1035 0 is_stmt 1
 1770 0024 084B     		ldr	r3, .L199+4
 1771 0026 7600     		lsl	r6, r6, #1
 1772              	.LVL178:
 1773 0028 9C46     		mov	ip, r3
 1774 002a 3419     		add	r4, r6, r4
 1775              	.LVL179:
 1776 002c 2401     		lsl	r4, r4, #4
 1777 002e 6444     		add	r4, r4, ip
 1778 0030 A268     		ldr	r2, [r4, #8]
 1779              	.LVL180:
1036:Generated_Source\PSoC4/CyDMA.c ****     CYDMA_DESCR_BASE.descriptor[channel][descriptor].ctl = regValue | (uint32)numDataElements;
1037:Generated_Source\PSoC4/CyDMA.c **** }
 1780              		.loc 1 1037 0
 1781              		@ sp needed
1035:Generated_Source\PSoC4/CyDMA.c ****     CYDMA_DESCR_BASE.descriptor[channel][descriptor].ctl = regValue | (uint32)numDataElements;
 1782              		.loc 1 1035 0
 1783 0032 120C     		lsr	r2, r2, #16
 1784              	.LVL181:
 1785 0034 1204     		lsl	r2, r2, #16
1036:Generated_Source\PSoC4/CyDMA.c ****     CYDMA_DESCR_BASE.descriptor[channel][descriptor].ctl = regValue | (uint32)numDataElements;
 1786              		.loc 1 1036 0
 1787 0036 2A43     		orr	r2, r5
 1788 0038 A260     		str	r2, [r4, #8]
 1789              	.LVL182:
 1790              		.loc 1 1037 0
 1791 003a 70BD     		pop	{r4, r5, r6, pc}
 1792              	.LVL183:
 1793              	.L198:
1030:Generated_Source\PSoC4/CyDMA.c ****     CYASSERT((descriptor     >= 0) && (descriptor      <  CYDMA_DESCR_NR));
 1794              		.loc 1 1030 0 discriminator 1
 1795 003c 0020     		mov	r0, #0
 1796              	.LVL184:
 1797 003e FFF7FEFF 		bl	CyHalt
 1798              	.LVL185:
 1799 0042 E3E7     		b	.L195
 1800              	.L200:
 1801              		.align	2
 1802              	.L199:
 1803 0044 FFFF0000 		.word	65535
 1804 0048 00181040 		.word	1074796544
 1805              		.cfi_endproc
 1806              	.LFE35:
 1807              		.size	CyDmaSetNumDataElements, .-CyDmaSetNumDataElements
ARM GAS  C:\Users\glenn\AppData\Local\Temp\ccjge9sh.s 			page 53


 1808              		.section	.text.CyDmaGetNumDataElements,"ax",%progbits
 1809              		.align	2
 1810              		.global	CyDmaGetNumDataElements
 1811              		.code	16
 1812              		.thumb_func
 1813              		.type	CyDmaGetNumDataElements, %function
 1814              	CyDmaGetNumDataElements:
 1815              	.LFB36:
1038:Generated_Source\PSoC4/CyDMA.c **** 
1039:Generated_Source\PSoC4/CyDMA.c **** 
1040:Generated_Source\PSoC4/CyDMA.c **** /*******************************************************************************
1041:Generated_Source\PSoC4/CyDMA.c **** * Function Name: CyDmaGetNumDataElements
1042:Generated_Source\PSoC4/CyDMA.c **** ********************************************************************************
1043:Generated_Source\PSoC4/CyDMA.c **** *
1044:Generated_Source\PSoC4/CyDMA.c **** * Summary:
1045:Generated_Source\PSoC4/CyDMA.c **** *  Returns the number of data elements to be transferred. Only reflects the
1046:Generated_Source\PSoC4/CyDMA.c **** *  value written by CyDmaSetNumDataElements() or CyDmaSetConfiguration(). This
1047:Generated_Source\PSoC4/CyDMA.c **** *  does not reflect how many elements have been transferred. For that
1048:Generated_Source\PSoC4/CyDMA.c **** *  information use the CyDmaGetDescriptorStatus() function.
1049:Generated_Source\PSoC4/CyDMA.c **** *
1050:Generated_Source\PSoC4/CyDMA.c **** * Parameters:
1051:Generated_Source\PSoC4/CyDMA.c **** *  channel:    Channel used by this function.
1052:Generated_Source\PSoC4/CyDMA.c **** *  descriptor: Descriptor (0 or 1) modified by this function.
1053:Generated_Source\PSoC4/CyDMA.c **** *                   
1054:Generated_Source\PSoC4/CyDMA.c **** * Return:
1055:Generated_Source\PSoC4/CyDMA.c **** *  Number of data elements to transfer.
1056:Generated_Source\PSoC4/CyDMA.c **** *
1057:Generated_Source\PSoC4/CyDMA.c **** *******************************************************************************/
1058:Generated_Source\PSoC4/CyDMA.c **** int32 CyDmaGetNumDataElements(int32 channel, int32 descriptor)
1059:Generated_Source\PSoC4/CyDMA.c **** {
 1816              		.loc 1 1059 0
 1817              		.cfi_startproc
 1818              	.LVL186:
 1819 0000 38B5     		push	{r3, r4, r5, lr}
 1820              		.cfi_def_cfa_offset 16
 1821              		.cfi_offset 3, -16
 1822              		.cfi_offset 4, -12
 1823              		.cfi_offset 5, -8
 1824              		.cfi_offset 14, -4
 1825              		.loc 1 1059 0
 1826 0002 051C     		mov	r5, r0
 1827 0004 0C1C     		mov	r4, r1
1060:Generated_Source\PSoC4/CyDMA.c ****     uint32 numElements;
1061:Generated_Source\PSoC4/CyDMA.c **** 
1062:Generated_Source\PSoC4/CyDMA.c ****     CYASSERT((channel    >= 0) && (channel    < CYDMA_CH_NR));
 1828              		.loc 1 1062 0
 1829 0006 0728     		cmp	r0, #7
 1830 0008 0FD8     		bhi	.L204
 1831              	.LVL187:
 1832              	.L202:
1063:Generated_Source\PSoC4/CyDMA.c ****     CYASSERT((descriptor >= 0) && (descriptor < CYDMA_DESCR_NR));
 1833              		.loc 1 1063 0
 1834 000a 012C     		cmp	r4, #1
 1835 000c 02D9     		bls	.L203
 1836              		.loc 1 1063 0 is_stmt 0 discriminator 1
 1837 000e 0020     		mov	r0, #0
 1838 0010 FFF7FEFF 		bl	CyHalt
ARM GAS  C:\Users\glenn\AppData\Local\Temp\ccjge9sh.s 			page 54


 1839              	.LVL188:
 1840              	.L203:
1064:Generated_Source\PSoC4/CyDMA.c ****     
1065:Generated_Source\PSoC4/CyDMA.c ****     numElements = (CYDMA_DESCR_BASE.descriptor[channel][descriptor].ctl & CYDMA_DATA_NR) + 1u;
 1841              		.loc 1 1065 0 is_stmt 1
 1842 0014 074B     		ldr	r3, .L205
 1843 0016 6D00     		lsl	r5, r5, #1
 1844              	.LVL189:
 1845 0018 9C46     		mov	ip, r3
 1846 001a 2C19     		add	r4, r5, r4
 1847              	.LVL190:
 1848 001c 2401     		lsl	r4, r4, #4
 1849 001e 6444     		add	r4, r4, ip
 1850 0020 A068     		ldr	r0, [r4, #8]
 1851              	.LVL191:
1066:Generated_Source\PSoC4/CyDMA.c ****     return ((int32)numElements);
1067:Generated_Source\PSoC4/CyDMA.c **** }
 1852              		.loc 1 1067 0
 1853              		@ sp needed
1065:Generated_Source\PSoC4/CyDMA.c ****     return ((int32)numElements);
 1854              		.loc 1 1065 0
 1855 0022 0004     		lsl	r0, r0, #16
 1856              	.LVL192:
 1857 0024 000C     		lsr	r0, r0, #16
 1858 0026 0130     		add	r0, r0, #1
 1859              		.loc 1 1067 0
 1860 0028 38BD     		pop	{r3, r4, r5, pc}
 1861              	.LVL193:
 1862              	.L204:
1062:Generated_Source\PSoC4/CyDMA.c ****     CYASSERT((descriptor >= 0) && (descriptor < CYDMA_DESCR_NR));
 1863              		.loc 1 1062 0 discriminator 1
 1864 002a 0020     		mov	r0, #0
 1865              	.LVL194:
 1866 002c FFF7FEFF 		bl	CyHalt
 1867              	.LVL195:
 1868 0030 EBE7     		b	.L202
 1869              	.L206:
 1870 0032 C046     		.align	2
 1871              	.L205:
 1872 0034 00181040 		.word	1074796544
 1873              		.cfi_endproc
 1874              	.LFE36:
 1875              		.size	CyDmaGetNumDataElements, .-CyDmaGetNumDataElements
 1876              		.section	.text.CyDmaSetSrcDstTransferWidth,"ax",%progbits
 1877              		.align	2
 1878              		.global	CyDmaSetSrcDstTransferWidth
 1879              		.code	16
 1880              		.thumb_func
 1881              		.type	CyDmaSetSrcDstTransferWidth, %function
 1882              	CyDmaSetSrcDstTransferWidth:
 1883              	.LFB37:
1068:Generated_Source\PSoC4/CyDMA.c **** 
1069:Generated_Source\PSoC4/CyDMA.c **** 
1070:Generated_Source\PSoC4/CyDMA.c **** /*******************************************************************************
1071:Generated_Source\PSoC4/CyDMA.c **** * Function Name: CyDmaSetSrcDstTransferWidth
1072:Generated_Source\PSoC4/CyDMA.c **** ********************************************************************************
1073:Generated_Source\PSoC4/CyDMA.c **** *
ARM GAS  C:\Users\glenn\AppData\Local\Temp\ccjge9sh.s 			page 55


1074:Generated_Source\PSoC4/CyDMA.c **** * Summary:
1075:Generated_Source\PSoC4/CyDMA.c **** *  Sets the width of the source and destination. The DMA can either read and
1076:Generated_Source\PSoC4/CyDMA.c **** *  write data from the source and destination at the size specified by
1077:Generated_Source\PSoC4/CyDMA.c **** *  CyDmaSetDataElementSize() or by a word (4bytes). This also determines how
1078:Generated_Source\PSoC4/CyDMA.c **** *  many bytes the addresses are incremented if increment source and destination
1079:Generated_Source\PSoC4/CyDMA.c **** *  address are turned on.
1080:Generated_Source\PSoC4/CyDMA.c **** *
1081:Generated_Source\PSoC4/CyDMA.c **** * Parameters:
1082:Generated_Source\PSoC4/CyDMA.c **** *  channel:       Channel used by this function.
1083:Generated_Source\PSoC4/CyDMA.c **** *  descriptor:    Descriptor (0 or 1) modified by this function.
1084:Generated_Source\PSoC4/CyDMA.c **** *  transferWidth: Specifies the source and destination widths. Refer to 
1085:Generated_Source\PSoC4/CyDMA.c **** *                 the API bit field definitions in CyDMA_P4.h or the API
1086:Generated_Source\PSoC4/CyDMA.c **** *                 description in the DMA channel datasheet for the parameter
1087:Generated_Source\PSoC4/CyDMA.c **** *                 options.
1088:Generated_Source\PSoC4/CyDMA.c **** *                   
1089:Generated_Source\PSoC4/CyDMA.c **** * Return:
1090:Generated_Source\PSoC4/CyDMA.c **** *  None.
1091:Generated_Source\PSoC4/CyDMA.c **** *
1092:Generated_Source\PSoC4/CyDMA.c **** * Side effect:
1093:Generated_Source\PSoC4/CyDMA.c **** *  This function should not be called when the specified descriptor is active
1094:Generated_Source\PSoC4/CyDMA.c **** *  in the DMA transfer engine. This can be checked by calling CyDmaGetStatus(). 
1095:Generated_Source\PSoC4/CyDMA.c **** *
1096:Generated_Source\PSoC4/CyDMA.c **** *******************************************************************************/
1097:Generated_Source\PSoC4/CyDMA.c **** void CyDmaSetSrcDstTransferWidth(int32 channel, int32 descriptor, uint32 transferWidth)
1098:Generated_Source\PSoC4/CyDMA.c **** {
 1884              		.loc 1 1098 0
 1885              		.cfi_startproc
 1886              	.LVL196:
 1887 0000 70B5     		push	{r4, r5, r6, lr}
 1888              		.cfi_def_cfa_offset 16
 1889              		.cfi_offset 4, -16
 1890              		.cfi_offset 5, -12
 1891              		.cfi_offset 6, -8
 1892              		.cfi_offset 14, -4
 1893              		.loc 1 1098 0
 1894 0002 051C     		mov	r5, r0
 1895 0004 0C1C     		mov	r4, r1
 1896 0006 161C     		mov	r6, r2
1099:Generated_Source\PSoC4/CyDMA.c ****     uint32 regValue;
1100:Generated_Source\PSoC4/CyDMA.c **** 
1101:Generated_Source\PSoC4/CyDMA.c ****     CYASSERT((channel    >= 0) && (channel    < CYDMA_CH_NR));
 1897              		.loc 1 1101 0
 1898 0008 0728     		cmp	r0, #7
 1899 000a 16D8     		bhi	.L214
 1900              	.LVL197:
 1901              	.L208:
1102:Generated_Source\PSoC4/CyDMA.c ****     CYASSERT((descriptor >= 0) && (descriptor < CYDMA_DESCR_NR));
 1902              		.loc 1 1102 0
 1903 000c 012C     		cmp	r4, #1
 1904 000e 02D9     		bls	.L209
 1905              		.loc 1 1102 0 is_stmt 0 discriminator 1
 1906 0010 0020     		mov	r0, #0
 1907 0012 FFF7FEFF 		bl	CyHalt
 1908              	.LVL198:
 1909              	.L209:
1103:Generated_Source\PSoC4/CyDMA.c ****     CYASSERT(0u == (transferWidth & (uint32)~CYDMA_TRANSFER_WIDTH));
 1910              		.loc 1 1103 0 is_stmt 1
ARM GAS  C:\Users\glenn\AppData\Local\Temp\ccjge9sh.s 			page 56


 1911 0016 0B4B     		ldr	r3, .L215
 1912 0018 1E42     		tst	r6, r3
 1913 001a 02D0     		beq	.L210
 1914              		.loc 1 1103 0 is_stmt 0 discriminator 1
 1915 001c 0020     		mov	r0, #0
 1916 001e FFF7FEFF 		bl	CyHalt
 1917              	.LVL199:
 1918              	.L210:
1104:Generated_Source\PSoC4/CyDMA.c **** 
1105:Generated_Source\PSoC4/CyDMA.c ****     regValue = CYDMA_DESCR_BASE.descriptor[channel][descriptor].ctl & (uint32)~CYDMA_TRANSFER_WIDTH
 1919              		.loc 1 1105 0 is_stmt 1
 1920 0022 094B     		ldr	r3, .L215+4
 1921 0024 6D00     		lsl	r5, r5, #1
 1922              	.LVL200:
 1923 0026 9C46     		mov	ip, r3
 1924 0028 2C19     		add	r4, r5, r4
 1925              	.LVL201:
 1926 002a 2401     		lsl	r4, r4, #4
 1927 002c 6444     		add	r4, r4, ip
 1928 002e A268     		ldr	r2, [r4, #8]
 1929              	.LVL202:
 1930 0030 044B     		ldr	r3, .L215
1106:Generated_Source\PSoC4/CyDMA.c ****     CYDMA_DESCR_BASE.descriptor[channel][descriptor].ctl = regValue | transferWidth;
1107:Generated_Source\PSoC4/CyDMA.c **** }
 1931              		.loc 1 1107 0
 1932              		@ sp needed
1105:Generated_Source\PSoC4/CyDMA.c ****     CYDMA_DESCR_BASE.descriptor[channel][descriptor].ctl = regValue | transferWidth;
 1933              		.loc 1 1105 0
 1934 0032 1A40     		and	r2, r3
 1935              	.LVL203:
1106:Generated_Source\PSoC4/CyDMA.c ****     CYDMA_DESCR_BASE.descriptor[channel][descriptor].ctl = regValue | transferWidth;
 1936              		.loc 1 1106 0
 1937 0034 3243     		orr	r2, r6
 1938              	.LVL204:
 1939 0036 A260     		str	r2, [r4, #8]
 1940              	.LVL205:
 1941              		.loc 1 1107 0
 1942 0038 70BD     		pop	{r4, r5, r6, pc}
 1943              	.LVL206:
 1944              	.L214:
1101:Generated_Source\PSoC4/CyDMA.c ****     CYASSERT((descriptor >= 0) && (descriptor < CYDMA_DESCR_NR));
 1945              		.loc 1 1101 0 discriminator 1
 1946 003a 0020     		mov	r0, #0
 1947              	.LVL207:
 1948 003c FFF7FEFF 		bl	CyHalt
 1949              	.LVL208:
 1950 0040 E4E7     		b	.L208
 1951              	.L216:
 1952 0042 C046     		.align	2
 1953              	.L215:
 1954 0044 FFFFAFFF 		.word	-5242881
 1955 0048 00181040 		.word	1074796544
 1956              		.cfi_endproc
 1957              	.LFE37:
 1958              		.size	CyDmaSetSrcDstTransferWidth, .-CyDmaSetSrcDstTransferWidth
 1959              		.section	.text.CyDmaGetSrcDstTransferWidth,"ax",%progbits
 1960              		.align	2
ARM GAS  C:\Users\glenn\AppData\Local\Temp\ccjge9sh.s 			page 57


 1961              		.global	CyDmaGetSrcDstTransferWidth
 1962              		.code	16
 1963              		.thumb_func
 1964              		.type	CyDmaGetSrcDstTransferWidth, %function
 1965              	CyDmaGetSrcDstTransferWidth:
 1966              	.LFB38:
1108:Generated_Source\PSoC4/CyDMA.c **** 
1109:Generated_Source\PSoC4/CyDMA.c **** 
1110:Generated_Source\PSoC4/CyDMA.c **** /*******************************************************************************
1111:Generated_Source\PSoC4/CyDMA.c **** * Function Name: CyDmaGetSrcDstTransferWidth
1112:Generated_Source\PSoC4/CyDMA.c **** ********************************************************************************
1113:Generated_Source\PSoC4/CyDMA.c **** *
1114:Generated_Source\PSoC4/CyDMA.c **** * Summary:
1115:Generated_Source\PSoC4/CyDMA.c **** *  Returns the width of the source and destination, as set by 
1116:Generated_Source\PSoC4/CyDMA.c **** *  CyDmaSetSrcDstTransferWidth() or CyDmaSetConfiguration().
1117:Generated_Source\PSoC4/CyDMA.c **** *
1118:Generated_Source\PSoC4/CyDMA.c **** * Parameters:
1119:Generated_Source\PSoC4/CyDMA.c **** *  channel:    Channel used by this function.
1120:Generated_Source\PSoC4/CyDMA.c **** *  descriptor: Descriptor (0 or 1) modified by this function.
1121:Generated_Source\PSoC4/CyDMA.c **** *                   
1122:Generated_Source\PSoC4/CyDMA.c **** * Return:
1123:Generated_Source\PSoC4/CyDMA.c **** *  Width of source and destination. Refer to the API bit field definitions in
1124:Generated_Source\PSoC4/CyDMA.c **** *  CyDMA_P4.h or the API description in the DMA channel datasheet for more
1125:Generated_Source\PSoC4/CyDMA.c **** *  information.
1126:Generated_Source\PSoC4/CyDMA.c **** *
1127:Generated_Source\PSoC4/CyDMA.c **** *******************************************************************************/
1128:Generated_Source\PSoC4/CyDMA.c **** uint32 CyDmaGetSrcDstTransferWidth(int32 channel, int32 descriptor)
1129:Generated_Source\PSoC4/CyDMA.c **** {
 1967              		.loc 1 1129 0
 1968              		.cfi_startproc
 1969              	.LVL209:
 1970 0000 38B5     		push	{r3, r4, r5, lr}
 1971              		.cfi_def_cfa_offset 16
 1972              		.cfi_offset 3, -16
 1973              		.cfi_offset 4, -12
 1974              		.cfi_offset 5, -8
 1975              		.cfi_offset 14, -4
 1976              		.loc 1 1129 0
 1977 0002 051C     		mov	r5, r0
 1978 0004 0C1C     		mov	r4, r1
1130:Generated_Source\PSoC4/CyDMA.c ****     CYASSERT((channel    >= 0) && (channel    < CYDMA_CH_NR));
 1979              		.loc 1 1130 0
 1980 0006 0728     		cmp	r0, #7
 1981 0008 0FD8     		bhi	.L220
 1982              	.LVL210:
 1983              	.L218:
1131:Generated_Source\PSoC4/CyDMA.c ****     CYASSERT((descriptor >= 0) && (descriptor < CYDMA_DESCR_NR));
 1984              		.loc 1 1131 0
 1985 000a 012C     		cmp	r4, #1
 1986 000c 02D9     		bls	.L219
 1987              		.loc 1 1131 0 is_stmt 0 discriminator 1
 1988 000e 0020     		mov	r0, #0
 1989 0010 FFF7FEFF 		bl	CyHalt
 1990              	.LVL211:
 1991              	.L219:
1132:Generated_Source\PSoC4/CyDMA.c ****     return (CYDMA_DESCR_BASE.descriptor[channel][descriptor].ctl & CYDMA_TRANSFER_WIDTH);
 1992              		.loc 1 1132 0 is_stmt 1
ARM GAS  C:\Users\glenn\AppData\Local\Temp\ccjge9sh.s 			page 58


 1993 0014 074B     		ldr	r3, .L221
 1994 0016 6D00     		lsl	r5, r5, #1
 1995              	.LVL212:
 1996 0018 9C46     		mov	ip, r3
 1997 001a A023     		mov	r3, #160
 1998 001c 2C19     		add	r4, r5, r4
 1999              	.LVL213:
 2000 001e 2401     		lsl	r4, r4, #4
 2001 0020 6444     		add	r4, r4, ip
 2002 0022 A068     		ldr	r0, [r4, #8]
 2003 0024 DB03     		lsl	r3, r3, #15
 2004 0026 1840     		and	r0, r3
1133:Generated_Source\PSoC4/CyDMA.c **** }
 2005              		.loc 1 1133 0
 2006              		@ sp needed
 2007 0028 38BD     		pop	{r3, r4, r5, pc}
 2008              	.LVL214:
 2009              	.L220:
1130:Generated_Source\PSoC4/CyDMA.c ****     CYASSERT((descriptor >= 0) && (descriptor < CYDMA_DESCR_NR));
 2010              		.loc 1 1130 0 discriminator 1
 2011 002a 0020     		mov	r0, #0
 2012              	.LVL215:
 2013 002c FFF7FEFF 		bl	CyHalt
 2014              	.LVL216:
 2015 0030 EBE7     		b	.L218
 2016              	.L222:
 2017 0032 C046     		.align	2
 2018              	.L221:
 2019 0034 00181040 		.word	1074796544
 2020              		.cfi_endproc
 2021              	.LFE38:
 2022              		.size	CyDmaGetSrcDstTransferWidth, .-CyDmaGetSrcDstTransferWidth
 2023              		.section	.text.CyDmaSetAddressIncrement,"ax",%progbits
 2024              		.align	2
 2025              		.global	CyDmaSetAddressIncrement
 2026              		.code	16
 2027              		.thumb_func
 2028              		.type	CyDmaSetAddressIncrement, %function
 2029              	CyDmaSetAddressIncrement:
 2030              	.LFB39:
1134:Generated_Source\PSoC4/CyDMA.c **** 
1135:Generated_Source\PSoC4/CyDMA.c **** 
1136:Generated_Source\PSoC4/CyDMA.c **** /*******************************************************************************
1137:Generated_Source\PSoC4/CyDMA.c **** * Function Name: CyDmaSetAddressIncrement
1138:Generated_Source\PSoC4/CyDMA.c **** ********************************************************************************
1139:Generated_Source\PSoC4/CyDMA.c **** *
1140:Generated_Source\PSoC4/CyDMA.c **** * Summary:
1141:Generated_Source\PSoC4/CyDMA.c **** *  Sets whether the source or destination addresses are incremented after the
1142:Generated_Source\PSoC4/CyDMA.c **** *  transfer of each data element. The amount that the source and destination
1143:Generated_Source\PSoC4/CyDMA.c **** *  address are incremented is determined by the CyDmaSetSrcDstTransferWidth()
1144:Generated_Source\PSoC4/CyDMA.c **** *  function. The addresses will either be incremented by the data element size
1145:Generated_Source\PSoC4/CyDMA.c **** *  or by a word (4 bytes).
1146:Generated_Source\PSoC4/CyDMA.c **** *
1147:Generated_Source\PSoC4/CyDMA.c **** * Parameters:
1148:Generated_Source\PSoC4/CyDMA.c **** *  channel:          Channel used by this function.
1149:Generated_Source\PSoC4/CyDMA.c **** *  descriptor:       Descriptor (0 or 1) modified by this function.
1150:Generated_Source\PSoC4/CyDMA.c **** *  addressIncrement: Address increment settings. Refer to the API bit fields 
ARM GAS  C:\Users\glenn\AppData\Local\Temp\ccjge9sh.s 			page 59


1151:Generated_Source\PSoC4/CyDMA.c **** *                    definition in CyDMA_P4.h or the API description in the DMA
1152:Generated_Source\PSoC4/CyDMA.c **** *                    channel datasheet for the parameter options.
1153:Generated_Source\PSoC4/CyDMA.c **** *    
1154:Generated_Source\PSoC4/CyDMA.c **** * Return:
1155:Generated_Source\PSoC4/CyDMA.c **** *  None.
1156:Generated_Source\PSoC4/CyDMA.c **** *
1157:Generated_Source\PSoC4/CyDMA.c **** * Side effect:
1158:Generated_Source\PSoC4/CyDMA.c **** *  This function should not be called when the specified descriptor is active
1159:Generated_Source\PSoC4/CyDMA.c **** *  in the DMA transfer engine. This can be checked by calling CyDmaGetStatus(). 
1160:Generated_Source\PSoC4/CyDMA.c **** *
1161:Generated_Source\PSoC4/CyDMA.c **** *******************************************************************************/
1162:Generated_Source\PSoC4/CyDMA.c **** void CyDmaSetAddressIncrement(int32 channel, int32 descriptor, uint32 addressIncrement)
1163:Generated_Source\PSoC4/CyDMA.c **** {
 2031              		.loc 1 1163 0
 2032              		.cfi_startproc
 2033              	.LVL217:
 2034 0000 70B5     		push	{r4, r5, r6, lr}
 2035              		.cfi_def_cfa_offset 16
 2036              		.cfi_offset 4, -16
 2037              		.cfi_offset 5, -12
 2038              		.cfi_offset 6, -8
 2039              		.cfi_offset 14, -4
 2040              		.loc 1 1163 0
 2041 0002 051C     		mov	r5, r0
 2042 0004 0C1C     		mov	r4, r1
 2043 0006 161C     		mov	r6, r2
1164:Generated_Source\PSoC4/CyDMA.c ****     uint32 regValue;
1165:Generated_Source\PSoC4/CyDMA.c **** 
1166:Generated_Source\PSoC4/CyDMA.c ****     CYASSERT((channel    >= 0) && (channel    < CYDMA_CH_NR));
 2044              		.loc 1 1166 0
 2045 0008 0728     		cmp	r0, #7
 2046 000a 16D8     		bhi	.L230
 2047              	.LVL218:
 2048              	.L224:
1167:Generated_Source\PSoC4/CyDMA.c ****     CYASSERT((descriptor >= 0) && (descriptor < CYDMA_DESCR_NR));
 2049              		.loc 1 1167 0
 2050 000c 012C     		cmp	r4, #1
 2051 000e 02D9     		bls	.L225
 2052              		.loc 1 1167 0 is_stmt 0 discriminator 1
 2053 0010 0020     		mov	r0, #0
 2054 0012 FFF7FEFF 		bl	CyHalt
 2055              	.LVL219:
 2056              	.L225:
1168:Generated_Source\PSoC4/CyDMA.c ****     CYASSERT(0u == (addressIncrement & (uint32)~CYDMA_ADDR_INCR));
 2057              		.loc 1 1168 0 is_stmt 1
 2058 0016 0B4B     		ldr	r3, .L231
 2059 0018 1E42     		tst	r6, r3
 2060 001a 02D0     		beq	.L226
 2061              		.loc 1 1168 0 is_stmt 0 discriminator 1
 2062 001c 0020     		mov	r0, #0
 2063 001e FFF7FEFF 		bl	CyHalt
 2064              	.LVL220:
 2065              	.L226:
1169:Generated_Source\PSoC4/CyDMA.c **** 
1170:Generated_Source\PSoC4/CyDMA.c ****     regValue = CYDMA_DESCR_BASE.descriptor[channel][descriptor].ctl & (uint32)~CYDMA_ADDR_INCR;
 2066              		.loc 1 1170 0 is_stmt 1
 2067 0022 094B     		ldr	r3, .L231+4
ARM GAS  C:\Users\glenn\AppData\Local\Temp\ccjge9sh.s 			page 60


 2068 0024 6D00     		lsl	r5, r5, #1
 2069              	.LVL221:
 2070 0026 9C46     		mov	ip, r3
 2071 0028 2C19     		add	r4, r5, r4
 2072              	.LVL222:
 2073 002a 2401     		lsl	r4, r4, #4
 2074 002c 6444     		add	r4, r4, ip
 2075 002e A268     		ldr	r2, [r4, #8]
 2076              	.LVL223:
 2077 0030 044B     		ldr	r3, .L231
1171:Generated_Source\PSoC4/CyDMA.c ****     CYDMA_DESCR_BASE.descriptor[channel][descriptor].ctl = regValue | addressIncrement;
1172:Generated_Source\PSoC4/CyDMA.c **** }
 2078              		.loc 1 1172 0
 2079              		@ sp needed
1170:Generated_Source\PSoC4/CyDMA.c ****     CYDMA_DESCR_BASE.descriptor[channel][descriptor].ctl = regValue | addressIncrement;
 2080              		.loc 1 1170 0
 2081 0032 1A40     		and	r2, r3
 2082              	.LVL224:
1171:Generated_Source\PSoC4/CyDMA.c ****     CYDMA_DESCR_BASE.descriptor[channel][descriptor].ctl = regValue | addressIncrement;
 2083              		.loc 1 1171 0
 2084 0034 3243     		orr	r2, r6
 2085              	.LVL225:
 2086 0036 A260     		str	r2, [r4, #8]
 2087              	.LVL226:
 2088              		.loc 1 1172 0
 2089 0038 70BD     		pop	{r4, r5, r6, pc}
 2090              	.LVL227:
 2091              	.L230:
1166:Generated_Source\PSoC4/CyDMA.c ****     CYASSERT((descriptor >= 0) && (descriptor < CYDMA_DESCR_NR));
 2092              		.loc 1 1166 0 discriminator 1
 2093 003a 0020     		mov	r0, #0
 2094              	.LVL228:
 2095 003c FFF7FEFF 		bl	CyHalt
 2096              	.LVL229:
 2097 0040 E4E7     		b	.L224
 2098              	.L232:
 2099 0042 C046     		.align	2
 2100              	.L231:
 2101 0044 FFFF5FFF 		.word	-10485761
 2102 0048 00181040 		.word	1074796544
 2103              		.cfi_endproc
 2104              	.LFE39:
 2105              		.size	CyDmaSetAddressIncrement, .-CyDmaSetAddressIncrement
 2106              		.section	.text.CyDmaGetAddressIncrement,"ax",%progbits
 2107              		.align	2
 2108              		.global	CyDmaGetAddressIncrement
 2109              		.code	16
 2110              		.thumb_func
 2111              		.type	CyDmaGetAddressIncrement, %function
 2112              	CyDmaGetAddressIncrement:
 2113              	.LFB40:
1173:Generated_Source\PSoC4/CyDMA.c **** 
1174:Generated_Source\PSoC4/CyDMA.c **** 
1175:Generated_Source\PSoC4/CyDMA.c **** /*******************************************************************************
1176:Generated_Source\PSoC4/CyDMA.c **** * Function Name: CyDmaGetAddressIncrement
1177:Generated_Source\PSoC4/CyDMA.c **** ********************************************************************************
1178:Generated_Source\PSoC4/CyDMA.c **** *
ARM GAS  C:\Users\glenn\AppData\Local\Temp\ccjge9sh.s 			page 61


1179:Generated_Source\PSoC4/CyDMA.c **** * Summary:
1180:Generated_Source\PSoC4/CyDMA.c **** *  Returns address increment settings as set by CyDmaSetAddressIncrement() or
1181:Generated_Source\PSoC4/CyDMA.c **** *  CyDmaSetConfiguration().
1182:Generated_Source\PSoC4/CyDMA.c **** *
1183:Generated_Source\PSoC4/CyDMA.c **** * Parameters:
1184:Generated_Source\PSoC4/CyDMA.c **** *  channel:    Channel used by this function.
1185:Generated_Source\PSoC4/CyDMA.c **** *  descriptor: Descriptor (0 or 1) modified by this function.
1186:Generated_Source\PSoC4/CyDMA.c **** *                   
1187:Generated_Source\PSoC4/CyDMA.c **** * Return:
1188:Generated_Source\PSoC4/CyDMA.c **** *  Address increment settings. Refer to the API bit field definitions in
1189:Generated_Source\PSoC4/CyDMA.c **** *  CyDMA_P4.h or the API description in the DMA channel datasheet for more
1190:Generated_Source\PSoC4/CyDMA.c **** *  information.
1191:Generated_Source\PSoC4/CyDMA.c **** *
1192:Generated_Source\PSoC4/CyDMA.c **** *******************************************************************************/
1193:Generated_Source\PSoC4/CyDMA.c **** uint32 CyDmaGetAddressIncrement(int32 channel, int32 descriptor)
1194:Generated_Source\PSoC4/CyDMA.c **** {
 2114              		.loc 1 1194 0
 2115              		.cfi_startproc
 2116              	.LVL230:
 2117 0000 38B5     		push	{r3, r4, r5, lr}
 2118              		.cfi_def_cfa_offset 16
 2119              		.cfi_offset 3, -16
 2120              		.cfi_offset 4, -12
 2121              		.cfi_offset 5, -8
 2122              		.cfi_offset 14, -4
 2123              		.loc 1 1194 0
 2124 0002 051C     		mov	r5, r0
 2125 0004 0C1C     		mov	r4, r1
1195:Generated_Source\PSoC4/CyDMA.c ****     CYASSERT((channel    >= 0) && (channel    < CYDMA_CH_NR));
 2126              		.loc 1 1195 0
 2127 0006 0728     		cmp	r0, #7
 2128 0008 0FD8     		bhi	.L236
 2129              	.LVL231:
 2130              	.L234:
1196:Generated_Source\PSoC4/CyDMA.c ****     CYASSERT((descriptor >= 0) && (descriptor < CYDMA_DESCR_NR));
 2131              		.loc 1 1196 0
 2132 000a 012C     		cmp	r4, #1
 2133 000c 02D9     		bls	.L235
 2134              		.loc 1 1196 0 is_stmt 0 discriminator 1
 2135 000e 0020     		mov	r0, #0
 2136 0010 FFF7FEFF 		bl	CyHalt
 2137              	.LVL232:
 2138              	.L235:
1197:Generated_Source\PSoC4/CyDMA.c **** 
1198:Generated_Source\PSoC4/CyDMA.c ****     return (CYDMA_DESCR_BASE.descriptor[channel][descriptor].ctl & CYDMA_ADDR_INCR);
 2139              		.loc 1 1198 0 is_stmt 1
 2140 0014 074B     		ldr	r3, .L237
 2141 0016 6D00     		lsl	r5, r5, #1
 2142              	.LVL233:
 2143 0018 9C46     		mov	ip, r3
 2144 001a A023     		mov	r3, #160
 2145 001c 2C19     		add	r4, r5, r4
 2146              	.LVL234:
 2147 001e 2401     		lsl	r4, r4, #4
 2148 0020 6444     		add	r4, r4, ip
 2149 0022 A068     		ldr	r0, [r4, #8]
 2150 0024 1B04     		lsl	r3, r3, #16
ARM GAS  C:\Users\glenn\AppData\Local\Temp\ccjge9sh.s 			page 62


 2151 0026 1840     		and	r0, r3
1199:Generated_Source\PSoC4/CyDMA.c **** }
 2152              		.loc 1 1199 0
 2153              		@ sp needed
 2154 0028 38BD     		pop	{r3, r4, r5, pc}
 2155              	.LVL235:
 2156              	.L236:
1195:Generated_Source\PSoC4/CyDMA.c ****     CYASSERT((descriptor >= 0) && (descriptor < CYDMA_DESCR_NR));
 2157              		.loc 1 1195 0 discriminator 1
 2158 002a 0020     		mov	r0, #0
 2159              	.LVL236:
 2160 002c FFF7FEFF 		bl	CyHalt
 2161              	.LVL237:
 2162 0030 EBE7     		b	.L234
 2163              	.L238:
 2164 0032 C046     		.align	2
 2165              	.L237:
 2166 0034 00181040 		.word	1074796544
 2167              		.cfi_endproc
 2168              	.LFE40:
 2169              		.size	CyDmaGetAddressIncrement, .-CyDmaGetAddressIncrement
 2170              		.section	.text.CyDmaSetTriggerType,"ax",%progbits
 2171              		.align	2
 2172              		.global	CyDmaSetTriggerType
 2173              		.code	16
 2174              		.thumb_func
 2175              		.type	CyDmaSetTriggerType, %function
 2176              	CyDmaSetTriggerType:
 2177              	.LFB41:
1200:Generated_Source\PSoC4/CyDMA.c **** 
1201:Generated_Source\PSoC4/CyDMA.c **** 
1202:Generated_Source\PSoC4/CyDMA.c **** /*******************************************************************************
1203:Generated_Source\PSoC4/CyDMA.c **** * Function Name: CyDmaSetTriggerType
1204:Generated_Source\PSoC4/CyDMA.c **** ********************************************************************************
1205:Generated_Source\PSoC4/CyDMA.c **** *
1206:Generated_Source\PSoC4/CyDMA.c **** * Summary:
1207:Generated_Source\PSoC4/CyDMA.c **** *  Sets the type of input trigger for the DMA For level sensitive triggers sets
1208:Generated_Source\PSoC4/CyDMA.c **** *  how long the DMA waits for the trigger to go low (deactivate) before
1209:Generated_Source\PSoC4/CyDMA.c **** *  triggering the channel again.
1210:Generated_Source\PSoC4/CyDMA.c **** *
1211:Generated_Source\PSoC4/CyDMA.c **** * Parameters:
1212:Generated_Source\PSoC4/CyDMA.c **** *  channel:     Channel used by this function.
1213:Generated_Source\PSoC4/CyDMA.c **** *  descriptor:  Descriptor (0 or 1) modified by this function.
1214:Generated_Source\PSoC4/CyDMA.c **** *  triggerType: Type of DMA trigger. Refer to the API bit field definitions
1215:Generated_Source\PSoC4/CyDMA.c **** *               in CyDMA_P4.h or the API description in the DMA channel
1216:Generated_Source\PSoC4/CyDMA.c **** *               datasheet for the parameter options.
1217:Generated_Source\PSoC4/CyDMA.c **** *                   
1218:Generated_Source\PSoC4/CyDMA.c **** * Return:
1219:Generated_Source\PSoC4/CyDMA.c **** *  None.
1220:Generated_Source\PSoC4/CyDMA.c **** *
1221:Generated_Source\PSoC4/CyDMA.c **** * Side effect:
1222:Generated_Source\PSoC4/CyDMA.c **** *  This function should not be called when the specified descriptor is active
1223:Generated_Source\PSoC4/CyDMA.c **** *  in the DMA transfer engine. This can be checked by calling CyDmaGetStatus(). 
1224:Generated_Source\PSoC4/CyDMA.c **** *
1225:Generated_Source\PSoC4/CyDMA.c **** *******************************************************************************/
1226:Generated_Source\PSoC4/CyDMA.c **** void CyDmaSetTriggerType(int32 channel, int32 descriptor, uint32 triggerType)
1227:Generated_Source\PSoC4/CyDMA.c **** {
ARM GAS  C:\Users\glenn\AppData\Local\Temp\ccjge9sh.s 			page 63


 2178              		.loc 1 1227 0
 2179              		.cfi_startproc
 2180              	.LVL238:
 2181 0000 70B5     		push	{r4, r5, r6, lr}
 2182              		.cfi_def_cfa_offset 16
 2183              		.cfi_offset 4, -16
 2184              		.cfi_offset 5, -12
 2185              		.cfi_offset 6, -8
 2186              		.cfi_offset 14, -4
 2187              		.loc 1 1227 0
 2188 0002 051C     		mov	r5, r0
 2189 0004 0C1C     		mov	r4, r1
 2190 0006 161C     		mov	r6, r2
1228:Generated_Source\PSoC4/CyDMA.c ****     uint32 regValue;
1229:Generated_Source\PSoC4/CyDMA.c **** 
1230:Generated_Source\PSoC4/CyDMA.c ****     CYASSERT((channel    >= 0) && (channel    < CYDMA_CH_NR));
 2191              		.loc 1 1230 0
 2192 0008 0728     		cmp	r0, #7
 2193 000a 16D8     		bhi	.L246
 2194              	.LVL239:
 2195              	.L240:
1231:Generated_Source\PSoC4/CyDMA.c ****     CYASSERT((descriptor >= 0) && (descriptor < CYDMA_DESCR_NR));
 2196              		.loc 1 1231 0
 2197 000c 012C     		cmp	r4, #1
 2198 000e 02D9     		bls	.L241
 2199              		.loc 1 1231 0 is_stmt 0 discriminator 1
 2200 0010 0020     		mov	r0, #0
 2201 0012 FFF7FEFF 		bl	CyHalt
 2202              	.LVL240:
 2203              	.L241:
1232:Generated_Source\PSoC4/CyDMA.c ****     CYASSERT(0u == (triggerType & (uint32)~CYDMA_TRIGGER_TYPE));
 2204              		.loc 1 1232 0 is_stmt 1
 2205 0016 0B4B     		ldr	r3, .L247
 2206 0018 1E42     		tst	r6, r3
 2207 001a 02D0     		beq	.L242
 2208              		.loc 1 1232 0 is_stmt 0 discriminator 1
 2209 001c 0020     		mov	r0, #0
 2210 001e FFF7FEFF 		bl	CyHalt
 2211              	.LVL241:
 2212              	.L242:
1233:Generated_Source\PSoC4/CyDMA.c **** 
1234:Generated_Source\PSoC4/CyDMA.c ****     regValue = CYDMA_DESCR_BASE.descriptor[channel][descriptor].ctl & (uint32)~CYDMA_TRIGGER_TYPE;
 2213              		.loc 1 1234 0 is_stmt 1
 2214 0022 094B     		ldr	r3, .L247+4
 2215 0024 6D00     		lsl	r5, r5, #1
 2216              	.LVL242:
 2217 0026 9C46     		mov	ip, r3
 2218 0028 2C19     		add	r4, r5, r4
 2219              	.LVL243:
 2220 002a 2401     		lsl	r4, r4, #4
 2221 002c 6444     		add	r4, r4, ip
 2222 002e A268     		ldr	r2, [r4, #8]
 2223              	.LVL244:
 2224 0030 044B     		ldr	r3, .L247
1235:Generated_Source\PSoC4/CyDMA.c ****     CYDMA_DESCR_BASE.descriptor[channel][descriptor].ctl = regValue | triggerType;
1236:Generated_Source\PSoC4/CyDMA.c **** }
 2225              		.loc 1 1236 0
ARM GAS  C:\Users\glenn\AppData\Local\Temp\ccjge9sh.s 			page 64


 2226              		@ sp needed
1234:Generated_Source\PSoC4/CyDMA.c ****     CYDMA_DESCR_BASE.descriptor[channel][descriptor].ctl = regValue | triggerType;
 2227              		.loc 1 1234 0
 2228 0032 1A40     		and	r2, r3
 2229              	.LVL245:
1235:Generated_Source\PSoC4/CyDMA.c ****     CYDMA_DESCR_BASE.descriptor[channel][descriptor].ctl = regValue | triggerType;
 2230              		.loc 1 1235 0
 2231 0034 3243     		orr	r2, r6
 2232              	.LVL246:
 2233 0036 A260     		str	r2, [r4, #8]
 2234              	.LVL247:
 2235              		.loc 1 1236 0
 2236 0038 70BD     		pop	{r4, r5, r6, pc}
 2237              	.LVL248:
 2238              	.L246:
1230:Generated_Source\PSoC4/CyDMA.c ****     CYASSERT((descriptor >= 0) && (descriptor < CYDMA_DESCR_NR));
 2239              		.loc 1 1230 0 discriminator 1
 2240 003a 0020     		mov	r0, #0
 2241              	.LVL249:
 2242 003c FFF7FEFF 		bl	CyHalt
 2243              	.LVL250:
 2244 0040 E4E7     		b	.L240
 2245              	.L248:
 2246 0042 C046     		.align	2
 2247              	.L247:
 2248 0044 FFFFFFFC 		.word	-50331649
 2249 0048 00181040 		.word	1074796544
 2250              		.cfi_endproc
 2251              	.LFE41:
 2252              		.size	CyDmaSetTriggerType, .-CyDmaSetTriggerType
 2253              		.section	.text.CyDmaGetTriggerType,"ax",%progbits
 2254              		.align	2
 2255              		.global	CyDmaGetTriggerType
 2256              		.code	16
 2257              		.thumb_func
 2258              		.type	CyDmaGetTriggerType, %function
 2259              	CyDmaGetTriggerType:
 2260              	.LFB42:
1237:Generated_Source\PSoC4/CyDMA.c **** 
1238:Generated_Source\PSoC4/CyDMA.c **** 
1239:Generated_Source\PSoC4/CyDMA.c **** /*******************************************************************************
1240:Generated_Source\PSoC4/CyDMA.c **** * Function Name: CyDmaGetTriggerType
1241:Generated_Source\PSoC4/CyDMA.c **** ********************************************************************************
1242:Generated_Source\PSoC4/CyDMA.c **** *
1243:Generated_Source\PSoC4/CyDMA.c **** * Summary:
1244:Generated_Source\PSoC4/CyDMA.c **** *  Returns the trigger deactivation settings as set by CyDmaSetTriggerType() or
1245:Generated_Source\PSoC4/CyDMA.c **** *  CyDmaSetConfiguration().
1246:Generated_Source\PSoC4/CyDMA.c **** *
1247:Generated_Source\PSoC4/CyDMA.c **** * Parameters:
1248:Generated_Source\PSoC4/CyDMA.c **** *  channel:    Channel used by this function.
1249:Generated_Source\PSoC4/CyDMA.c **** *  descriptor: Descriptor (0 or 1) modified by this function.
1250:Generated_Source\PSoC4/CyDMA.c **** *                   
1251:Generated_Source\PSoC4/CyDMA.c **** * Return:
1252:Generated_Source\PSoC4/CyDMA.c **** *  Trigger deactivation settings. Refer to the API bit field definitions in
1253:Generated_Source\PSoC4/CyDMA.c **** *  CyDMA_P4.h or the API description in the DMA channel datasheet for more
1254:Generated_Source\PSoC4/CyDMA.c **** *  information.
1255:Generated_Source\PSoC4/CyDMA.c **** *
ARM GAS  C:\Users\glenn\AppData\Local\Temp\ccjge9sh.s 			page 65


1256:Generated_Source\PSoC4/CyDMA.c **** *******************************************************************************/
1257:Generated_Source\PSoC4/CyDMA.c **** uint32 CyDmaGetTriggerType(int32 channel, int32 descriptor)
1258:Generated_Source\PSoC4/CyDMA.c **** {
 2261              		.loc 1 1258 0
 2262              		.cfi_startproc
 2263              	.LVL251:
 2264 0000 38B5     		push	{r3, r4, r5, lr}
 2265              		.cfi_def_cfa_offset 16
 2266              		.cfi_offset 3, -16
 2267              		.cfi_offset 4, -12
 2268              		.cfi_offset 5, -8
 2269              		.cfi_offset 14, -4
 2270              		.loc 1 1258 0
 2271 0002 051C     		mov	r5, r0
 2272 0004 0C1C     		mov	r4, r1
1259:Generated_Source\PSoC4/CyDMA.c ****     CYASSERT((channel    >= 0) && (channel    < CYDMA_CH_NR));
 2273              		.loc 1 1259 0
 2274 0006 0728     		cmp	r0, #7
 2275 0008 0FD8     		bhi	.L252
 2276              	.LVL252:
 2277              	.L250:
1260:Generated_Source\PSoC4/CyDMA.c ****     CYASSERT((descriptor >= 0) && (descriptor < CYDMA_DESCR_NR));
 2278              		.loc 1 1260 0
 2279 000a 012C     		cmp	r4, #1
 2280 000c 02D9     		bls	.L251
 2281              		.loc 1 1260 0 is_stmt 0 discriminator 1
 2282 000e 0020     		mov	r0, #0
 2283 0010 FFF7FEFF 		bl	CyHalt
 2284              	.LVL253:
 2285              	.L251:
1261:Generated_Source\PSoC4/CyDMA.c **** 
1262:Generated_Source\PSoC4/CyDMA.c ****     return (CYDMA_DESCR_BASE.descriptor[channel][descriptor].ctl & CYDMA_TRIGGER_TYPE);
 2286              		.loc 1 1262 0 is_stmt 1
 2287 0014 074B     		ldr	r3, .L253
 2288 0016 6D00     		lsl	r5, r5, #1
 2289              	.LVL254:
 2290 0018 9C46     		mov	ip, r3
 2291 001a C023     		mov	r3, #192
 2292 001c 2C19     		add	r4, r5, r4
 2293              	.LVL255:
 2294 001e 2401     		lsl	r4, r4, #4
 2295 0020 6444     		add	r4, r4, ip
 2296 0022 A068     		ldr	r0, [r4, #8]
 2297 0024 9B04     		lsl	r3, r3, #18
 2298 0026 1840     		and	r0, r3
1263:Generated_Source\PSoC4/CyDMA.c **** }
 2299              		.loc 1 1263 0
 2300              		@ sp needed
 2301 0028 38BD     		pop	{r3, r4, r5, pc}
 2302              	.LVL256:
 2303              	.L252:
1259:Generated_Source\PSoC4/CyDMA.c ****     CYASSERT((descriptor >= 0) && (descriptor < CYDMA_DESCR_NR));
 2304              		.loc 1 1259 0 discriminator 1
 2305 002a 0020     		mov	r0, #0
 2306              	.LVL257:
 2307 002c FFF7FEFF 		bl	CyHalt
 2308              	.LVL258:
ARM GAS  C:\Users\glenn\AppData\Local\Temp\ccjge9sh.s 			page 66


 2309 0030 EBE7     		b	.L250
 2310              	.L254:
 2311 0032 C046     		.align	2
 2312              	.L253:
 2313 0034 00181040 		.word	1074796544
 2314              		.cfi_endproc
 2315              	.LFE42:
 2316              		.size	CyDmaGetTriggerType, .-CyDmaGetTriggerType
 2317              		.section	.text.CyDmaSetTransferMode,"ax",%progbits
 2318              		.align	2
 2319              		.global	CyDmaSetTransferMode
 2320              		.code	16
 2321              		.thumb_func
 2322              		.type	CyDmaSetTransferMode, %function
 2323              	CyDmaSetTransferMode:
 2324              	.LFB43:
1264:Generated_Source\PSoC4/CyDMA.c **** 
1265:Generated_Source\PSoC4/CyDMA.c **** 
1266:Generated_Source\PSoC4/CyDMA.c **** /*******************************************************************************
1267:Generated_Source\PSoC4/CyDMA.c **** * Function Name: CyDmaSetTransferMode
1268:Generated_Source\PSoC4/CyDMA.c **** ********************************************************************************
1269:Generated_Source\PSoC4/CyDMA.c **** *
1270:Generated_Source\PSoC4/CyDMA.c **** * Summary:
1271:Generated_Source\PSoC4/CyDMA.c **** *  Sets the DMA transfer mode. This determines how the DMA reacts to each trigger
1272:Generated_Source\PSoC4/CyDMA.c **** *  event.
1273:Generated_Source\PSoC4/CyDMA.c **** *
1274:Generated_Source\PSoC4/CyDMA.c **** * Parameters:
1275:Generated_Source\PSoC4/CyDMA.c **** *  channel:      Channel used by this function.
1276:Generated_Source\PSoC4/CyDMA.c **** *  descriptor:   Descriptor (0 or 1) modified by this function.
1277:Generated_Source\PSoC4/CyDMA.c **** *  transferMode: Specifies the DMA transfer mode settings. Refer to the API bit
1278:Generated_Source\PSoC4/CyDMA.c **** *                field definitions in CyDMA_P4.h or the API description in the
1279:Generated_Source\PSoC4/CyDMA.c **** *                DMA channel datasheet for the parameter options.
1280:Generated_Source\PSoC4/CyDMA.c **** *                   
1281:Generated_Source\PSoC4/CyDMA.c **** * Return:
1282:Generated_Source\PSoC4/CyDMA.c **** *  None.
1283:Generated_Source\PSoC4/CyDMA.c **** *
1284:Generated_Source\PSoC4/CyDMA.c **** * Side effect:
1285:Generated_Source\PSoC4/CyDMA.c **** *  This function should not be called when the specified descriptor is active
1286:Generated_Source\PSoC4/CyDMA.c **** *  in the DMA transfer engine. This can be checked by calling CyDmaGetStatus(). 
1287:Generated_Source\PSoC4/CyDMA.c **** *
1288:Generated_Source\PSoC4/CyDMA.c **** *******************************************************************************/
1289:Generated_Source\PSoC4/CyDMA.c **** void CyDmaSetTransferMode(int32 channel, int32 descriptor, uint32 transferMode)
1290:Generated_Source\PSoC4/CyDMA.c **** {
 2325              		.loc 1 1290 0
 2326              		.cfi_startproc
 2327              	.LVL259:
 2328 0000 70B5     		push	{r4, r5, r6, lr}
 2329              		.cfi_def_cfa_offset 16
 2330              		.cfi_offset 4, -16
 2331              		.cfi_offset 5, -12
 2332              		.cfi_offset 6, -8
 2333              		.cfi_offset 14, -4
 2334              		.loc 1 1290 0
 2335 0002 061C     		mov	r6, r0
 2336 0004 0C1C     		mov	r4, r1
 2337 0006 151C     		mov	r5, r2
1291:Generated_Source\PSoC4/CyDMA.c ****     uint32 regValue;
ARM GAS  C:\Users\glenn\AppData\Local\Temp\ccjge9sh.s 			page 67


1292:Generated_Source\PSoC4/CyDMA.c **** 
1293:Generated_Source\PSoC4/CyDMA.c ****     CYASSERT((channel    >= 0) && (channel    < CYDMA_CH_NR));
 2338              		.loc 1 1293 0
 2339 0008 0728     		cmp	r0, #7
 2340 000a 15D8     		bhi	.L262
 2341              	.LVL260:
 2342              	.L256:
1294:Generated_Source\PSoC4/CyDMA.c ****     CYASSERT((descriptor >= 0) && (descriptor < CYDMA_DESCR_NR));
 2343              		.loc 1 1294 0
 2344 000c 012C     		cmp	r4, #1
 2345 000e 02D9     		bls	.L257
 2346              		.loc 1 1294 0 is_stmt 0 discriminator 1
 2347 0010 0020     		mov	r0, #0
 2348 0012 FFF7FEFF 		bl	CyHalt
 2349              	.LVL261:
 2350              	.L257:
1295:Generated_Source\PSoC4/CyDMA.c ****     CYASSERT(0u == (transferMode & (uint32)~CYDMA_TRANSFER_MODE));
 2351              		.loc 1 1295 0 is_stmt 1
 2352 0016 AB00     		lsl	r3, r5, #2
 2353 0018 02D0     		beq	.L258
 2354              		.loc 1 1295 0 is_stmt 0 discriminator 1
 2355 001a 0020     		mov	r0, #0
 2356 001c FFF7FEFF 		bl	CyHalt
 2357              	.LVL262:
 2358              	.L258:
1296:Generated_Source\PSoC4/CyDMA.c **** 
1297:Generated_Source\PSoC4/CyDMA.c ****     regValue = CYDMA_DESCR_BASE.descriptor[channel][descriptor].ctl & (uint32)~CYDMA_TRANSFER_MODE;
 2359              		.loc 1 1297 0 is_stmt 1
 2360 0020 074B     		ldr	r3, .L263
 2361 0022 7600     		lsl	r6, r6, #1
 2362              	.LVL263:
 2363 0024 9C46     		mov	ip, r3
 2364 0026 3419     		add	r4, r6, r4
 2365              	.LVL264:
 2366 0028 2401     		lsl	r4, r4, #4
 2367 002a 6444     		add	r4, r4, ip
 2368 002c A268     		ldr	r2, [r4, #8]
 2369              	.LVL265:
1298:Generated_Source\PSoC4/CyDMA.c ****     CYDMA_DESCR_BASE.descriptor[channel][descriptor].ctl = regValue | transferMode;
1299:Generated_Source\PSoC4/CyDMA.c **** }
 2370              		.loc 1 1299 0
 2371              		@ sp needed
1297:Generated_Source\PSoC4/CyDMA.c ****     CYDMA_DESCR_BASE.descriptor[channel][descriptor].ctl = regValue | transferMode;
 2372              		.loc 1 1297 0
 2373 002e 9200     		lsl	r2, r2, #2
 2374              	.LVL266:
 2375 0030 9208     		lsr	r2, r2, #2
1298:Generated_Source\PSoC4/CyDMA.c ****     CYDMA_DESCR_BASE.descriptor[channel][descriptor].ctl = regValue | transferMode;
 2376              		.loc 1 1298 0
 2377 0032 2A43     		orr	r2, r5
 2378 0034 A260     		str	r2, [r4, #8]
 2379              	.LVL267:
 2380              		.loc 1 1299 0
 2381 0036 70BD     		pop	{r4, r5, r6, pc}
 2382              	.LVL268:
 2383              	.L262:
1293:Generated_Source\PSoC4/CyDMA.c ****     CYASSERT((descriptor >= 0) && (descriptor < CYDMA_DESCR_NR));
ARM GAS  C:\Users\glenn\AppData\Local\Temp\ccjge9sh.s 			page 68


 2384              		.loc 1 1293 0 discriminator 1
 2385 0038 0020     		mov	r0, #0
 2386              	.LVL269:
 2387 003a FFF7FEFF 		bl	CyHalt
 2388              	.LVL270:
 2389 003e E5E7     		b	.L256
 2390              	.L264:
 2391              		.align	2
 2392              	.L263:
 2393 0040 00181040 		.word	1074796544
 2394              		.cfi_endproc
 2395              	.LFE43:
 2396              		.size	CyDmaSetTransferMode, .-CyDmaSetTransferMode
 2397              		.section	.text.CyDmaGetTransferMode,"ax",%progbits
 2398              		.align	2
 2399              		.global	CyDmaGetTransferMode
 2400              		.code	16
 2401              		.thumb_func
 2402              		.type	CyDmaGetTransferMode, %function
 2403              	CyDmaGetTransferMode:
 2404              	.LFB44:
1300:Generated_Source\PSoC4/CyDMA.c **** 
1301:Generated_Source\PSoC4/CyDMA.c **** 
1302:Generated_Source\PSoC4/CyDMA.c **** /*******************************************************************************
1303:Generated_Source\PSoC4/CyDMA.c **** * Function Name: CyDmaGetTransferMode
1304:Generated_Source\PSoC4/CyDMA.c **** ********************************************************************************
1305:Generated_Source\PSoC4/CyDMA.c **** *
1306:Generated_Source\PSoC4/CyDMA.c **** * Summary:
1307:Generated_Source\PSoC4/CyDMA.c **** *  Returns the transfer mode for the specified descriptor as set by 
1308:Generated_Source\PSoC4/CyDMA.c **** *  CyDmaSetTransferMode() or CyDmaSetConfiguration.
1309:Generated_Source\PSoC4/CyDMA.c **** *
1310:Generated_Source\PSoC4/CyDMA.c **** * Parameters:
1311:Generated_Source\PSoC4/CyDMA.c **** *  channel:    Channel used by this function.
1312:Generated_Source\PSoC4/CyDMA.c **** *  descriptor: Descriptor (0 or 1) modified by this function.
1313:Generated_Source\PSoC4/CyDMA.c **** *                   
1314:Generated_Source\PSoC4/CyDMA.c **** * Return:
1315:Generated_Source\PSoC4/CyDMA.c **** *  DMA transfer mode settings. Refer to the API bit field definitions in
1316:Generated_Source\PSoC4/CyDMA.c **** *  CyDMA_P4.h or the API description in the DMA channel datasheet for more
1317:Generated_Source\PSoC4/CyDMA.c **** *  information.
1318:Generated_Source\PSoC4/CyDMA.c **** *
1319:Generated_Source\PSoC4/CyDMA.c **** *******************************************************************************/
1320:Generated_Source\PSoC4/CyDMA.c **** uint32 CyDmaGetTransferMode(int32 channel, int32 descriptor)
1321:Generated_Source\PSoC4/CyDMA.c **** {
 2405              		.loc 1 1321 0
 2406              		.cfi_startproc
 2407              	.LVL271:
 2408 0000 38B5     		push	{r3, r4, r5, lr}
 2409              		.cfi_def_cfa_offset 16
 2410              		.cfi_offset 3, -16
 2411              		.cfi_offset 4, -12
 2412              		.cfi_offset 5, -8
 2413              		.cfi_offset 14, -4
 2414              		.loc 1 1321 0
 2415 0002 051C     		mov	r5, r0
 2416 0004 0C1C     		mov	r4, r1
1322:Generated_Source\PSoC4/CyDMA.c ****     CYASSERT((channel    >= 0) && (channel    < CYDMA_CH_NR));
 2417              		.loc 1 1322 0
ARM GAS  C:\Users\glenn\AppData\Local\Temp\ccjge9sh.s 			page 69


 2418 0006 0728     		cmp	r0, #7
 2419 0008 0ED8     		bhi	.L268
 2420              	.LVL272:
 2421              	.L266:
1323:Generated_Source\PSoC4/CyDMA.c ****     CYASSERT((descriptor >= 0) && (descriptor < CYDMA_DESCR_NR));
 2422              		.loc 1 1323 0
 2423 000a 012C     		cmp	r4, #1
 2424 000c 02D9     		bls	.L267
 2425              		.loc 1 1323 0 is_stmt 0 discriminator 1
 2426 000e 0020     		mov	r0, #0
 2427 0010 FFF7FEFF 		bl	CyHalt
 2428              	.LVL273:
 2429              	.L267:
1324:Generated_Source\PSoC4/CyDMA.c **** 
1325:Generated_Source\PSoC4/CyDMA.c ****     return (CYDMA_DESCR_BASE.descriptor[channel][descriptor].ctl & CYDMA_TRANSFER_MODE);
 2430              		.loc 1 1325 0 is_stmt 1
 2431 0014 064B     		ldr	r3, .L269
 2432 0016 6D00     		lsl	r5, r5, #1
 2433              	.LVL274:
 2434 0018 9C46     		mov	ip, r3
 2435 001a 2C19     		add	r4, r5, r4
 2436              	.LVL275:
 2437 001c 2401     		lsl	r4, r4, #4
 2438 001e 6444     		add	r4, r4, ip
 2439 0020 A068     		ldr	r0, [r4, #8]
1326:Generated_Source\PSoC4/CyDMA.c **** }
 2440              		.loc 1 1326 0
 2441              		@ sp needed
1325:Generated_Source\PSoC4/CyDMA.c **** }
 2442              		.loc 1 1325 0
 2443 0022 800F     		lsr	r0, r0, #30
 2444 0024 8007     		lsl	r0, r0, #30
 2445              		.loc 1 1326 0
 2446 0026 38BD     		pop	{r3, r4, r5, pc}
 2447              	.LVL276:
 2448              	.L268:
1322:Generated_Source\PSoC4/CyDMA.c ****     CYASSERT((descriptor >= 0) && (descriptor < CYDMA_DESCR_NR));
 2449              		.loc 1 1322 0 discriminator 1
 2450 0028 0020     		mov	r0, #0
 2451              	.LVL277:
 2452 002a FFF7FEFF 		bl	CyHalt
 2453              	.LVL278:
 2454 002e ECE7     		b	.L266
 2455              	.L270:
 2456              		.align	2
 2457              	.L269:
 2458 0030 00181040 		.word	1074796544
 2459              		.cfi_endproc
 2460              	.LFE44:
 2461              		.size	CyDmaGetTransferMode, .-CyDmaGetTransferMode
 2462              		.section	.text.CyDmaSetPreemptable,"ax",%progbits
 2463              		.align	2
 2464              		.global	CyDmaSetPreemptable
 2465              		.code	16
 2466              		.thumb_func
 2467              		.type	CyDmaSetPreemptable, %function
 2468              	CyDmaSetPreemptable:
ARM GAS  C:\Users\glenn\AppData\Local\Temp\ccjge9sh.s 			page 70


 2469              	.LFB45:
1327:Generated_Source\PSoC4/CyDMA.c **** 
1328:Generated_Source\PSoC4/CyDMA.c **** 
1329:Generated_Source\PSoC4/CyDMA.c **** /*******************************************************************************
1330:Generated_Source\PSoC4/CyDMA.c **** * Function Name: CyDmaSetPreemptable
1331:Generated_Source\PSoC4/CyDMA.c **** ********************************************************************************
1332:Generated_Source\PSoC4/CyDMA.c **** *
1333:Generated_Source\PSoC4/CyDMA.c **** * Summary:
1334:Generated_Source\PSoC4/CyDMA.c **** *  Determines if the descriptor is preemptable.
1335:Generated_Source\PSoC4/CyDMA.c **** *
1336:Generated_Source\PSoC4/CyDMA.c **** * Parameters:
1337:Generated_Source\PSoC4/CyDMA.c **** *  channel:     Channel used by this function.
1338:Generated_Source\PSoC4/CyDMA.c **** *  descriptor:  Descriptor (0 or 1) modified by this function.
1339:Generated_Source\PSoC4/CyDMA.c **** *  preemptable: Descriptor preemption settings. Refer to the API bit fields
1340:Generated_Source\PSoC4/CyDMA.c **** *               definition in CyDMA_P4.h or the API description in the DMA 
1341:Generated_Source\PSoC4/CyDMA.c **** *               channel datasheet for the parameter options.
1342:Generated_Source\PSoC4/CyDMA.c **** *                   
1343:Generated_Source\PSoC4/CyDMA.c **** * Return:
1344:Generated_Source\PSoC4/CyDMA.c **** *  None.
1345:Generated_Source\PSoC4/CyDMA.c **** *
1346:Generated_Source\PSoC4/CyDMA.c **** * Side effect:
1347:Generated_Source\PSoC4/CyDMA.c **** *  This function should not be called when the specified descriptor is active
1348:Generated_Source\PSoC4/CyDMA.c **** *  in the DMA transfer engine. This can be checked by calling CyDmaGetStatus(). 
1349:Generated_Source\PSoC4/CyDMA.c **** *
1350:Generated_Source\PSoC4/CyDMA.c **** *******************************************************************************/
1351:Generated_Source\PSoC4/CyDMA.c **** void CyDmaSetPreemptable(int32 channel, int32 descriptor, uint32 preemptable)
1352:Generated_Source\PSoC4/CyDMA.c **** {
 2470              		.loc 1 1352 0
 2471              		.cfi_startproc
 2472              	.LVL279:
 2473 0000 70B5     		push	{r4, r5, r6, lr}
 2474              		.cfi_def_cfa_offset 16
 2475              		.cfi_offset 4, -16
 2476              		.cfi_offset 5, -12
 2477              		.cfi_offset 6, -8
 2478              		.cfi_offset 14, -4
 2479              		.loc 1 1352 0
 2480 0002 051C     		mov	r5, r0
 2481 0004 0C1C     		mov	r4, r1
 2482 0006 161C     		mov	r6, r2
1353:Generated_Source\PSoC4/CyDMA.c ****     uint32 regValue;
1354:Generated_Source\PSoC4/CyDMA.c **** 
1355:Generated_Source\PSoC4/CyDMA.c ****     CYASSERT((channel    >= 0) && (channel    < CYDMA_CH_NR));
 2483              		.loc 1 1355 0
 2484 0008 0728     		cmp	r0, #7
 2485 000a 16D8     		bhi	.L278
 2486              	.LVL280:
 2487              	.L272:
1356:Generated_Source\PSoC4/CyDMA.c ****     CYASSERT((descriptor >= 0) && (descriptor < CYDMA_DESCR_NR));
 2488              		.loc 1 1356 0
 2489 000c 012C     		cmp	r4, #1
 2490 000e 02D9     		bls	.L273
 2491              		.loc 1 1356 0 is_stmt 0 discriminator 1
 2492 0010 0020     		mov	r0, #0
 2493 0012 FFF7FEFF 		bl	CyHalt
 2494              	.LVL281:
 2495              	.L273:
ARM GAS  C:\Users\glenn\AppData\Local\Temp\ccjge9sh.s 			page 71


1357:Generated_Source\PSoC4/CyDMA.c ****     CYASSERT(0u == (preemptable & (uint32)~CYDMA_PREEMPTABLE));
 2496              		.loc 1 1357 0 is_stmt 1
 2497 0016 0B4B     		ldr	r3, .L279
 2498 0018 1E42     		tst	r6, r3
 2499 001a 02D0     		beq	.L274
 2500              		.loc 1 1357 0 is_stmt 0 discriminator 1
 2501 001c 0020     		mov	r0, #0
 2502 001e FFF7FEFF 		bl	CyHalt
 2503              	.LVL282:
 2504              	.L274:
1358:Generated_Source\PSoC4/CyDMA.c **** 
1359:Generated_Source\PSoC4/CyDMA.c ****     regValue = CYDMA_DESCR_BASE.descriptor[channel][descriptor].ctl & (uint32)~CYDMA_PREEMPTABLE;
 2505              		.loc 1 1359 0 is_stmt 1
 2506 0022 094B     		ldr	r3, .L279+4
 2507 0024 6D00     		lsl	r5, r5, #1
 2508              	.LVL283:
 2509 0026 9C46     		mov	ip, r3
 2510 0028 2C19     		add	r4, r5, r4
 2511              	.LVL284:
 2512 002a 2401     		lsl	r4, r4, #4
 2513 002c 6444     		add	r4, r4, ip
 2514 002e A268     		ldr	r2, [r4, #8]
 2515              	.LVL285:
 2516 0030 044B     		ldr	r3, .L279
1360:Generated_Source\PSoC4/CyDMA.c ****     CYDMA_DESCR_BASE.descriptor[channel][descriptor].ctl = regValue | preemptable;
1361:Generated_Source\PSoC4/CyDMA.c **** }
 2517              		.loc 1 1361 0
 2518              		@ sp needed
1359:Generated_Source\PSoC4/CyDMA.c ****     CYDMA_DESCR_BASE.descriptor[channel][descriptor].ctl = regValue | preemptable;
 2519              		.loc 1 1359 0
 2520 0032 1A40     		and	r2, r3
 2521              	.LVL286:
1360:Generated_Source\PSoC4/CyDMA.c ****     CYDMA_DESCR_BASE.descriptor[channel][descriptor].ctl = regValue | preemptable;
 2522              		.loc 1 1360 0
 2523 0034 3243     		orr	r2, r6
 2524              	.LVL287:
 2525 0036 A260     		str	r2, [r4, #8]
 2526              	.LVL288:
 2527              		.loc 1 1361 0
 2528 0038 70BD     		pop	{r4, r5, r6, pc}
 2529              	.LVL289:
 2530              	.L278:
1355:Generated_Source\PSoC4/CyDMA.c ****     CYASSERT((descriptor >= 0) && (descriptor < CYDMA_DESCR_NR));
 2531              		.loc 1 1355 0 discriminator 1
 2532 003a 0020     		mov	r0, #0
 2533              	.LVL290:
 2534 003c FFF7FEFF 		bl	CyHalt
 2535              	.LVL291:
 2536 0040 E4E7     		b	.L272
 2537              	.L280:
 2538 0042 C046     		.align	2
 2539              	.L279:
 2540 0044 FFFFFFEF 		.word	-268435457
 2541 0048 00181040 		.word	1074796544
 2542              		.cfi_endproc
 2543              	.LFE45:
 2544              		.size	CyDmaSetPreemptable, .-CyDmaSetPreemptable
ARM GAS  C:\Users\glenn\AppData\Local\Temp\ccjge9sh.s 			page 72


 2545              		.section	.text.CyDmaGetPreemptable,"ax",%progbits
 2546              		.align	2
 2547              		.global	CyDmaGetPreemptable
 2548              		.code	16
 2549              		.thumb_func
 2550              		.type	CyDmaGetPreemptable, %function
 2551              	CyDmaGetPreemptable:
 2552              	.LFB46:
1362:Generated_Source\PSoC4/CyDMA.c **** 
1363:Generated_Source\PSoC4/CyDMA.c **** 
1364:Generated_Source\PSoC4/CyDMA.c **** /*******************************************************************************
1365:Generated_Source\PSoC4/CyDMA.c **** * Function Name: CyDmaGetPreemptable
1366:Generated_Source\PSoC4/CyDMA.c **** ********************************************************************************
1367:Generated_Source\PSoC4/CyDMA.c **** *
1368:Generated_Source\PSoC4/CyDMA.c **** * Summary:
1369:Generated_Source\PSoC4/CyDMA.c **** *  Returns whether or not the descriptor is preemptable.
1370:Generated_Source\PSoC4/CyDMA.c **** *
1371:Generated_Source\PSoC4/CyDMA.c **** * Parameters:
1372:Generated_Source\PSoC4/CyDMA.c **** *  channel:    Channel used by this function.
1373:Generated_Source\PSoC4/CyDMA.c **** *  descriptor: Descriptor (0 or 1) modified by this function.
1374:Generated_Source\PSoC4/CyDMA.c **** *                   
1375:Generated_Source\PSoC4/CyDMA.c **** * Return:
1376:Generated_Source\PSoC4/CyDMA.c **** *  Descriptor preemption setting. Refer to the API bit field definitions in
1377:Generated_Source\PSoC4/CyDMA.c **** *  CyDMA_P4.h or the API description in the DMA channel datasheet for more
1378:Generated_Source\PSoC4/CyDMA.c **** *  information.
1379:Generated_Source\PSoC4/CyDMA.c **** *
1380:Generated_Source\PSoC4/CyDMA.c **** *******************************************************************************/
1381:Generated_Source\PSoC4/CyDMA.c **** uint32 CyDmaGetPreemptable(int32 channel, int32 descriptor)
1382:Generated_Source\PSoC4/CyDMA.c **** {
 2553              		.loc 1 1382 0
 2554              		.cfi_startproc
 2555              	.LVL292:
 2556 0000 38B5     		push	{r3, r4, r5, lr}
 2557              		.cfi_def_cfa_offset 16
 2558              		.cfi_offset 3, -16
 2559              		.cfi_offset 4, -12
 2560              		.cfi_offset 5, -8
 2561              		.cfi_offset 14, -4
 2562              		.loc 1 1382 0
 2563 0002 051C     		mov	r5, r0
 2564 0004 0C1C     		mov	r4, r1
1383:Generated_Source\PSoC4/CyDMA.c ****     CYASSERT((channel    >= 0) && (channel    < CYDMA_CH_NR));
 2565              		.loc 1 1383 0
 2566 0006 0728     		cmp	r0, #7
 2567 0008 0FD8     		bhi	.L284
 2568              	.LVL293:
 2569              	.L282:
1384:Generated_Source\PSoC4/CyDMA.c ****     CYASSERT((descriptor >= 0) && (descriptor < CYDMA_DESCR_NR));
 2570              		.loc 1 1384 0
 2571 000a 012C     		cmp	r4, #1
 2572 000c 02D9     		bls	.L283
 2573              		.loc 1 1384 0 is_stmt 0 discriminator 1
 2574 000e 0020     		mov	r0, #0
 2575 0010 FFF7FEFF 		bl	CyHalt
 2576              	.LVL294:
 2577              	.L283:
1385:Generated_Source\PSoC4/CyDMA.c **** 
ARM GAS  C:\Users\glenn\AppData\Local\Temp\ccjge9sh.s 			page 73


1386:Generated_Source\PSoC4/CyDMA.c ****     return (CYDMA_DESCR_BASE.descriptor[channel][descriptor].ctl & CYDMA_PREEMPTABLE);
 2578              		.loc 1 1386 0 is_stmt 1
 2579 0014 074B     		ldr	r3, .L285
 2580 0016 6D00     		lsl	r5, r5, #1
 2581              	.LVL295:
 2582 0018 9C46     		mov	ip, r3
 2583 001a 8023     		mov	r3, #128
 2584 001c 2C19     		add	r4, r5, r4
 2585              	.LVL296:
 2586 001e 2401     		lsl	r4, r4, #4
 2587 0020 6444     		add	r4, r4, ip
 2588 0022 A068     		ldr	r0, [r4, #8]
 2589 0024 5B05     		lsl	r3, r3, #21
 2590 0026 1840     		and	r0, r3
1387:Generated_Source\PSoC4/CyDMA.c **** }
 2591              		.loc 1 1387 0
 2592              		@ sp needed
 2593 0028 38BD     		pop	{r3, r4, r5, pc}
 2594              	.LVL297:
 2595              	.L284:
1383:Generated_Source\PSoC4/CyDMA.c ****     CYASSERT((descriptor >= 0) && (descriptor < CYDMA_DESCR_NR));
 2596              		.loc 1 1383 0 discriminator 1
 2597 002a 0020     		mov	r0, #0
 2598              	.LVL298:
 2599 002c FFF7FEFF 		bl	CyHalt
 2600              	.LVL299:
 2601 0030 EBE7     		b	.L282
 2602              	.L286:
 2603 0032 C046     		.align	2
 2604              	.L285:
 2605 0034 00181040 		.word	1074796544
 2606              		.cfi_endproc
 2607              	.LFE46:
 2608              		.size	CyDmaGetPreemptable, .-CyDmaGetPreemptable
 2609              		.section	.text.CyDmaSetPostCompletionActions,"ax",%progbits
 2610              		.align	2
 2611              		.global	CyDmaSetPostCompletionActions
 2612              		.code	16
 2613              		.thumb_func
 2614              		.type	CyDmaSetPostCompletionActions, %function
 2615              	CyDmaSetPostCompletionActions:
 2616              	.LFB47:
1388:Generated_Source\PSoC4/CyDMA.c **** 
1389:Generated_Source\PSoC4/CyDMA.c **** 
1390:Generated_Source\PSoC4/CyDMA.c **** /*******************************************************************************
1391:Generated_Source\PSoC4/CyDMA.c **** * Function Name: CyDmaSetPostCompletionActions
1392:Generated_Source\PSoC4/CyDMA.c **** ********************************************************************************
1393:Generated_Source\PSoC4/CyDMA.c **** *
1394:Generated_Source\PSoC4/CyDMA.c **** * Summary:
1395:Generated_Source\PSoC4/CyDMA.c **** *  Determines what occurs after a descriptor completes.
1396:Generated_Source\PSoC4/CyDMA.c **** *
1397:Generated_Source\PSoC4/CyDMA.c **** * Parameters:
1398:Generated_Source\PSoC4/CyDMA.c **** *  channel:    Channel used by this function.
1399:Generated_Source\PSoC4/CyDMA.c **** *  descriptor: Descriptor (0 or 1) modified by this function.
1400:Generated_Source\PSoC4/CyDMA.c **** *  actions:    Specifies descriptor post completion actions. Refer to the API
1401:Generated_Source\PSoC4/CyDMA.c **** *              bit field definitions in CyDMA_P4.h or the API description
1402:Generated_Source\PSoC4/CyDMA.c **** *              in the DMA channel datasheet for the parameter options.
ARM GAS  C:\Users\glenn\AppData\Local\Temp\ccjge9sh.s 			page 74


1403:Generated_Source\PSoC4/CyDMA.c **** *                   
1404:Generated_Source\PSoC4/CyDMA.c **** * Return:
1405:Generated_Source\PSoC4/CyDMA.c **** *  None.  
1406:Generated_Source\PSoC4/CyDMA.c **** *
1407:Generated_Source\PSoC4/CyDMA.c **** * Side effect:
1408:Generated_Source\PSoC4/CyDMA.c **** *  This function should not be called when the specified descriptor is active
1409:Generated_Source\PSoC4/CyDMA.c **** *  in the DMA transfer engine. This can be checked by calling CyDmaGetStatus(). 
1410:Generated_Source\PSoC4/CyDMA.c **** *
1411:Generated_Source\PSoC4/CyDMA.c **** *******************************************************************************/
1412:Generated_Source\PSoC4/CyDMA.c **** void CyDmaSetPostCompletionActions(int32 channel, int32 descriptor, uint32 actions)
1413:Generated_Source\PSoC4/CyDMA.c **** {
 2617              		.loc 1 1413 0
 2618              		.cfi_startproc
 2619              	.LVL300:
 2620 0000 70B5     		push	{r4, r5, r6, lr}
 2621              		.cfi_def_cfa_offset 16
 2622              		.cfi_offset 4, -16
 2623              		.cfi_offset 5, -12
 2624              		.cfi_offset 6, -8
 2625              		.cfi_offset 14, -4
 2626              		.loc 1 1413 0
 2627 0002 051C     		mov	r5, r0
 2628 0004 0C1C     		mov	r4, r1
 2629 0006 161C     		mov	r6, r2
1414:Generated_Source\PSoC4/CyDMA.c ****     uint32 regValue;
1415:Generated_Source\PSoC4/CyDMA.c **** 
1416:Generated_Source\PSoC4/CyDMA.c ****     CYASSERT((channel    >= 0) && (channel    < CYDMA_CH_NR));
 2630              		.loc 1 1416 0
 2631 0008 0728     		cmp	r0, #7
 2632 000a 16D8     		bhi	.L294
 2633              	.LVL301:
 2634              	.L288:
1417:Generated_Source\PSoC4/CyDMA.c ****     CYASSERT((descriptor >= 0) && (descriptor < CYDMA_DESCR_NR));
 2635              		.loc 1 1417 0
 2636 000c 012C     		cmp	r4, #1
 2637 000e 02D9     		bls	.L289
 2638              		.loc 1 1417 0 is_stmt 0 discriminator 1
 2639 0010 0020     		mov	r0, #0
 2640 0012 FFF7FEFF 		bl	CyHalt
 2641              	.LVL302:
 2642              	.L289:
1418:Generated_Source\PSoC4/CyDMA.c ****     CYASSERT(0u == (actions & (uint32)~CYDMA_POST_COMPLETE_ACTIONS));
 2643              		.loc 1 1418 0 is_stmt 1
 2644 0016 0B4B     		ldr	r3, .L295
 2645 0018 1E42     		tst	r6, r3
 2646 001a 02D0     		beq	.L290
 2647              		.loc 1 1418 0 is_stmt 0 discriminator 1
 2648 001c 0020     		mov	r0, #0
 2649 001e FFF7FEFF 		bl	CyHalt
 2650              	.LVL303:
 2651              	.L290:
1419:Generated_Source\PSoC4/CyDMA.c **** 
1420:Generated_Source\PSoC4/CyDMA.c ****     regValue = CYDMA_DESCR_BASE.descriptor[channel][descriptor].ctl & (uint32)~CYDMA_POST_COMPLETE_
 2652              		.loc 1 1420 0 is_stmt 1
 2653 0022 094B     		ldr	r3, .L295+4
 2654 0024 6D00     		lsl	r5, r5, #1
 2655              	.LVL304:
ARM GAS  C:\Users\glenn\AppData\Local\Temp\ccjge9sh.s 			page 75


 2656 0026 9C46     		mov	ip, r3
 2657 0028 2C19     		add	r4, r5, r4
 2658              	.LVL305:
 2659 002a 2401     		lsl	r4, r4, #4
 2660 002c 6444     		add	r4, r4, ip
 2661 002e A268     		ldr	r2, [r4, #8]
 2662              	.LVL306:
 2663 0030 044B     		ldr	r3, .L295
1421:Generated_Source\PSoC4/CyDMA.c ****     CYDMA_DESCR_BASE.descriptor[channel][descriptor].ctl = regValue | actions;
1422:Generated_Source\PSoC4/CyDMA.c **** }
 2664              		.loc 1 1422 0
 2665              		@ sp needed
1420:Generated_Source\PSoC4/CyDMA.c ****     CYDMA_DESCR_BASE.descriptor[channel][descriptor].ctl = regValue | actions;
 2666              		.loc 1 1420 0
 2667 0032 1A40     		and	r2, r3
 2668              	.LVL307:
1421:Generated_Source\PSoC4/CyDMA.c ****     CYDMA_DESCR_BASE.descriptor[channel][descriptor].ctl = regValue | actions;
 2669              		.loc 1 1421 0
 2670 0034 3243     		orr	r2, r6
 2671              	.LVL308:
 2672 0036 A260     		str	r2, [r4, #8]
 2673              	.LVL309:
 2674              		.loc 1 1422 0
 2675 0038 70BD     		pop	{r4, r5, r6, pc}
 2676              	.LVL310:
 2677              	.L294:
1416:Generated_Source\PSoC4/CyDMA.c ****     CYASSERT((descriptor >= 0) && (descriptor < CYDMA_DESCR_NR));
 2678              		.loc 1 1416 0 discriminator 1
 2679 003a 0020     		mov	r0, #0
 2680              	.LVL311:
 2681 003c FFF7FEFF 		bl	CyHalt
 2682              	.LVL312:
 2683 0040 E4E7     		b	.L288
 2684              	.L296:
 2685 0042 C046     		.align	2
 2686              	.L295:
 2687 0044 FFFFFFD3 		.word	-738197505
 2688 0048 00181040 		.word	1074796544
 2689              		.cfi_endproc
 2690              	.LFE47:
 2691              		.size	CyDmaSetPostCompletionActions, .-CyDmaSetPostCompletionActions
 2692              		.section	.text.CyDmaGetPostCompletionActions,"ax",%progbits
 2693              		.align	2
 2694              		.global	CyDmaGetPostCompletionActions
 2695              		.code	16
 2696              		.thumb_func
 2697              		.type	CyDmaGetPostCompletionActions, %function
 2698              	CyDmaGetPostCompletionActions:
 2699              	.LFB48:
1423:Generated_Source\PSoC4/CyDMA.c **** 
1424:Generated_Source\PSoC4/CyDMA.c **** 
1425:Generated_Source\PSoC4/CyDMA.c **** /*******************************************************************************
1426:Generated_Source\PSoC4/CyDMA.c **** * Function Name: CyDmaGetPostCompletionActions
1427:Generated_Source\PSoC4/CyDMA.c **** ********************************************************************************
1428:Generated_Source\PSoC4/CyDMA.c **** *
1429:Generated_Source\PSoC4/CyDMA.c **** * Summary:
1430:Generated_Source\PSoC4/CyDMA.c **** *  Returns the post descriptor action settings as set by 
ARM GAS  C:\Users\glenn\AppData\Local\Temp\ccjge9sh.s 			page 76


1431:Generated_Source\PSoC4/CyDMA.c **** *  CyDmaSetPostCompletionActions() or CyDmaSetConfiguration().
1432:Generated_Source\PSoC4/CyDMA.c **** *
1433:Generated_Source\PSoC4/CyDMA.c **** * Parameters:
1434:Generated_Source\PSoC4/CyDMA.c **** *  channel:    Channel used by this function.
1435:Generated_Source\PSoC4/CyDMA.c **** *  descriptor: Descriptor (0 or 1) modified by this function.
1436:Generated_Source\PSoC4/CyDMA.c **** *                   
1437:Generated_Source\PSoC4/CyDMA.c **** * Return:
1438:Generated_Source\PSoC4/CyDMA.c **** *  Post descriptor actions. Refer to the API bit field definitions in
1439:Generated_Source\PSoC4/CyDMA.c **** *  CyDMA_P4.h or the API description in the DMA channel datasheet for more
1440:Generated_Source\PSoC4/CyDMA.c **** *  information.
1441:Generated_Source\PSoC4/CyDMA.c **** *
1442:Generated_Source\PSoC4/CyDMA.c **** *******************************************************************************/
1443:Generated_Source\PSoC4/CyDMA.c **** uint32 CyDmaGetPostCompletionActions(int32 channel, int32 descriptor)
1444:Generated_Source\PSoC4/CyDMA.c **** {
 2700              		.loc 1 1444 0
 2701              		.cfi_startproc
 2702              	.LVL313:
 2703 0000 38B5     		push	{r3, r4, r5, lr}
 2704              		.cfi_def_cfa_offset 16
 2705              		.cfi_offset 3, -16
 2706              		.cfi_offset 4, -12
 2707              		.cfi_offset 5, -8
 2708              		.cfi_offset 14, -4
 2709              		.loc 1 1444 0
 2710 0002 051C     		mov	r5, r0
 2711 0004 0C1C     		mov	r4, r1
1445:Generated_Source\PSoC4/CyDMA.c ****     CYASSERT((channel    >= 0) && (channel    < CYDMA_CH_NR));
 2712              		.loc 1 1445 0
 2713 0006 0728     		cmp	r0, #7
 2714 0008 0FD8     		bhi	.L300
 2715              	.LVL314:
 2716              	.L298:
1446:Generated_Source\PSoC4/CyDMA.c ****     CYASSERT((descriptor >= 0) && (descriptor < CYDMA_DESCR_NR));
 2717              		.loc 1 1446 0
 2718 000a 012C     		cmp	r4, #1
 2719 000c 02D9     		bls	.L299
 2720              		.loc 1 1446 0 is_stmt 0 discriminator 1
 2721 000e 0020     		mov	r0, #0
 2722 0010 FFF7FEFF 		bl	CyHalt
 2723              	.LVL315:
 2724              	.L299:
1447:Generated_Source\PSoC4/CyDMA.c **** 
1448:Generated_Source\PSoC4/CyDMA.c ****     return (CYDMA_DESCR_BASE.descriptor[channel][descriptor].ctl & CYDMA_POST_COMPLETE_ACTIONS);
 2725              		.loc 1 1448 0 is_stmt 1
 2726 0014 074B     		ldr	r3, .L301
 2727 0016 6D00     		lsl	r5, r5, #1
 2728              	.LVL316:
 2729 0018 9C46     		mov	ip, r3
 2730 001a B023     		mov	r3, #176
 2731 001c 2C19     		add	r4, r5, r4
 2732              	.LVL317:
 2733 001e 2401     		lsl	r4, r4, #4
 2734 0020 6444     		add	r4, r4, ip
 2735 0022 A068     		ldr	r0, [r4, #8]
 2736 0024 9B05     		lsl	r3, r3, #22
 2737 0026 1840     		and	r0, r3
1449:Generated_Source\PSoC4/CyDMA.c **** }
ARM GAS  C:\Users\glenn\AppData\Local\Temp\ccjge9sh.s 			page 77


 2738              		.loc 1 1449 0
 2739              		@ sp needed
 2740 0028 38BD     		pop	{r3, r4, r5, pc}
 2741              	.LVL318:
 2742              	.L300:
1445:Generated_Source\PSoC4/CyDMA.c ****     CYASSERT((descriptor >= 0) && (descriptor < CYDMA_DESCR_NR));
 2743              		.loc 1 1445 0 discriminator 1
 2744 002a 0020     		mov	r0, #0
 2745              	.LVL319:
 2746 002c FFF7FEFF 		bl	CyHalt
 2747              	.LVL320:
 2748 0030 EBE7     		b	.L298
 2749              	.L302:
 2750 0032 C046     		.align	2
 2751              	.L301:
 2752 0034 00181040 		.word	1074796544
 2753              		.cfi_endproc
 2754              	.LFE48:
 2755              		.size	CyDmaGetPostCompletionActions, .-CyDmaGetPostCompletionActions
 2756              		.data
 2757              		.align	2
 2758              		.set	.LANCHOR0,. + 0
 2759              		.type	CyDmaInterruptCallback, %object
 2760              		.size	CyDmaInterruptCallback, 32
 2761              	CyDmaInterruptCallback:
 2762 0000 00000000 		.word	CyDmaDefaultInterruptCallback
 2763 0004 00000000 		.word	CyDmaDefaultInterruptCallback
 2764 0008 00000000 		.word	CyDmaDefaultInterruptCallback
 2765 000c 00000000 		.word	CyDmaDefaultInterruptCallback
 2766 0010 00000000 		.word	CyDmaDefaultInterruptCallback
 2767 0014 00000000 		.word	CyDmaDefaultInterruptCallback
 2768 0018 00000000 		.word	CyDmaDefaultInterruptCallback
 2769 001c 00000000 		.word	CyDmaDefaultInterruptCallback
 2770              		.bss
 2771              		.align	2
 2772              		.set	.LANCHOR1,. + 0
 2773              		.type	initIntrVector.4880, %object
 2774              		.size	initIntrVector.4880, 1
 2775              	initIntrVector.4880:
 2776 0000 00       		.space	1
 2777 0001 000000   		.space	3
 2778              		.type	CyDmaChannelUsedMask, %object
 2779              		.size	CyDmaChannelUsedMask, 4
 2780              	CyDmaChannelUsedMask:
 2781 0004 00000000 		.space	4
 2782              		.text
 2783              	.Letext0:
 2784              		.file 2 "Generated_Source\\PSoC4\\cytypes.h"
 2785              		.file 3 "Generated_Source\\PSoC4\\CyDMA.h"
 2786              		.file 4 "Generated_Source\\PSoC4\\CyLib.h"