ARM GAS  C:\Users\glenn\AppData\Local\Temp\ccJNRvXQ.s 			page 1


   1              		.cpu cortex-m0
   2              		.fpu softvfp
   3              		.eabi_attribute 20, 1
   4              		.eabi_attribute 21, 1
   5              		.eabi_attribute 23, 3
   6              		.eabi_attribute 24, 1
   7              		.eabi_attribute 25, 1
   8              		.eabi_attribute 26, 1
   9              		.eabi_attribute 30, 6
  10              		.eabi_attribute 34, 0
  11              		.eabi_attribute 18, 4
  12              		.code	16
  13              		.file	"dht22.c"
  14              		.text
  15              	.Ltext0:
  16              		.cfi_sections	.debug_frame
  17              		.section	.text.look_for_dht22_response,"ax",%progbits
  18              		.align	2
  19              		.code	16
  20              		.thumb_func
  21              		.type	look_for_dht22_response, %function
  22              	look_for_dht22_response:
  23              	.LFB62:
  24              		.file 1 "humidity_sensor\\dht22.c"
   1:humidity_sensor/dht22.c **** /*
   2:humidity_sensor/dht22.c **** **
   3:humidity_sensor/dht22.c **** ** File DHT22.c
   4:humidity_sensor/dht22.c **** **
   5:humidity_sensor/dht22.c **** **
   6:humidity_sensor/dht22.c **** */
   7:humidity_sensor/dht22.c **** 
   8:humidity_sensor/dht22.c **** #include <project.h>
   9:humidity_sensor/dht22.c **** #include "dht22.h"
  10:humidity_sensor/dht22.c **** 
  11:humidity_sensor/dht22.c **** static int look_for_dht22_response( DHT22_SENSOR *dht22_sensor )
  12:humidity_sensor/dht22.c **** {
  25              		.loc 1 12 0
  26              		.cfi_startproc
  27 0000 80B5     		push	{r7, lr}
  28              		.cfi_def_cfa_offset 8
  29              		.cfi_offset 7, -8
  30              		.cfi_offset 14, -4
  31 0002 84B0     		sub	sp, sp, #16
  32              		.cfi_def_cfa_offset 24
  33 0004 00AF     		add	r7, sp, #0
  34              		.cfi_def_cfa_register 7
  35 0006 7860     		str	r0, [r7, #4]
  13:humidity_sensor/dht22.c ****     uint32 i;
  14:humidity_sensor/dht22.c ****     // look for trans to zero
  15:humidity_sensor/dht22.c ****     // look for trans to one
  16:humidity_sensor/dht22.c ****     // look for trans to zero
  17:humidity_sensor/dht22.c ****     for( i = 0; i < 60; i++)
  36              		.loc 1 17 0
  37 0008 0023     		mov	r3, #0
  38 000a FB60     		str	r3, [r7, #12]
  39 000c 0BE0     		b	.L2
  40              	.L5:
ARM GAS  C:\Users\glenn\AppData\Local\Temp\ccJNRvXQ.s 			page 2


  18:humidity_sensor/dht22.c ****     {
  19:humidity_sensor/dht22.c ****         if( dht22_sensor->pin_read() == 0 )
  41              		.loc 1 19 0
  42 000e 7B68     		ldr	r3, [r7, #4]
  43 0010 1B68     		ldr	r3, [r3]
  44 0012 9847     		blx	r3
  45 0014 031E     		sub	r3, r0, #0
  46 0016 00D1     		bne	.L3
  20:humidity_sensor/dht22.c ****         {
  21:humidity_sensor/dht22.c ****             break;
  47              		.loc 1 21 0
  48 0018 08E0     		b	.L4
  49              	.L3:
  22:humidity_sensor/dht22.c ****         }
  23:humidity_sensor/dht22.c ****         CyDelayUs(1);
  50              		.loc 1 23 0 discriminator 2
  51 001a 0120     		mov	r0, #1
  52 001c FFF7FEFF 		bl	CyDelayUs
  17:humidity_sensor/dht22.c ****     {
  53              		.loc 1 17 0 discriminator 2
  54 0020 FB68     		ldr	r3, [r7, #12]
  55 0022 0133     		add	r3, r3, #1
  56 0024 FB60     		str	r3, [r7, #12]
  57              	.L2:
  17:humidity_sensor/dht22.c ****     {
  58              		.loc 1 17 0 is_stmt 0 discriminator 1
  59 0026 FB68     		ldr	r3, [r7, #12]
  60 0028 3B2B     		cmp	r3, #59
  61 002a F0D9     		bls	.L5
  62              	.L4:
  24:humidity_sensor/dht22.c ****     }
  25:humidity_sensor/dht22.c ****     if( i > 50 )
  63              		.loc 1 25 0 is_stmt 1
  64 002c FB68     		ldr	r3, [r7, #12]
  65 002e 322B     		cmp	r3, #50
  66 0030 01D9     		bls	.L6
  26:humidity_sensor/dht22.c ****     {
  27:humidity_sensor/dht22.c ****         return 0;
  67              		.loc 1 27 0
  68 0032 0023     		mov	r3, #0
  69 0034 2EE0     		b	.L7
  70              	.L6:
  28:humidity_sensor/dht22.c ****     }
  29:humidity_sensor/dht22.c ****     for( i = 0; i < 100; i++)
  71              		.loc 1 29 0
  72 0036 0023     		mov	r3, #0
  73 0038 FB60     		str	r3, [r7, #12]
  74 003a 0BE0     		b	.L8
  75              	.L11:
  30:humidity_sensor/dht22.c ****     {
  31:humidity_sensor/dht22.c ****         if( dht22_sensor->pin_read() != 0 )
  76              		.loc 1 31 0
  77 003c 7B68     		ldr	r3, [r7, #4]
  78 003e 1B68     		ldr	r3, [r3]
  79 0040 9847     		blx	r3
  80 0042 031E     		sub	r3, r0, #0
  81 0044 00D0     		beq	.L9
ARM GAS  C:\Users\glenn\AppData\Local\Temp\ccJNRvXQ.s 			page 3


  32:humidity_sensor/dht22.c ****         {
  33:humidity_sensor/dht22.c ****             break;
  82              		.loc 1 33 0
  83 0046 08E0     		b	.L10
  84              	.L9:
  34:humidity_sensor/dht22.c ****         }
  35:humidity_sensor/dht22.c ****         CyDelayUs(1);
  85              		.loc 1 35 0 discriminator 2
  86 0048 0120     		mov	r0, #1
  87 004a FFF7FEFF 		bl	CyDelayUs
  29:humidity_sensor/dht22.c ****     {
  88              		.loc 1 29 0 discriminator 2
  89 004e FB68     		ldr	r3, [r7, #12]
  90 0050 0133     		add	r3, r3, #1
  91 0052 FB60     		str	r3, [r7, #12]
  92              	.L8:
  29:humidity_sensor/dht22.c ****     {
  93              		.loc 1 29 0 is_stmt 0 discriminator 1
  94 0054 FB68     		ldr	r3, [r7, #12]
  95 0056 632B     		cmp	r3, #99
  96 0058 F0D9     		bls	.L11
  97              	.L10:
  36:humidity_sensor/dht22.c ****     }    
  37:humidity_sensor/dht22.c ****     if(  i > 90 ) 
  98              		.loc 1 37 0 is_stmt 1
  99 005a FB68     		ldr	r3, [r7, #12]
 100 005c 5A2B     		cmp	r3, #90
 101 005e 01D9     		bls	.L12
  38:humidity_sensor/dht22.c ****     {
  39:humidity_sensor/dht22.c ****         
  40:humidity_sensor/dht22.c ****         return 0;
 102              		.loc 1 40 0
 103 0060 0023     		mov	r3, #0
 104 0062 17E0     		b	.L7
 105              	.L12:
  41:humidity_sensor/dht22.c ****     }
  42:humidity_sensor/dht22.c ****     
  43:humidity_sensor/dht22.c ****    for( i = 0; i < 100; i++)
 106              		.loc 1 43 0
 107 0064 0023     		mov	r3, #0
 108 0066 FB60     		str	r3, [r7, #12]
 109 0068 0BE0     		b	.L13
 110              	.L16:
  44:humidity_sensor/dht22.c ****     {
  45:humidity_sensor/dht22.c ****         if( dht22_sensor->pin_read() == 0 )
 111              		.loc 1 45 0
 112 006a 7B68     		ldr	r3, [r7, #4]
 113 006c 1B68     		ldr	r3, [r3]
 114 006e 9847     		blx	r3
 115 0070 031E     		sub	r3, r0, #0
 116 0072 00D1     		bne	.L14
  46:humidity_sensor/dht22.c ****         {
  47:humidity_sensor/dht22.c ****             break;
 117              		.loc 1 47 0
 118 0074 08E0     		b	.L15
 119              	.L14:
  48:humidity_sensor/dht22.c ****         }
ARM GAS  C:\Users\glenn\AppData\Local\Temp\ccJNRvXQ.s 			page 4


  49:humidity_sensor/dht22.c ****         CyDelayUs(1);
 120              		.loc 1 49 0 discriminator 2
 121 0076 0120     		mov	r0, #1
 122 0078 FFF7FEFF 		bl	CyDelayUs
  43:humidity_sensor/dht22.c ****     {
 123              		.loc 1 43 0 discriminator 2
 124 007c FB68     		ldr	r3, [r7, #12]
 125 007e 0133     		add	r3, r3, #1
 126 0080 FB60     		str	r3, [r7, #12]
 127              	.L13:
  43:humidity_sensor/dht22.c ****     {
 128              		.loc 1 43 0 is_stmt 0 discriminator 1
 129 0082 FB68     		ldr	r3, [r7, #12]
 130 0084 632B     		cmp	r3, #99
 131 0086 F0D9     		bls	.L16
 132              	.L15:
  50:humidity_sensor/dht22.c ****     }    
  51:humidity_sensor/dht22.c ****     if(  i > 90) 
 133              		.loc 1 51 0 is_stmt 1
 134 0088 FB68     		ldr	r3, [r7, #12]
 135 008a 5A2B     		cmp	r3, #90
 136 008c 01D9     		bls	.L17
  52:humidity_sensor/dht22.c ****     {
  53:humidity_sensor/dht22.c ****         
  54:humidity_sensor/dht22.c ****         return 0;
 137              		.loc 1 54 0
 138 008e 0023     		mov	r3, #0
 139 0090 00E0     		b	.L7
 140              	.L17:
  55:humidity_sensor/dht22.c ****     }
  56:humidity_sensor/dht22.c ****     return 1;
 141              		.loc 1 56 0
 142 0092 0123     		mov	r3, #1
 143              	.L7:
  57:humidity_sensor/dht22.c **** }
 144              		.loc 1 57 0
 145 0094 181C     		mov	r0, r3
 146 0096 BD46     		mov	sp, r7
 147 0098 04B0     		add	sp, sp, #16
 148              		@ sp needed
 149 009a 80BD     		pop	{r7, pc}
 150              		.cfi_endproc
 151              	.LFE62:
 152              		.size	look_for_dht22_response, .-look_for_dht22_response
 153              		.section	.text.read_bit,"ax",%progbits
 154              		.align	2
 155              		.code	16
 156              		.thumb_func
 157              		.type	read_bit, %function
 158              	read_bit:
 159              	.LFB63:
  58:humidity_sensor/dht22.c **** 
  59:humidity_sensor/dht22.c **** 
  60:humidity_sensor/dht22.c **** static uint32 read_bit( DHT22_SENSOR *dht22_sensor, uint32 *status_flag )
  61:humidity_sensor/dht22.c **** {
 160              		.loc 1 61 0
 161              		.cfi_startproc
ARM GAS  C:\Users\glenn\AppData\Local\Temp\ccJNRvXQ.s 			page 5


 162 0000 80B5     		push	{r7, lr}
 163              		.cfi_def_cfa_offset 8
 164              		.cfi_offset 7, -8
 165              		.cfi_offset 14, -4
 166 0002 84B0     		sub	sp, sp, #16
 167              		.cfi_def_cfa_offset 24
 168 0004 00AF     		add	r7, sp, #0
 169              		.cfi_def_cfa_register 7
 170 0006 7860     		str	r0, [r7, #4]
 171 0008 3960     		str	r1, [r7]
  62:humidity_sensor/dht22.c ****     int i;
  63:humidity_sensor/dht22.c ****     *status_flag = 1;
 172              		.loc 1 63 0
 173 000a 3B68     		ldr	r3, [r7]
 174 000c 0122     		mov	r2, #1
 175 000e 1A60     		str	r2, [r3]
  64:humidity_sensor/dht22.c ****     for( i = 0; i < 12; i++)
 176              		.loc 1 64 0
 177 0010 0023     		mov	r3, #0
 178 0012 FB60     		str	r3, [r7, #12]
 179 0014 0BE0     		b	.L19
 180              	.L22:
  65:humidity_sensor/dht22.c ****     {
  66:humidity_sensor/dht22.c ****         if( dht22_sensor->pin_read() != 0 )
 181              		.loc 1 66 0
 182 0016 7B68     		ldr	r3, [r7, #4]
 183 0018 1B68     		ldr	r3, [r3]
 184 001a 9847     		blx	r3
 185 001c 031E     		sub	r3, r0, #0
 186 001e 00D0     		beq	.L20
  67:humidity_sensor/dht22.c ****         {
  68:humidity_sensor/dht22.c ****             break;
 187              		.loc 1 68 0
 188 0020 08E0     		b	.L21
 189              	.L20:
  69:humidity_sensor/dht22.c ****         }
  70:humidity_sensor/dht22.c ****         CyDelayUs(10);
 190              		.loc 1 70 0 discriminator 2
 191 0022 0A20     		mov	r0, #10
 192 0024 FFF7FEFF 		bl	CyDelayUs
  64:humidity_sensor/dht22.c ****     {
 193              		.loc 1 64 0 discriminator 2
 194 0028 FB68     		ldr	r3, [r7, #12]
 195 002a 0133     		add	r3, r3, #1
 196 002c FB60     		str	r3, [r7, #12]
 197              	.L19:
  64:humidity_sensor/dht22.c ****     {
 198              		.loc 1 64 0 is_stmt 0 discriminator 1
 199 002e FB68     		ldr	r3, [r7, #12]
 200 0030 0B2B     		cmp	r3, #11
 201 0032 F0DD     		ble	.L22
 202              	.L21:
  71:humidity_sensor/dht22.c ****     }
  72:humidity_sensor/dht22.c ****     for( i = 0; i < 11; i++)
 203              		.loc 1 72 0 is_stmt 1
 204 0034 0023     		mov	r3, #0
 205 0036 FB60     		str	r3, [r7, #12]
ARM GAS  C:\Users\glenn\AppData\Local\Temp\ccJNRvXQ.s 			page 6


 206 0038 0BE0     		b	.L23
 207              	.L26:
  73:humidity_sensor/dht22.c ****     {
  74:humidity_sensor/dht22.c ****         if( dht22_sensor->pin_read() == 0 )
 208              		.loc 1 74 0
 209 003a 7B68     		ldr	r3, [r7, #4]
 210 003c 1B68     		ldr	r3, [r3]
 211 003e 9847     		blx	r3
 212 0040 031E     		sub	r3, r0, #0
 213 0042 00D1     		bne	.L24
  75:humidity_sensor/dht22.c ****         {
  76:humidity_sensor/dht22.c ****             break;
 214              		.loc 1 76 0
 215 0044 08E0     		b	.L25
 216              	.L24:
  77:humidity_sensor/dht22.c ****         }
  78:humidity_sensor/dht22.c ****         CyDelayUs(10);
 217              		.loc 1 78 0 discriminator 2
 218 0046 0A20     		mov	r0, #10
 219 0048 FFF7FEFF 		bl	CyDelayUs
  72:humidity_sensor/dht22.c ****     {
 220              		.loc 1 72 0 discriminator 2
 221 004c FB68     		ldr	r3, [r7, #12]
 222 004e 0133     		add	r3, r3, #1
 223 0050 FB60     		str	r3, [r7, #12]
 224              	.L23:
  72:humidity_sensor/dht22.c ****     {
 225              		.loc 1 72 0 is_stmt 0 discriminator 1
 226 0052 FB68     		ldr	r3, [r7, #12]
 227 0054 0A2B     		cmp	r3, #10
 228 0056 F0DD     		ble	.L26
 229              	.L25:
  79:humidity_sensor/dht22.c ****     }    
  80:humidity_sensor/dht22.c ****     if(  i < 4  )
 230              		.loc 1 80 0 is_stmt 1
 231 0058 FB68     		ldr	r3, [r7, #12]
 232 005a 032B     		cmp	r3, #3
 233 005c 01DC     		bgt	.L27
  81:humidity_sensor/dht22.c ****     {
  82:humidity_sensor/dht22.c ****         
  83:humidity_sensor/dht22.c ****         return 0;
 234              		.loc 1 83 0
 235 005e 0023     		mov	r3, #0
 236 0060 00E0     		b	.L28
 237              	.L27:
  84:humidity_sensor/dht22.c ****     }
  85:humidity_sensor/dht22.c ****     
  86:humidity_sensor/dht22.c ****     
  87:humidity_sensor/dht22.c ****     return 1;
 238              		.loc 1 87 0
 239 0062 0123     		mov	r3, #1
 240              	.L28:
  88:humidity_sensor/dht22.c ****  }
 241              		.loc 1 88 0
 242 0064 181C     		mov	r0, r3
 243 0066 BD46     		mov	sp, r7
 244 0068 04B0     		add	sp, sp, #16
ARM GAS  C:\Users\glenn\AppData\Local\Temp\ccJNRvXQ.s 			page 7


 245              		@ sp needed
 246 006a 80BD     		pop	{r7, pc}
 247              		.cfi_endproc
 248              	.LFE63:
 249              		.size	read_bit, .-read_bit
 250              		.global	__aeabi_i2f
 251              		.global	__aeabi_fdiv
 252              		.global	__aeabi_f2d
 253              		.global	__aeabi_ddiv
 254              		.global	__aeabi_dmul
 255              		.global	__aeabi_dadd
 256              		.global	__aeabi_d2f
 257              		.section	.text.DHT22_get_data,"ax",%progbits
 258              		.align	2
 259              		.global	DHT22_get_data
 260              		.code	16
 261              		.thumb_func
 262              		.type	DHT22_get_data, %function
 263              	DHT22_get_data:
 264              	.LFB64:
  89:humidity_sensor/dht22.c ****             
  90:humidity_sensor/dht22.c ****    
  91:humidity_sensor/dht22.c ****         
  92:humidity_sensor/dht22.c ****         
  93:humidity_sensor/dht22.c ****     
  94:humidity_sensor/dht22.c **** 
  95:humidity_sensor/dht22.c **** void DHT22_get_data( DHT22_SENSOR *dht22_sensor, uint32  *status_flag, uint32 *step_number, float *
  96:humidity_sensor/dht22.c **** {
 265              		.loc 1 96 0
 266              		.cfi_startproc
 267 0000 90B5     		push	{r4, r7, lr}
 268              		.cfi_def_cfa_offset 12
 269              		.cfi_offset 4, -12
 270              		.cfi_offset 7, -8
 271              		.cfi_offset 14, -4
 272 0002 8FB0     		sub	sp, sp, #60
 273              		.cfi_def_cfa_offset 72
 274 0004 00AF     		add	r7, sp, #0
 275              		.cfi_def_cfa_register 7
 276 0006 F860     		str	r0, [r7, #12]
 277 0008 B960     		str	r1, [r7, #8]
 278 000a 7A60     		str	r2, [r7, #4]
 279 000c 3B60     		str	r3, [r7]
  97:humidity_sensor/dht22.c ****    uint8  data[5];
  98:humidity_sensor/dht22.c ****    uint32  i; 
  99:humidity_sensor/dht22.c ****    uint32  j;
 100:humidity_sensor/dht22.c ****    uint64  mask;
 101:humidity_sensor/dht22.c ****    uint32  bit;
 102:humidity_sensor/dht22.c ****    int16  temp_1;
 103:humidity_sensor/dht22.c ****    int16 temp_2;
 104:humidity_sensor/dht22.c ****    uint16 checksum;
 105:humidity_sensor/dht22.c ****    
 106:humidity_sensor/dht22.c ****    uint8  criticalState;
 107:humidity_sensor/dht22.c ****    criticalState = CyEnterCriticalSection();
 280              		.loc 1 107 0
 281 000e 2723     		mov	r3, #39
 282 0010 FC18     		add	r4, r7, r3
ARM GAS  C:\Users\glenn\AppData\Local\Temp\ccJNRvXQ.s 			page 8


 283 0012 FFF7FEFF 		bl	CyEnterCriticalSection
 284 0016 031C     		mov	r3, r0
 285 0018 2370     		strb	r3, [r4]
 108:humidity_sensor/dht22.c ****    
 109:humidity_sensor/dht22.c ****    dht22_sensor->pin_write(0);
 286              		.loc 1 109 0
 287 001a FB68     		ldr	r3, [r7, #12]
 288 001c 5B68     		ldr	r3, [r3, #4]
 289 001e 0020     		mov	r0, #0
 290 0020 9847     		blx	r3
 110:humidity_sensor/dht22.c ****    CyDelayUs(1500);
 291              		.loc 1 110 0
 292 0022 784B     		ldr	r3, .L41
 293 0024 181C     		mov	r0, r3
 294 0026 FFF7FEFF 		bl	CyDelayUs
 111:humidity_sensor/dht22.c ****    dht22_sensor->pin_write(1);
 295              		.loc 1 111 0
 296 002a FB68     		ldr	r3, [r7, #12]
 297 002c 5B68     		ldr	r3, [r3, #4]
 298 002e 0120     		mov	r0, #1
 299 0030 9847     		blx	r3
 112:humidity_sensor/dht22.c ****    if( look_for_dht22_response( dht22_sensor ) == 0 )
 300              		.loc 1 112 0
 301 0032 FB68     		ldr	r3, [r7, #12]
 302 0034 181C     		mov	r0, r3
 303 0036 FFF7FEFF 		bl	look_for_dht22_response
 304 003a 031E     		sub	r3, r0, #0
 305 003c 06D1     		bne	.L30
 113:humidity_sensor/dht22.c ****    {
 114:humidity_sensor/dht22.c ****       *status_flag = 0;
 306              		.loc 1 114 0
 307 003e BB68     		ldr	r3, [r7, #8]
 308 0040 0022     		mov	r2, #0
 309 0042 1A60     		str	r2, [r3]
 115:humidity_sensor/dht22.c ****       *step_number = 0;
 310              		.loc 1 115 0
 311 0044 7B68     		ldr	r3, [r7, #4]
 312 0046 0022     		mov	r2, #0
 313 0048 1A60     		str	r2, [r3]
 116:humidity_sensor/dht22.c ****       return;
 314              		.loc 1 116 0
 315 004a D7E0     		b	.L29
 316              	.L30:
 117:humidity_sensor/dht22.c ****    }
 118:humidity_sensor/dht22.c ****    for( i = 0; i < 5; i++ )
 317              		.loc 1 118 0
 318 004c 0023     		mov	r3, #0
 319 004e 7B63     		str	r3, [r7, #52]
 320 0050 42E0     		b	.L32
 321              	.L37:
 119:humidity_sensor/dht22.c ****    {
 120:humidity_sensor/dht22.c ****      data[i] = 0;
 322              		.loc 1 120 0
 323 0052 1423     		mov	r3, #20
 324 0054 FA18     		add	r2, r7, r3
 325 0056 7B6B     		ldr	r3, [r7, #52]
 326 0058 D318     		add	r3, r2, r3
ARM GAS  C:\Users\glenn\AppData\Local\Temp\ccJNRvXQ.s 			page 9


 327 005a 0022     		mov	r2, #0
 328 005c 1A70     		strb	r2, [r3]
 121:humidity_sensor/dht22.c ****      mask = 0x80;
 329              		.loc 1 121 0
 330 005e 8023     		mov	r3, #128
 331 0060 0024     		mov	r4, #0
 332 0062 BB62     		str	r3, [r7, #40]
 333 0064 FC62     		str	r4, [r7, #44]
 122:humidity_sensor/dht22.c ****      for( j = 0; j < 8 ; j++ )
 334              		.loc 1 122 0
 335 0066 0023     		mov	r3, #0
 336 0068 3B63     		str	r3, [r7, #48]
 337 006a 2FE0     		b	.L33
 338              	.L36:
 123:humidity_sensor/dht22.c ****      {
 124:humidity_sensor/dht22.c ****       bit = read_bit( dht22_sensor,  status_flag );
 339              		.loc 1 124 0
 340 006c FA68     		ldr	r2, [r7, #12]
 341 006e BB68     		ldr	r3, [r7, #8]
 342 0070 101C     		mov	r0, r2
 343 0072 191C     		mov	r1, r3
 344 0074 FFF7FEFF 		bl	read_bit
 345 0078 031C     		mov	r3, r0
 346 007a 3B62     		str	r3, [r7, #32]
 125:humidity_sensor/dht22.c ****       if( *status_flag == 0 )
 347              		.loc 1 125 0
 348 007c BB68     		ldr	r3, [r7, #8]
 349 007e 1B68     		ldr	r3, [r3]
 350 0080 002B     		cmp	r3, #0
 351 0082 04D1     		bne	.L34
 126:humidity_sensor/dht22.c ****       {
 127:humidity_sensor/dht22.c ****         *step_number = i+1;
 352              		.loc 1 127 0
 353 0084 7B6B     		ldr	r3, [r7, #52]
 354 0086 5A1C     		add	r2, r3, #1
 355 0088 7B68     		ldr	r3, [r7, #4]
 356 008a 1A60     		str	r2, [r3]
 128:humidity_sensor/dht22.c ****         return;
 357              		.loc 1 128 0
 358 008c B6E0     		b	.L29
 359              	.L34:
 129:humidity_sensor/dht22.c ****       }
 130:humidity_sensor/dht22.c ****       if( bit != 0 )
 360              		.loc 1 130 0
 361 008e 3B6A     		ldr	r3, [r7, #32]
 362 0090 002B     		cmp	r3, #0
 363 0092 0FD0     		beq	.L35
 131:humidity_sensor/dht22.c ****       {
 132:humidity_sensor/dht22.c ****         data[i] = data[i] | mask;
 364              		.loc 1 132 0
 365 0094 1423     		mov	r3, #20
 366 0096 FA18     		add	r2, r7, r3
 367 0098 7B6B     		ldr	r3, [r7, #52]
 368 009a D318     		add	r3, r2, r3
 369 009c 1A78     		ldrb	r2, [r3]
 370 009e BB6A     		ldr	r3, [r7, #40]
 371 00a0 FC6A     		ldr	r4, [r7, #44]
ARM GAS  C:\Users\glenn\AppData\Local\Temp\ccJNRvXQ.s 			page 10


 372 00a2 DBB2     		uxtb	r3, r3
 373 00a4 1343     		orr	r3, r2
 374 00a6 D9B2     		uxtb	r1, r3
 375 00a8 1423     		mov	r3, #20
 376 00aa FA18     		add	r2, r7, r3
 377 00ac 7B6B     		ldr	r3, [r7, #52]
 378 00ae D318     		add	r3, r2, r3
 379 00b0 0A1C     		add	r2, r1, #0
 380 00b2 1A70     		strb	r2, [r3]
 381              	.L35:
 133:humidity_sensor/dht22.c ****       }
 134:humidity_sensor/dht22.c ****       mask = mask >> 1 ;
 382              		.loc 1 134 0 discriminator 2
 383 00b4 FB6A     		ldr	r3, [r7, #44]
 384 00b6 DB07     		lsl	r3, r3, #31
 385 00b8 BA6A     		ldr	r2, [r7, #40]
 386 00ba 5208     		lsr	r2, r2, #1
 387 00bc 1343     		orr	r3, r2
 388 00be BB62     		str	r3, [r7, #40]
 389 00c0 FB6A     		ldr	r3, [r7, #44]
 390 00c2 5B08     		lsr	r3, r3, #1
 391 00c4 FB62     		str	r3, [r7, #44]
 122:humidity_sensor/dht22.c ****      {
 392              		.loc 1 122 0 discriminator 2
 393 00c6 3B6B     		ldr	r3, [r7, #48]
 394 00c8 0133     		add	r3, r3, #1
 395 00ca 3B63     		str	r3, [r7, #48]
 396              	.L33:
 122:humidity_sensor/dht22.c ****      {
 397              		.loc 1 122 0 is_stmt 0 discriminator 1
 398 00cc 3B6B     		ldr	r3, [r7, #48]
 399 00ce 072B     		cmp	r3, #7
 400 00d0 CCD9     		bls	.L36
 118:humidity_sensor/dht22.c ****    {
 401              		.loc 1 118 0 is_stmt 1 discriminator 2
 402 00d2 7B6B     		ldr	r3, [r7, #52]
 403 00d4 0133     		add	r3, r3, #1
 404 00d6 7B63     		str	r3, [r7, #52]
 405              	.L32:
 118:humidity_sensor/dht22.c ****    {
 406              		.loc 1 118 0 is_stmt 0 discriminator 1
 407 00d8 7B6B     		ldr	r3, [r7, #52]
 408 00da 042B     		cmp	r3, #4
 409 00dc B9D9     		bls	.L37
 135:humidity_sensor/dht22.c ****     }
 136:humidity_sensor/dht22.c ****   }
 137:humidity_sensor/dht22.c ****   CyExitCriticalSection(criticalState);
 410              		.loc 1 137 0 is_stmt 1
 411 00de 2723     		mov	r3, #39
 412 00e0 FB18     		add	r3, r7, r3
 413 00e2 1B78     		ldrb	r3, [r3]
 414 00e4 181C     		mov	r0, r3
 415 00e6 FFF7FEFF 		bl	CyExitCriticalSection
 138:humidity_sensor/dht22.c ****   checksum = ( data[0] +data[1] +data[2]+data[3] )&0xff;
 416              		.loc 1 138 0
 417 00ea 1423     		mov	r3, #20
 418 00ec FB18     		add	r3, r7, r3
ARM GAS  C:\Users\glenn\AppData\Local\Temp\ccJNRvXQ.s 			page 11


 419 00ee 1B78     		ldrb	r3, [r3]
 420 00f0 9AB2     		uxth	r2, r3
 421 00f2 1423     		mov	r3, #20
 422 00f4 FB18     		add	r3, r7, r3
 423 00f6 5B78     		ldrb	r3, [r3, #1]
 424 00f8 9BB2     		uxth	r3, r3
 425 00fa D318     		add	r3, r2, r3
 426 00fc 9AB2     		uxth	r2, r3
 427 00fe 1423     		mov	r3, #20
 428 0100 FB18     		add	r3, r7, r3
 429 0102 9B78     		ldrb	r3, [r3, #2]
 430 0104 9BB2     		uxth	r3, r3
 431 0106 D318     		add	r3, r2, r3
 432 0108 9AB2     		uxth	r2, r3
 433 010a 1423     		mov	r3, #20
 434 010c FB18     		add	r3, r7, r3
 435 010e DB78     		ldrb	r3, [r3, #3]
 436 0110 9BB2     		uxth	r3, r3
 437 0112 D318     		add	r3, r2, r3
 438 0114 9AB2     		uxth	r2, r3
 439 0116 1E23     		mov	r3, #30
 440 0118 FB18     		add	r3, r7, r3
 441 011a FF21     		mov	r1, #255
 442 011c 0A40     		and	r2, r1
 443 011e 1A80     		strh	r2, [r3]
 139:humidity_sensor/dht22.c ****   if( checksum == data[4] )
 444              		.loc 1 139 0
 445 0120 1423     		mov	r3, #20
 446 0122 FB18     		add	r3, r7, r3
 447 0124 1B79     		ldrb	r3, [r3, #4]
 448 0126 9BB2     		uxth	r3, r3
 449 0128 1E22     		mov	r2, #30
 450 012a BA18     		add	r2, r7, r2
 451 012c 1288     		ldrh	r2, [r2]
 452 012e 9A42     		cmp	r2, r3
 453 0130 5ED1     		bne	.L38
 140:humidity_sensor/dht22.c ****   {
 141:humidity_sensor/dht22.c ****      temp_1 = data[0] <<8 | data[1];
 454              		.loc 1 141 0
 455 0132 1423     		mov	r3, #20
 456 0134 FB18     		add	r3, r7, r3
 457 0136 1B78     		ldrb	r3, [r3]
 458 0138 1B02     		lsl	r3, r3, #8
 459 013a 99B2     		uxth	r1, r3
 460 013c 1423     		mov	r3, #20
 461 013e FB18     		add	r3, r7, r3
 462 0140 5B78     		ldrb	r3, [r3, #1]
 463 0142 9AB2     		uxth	r2, r3
 464 0144 1C23     		mov	r3, #28
 465 0146 FB18     		add	r3, r7, r3
 466 0148 0A43     		orr	r2, r1
 467 014a 1A80     		strh	r2, [r3]
 142:humidity_sensor/dht22.c ****      temp_2 = data[2] << 8 | data[3];
 468              		.loc 1 142 0
 469 014c 1423     		mov	r3, #20
 470 014e FB18     		add	r3, r7, r3
 471 0150 9B78     		ldrb	r3, [r3, #2]
ARM GAS  C:\Users\glenn\AppData\Local\Temp\ccJNRvXQ.s 			page 12


 472 0152 1B02     		lsl	r3, r3, #8
 473 0154 99B2     		uxth	r1, r3
 474 0156 1423     		mov	r3, #20
 475 0158 FB18     		add	r3, r7, r3
 476 015a DB78     		ldrb	r3, [r3, #3]
 477 015c 9AB2     		uxth	r2, r3
 478 015e 1A23     		mov	r3, #26
 479 0160 FB18     		add	r3, r7, r3
 480 0162 0A43     		orr	r2, r1
 481 0164 1A80     		strh	r2, [r3]
 143:humidity_sensor/dht22.c ****      *humidity = (float) temp_1/10.;
 482              		.loc 1 143 0
 483 0166 1C23     		mov	r3, #28
 484 0168 FB18     		add	r3, r7, r3
 485 016a 0022     		mov	r2, #0
 486 016c 9B5E     		ldrsh	r3, [r3, r2]
 487 016e 181C     		mov	r0, r3
 488 0170 FFF7FEFF 		bl	__aeabi_i2f
 489 0174 031C     		add	r3, r0, #0
 490 0176 181C     		add	r0, r3, #0
 491 0178 2349     		ldr	r1, .L41+4
 492 017a FFF7FEFF 		bl	__aeabi_fdiv
 493 017e 031C     		add	r3, r0, #0
 494 0180 1A1C     		add	r2, r3, #0
 495 0182 BB6C     		ldr	r3, [r7, #72]
 496 0184 1A60     		str	r2, [r3]
 144:humidity_sensor/dht22.c ****      *temperature = (((( float) temp_2)/10.)*9/5)+32;
 497              		.loc 1 144 0
 498 0186 1A23     		mov	r3, #26
 499 0188 FB18     		add	r3, r7, r3
 500 018a 0022     		mov	r2, #0
 501 018c 9B5E     		ldrsh	r3, [r3, r2]
 502 018e 181C     		mov	r0, r3
 503 0190 FFF7FEFF 		bl	__aeabi_i2f
 504 0194 031C     		add	r3, r0, #0
 505 0196 181C     		add	r0, r3, #0
 506 0198 FFF7FEFF 		bl	__aeabi_f2d
 507 019c 031C     		mov	r3, r0
 508 019e 0C1C     		mov	r4, r1
 509 01a0 181C     		mov	r0, r3
 510 01a2 211C     		mov	r1, r4
 511 01a4 0022     		mov	r2, #0
 512 01a6 194B     		ldr	r3, .L41+8
 513 01a8 FFF7FEFF 		bl	__aeabi_ddiv
 514 01ac 031C     		mov	r3, r0
 515 01ae 0C1C     		mov	r4, r1
 516 01b0 181C     		mov	r0, r3
 517 01b2 211C     		mov	r1, r4
 518 01b4 0022     		mov	r2, #0
 519 01b6 164B     		ldr	r3, .L41+12
 520 01b8 FFF7FEFF 		bl	__aeabi_dmul
 521 01bc 031C     		mov	r3, r0
 522 01be 0C1C     		mov	r4, r1
 523 01c0 181C     		mov	r0, r3
 524 01c2 211C     		mov	r1, r4
 525 01c4 0022     		mov	r2, #0
 526 01c6 134B     		ldr	r3, .L41+16
ARM GAS  C:\Users\glenn\AppData\Local\Temp\ccJNRvXQ.s 			page 13


 527 01c8 FFF7FEFF 		bl	__aeabi_ddiv
 528 01cc 031C     		mov	r3, r0
 529 01ce 0C1C     		mov	r4, r1
 530 01d0 181C     		mov	r0, r3
 531 01d2 211C     		mov	r1, r4
 532 01d4 0022     		mov	r2, #0
 533 01d6 104B     		ldr	r3, .L41+20
 534 01d8 FFF7FEFF 		bl	__aeabi_dadd
 535 01dc 031C     		mov	r3, r0
 536 01de 0C1C     		mov	r4, r1
 537 01e0 181C     		mov	r0, r3
 538 01e2 211C     		mov	r1, r4
 539 01e4 FFF7FEFF 		bl	__aeabi_d2f
 540 01e8 021C     		add	r2, r0, #0
 541 01ea 3B68     		ldr	r3, [r7]
 542 01ec 1A60     		str	r2, [r3]
 543 01ee 05E0     		b	.L29
 544              	.L38:
 145:humidity_sensor/dht22.c ****   }
 146:humidity_sensor/dht22.c ****   else
 147:humidity_sensor/dht22.c ****   {
 148:humidity_sensor/dht22.c ****      *humidity = -1.;
 545              		.loc 1 148 0
 546 01f0 BB6C     		ldr	r3, [r7, #72]
 547 01f2 0A4A     		ldr	r2, .L41+24
 548 01f4 1A60     		str	r2, [r3]
 149:humidity_sensor/dht22.c ****      *temperature = -1.;
 549              		.loc 1 149 0
 550 01f6 3B68     		ldr	r3, [r7]
 551 01f8 084A     		ldr	r2, .L41+24
 552 01fa 1A60     		str	r2, [r3]
 553              	.L29:
 150:humidity_sensor/dht22.c ****   }
 151:humidity_sensor/dht22.c ****    
 152:humidity_sensor/dht22.c **** }...
 554              		.loc 1 152 0
 555 01fc BD46     		mov	sp, r7
 556 01fe 0FB0     		add	sp, sp, #60
 557              		@ sp needed
 558 0200 90BD     		pop	{r4, r7, pc}
 559              	.L42:
 560 0202 C046     		.align	2
 561              	.L41:
 562 0204 DC050000 		.word	1500
 563 0208 00002041 		.word	1092616192
 564 020c 00002440 		.word	1076101120
 565 0210 00002240 		.word	1075970048
 566 0214 00001440 		.word	1075052544
 567 0218 00004040 		.word	1077936128
 568 021c 000080BF 		.word	-1082130432
 569              		.cfi_endproc
 570              	.LFE64:
 571              		.size	DHT22_get_data, .-DHT22_get_data
 572              		.text
 573              	.Letext0:
 574              		.file 2 "Generated_Source\\PSoC4/cytypes.h"
 575              		.file 3 "humidity_sensor\\dht22.h"
ARM GAS  C:\Users\glenn\AppData\Local\Temp\ccJNRvXQ.s 			page 14


 576              		.section	.debug_info,"",%progbits
 577              	.Ldebug_info0:
 578 0000 8F020000 		.4byte	0x28f
 579 0004 0400     		.2byte	0x4
 580 0006 00000000 		.4byte	.Ldebug_abbrev0
 581 000a 04       		.byte	0x4
 582 000b 01       		.uleb128 0x1
 583 000c AF000000 		.4byte	.LASF36
 584 0010 01       		.byte	0x1
 585 0011 41000000 		.4byte	.LASF37
 586 0015 0A020000 		.4byte	.LASF38
 587 0019 00000000 		.4byte	.Ldebug_ranges0+0
 588 001d 00000000 		.4byte	0
 589 0021 00000000 		.4byte	.Ldebug_line0
 590 0025 02       		.uleb128 0x2
 591 0026 01       		.byte	0x1
 592 0027 06       		.byte	0x6
 593 0028 60020000 		.4byte	.LASF0
 594 002c 02       		.uleb128 0x2
 595 002d 01       		.byte	0x1
 596 002e 08       		.byte	0x8
 597 002f 9A000000 		.4byte	.LASF1
 598 0033 02       		.uleb128 0x2
 599 0034 02       		.byte	0x2
 600 0035 05       		.byte	0x5
 601 0036 D9010000 		.4byte	.LASF2
 602 003a 02       		.uleb128 0x2
 603 003b 02       		.byte	0x2
 604 003c 07       		.byte	0x7
 605 003d 7E000000 		.4byte	.LASF3
 606 0041 02       		.uleb128 0x2
 607 0042 04       		.byte	0x4
 608 0043 05       		.byte	0x5
 609 0044 F8010000 		.4byte	.LASF4
 610 0048 02       		.uleb128 0x2
 611 0049 04       		.byte	0x4
 612 004a 07       		.byte	0x7
 613 004b 5F000000 		.4byte	.LASF5
 614 004f 02       		.uleb128 0x2
 615 0050 08       		.byte	0x8
 616 0051 05       		.byte	0x5
 617 0052 A5010000 		.4byte	.LASF6
 618 0056 02       		.uleb128 0x2
 619 0057 08       		.byte	0x8
 620 0058 07       		.byte	0x7
 621 0059 65010000 		.4byte	.LASF7
 622 005d 03       		.uleb128 0x3
 623 005e 04       		.byte	0x4
 624 005f 05       		.byte	0x5
 625 0060 696E7400 		.ascii	"int\000"
 626 0064 02       		.uleb128 0x2
 627 0065 04       		.byte	0x4
 628 0066 07       		.byte	0x7
 629 0067 4B010000 		.4byte	.LASF8
 630 006b 04       		.uleb128 0x4
 631 006c F2010000 		.4byte	.LASF9
 632 0070 02       		.byte	0x2
ARM GAS  C:\Users\glenn\AppData\Local\Temp\ccJNRvXQ.s 			page 15


 633 0071 9801     		.2byte	0x198
 634 0073 2C000000 		.4byte	0x2c
 635 0077 04       		.uleb128 0x4
 636 0078 3D010000 		.4byte	.LASF10
 637 007c 02       		.byte	0x2
 638 007d 9901     		.2byte	0x199
 639 007f 3A000000 		.4byte	0x3a
 640 0083 04       		.uleb128 0x4
 641 0084 44010000 		.4byte	.LASF11
 642 0088 02       		.byte	0x2
 643 0089 9A01     		.2byte	0x19a
 644 008b 48000000 		.4byte	0x48
 645 008f 04       		.uleb128 0x4
 646 0090 59000000 		.4byte	.LASF12
 647 0094 02       		.byte	0x2
 648 0095 9C01     		.2byte	0x19c
 649 0097 33000000 		.4byte	0x33
 650 009b 02       		.uleb128 0x2
 651 009c 04       		.byte	0x4
 652 009d 04       		.byte	0x4
 653 009e 09000000 		.4byte	.LASF13
 654 00a2 02       		.uleb128 0x2
 655 00a3 08       		.byte	0x8
 656 00a4 04       		.byte	0x4
 657 00a5 A8000000 		.4byte	.LASF14
 658 00a9 04       		.uleb128 0x4
 659 00aa 14000000 		.4byte	.LASF15
 660 00ae 02       		.byte	0x2
 661 00af A401     		.2byte	0x1a4
 662 00b1 56000000 		.4byte	0x56
 663 00b5 02       		.uleb128 0x2
 664 00b6 01       		.byte	0x1
 665 00b7 08       		.byte	0x8
 666 00b8 BC010000 		.4byte	.LASF16
 667 00bc 02       		.uleb128 0x2
 668 00bd 04       		.byte	0x4
 669 00be 07       		.byte	0x7
 670 00bf 92010000 		.4byte	.LASF17
 671 00c3 05       		.uleb128 0x5
 672 00c4 04       		.byte	0x4
 673 00c5 83000000 		.4byte	0x83
 674 00c9 06       		.uleb128 0x6
 675 00ca 01020000 		.4byte	.LASF18
 676 00ce 03       		.byte	0x3
 677 00cf 11       		.byte	0x11
 678 00d0 D4000000 		.4byte	0xd4
 679 00d4 05       		.uleb128 0x5
 680 00d5 04       		.byte	0x4
 681 00d6 DA000000 		.4byte	0xda
 682 00da 07       		.uleb128 0x7
 683 00db 6B000000 		.4byte	0x6b
 684 00df 06       		.uleb128 0x6
 685 00e0 9B010000 		.4byte	.LASF19
 686 00e4 03       		.byte	0x3
 687 00e5 12       		.byte	0x12
 688 00e6 EA000000 		.4byte	0xea
 689 00ea 05       		.uleb128 0x5
ARM GAS  C:\Users\glenn\AppData\Local\Temp\ccJNRvXQ.s 			page 16


 690 00eb 04       		.byte	0x4
 691 00ec F0000000 		.4byte	0xf0
 692 00f0 08       		.uleb128 0x8
 693 00f1 FB000000 		.4byte	0xfb
 694 00f5 09       		.uleb128 0x9
 695 00f6 6B000000 		.4byte	0x6b
 696 00fa 00       		.byte	0
 697 00fb 0A       		.uleb128 0xa
 698 00fc 08       		.byte	0x8
 699 00fd 03       		.byte	0x3
 700 00fe 14       		.byte	0x14
 701 00ff 1C010000 		.4byte	0x11c
 702 0103 0B       		.uleb128 0xb
 703 0104 B3010000 		.4byte	.LASF20
 704 0108 03       		.byte	0x3
 705 0109 16       		.byte	0x16
 706 010a C9000000 		.4byte	0xc9
 707 010e 00       		.byte	0
 708 010f 0B       		.uleb128 0xb
 709 0110 7C010000 		.4byte	.LASF21
 710 0114 03       		.byte	0x3
 711 0115 17       		.byte	0x17
 712 0116 DF000000 		.4byte	0xdf
 713 011a 04       		.byte	0x4
 714 011b 00       		.byte	0
 715 011c 06       		.uleb128 0x6
 716 011d 58010000 		.4byte	.LASF22
 717 0121 03       		.byte	0x3
 718 0122 18       		.byte	0x18
 719 0123 27010000 		.4byte	0x127
 720 0127 0C       		.uleb128 0xc
 721 0128 FB000000 		.4byte	0xfb
 722 012c 0D       		.uleb128 0xd
 723 012d C1010000 		.4byte	.LASF23
 724 0131 01       		.byte	0x1
 725 0132 0B       		.byte	0xb
 726 0133 5D000000 		.4byte	0x5d
 727 0137 00000000 		.4byte	.LFB62
 728 013b 9C000000 		.4byte	.LFE62-.LFB62
 729 013f 01       		.uleb128 0x1
 730 0140 9C       		.byte	0x9c
 731 0141 60010000 		.4byte	0x160
 732 0145 0E       		.uleb128 0xe
 733 0146 71000000 		.4byte	.LASF25
 734 014a 01       		.byte	0x1
 735 014b 0B       		.byte	0xb
 736 014c 60010000 		.4byte	0x160
 737 0150 02       		.uleb128 0x2
 738 0151 91       		.byte	0x91
 739 0152 6C       		.sleb128 -20
 740 0153 0F       		.uleb128 0xf
 741 0154 6900     		.ascii	"i\000"
 742 0156 01       		.byte	0x1
 743 0157 0D       		.byte	0xd
 744 0158 83000000 		.4byte	0x83
 745 015c 02       		.uleb128 0x2
 746 015d 91       		.byte	0x91
ARM GAS  C:\Users\glenn\AppData\Local\Temp\ccJNRvXQ.s 			page 17


 747 015e 74       		.sleb128 -12
 748 015f 00       		.byte	0
 749 0160 05       		.uleb128 0x5
 750 0161 04       		.byte	0x4
 751 0162 1C010000 		.4byte	0x11c
 752 0166 0D       		.uleb128 0xd
 753 0167 91000000 		.4byte	.LASF24
 754 016b 01       		.byte	0x1
 755 016c 3C       		.byte	0x3c
 756 016d 83000000 		.4byte	0x83
 757 0171 00000000 		.4byte	.LFB63
 758 0175 6C000000 		.4byte	.LFE63-.LFB63
 759 0179 01       		.uleb128 0x1
 760 017a 9C       		.byte	0x9c
 761 017b A8010000 		.4byte	0x1a8
 762 017f 0E       		.uleb128 0xe
 763 0180 71000000 		.4byte	.LASF25
 764 0184 01       		.byte	0x1
 765 0185 3C       		.byte	0x3c
 766 0186 60010000 		.4byte	0x160
 767 018a 02       		.uleb128 0x2
 768 018b 91       		.byte	0x91
 769 018c 6C       		.sleb128 -20
 770 018d 0E       		.uleb128 0xe
 771 018e 35000000 		.4byte	.LASF26
 772 0192 01       		.byte	0x1
 773 0193 3C       		.byte	0x3c
 774 0194 C3000000 		.4byte	0xc3
 775 0198 02       		.uleb128 0x2
 776 0199 91       		.byte	0x91
 777 019a 68       		.sleb128 -24
 778 019b 0F       		.uleb128 0xf
 779 019c 6900     		.ascii	"i\000"
 780 019e 01       		.byte	0x1
 781 019f 3E       		.byte	0x3e
 782 01a0 5D000000 		.4byte	0x5d
 783 01a4 02       		.uleb128 0x2
 784 01a5 91       		.byte	0x91
 785 01a6 74       		.sleb128 -12
 786 01a7 00       		.byte	0
 787 01a8 10       		.uleb128 0x10
 788 01a9 E3010000 		.4byte	.LASF39
 789 01ad 01       		.byte	0x1
 790 01ae 5F       		.byte	0x5f
 791 01af 00000000 		.4byte	.LFB64
 792 01b3 20020000 		.4byte	.LFE64-.LFB64
 793 01b7 01       		.uleb128 0x1
 794 01b8 9C       		.byte	0x9c
 795 01b9 80020000 		.4byte	0x280
 796 01bd 0E       		.uleb128 0xe
 797 01be 71000000 		.4byte	.LASF25
 798 01c2 01       		.byte	0x1
 799 01c3 5F       		.byte	0x5f
 800 01c4 60010000 		.4byte	0x160
 801 01c8 02       		.uleb128 0x2
 802 01c9 91       		.byte	0x91
 803 01ca 44       		.sleb128 -60
ARM GAS  C:\Users\glenn\AppData\Local\Temp\ccJNRvXQ.s 			page 18


 804 01cb 0E       		.uleb128 0xe
 805 01cc 35000000 		.4byte	.LASF26
 806 01d0 01       		.byte	0x1
 807 01d1 5F       		.byte	0x5f
 808 01d2 C3000000 		.4byte	0xc3
 809 01d6 02       		.uleb128 0x2
 810 01d7 91       		.byte	0x91
 811 01d8 40       		.sleb128 -64
 812 01d9 0E       		.uleb128 0xe
 813 01da 86010000 		.4byte	.LASF27
 814 01de 01       		.byte	0x1
 815 01df 5F       		.byte	0x5f
 816 01e0 C3000000 		.4byte	0xc3
 817 01e4 03       		.uleb128 0x3
 818 01e5 91       		.byte	0x91
 819 01e6 BC7F     		.sleb128 -68
 820 01e8 0E       		.uleb128 0xe
 821 01e9 1B000000 		.4byte	.LASF28
 822 01ed 01       		.byte	0x1
 823 01ee 5F       		.byte	0x5f
 824 01ef 80020000 		.4byte	0x280
 825 01f3 03       		.uleb128 0x3
 826 01f4 91       		.byte	0x91
 827 01f5 B87F     		.sleb128 -72
 828 01f7 0E       		.uleb128 0xe
 829 01f8 00000000 		.4byte	.LASF29
 830 01fc 01       		.byte	0x1
 831 01fd 5F       		.byte	0x5f
 832 01fe 80020000 		.4byte	0x280
 833 0202 02       		.uleb128 0x2
 834 0203 91       		.byte	0x91
 835 0204 00       		.sleb128 0
 836 0205 11       		.uleb128 0x11
 837 0206 27000000 		.4byte	.LASF30
 838 020a 01       		.byte	0x1
 839 020b 61       		.byte	0x61
 840 020c 86020000 		.4byte	0x286
 841 0210 02       		.uleb128 0x2
 842 0211 91       		.byte	0x91
 843 0212 4C       		.sleb128 -52
 844 0213 0F       		.uleb128 0xf
 845 0214 6900     		.ascii	"i\000"
 846 0216 01       		.byte	0x1
 847 0217 62       		.byte	0x62
 848 0218 83000000 		.4byte	0x83
 849 021c 02       		.uleb128 0x2
 850 021d 91       		.byte	0x91
 851 021e 6C       		.sleb128 -20
 852 021f 0F       		.uleb128 0xf
 853 0220 6A00     		.ascii	"j\000"
 854 0222 01       		.byte	0x1
 855 0223 63       		.byte	0x63
 856 0224 83000000 		.4byte	0x83
 857 0228 02       		.uleb128 0x2
 858 0229 91       		.byte	0x91
 859 022a 68       		.sleb128 -24
 860 022b 11       		.uleb128 0x11
ARM GAS  C:\Users\glenn\AppData\Local\Temp\ccJNRvXQ.s 			page 19


 861 022c 0F000000 		.4byte	.LASF31
 862 0230 01       		.byte	0x1
 863 0231 64       		.byte	0x64
 864 0232 A9000000 		.4byte	0xa9
 865 0236 02       		.uleb128 0x2
 866 0237 91       		.byte	0x91
 867 0238 60       		.sleb128 -32
 868 0239 0F       		.uleb128 0xf
 869 023a 62697400 		.ascii	"bit\000"
 870 023e 01       		.byte	0x1
 871 023f 65       		.byte	0x65
 872 0240 83000000 		.4byte	0x83
 873 0244 02       		.uleb128 0x2
 874 0245 91       		.byte	0x91
 875 0246 58       		.sleb128 -40
 876 0247 11       		.uleb128 0x11
 877 0248 7A020000 		.4byte	.LASF32
 878 024c 01       		.byte	0x1
 879 024d 66       		.byte	0x66
 880 024e 8F000000 		.4byte	0x8f
 881 0252 02       		.uleb128 0x2
 882 0253 91       		.byte	0x91
 883 0254 54       		.sleb128 -44
 884 0255 11       		.uleb128 0x11
 885 0256 81020000 		.4byte	.LASF33
 886 025a 01       		.byte	0x1
 887 025b 67       		.byte	0x67
 888 025c 8F000000 		.4byte	0x8f
 889 0260 02       		.uleb128 0x2
 890 0261 91       		.byte	0x91
 891 0262 52       		.sleb128 -46
 892 0263 11       		.uleb128 0x11
 893 0264 2C000000 		.4byte	.LASF34
 894 0268 01       		.byte	0x1
 895 0269 68       		.byte	0x68
 896 026a 77000000 		.4byte	0x77
 897 026e 02       		.uleb128 0x2
 898 026f 91       		.byte	0x91
 899 0270 56       		.sleb128 -42
 900 0271 11       		.uleb128 0x11
 901 0272 6C020000 		.4byte	.LASF35
 902 0276 01       		.byte	0x1
 903 0277 6A       		.byte	0x6a
 904 0278 6B000000 		.4byte	0x6b
 905 027c 02       		.uleb128 0x2
 906 027d 91       		.byte	0x91
 907 027e 5F       		.sleb128 -33
 908 027f 00       		.byte	0
 909 0280 05       		.uleb128 0x5
 910 0281 04       		.byte	0x4
 911 0282 9B000000 		.4byte	0x9b
 912 0286 12       		.uleb128 0x12
 913 0287 6B000000 		.4byte	0x6b
 914 028b 13       		.uleb128 0x13
 915 028c BC000000 		.4byte	0xbc
 916 0290 04       		.byte	0x4
 917 0291 00       		.byte	0
ARM GAS  C:\Users\glenn\AppData\Local\Temp\ccJNRvXQ.s 			page 20


 918 0292 00       		.byte	0
 919              		.section	.debug_abbrev,"",%progbits
 920              	.Ldebug_abbrev0:
 921 0000 01       		.uleb128 0x1
 922 0001 11       		.uleb128 0x11
 923 0002 01       		.byte	0x1
 924 0003 25       		.uleb128 0x25
 925 0004 0E       		.uleb128 0xe
 926 0005 13       		.uleb128 0x13
 927 0006 0B       		.uleb128 0xb
 928 0007 03       		.uleb128 0x3
 929 0008 0E       		.uleb128 0xe
 930 0009 1B       		.uleb128 0x1b
 931 000a 0E       		.uleb128 0xe
 932 000b 55       		.uleb128 0x55
 933 000c 17       		.uleb128 0x17
 934 000d 11       		.uleb128 0x11
 935 000e 01       		.uleb128 0x1
 936 000f 10       		.uleb128 0x10
 937 0010 17       		.uleb128 0x17
 938 0011 00       		.byte	0
 939 0012 00       		.byte	0
 940 0013 02       		.uleb128 0x2
 941 0014 24       		.uleb128 0x24
 942 0015 00       		.byte	0
 943 0016 0B       		.uleb128 0xb
 944 0017 0B       		.uleb128 0xb
 945 0018 3E       		.uleb128 0x3e
 946 0019 0B       		.uleb128 0xb
 947 001a 03       		.uleb128 0x3
 948 001b 0E       		.uleb128 0xe
 949 001c 00       		.byte	0
 950 001d 00       		.byte	0
 951 001e 03       		.uleb128 0x3
 952 001f 24       		.uleb128 0x24
 953 0020 00       		.byte	0
 954 0021 0B       		.uleb128 0xb
 955 0022 0B       		.uleb128 0xb
 956 0023 3E       		.uleb128 0x3e
 957 0024 0B       		.uleb128 0xb
 958 0025 03       		.uleb128 0x3
 959 0026 08       		.uleb128 0x8
 960 0027 00       		.byte	0
 961 0028 00       		.byte	0
 962 0029 04       		.uleb128 0x4
 963 002a 16       		.uleb128 0x16
 964 002b 00       		.byte	0
 965 002c 03       		.uleb128 0x3
 966 002d 0E       		.uleb128 0xe
 967 002e 3A       		.uleb128 0x3a
 968 002f 0B       		.uleb128 0xb
 969 0030 3B       		.uleb128 0x3b
 970 0031 05       		.uleb128 0x5
 971 0032 49       		.uleb128 0x49
 972 0033 13       		.uleb128 0x13
 973 0034 00       		.byte	0
 974 0035 00       		.byte	0
ARM GAS  C:\Users\glenn\AppData\Local\Temp\ccJNRvXQ.s 			page 21


 975 0036 05       		.uleb128 0x5
 976 0037 0F       		.uleb128 0xf
 977 0038 00       		.byte	0
 978 0039 0B       		.uleb128 0xb
 979 003a 0B       		.uleb128 0xb
 980 003b 49       		.uleb128 0x49
 981 003c 13       		.uleb128 0x13
 982 003d 00       		.byte	0
 983 003e 00       		.byte	0
 984 003f 06       		.uleb128 0x6
 985 0040 16       		.uleb128 0x16
 986 0041 00       		.byte	0
 987 0042 03       		.uleb128 0x3
 988 0043 0E       		.uleb128 0xe
 989 0044 3A       		.uleb128 0x3a
 990 0045 0B       		.uleb128 0xb
 991 0046 3B       		.uleb128 0x3b
 992 0047 0B       		.uleb128 0xb
 993 0048 49       		.uleb128 0x49
 994 0049 13       		.uleb128 0x13
 995 004a 00       		.byte	0
 996 004b 00       		.byte	0
 997 004c 07       		.uleb128 0x7
 998 004d 15       		.uleb128 0x15
 999 004e 00       		.byte	0
 1000 004f 27       		.uleb128 0x27
 1001 0050 19       		.uleb128 0x19
 1002 0051 49       		.uleb128 0x49
 1003 0052 13       		.uleb128 0x13
 1004 0053 00       		.byte	0
 1005 0054 00       		.byte	0
 1006 0055 08       		.uleb128 0x8
 1007 0056 15       		.uleb128 0x15
 1008 0057 01       		.byte	0x1
 1009 0058 27       		.uleb128 0x27
 1010 0059 19       		.uleb128 0x19
 1011 005a 01       		.uleb128 0x1
 1012 005b 13       		.uleb128 0x13
 1013 005c 00       		.byte	0
 1014 005d 00       		.byte	0
 1015 005e 09       		.uleb128 0x9
 1016 005f 05       		.uleb128 0x5
 1017 0060 00       		.byte	0
 1018 0061 49       		.uleb128 0x49
 1019 0062 13       		.uleb128 0x13
 1020 0063 00       		.byte	0
 1021 0064 00       		.byte	0
 1022 0065 0A       		.uleb128 0xa
 1023 0066 13       		.uleb128 0x13
 1024 0067 01       		.byte	0x1
 1025 0068 0B       		.uleb128 0xb
 1026 0069 0B       		.uleb128 0xb
 1027 006a 3A       		.uleb128 0x3a
 1028 006b 0B       		.uleb128 0xb
 1029 006c 3B       		.uleb128 0x3b
 1030 006d 0B       		.uleb128 0xb
 1031 006e 01       		.uleb128 0x1
ARM GAS  C:\Users\glenn\AppData\Local\Temp\ccJNRvXQ.s 			page 22


 1032 006f 13       		.uleb128 0x13
 1033 0070 00       		.byte	0
 1034 0071 00       		.byte	0
 1035 0072 0B       		.uleb128 0xb
 1036 0073 0D       		.uleb128 0xd
 1037 0074 00       		.byte	0
 1038 0075 03       		.uleb128 0x3
 1039 0076 0E       		.uleb128 0xe
 1040 0077 3A       		.uleb128 0x3a
 1041 0078 0B       		.uleb128 0xb
 1042 0079 3B       		.uleb128 0x3b
 1043 007a 0B       		.uleb128 0xb
 1044 007b 49       		.uleb128 0x49
 1045 007c 13       		.uleb128 0x13
 1046 007d 38       		.uleb128 0x38
 1047 007e 0B       		.uleb128 0xb
 1048 007f 00       		.byte	0
 1049 0080 00       		.byte	0
 1050 0081 0C       		.uleb128 0xc
 1051 0082 26       		.uleb128 0x26
 1052 0083 00       		.byte	0
 1053 0084 49       		.uleb128 0x49
 1054 0085 13       		.uleb128 0x13
 1055 0086 00       		.byte	0
 1056 0087 00       		.byte	0
 1057 0088 0D       		.uleb128 0xd
 1058 0089 2E       		.uleb128 0x2e
 1059 008a 01       		.byte	0x1
 1060 008b 03       		.uleb128 0x3
 1061 008c 0E       		.uleb128 0xe
 1062 008d 3A       		.uleb128 0x3a
 1063 008e 0B       		.uleb128 0xb
 1064 008f 3B       		.uleb128 0x3b
 1065 0090 0B       		.uleb128 0xb
 1066 0091 27       		.uleb128 0x27
 1067 0092 19       		.uleb128 0x19
 1068 0093 49       		.uleb128 0x49
 1069 0094 13       		.uleb128 0x13
 1070 0095 11       		.uleb128 0x11
 1071 0096 01       		.uleb128 0x1
 1072 0097 12       		.uleb128 0x12
 1073 0098 06       		.uleb128 0x6
 1074 0099 40       		.uleb128 0x40
 1075 009a 18       		.uleb128 0x18
 1076 009b 9642     		.uleb128 0x2116
 1077 009d 19       		.uleb128 0x19
 1078 009e 01       		.uleb128 0x1
 1079 009f 13       		.uleb128 0x13
 1080 00a0 00       		.byte	0
 1081 00a1 00       		.byte	0
 1082 00a2 0E       		.uleb128 0xe
 1083 00a3 05       		.uleb128 0x5
 1084 00a4 00       		.byte	0
 1085 00a5 03       		.uleb128 0x3
 1086 00a6 0E       		.uleb128 0xe
 1087 00a7 3A       		.uleb128 0x3a
 1088 00a8 0B       		.uleb128 0xb
ARM GAS  C:\Users\glenn\AppData\Local\Temp\ccJNRvXQ.s 			page 23


 1089 00a9 3B       		.uleb128 0x3b
 1090 00aa 0B       		.uleb128 0xb
 1091 00ab 49       		.uleb128 0x49
 1092 00ac 13       		.uleb128 0x13
 1093 00ad 02       		.uleb128 0x2
 1094 00ae 18       		.uleb128 0x18
 1095 00af 00       		.byte	0
 1096 00b0 00       		.byte	0
 1097 00b1 0F       		.uleb128 0xf
 1098 00b2 34       		.uleb128 0x34
 1099 00b3 00       		.byte	0
 1100 00b4 03       		.uleb128 0x3
 1101 00b5 08       		.uleb128 0x8
 1102 00b6 3A       		.uleb128 0x3a
 1103 00b7 0B       		.uleb128 0xb
 1104 00b8 3B       		.uleb128 0x3b
 1105 00b9 0B       		.uleb128 0xb
 1106 00ba 49       		.uleb128 0x49
 1107 00bb 13       		.uleb128 0x13
 1108 00bc 02       		.uleb128 0x2
 1109 00bd 18       		.uleb128 0x18
 1110 00be 00       		.byte	0
 1111 00bf 00       		.byte	0
 1112 00c0 10       		.uleb128 0x10
 1113 00c1 2E       		.uleb128 0x2e
 1114 00c2 01       		.byte	0x1
 1115 00c3 3F       		.uleb128 0x3f
 1116 00c4 19       		.uleb128 0x19
 1117 00c5 03       		.uleb128 0x3
 1118 00c6 0E       		.uleb128 0xe
 1119 00c7 3A       		.uleb128 0x3a
 1120 00c8 0B       		.uleb128 0xb
 1121 00c9 3B       		.uleb128 0x3b
 1122 00ca 0B       		.uleb128 0xb
 1123 00cb 27       		.uleb128 0x27
 1124 00cc 19       		.uleb128 0x19
 1125 00cd 11       		.uleb128 0x11
 1126 00ce 01       		.uleb128 0x1
 1127 00cf 12       		.uleb128 0x12
 1128 00d0 06       		.uleb128 0x6
 1129 00d1 40       		.uleb128 0x40
 1130 00d2 18       		.uleb128 0x18
 1131 00d3 9642     		.uleb128 0x2116
 1132 00d5 19       		.uleb128 0x19
 1133 00d6 01       		.uleb128 0x1
 1134 00d7 13       		.uleb128 0x13
 1135 00d8 00       		.byte	0
 1136 00d9 00       		.byte	0
 1137 00da 11       		.uleb128 0x11
 1138 00db 34       		.uleb128 0x34
 1139 00dc 00       		.byte	0
 1140 00dd 03       		.uleb128 0x3
 1141 00de 0E       		.uleb128 0xe
 1142 00df 3A       		.uleb128 0x3a
 1143 00e0 0B       		.uleb128 0xb
 1144 00e1 3B       		.uleb128 0x3b
 1145 00e2 0B       		.uleb128 0xb
ARM GAS  C:\Users\glenn\AppData\Local\Temp\ccJNRvXQ.s 			page 24


 1146 00e3 49       		.uleb128 0x49
 1147 00e4 13       		.uleb128 0x13
 1148 00e5 02       		.uleb128 0x2
 1149 00e6 18       		.uleb128 0x18
 1150 00e7 00       		.byte	0
 1151 00e8 00       		.byte	0
 1152 00e9 12       		.uleb128 0x12
 1153 00ea 01       		.uleb128 0x1
 1154 00eb 01       		.byte	0x1
 1155 00ec 49       		.uleb128 0x49
 1156 00ed 13       		.uleb128 0x13
 1157 00ee 00       		.byte	0
 1158 00ef 00       		.byte	0
 1159 00f0 13       		.uleb128 0x13
 1160 00f1 21       		.uleb128 0x21
 1161 00f2 00       		.byte	0
 1162 00f3 49       		.uleb128 0x49
 1163 00f4 13       		.uleb128 0x13
 1164 00f5 2F       		.uleb128 0x2f
 1165 00f6 0B       		.uleb128 0xb
 1166 00f7 00       		.byte	0
 1167 00f8 00       		.byte	0
 1168 00f9 00       		.byte	0
 1169              		.section	.debug_aranges,"",%progbits
 1170 0000 2C000000 		.4byte	0x2c
 1171 0004 0200     		.2byte	0x2
 1172 0006 00000000 		.4byte	.Ldebug_info0
 1173 000a 04       		.byte	0x4
 1174 000b 00       		.byte	0
 1175 000c 0000     		.2byte	0
 1176 000e 0000     		.2byte	0
 1177 0010 00000000 		.4byte	.LFB62
 1178 0014 9C000000 		.4byte	.LFE62-.LFB62
 1179 0018 00000000 		.4byte	.LFB63
 1180 001c 6C000000 		.4byte	.LFE63-.LFB63
 1181 0020 00000000 		.4byte	.LFB64
 1182 0024 20020000 		.4byte	.LFE64-.LFB64
 1183 0028 00000000 		.4byte	0
 1184 002c 00000000 		.4byte	0
 1185              		.section	.debug_ranges,"",%progbits
 1186              	.Ldebug_ranges0:
 1187 0000 00000000 		.4byte	.LFB62
 1188 0004 9C000000 		.4byte	.LFE62
 1189 0008 00000000 		.4byte	.LFB63
 1190 000c 6C000000 		.4byte	.LFE63
 1191 0010 00000000 		.4byte	.LFB64
 1192 0014 20020000 		.4byte	.LFE64
 1193 0018 00000000 		.4byte	0
 1194 001c 00000000 		.4byte	0
 1195              		.section	.debug_line,"",%progbits
 1196              	.Ldebug_line0:
 1197 0000 4E010000 		.section	.debug_str,"MS",%progbits,1
 1197      02005D00 
 1197      00000201 
 1197      FB0E0D00 
 1197      01010101 
 1198              	.LASF29:
ARM GAS  C:\Users\glenn\AppData\Local\Temp\ccJNRvXQ.s 			page 25


 1199 0000 68756D69 		.ascii	"humidity\000"
 1199      64697479 
 1199      00
 1200              	.LASF13:
 1201 0009 666C6F61 		.ascii	"float\000"
 1201      7400
 1202              	.LASF31:
 1203 000f 6D61736B 		.ascii	"mask\000"
 1203      00
 1204              	.LASF15:
 1205 0014 75696E74 		.ascii	"uint64\000"
 1205      363400
 1206              	.LASF28:
 1207 001b 74656D70 		.ascii	"temperature\000"
 1207      65726174 
 1207      75726500 
 1208              	.LASF30:
 1209 0027 64617461 		.ascii	"data\000"
 1209      00
 1210              	.LASF34:
 1211 002c 63686563 		.ascii	"checksum\000"
 1211      6B73756D 
 1211      00
 1212              	.LASF26:
 1213 0035 73746174 		.ascii	"status_flag\000"
 1213      75735F66 
 1213      6C616700 
 1214              	.LASF37:
 1215 0041 68756D69 		.ascii	"humidity_sensor\\dht22.c\000"
 1215      64697479 
 1215      5F73656E 
 1215      736F725C 
 1215      64687432 
 1216              	.LASF12:
 1217 0059 696E7431 		.ascii	"int16\000"
 1217      3600
 1218              	.LASF5:
 1219 005f 6C6F6E67 		.ascii	"long unsigned int\000"
 1219      20756E73 
 1219      69676E65 
 1219      6420696E 
 1219      7400
 1220              	.LASF25:
 1221 0071 64687432 		.ascii	"dht22_sensor\000"
 1221      325F7365 
 1221      6E736F72 
 1221      00
 1222              	.LASF3:
 1223 007e 73686F72 		.ascii	"short unsigned int\000"
 1223      7420756E 
 1223      7369676E 
 1223      65642069 
 1223      6E7400
 1224              	.LASF24:
 1225 0091 72656164 		.ascii	"read_bit\000"
 1225      5F626974 
 1225      00
ARM GAS  C:\Users\glenn\AppData\Local\Temp\ccJNRvXQ.s 			page 26


 1226              	.LASF1:
 1227 009a 756E7369 		.ascii	"unsigned char\000"
 1227      676E6564 
 1227      20636861 
 1227      7200
 1228              	.LASF14:
 1229 00a8 646F7562 		.ascii	"double\000"
 1229      6C6500
 1230              	.LASF36:
 1231 00af 474E5520 		.ascii	"GNU C 4.9.3 20150303 (release) [ARM/embedded-4_9-br"
 1231      4320342E 
 1231      392E3320 
 1231      32303135 
 1231      30333033 
 1232 00e2 616E6368 		.ascii	"anch revision 221220] -mcpu=cortex-m0 -mthumb -g -O"
 1232      20726576 
 1232      6973696F 
 1232      6E203232 
 1232      31323230 
 1233 0115 30202D66 		.ascii	"0 -ffunction-sections -ffat-lto-objects\000"
 1233      66756E63 
 1233      74696F6E 
 1233      2D736563 
 1233      74696F6E 
 1234              	.LASF10:
 1235 013d 75696E74 		.ascii	"uint16\000"
 1235      313600
 1236              	.LASF11:
 1237 0144 75696E74 		.ascii	"uint32\000"
 1237      333200
 1238              	.LASF8:
 1239 014b 756E7369 		.ascii	"unsigned int\000"
 1239      676E6564 
 1239      20696E74 
 1239      00
 1240              	.LASF22:
 1241 0158 44485432 		.ascii	"DHT22_SENSOR\000"
 1241      325F5345 
 1241      4E534F52 
 1241      00
 1242              	.LASF7:
 1243 0165 6C6F6E67 		.ascii	"long long unsigned int\000"
 1243      206C6F6E 
 1243      6720756E 
 1243      7369676E 
 1243      65642069 
 1244              	.LASF21:
 1245 017c 70696E5F 		.ascii	"pin_write\000"
 1245      77726974 
 1245      6500
 1246              	.LASF27:
 1247 0186 73746570 		.ascii	"step_number\000"
 1247      5F6E756D 
 1247      62657200 
 1248              	.LASF17:
 1249 0192 73697A65 		.ascii	"sizetype\000"
 1249      74797065 
ARM GAS  C:\Users\glenn\AppData\Local\Temp\ccJNRvXQ.s 			page 27


 1249      00
 1250              	.LASF19:
 1251 019b 50494E5F 		.ascii	"PIN_WRITE\000"
 1251      57524954 
 1251      4500
 1252              	.LASF6:
 1253 01a5 6C6F6E67 		.ascii	"long long int\000"
 1253      206C6F6E 
 1253      6720696E 
 1253      7400
 1254              	.LASF20:
 1255 01b3 70696E5F 		.ascii	"pin_read\000"
 1255      72656164 
 1255      00
 1256              	.LASF16:
 1257 01bc 63686172 		.ascii	"char\000"
 1257      00
 1258              	.LASF23:
 1259 01c1 6C6F6F6B 		.ascii	"look_for_dht22_response\000"
 1259      5F666F72 
 1259      5F646874 
 1259      32325F72 
 1259      6573706F 
 1260              	.LASF2:
 1261 01d9 73686F72 		.ascii	"short int\000"
 1261      7420696E 
 1261      7400
 1262              	.LASF39:
 1263 01e3 44485432 		.ascii	"DHT22_get_data\000"
 1263      325F6765 
 1263      745F6461 
 1263      746100
 1264              	.LASF9:
 1265 01f2 75696E74 		.ascii	"uint8\000"
 1265      3800
 1266              	.LASF4:
 1267 01f8 6C6F6E67 		.ascii	"long int\000"
 1267      20696E74 
 1267      00
 1268              	.LASF18:
 1269 0201 50494E5F 		.ascii	"PIN_READ\000"
 1269      52454144 
 1269      00
 1270              	.LASF38:
 1271 020a 433A5C55 		.ascii	"C:\\Users\\glenn\\OneDrive\\PSOC\\moisture_sensor_4"
 1271      73657273 
 1271      5C676C65 
 1271      6E6E5C4F 
 1271      6E654472 
 1272 0238 6D5C4D6F 		.ascii	"m\\Moisture_Sensor\\Moisture_Sensor.cydsn\000"
 1272      69737475 
 1272      72655F53 
 1272      656E736F 
 1272      725C4D6F 
 1273              	.LASF0:
 1274 0260 7369676E 		.ascii	"signed char\000"
 1274      65642063 
ARM GAS  C:\Users\glenn\AppData\Local\Temp\ccJNRvXQ.s 			page 28


 1274      68617200 
 1275              	.LASF35:
 1276 026c 63726974 		.ascii	"criticalState\000"
 1276      6963616C 
 1276      53746174 
 1276      6500
 1277              	.LASF32:
 1278 027a 74656D70 		.ascii	"temp_1\000"
 1278      5F3100
 1279              	.LASF33:
 1280 0281 74656D70 		.ascii	"temp_2\000"
 1280      5F3200
 1281              		.ident	"GCC: (GNU Tools for ARM Embedded Processors) 4.9.3 20150303 (release) [ARM/embedded-4_9-br
