ARM GAS  C:\Users\glenn\AppData\Local\Temp\ccJNRvXQ.s 			page 1


   1              		.cpu cortex-m0
   2              		.fpu softvfp
   3              		.eabi_attribute 20, 1
   4              		.eabi_attribute 21, 1
   5              		.eabi_attribute 23, 3
   6              		.eabi_attribute 24, 1
   7              		.eabi_attribute 25, 1
   8              		.eabi_attribute 26, 1
   9              		.eabi_attribute 30, 6
  10              		.eabi_attribute 34, 0
  11              		.eabi_attribute 18, 4
  12              		.code	16
  13              		.file	"dht22.c"
  14              		.text
  15              	.Ltext0:
  16              		.cfi_sections	.debug_frame
  17              		.section	.text.look_for_dht22_response,"ax",%progbits
  18              		.align	2
  19              		.code	16
  20              		.thumb_func
  21              		.type	look_for_dht22_response, %function
  22              	look_for_dht22_response:
  23              	.LFB62:
  24              		.file 1 "humidity_sensor\\dht22.c"
   1:humidity_sensor/dht22.c **** /*
   2:humidity_sensor/dht22.c **** **
   3:humidity_sensor/dht22.c **** ** File DHT22.c
   4:humidity_sensor/dht22.c **** **
   5:humidity_sensor/dht22.c **** **
   6:humidity_sensor/dht22.c **** */
   7:humidity_sensor/dht22.c **** 
   8:humidity_sensor/dht22.c **** #include <project.h>
   9:humidity_sensor/dht22.c **** #include "dht22.h"
  10:humidity_sensor/dht22.c **** 
  11:humidity_sensor/dht22.c **** static int look_for_dht22_response( DHT22_SENSOR *dht22_sensor )
  12:humidity_sensor/dht22.c **** {
  25              		.loc 1 12 0
  26              		.cfi_startproc
  27 0000 80B5     		push	{r7, lr}
  28              		.cfi_def_cfa_offset 8
  29              		.cfi_offset 7, -8
  30              		.cfi_offset 14, -4
  31 0002 84B0     		sub	sp, sp, #16
  32              		.cfi_def_cfa_offset 24
  33 0004 00AF     		add	r7, sp, #0
  34              		.cfi_def_cfa_register 7
  35 0006 7860     		str	r0, [r7, #4]
  13:humidity_sensor/dht22.c ****     uint32 i;
  14:humidity_sensor/dht22.c ****     // look for trans to zero
  15:humidity_sensor/dht22.c ****     // look for trans to one
  16:humidity_sensor/dht22.c ****     // look for trans to zero
  17:humidity_sensor/dht22.c ****     for( i = 0; i < 60; i++)
  36              		.loc 1 17 0
  37 0008 0023     		mov	r3, #0
  38 000a FB60     		str	r3, [r7, #12]
  39 000c 0BE0     		b	.L2
  40              	.L5:
ARM GAS  C:\Users\glenn\AppData\Local\Temp\ccJNRvXQ.s 			page 2


  18:humidity_sensor/dht22.c ****     {
  19:humidity_sensor/dht22.c ****         if( dht22_sensor->pin_read() == 0 )
  41              		.loc 1 19 0
  42 000e 7B68     		ldr	r3, [r7, #4]
  43 0010 1B68     		ldr	r3, [r3]
  44 0012 9847     		blx	r3
  45 0014 031E     		sub	r3, r0, #0
  46 0016 00D1     		bne	.L3
  20:humidity_sensor/dht22.c ****         {
  21:humidity_sensor/dht22.c ****             break;
  47              		.loc 1 21 0
  48 0018 08E0     		b	.L4
  49              	.L3:
  22:humidity_sensor/dht22.c ****         }
  23:humidity_sensor/dht22.c ****         CyDelayUs(1);
  50              		.loc 1 23 0 discriminator 2
  51 001a 0120     		mov	r0, #1
  52 001c FFF7FEFF 		bl	CyDelayUs
  17:humidity_sensor/dht22.c ****     {
  53              		.loc 1 17 0 discriminator 2
  54 0020 FB68     		ldr	r3, [r7, #12]
  55 0022 0133     		add	r3, r3, #1
  56 0024 FB60     		str	r3, [r7, #12]
  57              	.L2:
  17:humidity_sensor/dht22.c ****     {
  58              		.loc 1 17 0 is_stmt 0 discriminator 1
  59 0026 FB68     		ldr	r3, [r7, #12]
  60 0028 3B2B     		cmp	r3, #59
  61 002a F0D9     		bls	.L5
  62              	.L4:
  24:humidity_sensor/dht22.c ****     }
  25:humidity_sensor/dht22.c ****     if( i > 50 )
  63              		.loc 1 25 0 is_stmt 1
  64 002c FB68     		ldr	r3, [r7, #12]
  65 002e 322B     		cmp	r3, #50
  66 0030 01D9     		bls	.L6
  26:humidity_sensor/dht22.c ****     {
  27:humidity_sensor/dht22.c ****         return 0;
  67              		.loc 1 27 0
  68 0032 0023     		mov	r3, #0
  69 0034 2EE0     		b	.L7
  70              	.L6:
  28:humidity_sensor/dht22.c ****     }
  29:humidity_sensor/dht22.c ****     for( i = 0; i < 100; i++)
  71              		.loc 1 29 0
  72 0036 0023     		mov	r3, #0
  73 0038 FB60     		str	r3, [r7, #12]
  74 003a 0BE0     		b	.L8
  75              	.L11:
  30:humidity_sensor/dht22.c ****     {
  31:humidity_sensor/dht22.c ****         if( dht22_sensor->pin_read() != 0 )
  76              		.loc 1 31 0
  77 003c 7B68     		ldr	r3, [r7, #4]
  78 003e 1B68     		ldr	r3, [r3]
  79 0040 9847     		blx	r3
  80 0042 031E     		sub	r3, r0, #0
  81 0044 00D0     		beq	.L9
ARM GAS  C:\Users\glenn\AppData\Local\Temp\ccJNRvXQ.s 			page 3


  32:humidity_sensor/dht22.c ****         {
  33:humidity_sensor/dht22.c ****             break;
  82              		.loc 1 33 0
  83 0046 08E0     		b	.L10
  84              	.L9:
  34:humidity_sensor/dht22.c ****         }
  35:humidity_sensor/dht22.c ****         CyDelayUs(1);
  85              		.loc 1 35 0 discriminator 2
  86 0048 0120     		mov	r0, #1
  87 004a FFF7FEFF 		bl	CyDelayUs
  29:humidity_sensor/dht22.c ****     {
  88              		.loc 1 29 0 discriminator 2
  89 004e FB68     		ldr	r3, [r7, #12]
  90 0050 0133     		add	r3, r3, #1
  91 0052 FB60     		str	r3, [r7, #12]
  92              	.L8:
  29:humidity_sensor/dht22.c ****     {
  93              		.loc 1 29 0 is_stmt 0 discriminator 1
  94 0054 FB68     		ldr	r3, [r7, #12]
  95 0056 632B     		cmp	r3, #99
  96 0058 F0D9     		bls	.L11
  97              	.L10:
  36:humidity_sensor/dht22.c ****     }    
  37:humidity_sensor/dht22.c ****     if(  i > 90 ) 
  98              		.loc 1 37 0 is_stmt 1
  99 005a FB68     		ldr	r3, [r7, #12]
 100 005c 5A2B     		cmp	r3, #90
 101 005e 01D9     		bls	.L12
  38:humidity_sensor/dht22.c ****     {
  39:humidity_sensor/dht22.c ****         
  40:humidity_sensor/dht22.c ****         return 0;
 102              		.loc 1 40 0
 103 0060 0023     		mov	r3, #0
 104 0062 17E0     		b	.L7
 105              	.L12:
  41:humidity_sensor/dht22.c ****     }
  42:humidity_sensor/dht22.c ****     
  43:humidity_sensor/dht22.c ****    for( i = 0; i < 100; i++)
 106              		.loc 1 43 0
 107 0064 0023     		mov	r3, #0
 108 0066 FB60     		str	r3, [r7, #12]
 109 0068 0BE0     		b	.L13
 110              	.L16:
  44:humidity_sensor/dht22.c ****     {
  45:humidity_sensor/dht22.c ****         if( dht22_sensor->pin_read() == 0 )
 111              		.loc 1 45 0
 112 006a 7B68     		ldr	r3, [r7, #4]
 113 006c 1B68     		ldr	r3, [r3]
 114 006e 9847     		blx	r3
 115 0070 031E     		sub	r3, r0, #0
 116 0072 00D1     		bne	.L14
  46:humidity_sensor/dht22.c ****         {
  47:humidity_sensor/dht22.c ****             break;
 117              		.loc 1 47 0
 118 0074 08E0     		b	.L15
 119              	.L14:
  48:humidity_sensor/dht22.c ****         }
ARM GAS  C:\Users\glenn\AppData\Local\Temp\ccJNRvXQ.s 			page 4


  49:humidity_sensor/dht22.c ****         CyDelayUs(1);
 120              		.loc 1 49 0 discriminator 2
 121 0076 0120     		mov	r0, #1
 122 0078 FFF7FEFF 		bl	CyDelayUs
  43:humidity_sensor/dht22.c ****     {
 123              		.loc 1 43 0 discriminator 2
 124 007c FB68     		ldr	r3, [r7, #12]
 125 007e 0133     		add	r3, r3, #1
 126 0080 FB60     		str	r3, [r7, #12]
 127              	.L13:
  43:humidity_sensor/dht22.c ****     {
 128              		.loc 1 43 0 is_stmt 0 discriminator 1
 129 0082 FB68     		ldr	r3, [r7, #12]
 130 0084 632B     		cmp	r3, #99
 131 0086 F0D9     		bls	.L16
 132              	.L15:
  50:humidity_sensor/dht22.c ****     }    
  51:humidity_sensor/dht22.c ****     if(  i > 90) 
 133              		.loc 1 51 0 is_stmt 1
 134 0088 FB68     		ldr	r3, [r7, #12]
 135 008a 5A2B     		cmp	r3, #90
 136 008c 01D9     		bls	.L17
  52:humidity_sensor/dht22.c ****     {
  53:humidity_sensor/dht22.c ****         
  54:humidity_sensor/dht22.c ****         return 0;
 137              		.loc 1 54 0
 138 008e 0023     		mov	r3, #0
 139 0090 00E0     		b	.L7
 140              	.L17:
  55:humidity_sensor/dht22.c ****     }
  56:humidity_sensor/dht22.c ****     return 1;
 141              		.loc 1 56 0
 142 0092 0123     		mov	r3, #1
 143              	.L7:
  57:humidity_sensor/dht22.c **** }
 144              		.loc 1 57 0
 145 0094 181C     		mov	r0, r3
 146 0096 BD46     		mov	sp, r7
 147 0098 04B0     		add	sp, sp, #16
 148              		@ sp needed
 149 009a 80BD     		pop	{r7, pc}
 150              		.cfi_endproc
 151              	.LFE62:
 152              		.size	look_for_dht22_response, .-look_for_dht22_response
 153              		.section	.text.read_bit,"ax",%progbits
 154              		.align	2
 155              		.code	16
 156              		.thumb_func
 157              		.type	read_bit, %function
 158              	read_bit:
 159              	.LFB63:
  58:humidity_sensor/dht22.c **** 
  59:humidity_sensor/dht22.c **** 
  60:humidity_sensor/dht22.c **** static uint32 read_bit( DHT22_SENSOR *dht22_sensor, uint32 *status_flag )
  61:humidity_sensor/dht22.c **** {
 160              		.loc 1 61 0
 161              		.cfi_startproc
ARM GAS  C:\Users\glenn\AppData\Local\Temp\ccJNRvXQ.s 			page 5


 162 0000 80B5     		push	{r7, lr}
 163              		.cfi_def_cfa_offset 8
 164              		.cfi_offset 7, -8
 165              		.cfi_offset 14, -4
 166 0002 84B0     		sub	sp, sp, #16
 167              		.cfi_def_cfa_offset 24
 168 0004 00AF     		add	r7, sp, #0
 169              		.cfi_def_cfa_register 7
 170 0006 7860     		str	r0, [r7, #4]
 171 0008 3960     		str	r1, [r7]
  62:humidity_sensor/dht22.c ****     int i;
  63:humidity_sensor/dht22.c ****     *status_flag = 1;
 172              		.loc 1 63 0
 173 000a 3B68     		ldr	r3, [r7]
 174 000c 0122     		mov	r2, #1
 175 000e 1A60     		str	r2, [r3]
  64:humidity_sensor/dht22.c ****     for( i = 0; i < 12; i++)
 176              		.loc 1 64 0
 177 0010 0023     		mov	r3, #0
 178 0012 FB60     		str	r3, [r7, #12]
 179 0014 0BE0     		b	.L19
 180              	.L22:
  65:humidity_sensor/dht22.c ****     {
  66:humidity_sensor/dht22.c ****         if( dht22_sensor->pin_read() != 0 )
 181              		.loc 1 66 0
 182 0016 7B68     		ldr	r3, [r7, #4]
 183 0018 1B68     		ldr	r3, [r3]
 184 001a 9847     		blx	r3
 185 001c 031E     		sub	r3, r0, #0
 186 001e 00D0     		beq	.L20
  67:humidity_sensor/dht22.c ****         {
  68:humidity_sensor/dht22.c ****             break;
 187              		.loc 1 68 0
 188 0020 08E0     		b	.L21
 189              	.L20:
  69:humidity_sensor/dht22.c ****         }
  70:humidity_sensor/dht22.c ****         CyDelayUs(10);
 190              		.loc 1 70 0 discriminator 2
 191 0022 0A20     		mov	r0, #10
 192 0024 FFF7FEFF 		bl	CyDelayUs
  64:humidity_sensor/dht22.c ****     {
 193              		.loc 1 64 0 discriminator 2
 194 0028 FB68     		ldr	r3, [r7, #12]
 195 002a 0133     		add	r3, r3, #1
 196 002c FB60     		str	r3, [r7, #12]
 197              	.L19:
  64:humidity_sensor/dht22.c ****     {
 198              		.loc 1 64 0 is_stmt 0 discriminator 1
 199 002e FB68     		ldr	r3, [r7, #12]
 200 0030 0B2B     		cmp	r3, #11
 201 0032 F0DD     		ble	.L22
 202              	.L21:
  71:humidity_sensor/dht22.c ****     }
  72:humidity_sensor/dht22.c ****     for( i = 0; i < 11; i++)
 203              		.loc 1 72 0 is_stmt 1
 204 0034 0023     		mov	r3, #0
 205 0036 FB60     		str	r3, [r7, #12]
ARM GAS  C:\Users\glenn\AppData\Local\Temp\ccJNRvXQ.s 			page 6


 206 0038 0BE0     		b	.L23
 207              	.L26:
  73:humidity_sensor/dht22.c ****     {
  74:humidity_sensor/dht22.c ****         if( dht22_sensor->pin_read() == 0 )
 208              		.loc 1 74 0
 209 003a 7B68     		ldr	r3, [r7, #4]
 210 003c 1B68     		ldr	r3, [r3]
 211 003e 9847     		blx	r3
 212 0040 031E     		sub	r3, r0, #0
 213 0042 00D1     		bne	.L24
  75:humidity_sensor/dht22.c ****         {
  76:humidity_sensor/dht22.c ****             break;
 214              		.loc 1 76 0
 215 0044 08E0     		b	.L25
 216              	.L24:
  77:humidity_sensor/dht22.c ****         }
  78:humidity_sensor/dht22.c ****         CyDelayUs(10);
 217              		.loc 1 78 0 discriminator 2
 218 0046 0A20     		mov	r0, #10
 219 0048 FFF7FEFF 		bl	CyDelayUs
  72:humidity_sensor/dht22.c ****     {
 220              		.loc 1 72 0 discriminator 2
 221 004c FB68     		ldr	r3, [r7, #12]
 222 004e 0133     		add	r3, r3, #1
 223 0050 FB60     		str	r3, [r7, #12]
 224              	.L23:
  72:humidity_sensor/dht22.c ****     {
 225              		.loc 1 72 0 is_stmt 0 discriminator 1
 226 0052 FB68     		ldr	r3, [r7, #12]
 227 0054 0A2B     		cmp	r3, #10
 228 0056 F0DD     		ble	.L26
 229              	.L25:
  79:humidity_sensor/dht22.c ****     }    
  80:humidity_sensor/dht22.c ****     if(  i < 4  )
 230              		.loc 1 80 0 is_stmt 1
 231 0058 FB68     		ldr	r3, [r7, #12]
 232 005a 032B     		cmp	r3, #3
 233 005c 01DC     		bgt	.L27
  81:humidity_sensor/dht22.c ****     {
  82:humidity_sensor/dht22.c ****         
  83:humidity_sensor/dht22.c ****         return 0;
 234              		.loc 1 83 0
 235 005e 0023     		mov	r3, #0
 236 0060 00E0     		b	.L28
 237              	.L27:
  84:humidity_sensor/dht22.c ****     }
  85:humidity_sensor/dht22.c ****     
  86:humidity_sensor/dht22.c ****     
  87:humidity_sensor/dht22.c ****     return 1;
 238              		.loc 1 87 0
 239 0062 0123     		mov	r3, #1
 240              	.L28:
  88:humidity_sensor/dht22.c ****  }
 241              		.loc 1 88 0
 242 0064 181C     		mov	r0, r3
 243 0066 BD46     		mov	sp, r7
 244 0068 04B0     		add	sp, sp, #16
ARM GAS  C:\Users\glenn\AppData\Local\Temp\ccJNRvXQ.s 			page 7


 245              		@ sp needed
 246 006a 80BD     		pop	{r7, pc}
 247              		.cfi_endproc
 248              	.LFE63:
 249              		.size	read_bit, .-read_bit
 250              		.global	__aeabi_i2f
 251              		.global	__aeabi_fdiv
 252              		.global	__aeabi_f2d
 253              		.global	__aeabi_ddiv
 254              		.global	__aeabi_dmul
 255              		.global	__aeabi_dadd
 256              		.global	__aeabi_d2f
 257              		.section	.text.DHT22_get_data,"ax",%progbits
 258              		.align	2
 259              		.global	DHT22_get_data
 260              		.code	16
 261              		.thumb_func
 262              		.type	DHT22_get_data, %function
 263              	DHT22_get_data:
 264              	.LFB64:
  89:humidity_sensor/dht22.c ****             
  90:humidity_sensor/dht22.c ****    
  91:humidity_sensor/dht22.c ****         
  92:humidity_sensor/dht22.c ****         
  93:humidity_sensor/dht22.c ****     
  94:humidity_sensor/dht22.c **** 
  95:humidity_sensor/dht22.c **** void DHT22_get_data( DHT22_SENSOR *dht22_sensor, uint32  *status_flag, uint32 *step_number, float *
  96:humidity_sensor/dht22.c **** {
 265              		.loc 1 96 0
 266              		.cfi_startproc
 267 0000 90B5     		push	{r4, r7, lr}
 268              		.cfi_def_cfa_offset 12
 269              		.cfi_offset 4, -12
 270              		.cfi_offset 7, -8
 271              		.cfi_offset 14, -4
 272 0002 8FB0     		sub	sp, sp, #60
 273              		.cfi_def_cfa_offset 72
 274 0004 00AF     		add	r7, sp, #0
 275              		.cfi_def_cfa_register 7
 276 0006 F860     		str	r0, [r7, #12]
 277 0008 B960     		str	r1, [r7, #8]
 278 000a 7A60     		str	r2, [r7, #4]
 279 000c 3B60     		str	r3, [r7]
  97:humidity_sensor/dht22.c ****    uint8  data[5];
  98:humidity_sensor/dht22.c ****    uint32  i; 
  99:humidity_sensor/dht22.c ****    uint32  j;
 100:humidity_sensor/dht22.c ****    uint64  mask;
 101:humidity_sensor/dht22.c ****    uint32  bit;
 102:humidity_sensor/dht22.c ****    int16  temp_1;
 103:humidity_sensor/dht22.c ****    int16 temp_2;
 104:humidity_sensor/dht22.c ****    uint16 checksum;
 105:humidity_sensor/dht22.c ****    
 106:humidity_sensor/dht22.c ****    uint8  criticalState;
 107:humidity_sensor/dht22.c ****    criticalState = CyEnterCriticalSection();
 280              		.loc 1 107 0
 281 000e 2723     		mov	r3, #39
 282 0010 FC18     		add	r4, r7, r3
ARM GAS  C:\Users\glenn\AppData\Local\Temp\ccJNRvXQ.s 			page 8


 283 0012 FFF7FEFF 		bl	CyEnterCriticalSection
 284 0016 031C     		mov	r3, r0
 285 0018 2370     		strb	r3, [r4]
 108:humidity_sensor/dht22.c ****    
 109:humidity_sensor/dht22.c ****    dht22_sensor->pin_write(0);
 286              		.loc 1 109 0
 287 001a FB68     		ldr	r3, [r7, #12]
 288 001c 5B68     		ldr	r3, [r3, #4]
 289 001e 0020     		mov	r0, #0
 290 0020 9847     		blx	r3
 110:humidity_sensor/dht22.c ****    CyDelayUs(1500);
 291              		.loc 1 110 0
 292 0022 784B     		ldr	r3, .L41
 293 0024 181C     		mov	r0, r3
 294 0026 FFF7FEFF 		bl	CyDelayUs
 111:humidity_sensor/dht22.c ****    dht22_sensor->pin_write(1);
 295              		.loc 1 111 0
 296 002a FB68     		ldr	r3, [r7, #12]
 297 002c 5B68     		ldr	r3, [r3, #4]
 298 002e 0120     		mov	r0, #1
 299 0030 9847     		blx	r3
 112:humidity_sensor/dht22.c ****    if( look_for_dht22_response( dht22_sensor ) == 0 )
 300              		.loc 1 112 0
 301 0032 FB68     		ldr	r3, [r7, #12]
 302 0034 181C     		mov	r0, r3
 303 0036 FFF7FEFF 		bl	look_for_dht22_response
 304 003a 031E     		sub	r3, r0, #0
 305 003c 06D1     		bne	.L30
 113:humidity_sensor/dht22.c ****    {
 114:humidity_sensor/dht22.c ****       *status_flag = 0;
 306              		.loc 1 114 0
 307 003e BB68     		ldr	r3, [r7, #8]
 308 0040 0022     		mov	r2, #0
 309 0042 1A60     		str	r2, [r3]
 115:humidity_sensor/dht22.c ****       *step_number = 0;
 310              		.loc 1 115 0
 311 0044 7B68     		ldr	r3, [r7, #4]
 312 0046 0022     		mov	r2, #0
 313 0048 1A60     		str	r2, [r3]
 116:humidity_sensor/dht22.c ****       return;
 314              		.loc 1 116 0
 315 004a D7E0     		b	.L29
 316              	.L30:
 117:humidity_sensor/dht22.c ****    }
 118:humidity_sensor/dht22.c ****    for( i = 0; i < 5; i++ )
 317              		.loc 1 118 0
 318 004c 0023     		mov	r3, #0
 319 004e 7B63     		str	r3, [r7, #52]
 320 0050 42E0     		b	.L32
 321              	.L37:
 119:humidity_sensor/dht22.c ****    {
 120:humidity_sensor/dht22.c ****      data[i] = 0;
 322              		.loc 1 120 0
 323 0052 1423     		mov	r3, #20
 324 0054 FA18     		add	r2, r7, r3
 325 0056 7B6B     		ldr	r3, [r7, #52]
 326 0058 D318     		add	r3, r2, r3
ARM GAS  C:\Users\glenn\AppData\Local\Temp\ccJNRvXQ.s 			page 9


 327 005a 0022     		mov	r2, #0
 328 005c 1A70     		strb	r2, [r3]
 121:humidity_sensor/dht22.c ****      mask = 0x80;
 329              		.loc 1 121 0
 330 005e 8023     		mov	r3, #128
 331 0060 0024     		mov	r4, #0
 332 0062 BB62     		str	r3, [r7, #40]
 333 0064 FC62     		str	r4, [r7, #44]
 122:humidity_sensor/dht22.c ****      for( j = 0; j < 8 ; j++ )
 334              		.loc 1 122 0
 335 0066 0023     		mov	r3, #0
 336 0068 3B63     		str	r3, [r7, #48]
 337 006a 2FE0     		b	.L33
 338              	.L36:
 123:humidity_sensor/dht22.c ****      {
 124:humidity_sensor/dht22.c ****       bit = read_bit( dht22_sensor,  status_flag );
 339              		.loc 1 124 0
 340 006c FA68     		ldr	r2, [r7, #12]
 341 006e BB68     		ldr	r3, [r7, #8]
 342 0070 101C     		mov	r0, r2
 343 0072 191C     		mov	r1, r3
 344 0074 FFF7FEFF 		bl	read_bit
 345 0078 031C     		mov	r3, r0
 346 007a 3B62     		str	r3, [r7, #32]
 125:humidity_sensor/dht22.c ****       if( *status_flag == 0 )
 347              		.loc 1 125 0
 348 007c BB68     		ldr	r3, [r7, #8]
 349 007e 1B68     		ldr	r3, [r3]
 350 0080 002B     		cmp	r3, #0
 351 0082 04D1     		bne	.L34
 126:humidity_sensor/dht22.c ****       {
 127:humidity_sensor/dht22.c ****         *step_number = i+1;
 352              		.loc 1 127 0
 353 0084 7B6B     		ldr	r3, [r7, #52]
 354 0086 5A1C     		add	r2, r3, #1
 355 0088 7B68     		ldr	r3, [r7, #4]
 356 008a 1A60     		str	r2, [r3]
 128:humidity_sensor/dht22.c ****         return;
 357              		.loc 1 128 0
 358 008c B6E0     		b	.L29
 359              	.L34:
 129:humidity_sensor/dht22.c ****       }
 130:humidity_sensor/dht22.c ****       if( bit != 0 )
 360              		.loc 1 130 0
 361 008e 3B6A     		ldr	r3, [r7, #32]
 362 0090 002B     		cmp	r3, #0
 363 0092 0FD0     		beq	.L35
 131:humidity_sensor/dht22.c ****       {
 132:humidity_sensor/dht22.c ****         data[i] = data[i] | mask;
 364              		.loc 1 132 0
 365 0094 1423     		mov	r3, #20
 366 0096 FA18     		add	r2, r7, r3
 367 0098 7B6B     		ldr	r3, [r7, #52]
 368 009a D318     		add	r3, r2, r3
 369 009c 1A78     		ldrb	r2, [r3]
 370 009e BB6A     		ldr	r3, [r7, #40]
 371 00a0 FC6A     		ldr	r4, [r7, #44]
ARM GAS  C:\Users\glenn\AppData\Local\Temp\ccJNRvXQ.s 			page 10


 372 00a2 DBB2     		uxtb	r3, r3
 373 00a4 1343     		orr	r3, r2
 374 00a6 D9B2     		uxtb	r1, r3
 375 00a8 1423     		mov	r3, #20
 376 00aa FA18     		add	r2, r7, r3
 377 00ac 7B6B     		ldr	r3, [r7, #52]
 378 00ae D318     		add	r3, r2, r3
 379 00b0 0A1C     		add	r2, r1, #0
 380 00b2 1A70     		strb	r2, [r3]
 381              	.L35:
 133:humidity_sensor/dht22.c ****       }
 134:humidity_sensor/dht22.c ****       mask = mask >> 1 ;
 382              		.loc 1 134 0 discriminator 2
 383 00b4 FB6A     		ldr	r3, [r7, #44]
 384 00b6 DB07     		lsl	r3, r3, #31
 385 00b8 BA6A     		ldr	r2, [r7, #40]
 386 00ba 5208     		lsr	r2, r2, #1
 387 00bc 1343     		orr	r3, r2
 388 00be BB62     		str	r3, [r7, #40]
 389 00c0 FB6A     		ldr	r3, [r7, #44]
 390 00c2 5B08     		lsr	r3, r3, #1
 391 00c4 FB62     		str	r3, [r7, #44]
 122:humidity_sensor/dht22.c ****      {
 392              		.loc 1 122 0 discriminator 2
 393 00c6 3B6B     		ldr	r3, [r7, #48]
 394 00c8 0133     		add	r3, r3, #1
 395 00ca 3B63     		str	r3, [r7, #48]
 396              	.L33:
 122:humidity_sensor/dht22.c ****      {
 397              		.loc 1 122 0 is_stmt 0 discriminator 1
 398 00cc 3B6B     		ldr	r3, [r7, #48]
 399 00ce 072B     		cmp	r3, #7
 400 00d0 CCD9     		bls	.L36
 118:humidity_sensor/dht22.c ****    {
 401              		.loc 1 118 0 is_stmt 1 discriminator 2
 402 00d2 7B6B     		ldr	r3, [r7, #52]
 403 00d4 0133     		add	r3, r3, #1
 404 00d6 7B63     		str	r3, [r7, #52]
 405              	.L32:
 118:humidity_sensor/dht22.c ****    {
 406              		.loc 1 118 0 is_stmt 0 discriminator 1
 407 00d8 7B6B     		ldr	r3, [r7, #52]
 408 00da 042B     		cmp	r3, #4
 409 00dc B9D9     		bls	.L37
 135:humidity_sensor/dht22.c ****     }
 136:humidity_sensor/dht22.c ****   }
 137:humidity_sensor/dht22.c ****   CyExitCriticalSection(criticalState);
 410              		.loc 1 137 0 is_stmt 1
 411 00de 2723     		mov	r3, #39
 412 00e0 FB18     		add	r3, r7, r3
 413 00e2 1B78     		ldrb	r3, [r3]
 414 00e4 181C     		mov	r0, r3
 415 00e6 FFF7FEFF 		bl	CyExitCriticalSection
 138:humidity_sensor/dht22.c ****   checksum = ( data[0] +data[1] +data[2]+data[3] )&0xff;
 416              		.loc 1 138 0
 417 00ea 1423     		mov	r3, #20
 418 00ec FB18     		add	r3, r7, r3
ARM GAS  C:\Users\glenn\AppData\Local\Temp\ccJNRvXQ.s 			page 11


 419 00ee 1B78     		ldrb	r3, [r3]
 420 00f0 9AB2     		uxth	r2, r3
 421 00f2 1423     		mov	r3, #20
 422 00f4 FB18     		add	r3, r7, r3
 423 00f6 5B78     		ldrb	r3, [r3, #1]
 424 00f8 9BB2     		uxth	r3, r3
 425 00fa D318     		add	r3, r2, r3
 426 00fc 9AB2     		uxth	r2, r3
 427 00fe 1423     		mov	r3, #20
 428 0100 FB18     		add	r3, r7, r3
 429 0102 9B78     		ldrb	r3, [r3, #2]
 430 0104 9BB2     		uxth	r3, r3
 431 0106 D318     		add	r3, r2, r3
 432 0108 9AB2     		uxth	r2, r3
 433 010a 1423     		mov	r3, #20
 434 010c FB18     		add	r3, r7, r3
 435 010e DB78     		ldrb	r3, [r3, #3]
 436 0110 9BB2     		uxth	r3, r3
 437 0112 D318     		add	r3, r2, r3
 438 0114 9AB2     		uxth	r2, r3
 439 0116 1E23     		mov	r3, #30
 440 0118 FB18     		add	r3, r7, r3
 441 011a FF21     		mov	r1, #255
 442 011c 0A40     		and	r2, r1
 443 011e 1A80     		strh	r2, [r3]
 139:humidity_sensor/dht22.c ****   if( checksum == data[4] )
 444              		.loc 1 139 0
 445 0120 1423     		mov	r3, #20
 446 0122 FB18     		add	r3, r7, r3
 447 0124 1B79     		ldrb	r3, [r3, #4]
 448 0126 9BB2     		uxth	r3, r3
 449 0128 1E22     		mov	r2, #30
 450 012a BA18     		add	r2, r7, r2
 451 012c 1288     		ldrh	r2, [r2]
 452 012e 9A42     		cmp	r2, r3
 453 0130 5ED1     		bne	.L38
 140:humidity_sensor/dht22.c ****   {
 141:humidity_sensor/dht22.c ****      temp_1 = data[0] <<8 | data[1];
 454              		.loc 1 141 0
 455 0132 1423     		mov	r3, #20
 456 0134 FB18     		add	r3, r7, r3
 457 0136 1B78     		ldrb	r3, [r3]
 458 0138 1B02     		lsl	r3, r3, #8
 459 013a 99B2     		uxth	r1, r3
 460 013c 1423     		mov	r3, #20
 461 013e FB18     		add	r3, r7, r3
 462 0140 5B78     		ldrb	r3, [r3, #1]
 463 0142 9AB2     		uxth	r2, r3
 464 0144 1C23     		mov	r3, #28
 465 0146 FB18     		add	r3, r7, r3
 466 0148 0A43     		orr	r2, r1
 467 014a 1A80     		strh	r2, [r3]
 142:humidity_sensor/dht22.c ****      temp_2 = data[2] << 8 | data[3];
 468              		.loc 1 142 0
 469 014c 1423     		mov	r3, #20
 470 014e FB18     		add	r3, r7, r3
 471 0150 9B78     		ldrb	r3, [r3, #2]
ARM GAS  C:\Users\glenn\AppData\Local\Temp\ccJNRvXQ.s 			page 12


 472 0152 1B02     		lsl	r3, r3, #8
 473 0154 99B2     		uxth	r1, r3
 474 0156 1423     		mov	r3, #20
 475 0158 FB18     		add	r3, r7, r3
 476 015a DB78     		ldrb	r3, [r3, #3]
 477 015c 9AB2     		uxth	r2, r3
 478 015e 1A23     		mov	r3, #26
 479 0160 FB18     		add	r3, r7, r3
 480 0162 0A43     		orr	r2, r1
 481 0164 1A80     		strh	r2, [r3]
 143:humidity_sensor/dht22.c ****      *humidity = (float) temp_1/10.;
 482              		.loc 1 143 0
 483 0166 1C23     		mov	r3, #28
 484 0168 FB18     		add	r3, r7, r3
 485 016a 0022     		mov	r2, #0
 486 016c 9B5E     		ldrsh	r3, [r3, r2]
 487 016e 181C     		mov	r0, r3
 488 0170 FFF7FEFF 		bl	__aeabi_i2f
 489 0174 031C     		add	r3, r0, #0
 490 0176 181C     		add	r0, r3, #0
 491 0178 2349     		ldr	r1, .L41+4
 492 017a FFF7FEFF 		bl	__aeabi_fdiv
 493 017e 031C     		add	r3, r0, #0
 494 0180 1A1C     		add	r2, r3, #0
 495 0182 BB6C     		ldr	r3, [r7, #72]
 496 0184 1A60     		str	r2, [r3]
 144:humidity_sensor/dht22.c ****      *temperature = (((( float) temp_2)/10.)*9/5)+32;
 497              		.loc 1 144 0
 498 0186 1A23     		mov	r3, #26
 499 0188 FB18     		add	r3, r7, r3
 500 018a 0022     		mov	r2, #0
 501 018c 9B5E     		ldrsh	r3, [r3, r2]
 502 018e 181C     		mov	r0, r3
 503 0190 FFF7FEFF 		bl	__aeabi_i2f
 504 0194 031C     		add	r3, r0, #0
 505 0196 181C     		add	r0, r3, #0
 506 0198 FFF7FEFF 		bl	__aeabi_f2d
 507 019c 031C     		mov	r3, r0
 508 019e 0C1C     		mov	r4, r1
 509 01a0 181C     		mov	r0, r3
 510 01a2 211C     		mov	r1, r4
 511 01a4 0022     		mov	r2, #0
 512 01a6 194B     		ldr	r3, .L41+8
 513 01a8 FFF7FEFF 		bl	__aeabi_ddiv
 514 01ac 031C     		mov	r3, r0
 515 01ae 0C1C     		mov	r4, r1
 516 01b0 181C     		mov	r0, r3
 517 01b2 211C     		mov	r1, r4
 518 01b4 0022     		mov	r2, #0
 519 01b6 164B     		ldr	r3, .L41+12
 520 01b8 FFF7FEFF 		bl	__aeabi_dmul
 521 01bc 031C     		mov	r3, r0
 522 01be 0C1C     		mov	r4, r1
 523 01c0 181C     		mov	r0, r3
 524 01c2 211C     		mov	r1, r4
 525 01c4 0022     		mov	r2, #0
 526 01c6 134B     		ldr	r3, .L41+16
ARM GAS  C:\Users\glenn\AppData\Local\Temp\ccJNRvXQ.s 			page 13


 527 01c8 FFF7FEFF 		bl	__aeabi_ddiv
 528 01cc 031C     		mov	r3, r0
 529 01ce 0C1C     		mov	r4, r1
 530 01d0 181C     		mov	r0, r3
 531 01d2 211C     		mov	r1, r4
 532 01d4 0022     		mov	r2, #0
 533 01d6 104B     		ldr	r3, .L41+20
 534 01d8 FFF7FEFF 		bl	__aeabi_dadd
 535 01dc 031C     		mov	r3, r0
 536 01de 0C1C     		mov	r4, r1
 537 01e0 181C     		mov	r0, r3
 538 01e2 211C     		mov	r1, r4
 539 01e4 FFF7FEFF 		bl	__aeabi_d2f
 540 01e8 021C     		add	r2, r0, #0
 541 01ea 3B68     		ldr	r3, [r7]
 542 01ec 1A60     		str	r2, [r3]
 543 01ee 05E0     		b	.L29
 544              	.L38:
 145:humidity_sensor/dht22.c ****   }
 146:humidity_sensor/dht22.c ****   else
 147:humidity_sensor/dht22.c ****   {
 148:humidity_sensor/dht22.c ****      *humidity = -1.;
 545              		.loc 1 148 0
 546 01f0 BB6C     		ldr	r3, [r7, #72]
 547 01f2 0A4A     		ldr	r2, .L41+24
 548 01f4 1A60     		str	r2, [r3]
 149:humidity_sensor/dht22.c ****      *temperature = -1.;
 549              		.loc 1 149 0
 550 01f6 3B68     		ldr	r3, [r7]
 551 01f8 084A     		ldr	r2, .L41+24
 552 01fa 1A60     		str	r2, [r3]
 553              	.L29:
 150:humidity_sensor/dht22.c ****   }
 151:humidity_sensor/dht22.c ****    
 152:humidity_sensor/dht22.c **** }...
 554              		.loc 1 152 0
 555 01fc BD46     		mov	sp, r7
 556 01fe 0FB0     		add	sp, sp, #60
 557              		@ sp needed
 558 0200 90BD     		pop	{r4, r7, pc}
 559              	.L42:
 560 0202 C046     		.align	2
 561              	.L41:
 562 0204 DC050000 		.word	1500
 563 0208 00002041 		.word	1092616192
 564 020c 00002440 		.word	1076101120
 565 0210 00002240 		.word	1075970048
 566 0214 00001440 		.word	1075052544
 567 0218 00004040 		.word	1077936128
 568 021c 000080BF 		.word	-1082130432
 569              		.cfi_endproc
 570              	.LFE64:
 571              		.size	DHT22_get_data, .-DHT22_get_data
 572              		.text
 573              	.Letext0:
 574              		.file 2 "Generated_Source\\PSoC4/cytypes.h"
 575              		.file 3 "humidity_sensor\\dht22.h"
ARM GAS  C:\Users\glenn\AppData\Local\Temp\ccJNRvXQ.s 			page 14

