ARM GAS  C:\Users\glenn\AppData\Local\Temp\cc3rYttq.s 			page 1


   1              		.cpu cortex-m0
   2              		.fpu softvfp
   3              		.eabi_attribute 20, 1
   4              		.eabi_attribute 21, 1
   5              		.eabi_attribute 23, 3
   6              		.eabi_attribute 24, 1
   7              		.eabi_attribute 25, 1
   8              		.eabi_attribute 26, 1
   9              		.eabi_attribute 30, 2
  10              		.eabi_attribute 34, 0
  11              		.eabi_attribute 18, 4
  12              		.code	16
  13              		.file	"DS18B20.c"
  14              		.text
  15              	.Ltext0:
  16              		.cfi_sections	.debug_frame
  17              		.section	.text.DS1820_Reset,"ax",%progbits
  18              		.align	2
  19              		.global	DS1820_Reset
  20              		.code	16
  21              		.thumb_func
  22              		.type	DS1820_Reset, %function
  23              	DS1820_Reset:
  24              	.LFB62:
  25              		.file 1 "one_wire\\DS18B20.c"
   1:one_wire/DS18B20.c ****    /*** FILEHEADER ****************************************************************
   2:one_wire/DS18B20.c ****  *
   3:one_wire/DS18B20.c ****  *    FILENAME:    ds1820.h
   4:one_wire/DS18B20.c ****  *    DATE:        25.02.2005
   5:one_wire/DS18B20.c ****  *    AUTHOR:      Christian Stadler
   6:one_wire/DS18B20.c ****  *
   7:one_wire/DS18B20.c ****  *    crc and search code ported from  PaulStoffregen/OneWire/OneWire.cpp (audrino code )
   8:one_wire/DS18B20.c ****  *    DESCRIPTION: Driver for DS1820 1-Wire Temperature sensor (Dallas)
   9:one_wire/DS18B20.c ****  *    Modified by Glenn Edgar for CYPRESS Products
  10:one_wire/DS18B20.c ****  *
  11:one_wire/DS18B20.c ****  ******************************************************************************/
  12:one_wire/DS18B20.c **** 
  13:one_wire/DS18B20.c **** 
  14:one_wire/DS18B20.c **** 
  15:one_wire/DS18B20.c **** #include <project.h>
  16:one_wire/DS18B20.c **** #include "DS18B20.h"
  17:one_wire/DS18B20.c **** 
  18:one_wire/DS18B20.c **** 
  19:one_wire/DS18B20.c **** #define TEMP_RES              0x100 /* temperature resolution => 1/256°C = 0.0039°C */
  20:one_wire/DS18B20.c **** 
  21:one_wire/DS18B20.c **** 
  22:one_wire/DS18B20.c **** /* -------------------------------------------------------------------------- */
  23:one_wire/DS18B20.c **** /*                         DS1820 Timing Parameters                           */
  24:one_wire/DS18B20.c **** /* -------------------------------------------------------------------------- */
  25:one_wire/DS18B20.c **** 
  26:one_wire/DS18B20.c **** #define DS1820_RST_PULSE       480   /* master reset pulse time in [us] */
  27:one_wire/DS18B20.c **** #define DS1820_MSTR_BITSTART   2     /* delay time for bit start by master */
  28:one_wire/DS18B20.c **** #define DS1820_PRESENCE_WAIT   40    /* delay after master reset pulse in [us] */
  29:one_wire/DS18B20.c **** #define DS1820_PRESENCE_FIN    480   /* dealy after reading of presence pulse [us] */
  30:one_wire/DS18B20.c **** #define DS1820_BITREAD_DLY     5     /* bit read delay */
  31:one_wire/DS18B20.c **** #define DS1820_BITWRITE_DLY    100   /* bit write delay */
  32:one_wire/DS18B20.c **** 
ARM GAS  C:\Users\glenn\AppData\Local\Temp\cc3rYttq.s 			page 2


  33:one_wire/DS18B20.c **** 
  34:one_wire/DS18B20.c **** /* -------------------------------------------------------------------------- */
  35:one_wire/DS18B20.c **** /*                            DS1820 Registers                                */
  36:one_wire/DS18B20.c **** /* -------------------------------------------------------------------------- */
  37:one_wire/DS18B20.c **** 
  38:one_wire/DS18B20.c **** #define DS1820_REG_TEMPLSB    0
  39:one_wire/DS18B20.c **** #define DS1820_REG_TEMPMSB    1
  40:one_wire/DS18B20.c **** #define DS1820_REG_CNTREMAIN  6
  41:one_wire/DS18B20.c **** #define DS1820_REG_CNTPERSEC  7
  42:one_wire/DS18B20.c **** #define DS1820_SCRPADMEM_LEN  9     /* length of scratchpad memory */
  43:one_wire/DS18B20.c **** 
  44:one_wire/DS18B20.c **** 
  45:one_wire/DS18B20.c **** 
  46:one_wire/DS18B20.c **** 
  47:one_wire/DS18B20.c **** /* -------------------------------------------------------------------------- */
  48:one_wire/DS18B20.c **** /*                            DS1820 Commands                                 */
  49:one_wire/DS18B20.c **** /* -------------------------------------------------------------------------- */
  50:one_wire/DS18B20.c **** 
  51:one_wire/DS18B20.c **** #define DS1820_CMD_SEARCHROM     0xF0
  52:one_wire/DS18B20.c **** #define DS1820_CMD_READROM       0x33
  53:one_wire/DS18B20.c **** #define DS1820_CMD_MATCHROM      0x55
  54:one_wire/DS18B20.c **** #define DS1820_CMD_SKIPROM       0xCC
  55:one_wire/DS18B20.c **** #define DS1820_CMD_ALARMSEARCH   0xEC
  56:one_wire/DS18B20.c **** #define DS1820_CMD_CONVERTTEMP   0x44
  57:one_wire/DS18B20.c **** #define DS1820_CMD_WRITESCRPAD   0x4E
  58:one_wire/DS18B20.c **** #define DS1820_CMD_READSCRPAD    0xBE
  59:one_wire/DS18B20.c **** #define DS1820_CMD_COPYSCRPAD    0x48
  60:one_wire/DS18B20.c **** #define DS1820_CMD_RECALLEE      0xB8
  61:one_wire/DS18B20.c **** 
  62:one_wire/DS18B20.c **** 
  63:one_wire/DS18B20.c **** #define DS1820_FAMILY_CODE_DS18B20      0x28
  64:one_wire/DS18B20.c **** #define DS1820_FAMILY_CODE_DS18S20      0x10
  65:one_wire/DS18B20.c **** 
  66:one_wire/DS18B20.c **** 
  67:one_wire/DS18B20.c **** /* -------------------------------------------------------------------------- */
  68:one_wire/DS18B20.c **** /*                            static variables                                */
  69:one_wire/DS18B20.c **** /* -------------------------------------------------------------------------- */
  70:one_wire/DS18B20.c **** 
  71:one_wire/DS18B20.c **** static uint8 bDoneFlag;
  72:one_wire/DS18B20.c **** static uint8 nLastDiscrepancy_u8;
  73:one_wire/DS18B20.c **** 
  74:one_wire/DS18B20.c **** 
  75:one_wire/DS18B20.c **** 
  76:one_wire/DS18B20.c **** 
  77:one_wire/DS18B20.c **** 
  78:one_wire/DS18B20.c **** 
  79:one_wire/DS18B20.c **** 
  80:one_wire/DS18B20.c **** 
  81:one_wire/DS18B20.c **** 
  82:one_wire/DS18B20.c **** 
  83:one_wire/DS18B20.c **** static uint8 compute_crc8(const uint8 *addr, uint8 len);
  84:one_wire/DS18B20.c **** 
  85:one_wire/DS18B20.c **** 
  86:one_wire/DS18B20.c **** 
  87:one_wire/DS18B20.c **** 
  88:one_wire/DS18B20.c **** 
  89:one_wire/DS18B20.c **** 
ARM GAS  C:\Users\glenn\AppData\Local\Temp\cc3rYttq.s 			page 3


  90:one_wire/DS18B20.c **** 
  91:one_wire/DS18B20.c **** /*******************************************************************************
  92:one_wire/DS18B20.c ****  * FUNCTION:   DS1820_Reset
  93:one_wire/DS18B20.c ****  * PURPOSE:    Initializes the DS1820 device.
  94:one_wire/DS18B20.c ****  *
  95:one_wire/DS18B20.c ****  * INPUT:      -
  96:one_wire/DS18B20.c ****  * OUTPUT:     -
  97:one_wire/DS18B20.c ****  * RETURN:     FALSE if at least one device is on the 1-wire bus, TRUE otherwise
  98:one_wire/DS18B20.c ****  ******************************************************************************/
  99:one_wire/DS18B20.c **** uint8 DS1820_Reset(ONE_WIRE_IO *io)
 100:one_wire/DS18B20.c **** {
  26              		.loc 1 100 0
  27              		.cfi_startproc
  28              	.LVL0:
  29 0000 38B5     		push	{r3, r4, r5, lr}
  30              		.cfi_def_cfa_offset 16
  31              		.cfi_offset 3, -16
  32              		.cfi_offset 4, -12
  33              		.cfi_offset 5, -8
  34              		.cfi_offset 14, -4
  35              		.loc 1 100 0
  36 0002 041C     		mov	r4, r0
 101:one_wire/DS18B20.c ****    uint8 bPresPulse;
 102:one_wire/DS18B20.c ****    uint8  criticalState;
 103:one_wire/DS18B20.c ****    criticalState = CyEnterCriticalSection();
  37              		.loc 1 103 0
  38 0004 FFF7FEFF 		bl	CyEnterCriticalSection
  39              	.LVL1:
 104:one_wire/DS18B20.c ****    
 105:one_wire/DS18B20.c ****    /* reset pulse */
 106:one_wire/DS18B20.c ****    io->pin_write(0);
  40              		.loc 1 106 0
  41 0008 6368     		ldr	r3, [r4, #4]
 103:one_wire/DS18B20.c ****    
  42              		.loc 1 103 0
  43 000a 051C     		mov	r5, r0
  44              	.LVL2:
  45              		.loc 1 106 0
  46 000c 0020     		mov	r0, #0
  47 000e 9847     		blx	r3
  48              	.LVL3:
 107:one_wire/DS18B20.c ****    CyDelayUs(DS1820_RST_PULSE);
  49              		.loc 1 107 0
  50 0010 F020     		mov	r0, #240
  51 0012 4000     		lsl	r0, r0, #1
  52 0014 FFF7FEFF 		bl	CyDelayUs
  53              	.LVL4:
 108:one_wire/DS18B20.c ****    io->pin_write(1);
  54              		.loc 1 108 0
  55 0018 6368     		ldr	r3, [r4, #4]
  56 001a 0120     		mov	r0, #1
  57 001c 9847     		blx	r3
  58              	.LVL5:
 109:one_wire/DS18B20.c **** 
 110:one_wire/DS18B20.c ****    /* wait until pullup pull 1-wire bus to high */
 111:one_wire/DS18B20.c ****    CyDelayUs(DS1820_PRESENCE_WAIT);
  59              		.loc 1 111 0
ARM GAS  C:\Users\glenn\AppData\Local\Temp\cc3rYttq.s 			page 4


  60 001e 2820     		mov	r0, #40
  61 0020 FFF7FEFF 		bl	CyDelayUs
  62              	.LVL6:
 112:one_wire/DS18B20.c **** 
 113:one_wire/DS18B20.c ****    /* get presence pulse */
 114:one_wire/DS18B20.c ****    bPresPulse = io->pin_read();
  63              		.loc 1 114 0
  64 0024 2368     		ldr	r3, [r4]
  65 0026 9847     		blx	r3
  66              	.LVL7:
  67 0028 041C     		mov	r4, r0
  68              	.LVL8:
 115:one_wire/DS18B20.c **** 
 116:one_wire/DS18B20.c ****     CyDelayUs(424);
  69              		.loc 1 116 0
  70 002a D420     		mov	r0, #212
  71 002c 4000     		lsl	r0, r0, #1
  72 002e FFF7FEFF 		bl	CyDelayUs
  73              	.LVL9:
 117:one_wire/DS18B20.c ****    
 118:one_wire/DS18B20.c ****    CyExitCriticalSection(criticalState);
  74              		.loc 1 118 0
  75 0032 281C     		mov	r0, r5
  76 0034 FFF7FEFF 		bl	CyExitCriticalSection
  77              	.LVL10:
 119:one_wire/DS18B20.c **** 
 120:one_wire/DS18B20.c ****    return bPresPulse;
 121:one_wire/DS18B20.c **** }
  78              		.loc 1 121 0
  79              		@ sp needed
  80 0038 201C     		mov	r0, r4
  81              	.LVL11:
  82              	.LVL12:
  83 003a 38BD     		pop	{r3, r4, r5, pc}
  84              		.cfi_endproc
  85              	.LFE62:
  86              		.size	DS1820_Reset, .-DS1820_Reset
  87              		.section	.text.DS1820_ReadBit,"ax",%progbits
  88              		.align	2
  89              		.global	DS1820_ReadBit
  90              		.code	16
  91              		.thumb_func
  92              		.type	DS1820_ReadBit, %function
  93              	DS1820_ReadBit:
  94              	.LFB63:
 122:one_wire/DS18B20.c **** 
 123:one_wire/DS18B20.c **** 
 124:one_wire/DS18B20.c **** /*******************************************************************************
 125:one_wire/DS18B20.c ****  * FUNCTION:   DS1820_ReadBit
 126:one_wire/DS18B20.c ****  * PURPOSE:    Reads a single bit from the DS1820 device.
 127:one_wire/DS18B20.c ****  *
 128:one_wire/DS18B20.c ****  * INPUT:      -
 129:one_wire/DS18B20.c ****  * OUTPUT:     -
 130:one_wire/DS18B20.c ****  * RETURN:     bool        value of the bit which as been read form the DS1820
 131:one_wire/DS18B20.c ****  ******************************************************************************/
 132:one_wire/DS18B20.c **** uint8 DS1820_ReadBit(ONE_WIRE_IO *io)
 133:one_wire/DS18B20.c **** {
ARM GAS  C:\Users\glenn\AppData\Local\Temp\cc3rYttq.s 			page 5


  95              		.loc 1 133 0
  96              		.cfi_startproc
  97              	.LVL13:
  98 0000 38B5     		push	{r3, r4, r5, lr}
  99              		.cfi_def_cfa_offset 16
 100              		.cfi_offset 3, -16
 101              		.cfi_offset 4, -12
 102              		.cfi_offset 5, -8
 103              		.cfi_offset 14, -4
 104              		.loc 1 133 0
 105 0002 041C     		mov	r4, r0
 134:one_wire/DS18B20.c ****    uint8 bBit;
 135:one_wire/DS18B20.c **** 
 136:one_wire/DS18B20.c ****     uint8  criticalState;
 137:one_wire/DS18B20.c ****     criticalState = CyEnterCriticalSection();
 106              		.loc 1 137 0
 107 0004 FFF7FEFF 		bl	CyEnterCriticalSection
 108              	.LVL14:
 138:one_wire/DS18B20.c **** 
 139:one_wire/DS18B20.c ****    
 140:one_wire/DS18B20.c ****    io->pin_write(0);
 109              		.loc 1 140 0
 110 0008 6368     		ldr	r3, [r4, #4]
 137:one_wire/DS18B20.c **** 
 111              		.loc 1 137 0
 112 000a 051C     		mov	r5, r0
 113              	.LVL15:
 114              		.loc 1 140 0
 115 000c 0020     		mov	r0, #0
 116 000e 9847     		blx	r3
 117              	.LVL16:
 141:one_wire/DS18B20.c ****    CyDelayUs(DS1820_MSTR_BITSTART);
 118              		.loc 1 141 0
 119 0010 0220     		mov	r0, #2
 120 0012 FFF7FEFF 		bl	CyDelayUs
 121              	.LVL17:
 142:one_wire/DS18B20.c ****    io->pin_write(1);
 122              		.loc 1 142 0
 123 0016 6368     		ldr	r3, [r4, #4]
 124 0018 0120     		mov	r0, #1
 125 001a 9847     		blx	r3
 126              	.LVL18:
 143:one_wire/DS18B20.c ****    CyDelayUs(DS1820_BITREAD_DLY);
 127              		.loc 1 143 0
 128 001c 0520     		mov	r0, #5
 129 001e FFF7FEFF 		bl	CyDelayUs
 130              	.LVL19:
 144:one_wire/DS18B20.c **** 
 145:one_wire/DS18B20.c ****    bBit = io->pin_read();
 131              		.loc 1 145 0
 132 0022 2368     		ldr	r3, [r4]
 133 0024 9847     		blx	r3
 134              	.LVL20:
 135 0026 041C     		mov	r4, r0
 136              	.LVL21:
 146:one_wire/DS18B20.c ****    
 147:one_wire/DS18B20.c ****    CyExitCriticalSection(criticalState);
ARM GAS  C:\Users\glenn\AppData\Local\Temp\cc3rYttq.s 			page 6


 137              		.loc 1 147 0
 138 0028 281C     		mov	r0, r5
 139 002a FFF7FEFF 		bl	CyExitCriticalSection
 140              	.LVL22:
 148:one_wire/DS18B20.c **** 
 149:one_wire/DS18B20.c ****    return (bBit);
 150:one_wire/DS18B20.c **** }
 141              		.loc 1 150 0
 142              		@ sp needed
 143 002e 201C     		mov	r0, r4
 144              	.LVL23:
 145              	.LVL24:
 146 0030 38BD     		pop	{r3, r4, r5, pc}
 147              		.cfi_endproc
 148              	.LFE63:
 149              		.size	DS1820_ReadBit, .-DS1820_ReadBit
 150 0032 C046     		.section	.text.DS1820_WriteBit,"ax",%progbits
 151              		.align	2
 152              		.global	DS1820_WriteBit
 153              		.code	16
 154              		.thumb_func
 155              		.type	DS1820_WriteBit, %function
 156              	DS1820_WriteBit:
 157              	.LFB64:
 151:one_wire/DS18B20.c **** 
 152:one_wire/DS18B20.c **** 
 153:one_wire/DS18B20.c **** /*******************************************************************************
 154:one_wire/DS18B20.c ****  * FUNCTION:   DS1820_WriteBit
 155:one_wire/DS18B20.c ****  * PURPOSE:    Writes a single bit to the DS1820 device.
 156:one_wire/DS18B20.c ****  *
 157:one_wire/DS18B20.c ****  * INPUT:      bBit        value of bit to be written
 158:one_wire/DS18B20.c ****  * OUTPUT:     -
 159:one_wire/DS18B20.c ****  * RETURN:     -
 160:one_wire/DS18B20.c ****  ******************************************************************************/
 161:one_wire/DS18B20.c **** void DS1820_WriteBit(ONE_WIRE_IO *io,uint8 bBit)
 162:one_wire/DS18B20.c **** {
 158              		.loc 1 162 0
 159              		.cfi_startproc
 160              	.LVL25:
 161 0000 70B5     		push	{r4, r5, r6, lr}
 162              		.cfi_def_cfa_offset 16
 163              		.cfi_offset 4, -16
 164              		.cfi_offset 5, -12
 165              		.cfi_offset 6, -8
 166              		.cfi_offset 14, -4
 167              		.loc 1 162 0
 168 0002 0E1C     		mov	r6, r1
 169 0004 041C     		mov	r4, r0
 163:one_wire/DS18B20.c ****     uint8  criticalState;
 164:one_wire/DS18B20.c ****     criticalState = CyEnterCriticalSection();
 170              		.loc 1 164 0
 171 0006 FFF7FEFF 		bl	CyEnterCriticalSection
 172              	.LVL26:
 165:one_wire/DS18B20.c ****     
 166:one_wire/DS18B20.c ****    io-> pin_write(0);
 173              		.loc 1 166 0
 174 000a 6368     		ldr	r3, [r4, #4]
ARM GAS  C:\Users\glenn\AppData\Local\Temp\cc3rYttq.s 			page 7


 164:one_wire/DS18B20.c ****     
 175              		.loc 1 164 0
 176 000c 051C     		mov	r5, r0
 177              	.LVL27:
 178              		.loc 1 166 0
 179 000e 0020     		mov	r0, #0
 180 0010 9847     		blx	r3
 181              	.LVL28:
 167:one_wire/DS18B20.c ****    CyDelayUs(DS1820_MSTR_BITSTART);
 182              		.loc 1 167 0
 183 0012 0220     		mov	r0, #2
 184 0014 FFF7FEFF 		bl	CyDelayUs
 185              	.LVL29:
 168:one_wire/DS18B20.c **** 
 169:one_wire/DS18B20.c ****    if (bBit != 0)  // False
 186              		.loc 1 169 0
 187 0018 002E     		cmp	r6, #0
 188 001a 02D0     		beq	.L4
 170:one_wire/DS18B20.c ****    {
 171:one_wire/DS18B20.c ****       io->pin_write(1);
 189              		.loc 1 171 0
 190 001c 0120     		mov	r0, #1
 191 001e 6368     		ldr	r3, [r4, #4]
 192 0020 9847     		blx	r3
 193              	.LVL30:
 194              	.L4:
 172:one_wire/DS18B20.c ****    }
 173:one_wire/DS18B20.c **** 
 174:one_wire/DS18B20.c ****    CyDelayUs(DS1820_BITWRITE_DLY);
 195              		.loc 1 174 0
 196 0022 6420     		mov	r0, #100
 197 0024 FFF7FEFF 		bl	CyDelayUs
 198              	.LVL31:
 175:one_wire/DS18B20.c ****    io->pin_write(1);
 199              		.loc 1 175 0
 200 0028 6368     		ldr	r3, [r4, #4]
 201 002a 0120     		mov	r0, #1
 202 002c 9847     		blx	r3
 203              	.LVL32:
 176:one_wire/DS18B20.c ****    
 177:one_wire/DS18B20.c ****    CyExitCriticalSection(criticalState);
 204              		.loc 1 177 0
 205 002e 281C     		mov	r0, r5
 206 0030 FFF7FEFF 		bl	CyExitCriticalSection
 207              	.LVL33:
 178:one_wire/DS18B20.c **** }
 208              		.loc 1 178 0
 209              		@ sp needed
 210              	.LVL34:
 211              	.LVL35:
 212 0034 70BD     		pop	{r4, r5, r6, pc}
 213              		.cfi_endproc
 214              	.LFE64:
 215              		.size	DS1820_WriteBit, .-DS1820_WriteBit
 216 0036 C046     		.section	.text.DS1820_ReadByte,"ax",%progbits
 217              		.align	2
 218              		.global	DS1820_ReadByte
ARM GAS  C:\Users\glenn\AppData\Local\Temp\cc3rYttq.s 			page 8


 219              		.code	16
 220              		.thumb_func
 221              		.type	DS1820_ReadByte, %function
 222              	DS1820_ReadByte:
 223              	.LFB65:
 179:one_wire/DS18B20.c **** 
 180:one_wire/DS18B20.c **** 
 181:one_wire/DS18B20.c **** /*******************************************************************************
 182:one_wire/DS18B20.c ****  * FUNCTION:   DS1820_ReadByte
 183:one_wire/DS18B20.c ****  * PURPOSE:    Reads a single byte from the DS1820 device.
 184:one_wire/DS18B20.c ****  *
 185:one_wire/DS18B20.c ****  * INPUT:      -
 186:one_wire/DS18B20.c ****  * OUTPUT:     -
 187:one_wire/DS18B20.c ****  * RETURN:     uint8          byte which has been read from the DS1820
 188:one_wire/DS18B20.c ****  ******************************************************************************/
 189:one_wire/DS18B20.c **** uint8 DS1820_ReadByte(ONE_WIRE_IO *io)
 190:one_wire/DS18B20.c **** {
 224              		.loc 1 190 0
 225              		.cfi_startproc
 226              	.LVL36:
 227 0000 F0B5     		push	{r4, r5, r6, r7, lr}
 228              		.cfi_def_cfa_offset 20
 229              		.cfi_offset 4, -20
 230              		.cfi_offset 5, -16
 231              		.cfi_offset 6, -12
 232              		.cfi_offset 7, -8
 233              		.cfi_offset 14, -4
 234 0002 4746     		mov	r7, r8
 235 0004 051C     		mov	r5, r0
 236 0006 0024     		mov	r4, #0
 191:one_wire/DS18B20.c ****    uint8 i;
 192:one_wire/DS18B20.c ****    uint8 value = 0;
 237              		.loc 1 192 0
 238 0008 0026     		mov	r6, #0
 190:one_wire/DS18B20.c ****    uint8 i;
 239              		.loc 1 190 0
 240 000a 80B4     		push	{r7}
 241              		.cfi_def_cfa_offset 24
 242              		.cfi_offset 8, -24
 243              	.LVL37:
 244              	.L11:
 245              	.LBB8:
 246              	.LBB9:
 137:one_wire/DS18B20.c **** 
 247              		.loc 1 137 0
 248 000c FFF7FEFF 		bl	CyEnterCriticalSection
 249              	.LVL38:
 140:one_wire/DS18B20.c ****    CyDelayUs(DS1820_MSTR_BITSTART);
 250              		.loc 1 140 0
 251 0010 6B68     		ldr	r3, [r5, #4]
 137:one_wire/DS18B20.c **** 
 252              		.loc 1 137 0
 253 0012 8046     		mov	r8, r0
 254              	.LVL39:
 140:one_wire/DS18B20.c ****    CyDelayUs(DS1820_MSTR_BITSTART);
 255              		.loc 1 140 0
 256 0014 0020     		mov	r0, #0
ARM GAS  C:\Users\glenn\AppData\Local\Temp\cc3rYttq.s 			page 9


 257 0016 9847     		blx	r3
 258              	.LVL40:
 141:one_wire/DS18B20.c ****    io->pin_write(1);
 259              		.loc 1 141 0
 260 0018 0220     		mov	r0, #2
 261 001a FFF7FEFF 		bl	CyDelayUs
 262              	.LVL41:
 142:one_wire/DS18B20.c ****    CyDelayUs(DS1820_BITREAD_DLY);
 263              		.loc 1 142 0
 264 001e 6B68     		ldr	r3, [r5, #4]
 265 0020 0120     		mov	r0, #1
 266 0022 9847     		blx	r3
 267              	.LVL42:
 143:one_wire/DS18B20.c **** 
 268              		.loc 1 143 0
 269 0024 0520     		mov	r0, #5
 270 0026 FFF7FEFF 		bl	CyDelayUs
 271              	.LVL43:
 145:one_wire/DS18B20.c ****    
 272              		.loc 1 145 0
 273 002a 2B68     		ldr	r3, [r5]
 274 002c 9847     		blx	r3
 275              	.LVL44:
 276 002e 071C     		mov	r7, r0
 277              	.LVL45:
 147:one_wire/DS18B20.c **** 
 278              		.loc 1 147 0
 279 0030 4046     		mov	r0, r8
 280 0032 FFF7FEFF 		bl	CyExitCriticalSection
 281              	.LVL46:
 282              	.LBE9:
 283              	.LBE8:
 193:one_wire/DS18B20.c **** 
 194:one_wire/DS18B20.c ****    for (i=0 ; i < 8; i++)
 195:one_wire/DS18B20.c ****    {
 196:one_wire/DS18B20.c ****       if ( DS1820_ReadBit(io) )
 284              		.loc 1 196 0
 285 0036 002F     		cmp	r7, #0
 286 0038 03D0     		beq	.L10
 197:one_wire/DS18B20.c ****       {
 198:one_wire/DS18B20.c ****          value |= (1 << i);
 287              		.loc 1 198 0
 288 003a 0123     		mov	r3, #1
 289 003c A340     		lsl	r3, r3, r4
 290 003e 1E43     		orr	r6, r3
 291              	.LVL47:
 292 0040 F6B2     		uxtb	r6, r6
 293              	.LVL48:
 294              	.L10:
 199:one_wire/DS18B20.c ****       }
 200:one_wire/DS18B20.c ****       CyDelayUs(120);
 295              		.loc 1 200 0 discriminator 2
 296 0042 7820     		mov	r0, #120
 297 0044 0134     		add	r4, r4, #1
 298              	.LVL49:
 299 0046 FFF7FEFF 		bl	CyDelayUs
 300              	.LVL50:
ARM GAS  C:\Users\glenn\AppData\Local\Temp\cc3rYttq.s 			page 10


 194:one_wire/DS18B20.c ****    {
 301              		.loc 1 194 0 discriminator 2
 302 004a 082C     		cmp	r4, #8
 303 004c DED1     		bne	.L11
 201:one_wire/DS18B20.c ****    }
 202:one_wire/DS18B20.c ****    return(value);
 203:one_wire/DS18B20.c **** }
 304              		.loc 1 203 0
 305 004e 301C     		mov	r0, r6
 306              		@ sp needed
 307              	.LVL51:
 308              	.LVL52:
 309              	.LVL53:
 310              	.LVL54:
 311 0050 04BC     		pop	{r2}
 312 0052 9046     		mov	r8, r2
 313 0054 F0BD     		pop	{r4, r5, r6, r7, pc}
 314              		.cfi_endproc
 315              	.LFE65:
 316              		.size	DS1820_ReadByte, .-DS1820_ReadByte
 317 0056 C046     		.section	.text.DS1820_WriteByte,"ax",%progbits
 318              		.align	2
 319              		.global	DS1820_WriteByte
 320              		.code	16
 321              		.thumb_func
 322              		.type	DS1820_WriteByte, %function
 323              	DS1820_WriteByte:
 324              	.LFB66:
 204:one_wire/DS18B20.c **** 
 205:one_wire/DS18B20.c **** 
 206:one_wire/DS18B20.c **** /*******************************************************************************
 207:one_wire/DS18B20.c ****  * FUNCTION:   DS1820_WriteByte
 208:one_wire/DS18B20.c ****  * PURPOSE:    Writes a single byte to the DS1820 device.
 209:one_wire/DS18B20.c ****  *
 210:one_wire/DS18B20.c ****  * INPUT:      val_u8         byte to be written
 211:one_wire/DS18B20.c ****  * OUTPUT:     -
 212:one_wire/DS18B20.c ****  * RETURN:     -
 213:one_wire/DS18B20.c ****  ******************************************************************************/
 214:one_wire/DS18B20.c **** void DS1820_WriteByte(ONE_WIRE_IO *io,uint8 val_u8)
 215:one_wire/DS18B20.c **** {
 325              		.loc 1 215 0
 326              		.cfi_startproc
 327              	.LVL55:
 328 0000 F8B5     		push	{r3, r4, r5, r6, r7, lr}
 329              		.cfi_def_cfa_offset 24
 330              		.cfi_offset 3, -24
 331              		.cfi_offset 4, -20
 332              		.cfi_offset 5, -16
 333              		.cfi_offset 6, -12
 334              		.cfi_offset 7, -8
 335              		.cfi_offset 14, -4
 336 0002 4646     		mov	r6, r8
 337 0004 4F46     		mov	r7, r9
 216:one_wire/DS18B20.c ****    uint8 i;
 217:one_wire/DS18B20.c ****    uint8 temp;
 218:one_wire/DS18B20.c **** 
 219:one_wire/DS18B20.c ****    for (i=0; i < 8; i++)      /* writes byte, one bit at a time */
ARM GAS  C:\Users\glenn\AppData\Local\Temp\cc3rYttq.s 			page 11


 220:one_wire/DS18B20.c ****    {
 221:one_wire/DS18B20.c ****       temp = val_u8 >> i;     /* shifts val right 'i' spaces */
 222:one_wire/DS18B20.c ****       temp &= 0x01;           /* copy that bit to temp */
 338              		.loc 1 222 0
 339 0006 0123     		mov	r3, #1
 215:one_wire/DS18B20.c ****    uint8 i;
 340              		.loc 1 215 0
 341 0008 C0B4     		push	{r6, r7}
 342              		.cfi_def_cfa_offset 32
 343              		.cfi_offset 8, -32
 344              		.cfi_offset 9, -28
 215:one_wire/DS18B20.c ****    uint8 i;
 345              		.loc 1 215 0
 346 000a 8946     		mov	r9, r1
 347 000c 061C     		mov	r6, r0
 348 000e 0024     		mov	r4, #0
 349              		.loc 1 222 0
 350 0010 9846     		mov	r8, r3
 351              	.LVL56:
 352              	.L18:
 353              	.LBB12:
 354              	.LBB13:
 164:one_wire/DS18B20.c ****     
 355              		.loc 1 164 0 discriminator 3
 356 0012 FFF7FEFF 		bl	CyEnterCriticalSection
 357              	.LVL57:
 358              	.LBE13:
 359              	.LBE12:
 221:one_wire/DS18B20.c ****       temp &= 0x01;           /* copy that bit to temp */
 360              		.loc 1 221 0 discriminator 3
 361 0016 4D46     		mov	r5, r9
 362              	.LBB17:
 363              	.LBB14:
 166:one_wire/DS18B20.c ****    CyDelayUs(DS1820_MSTR_BITSTART);
 364              		.loc 1 166 0 discriminator 3
 365 0018 7368     		ldr	r3, [r6, #4]
 164:one_wire/DS18B20.c ****     
 366              		.loc 1 164 0 discriminator 3
 367 001a 071C     		mov	r7, r0
 166:one_wire/DS18B20.c ****    CyDelayUs(DS1820_MSTR_BITSTART);
 368              		.loc 1 166 0 discriminator 3
 369 001c 0020     		mov	r0, #0
 370 001e 9847     		blx	r3
 371              	.LVL58:
 372              	.LBE14:
 373              	.LBE17:
 221:one_wire/DS18B20.c ****       temp &= 0x01;           /* copy that bit to temp */
 374              		.loc 1 221 0 discriminator 3
 375 0020 2541     		asr	r5, r5, r4
 376              	.LBB18:
 377              	.LBB15:
 167:one_wire/DS18B20.c **** 
 378              		.loc 1 167 0 discriminator 3
 379 0022 0220     		mov	r0, #2
 380 0024 FFF7FEFF 		bl	CyDelayUs
 381              	.LVL59:
 169:one_wire/DS18B20.c ****    {
ARM GAS  C:\Users\glenn\AppData\Local\Temp\cc3rYttq.s 			page 12


 382              		.loc 1 169 0 discriminator 3
 383 0028 4346     		mov	r3, r8
 384              	.LBE15:
 385              	.LBE18:
 221:one_wire/DS18B20.c ****       temp &= 0x01;           /* copy that bit to temp */
 386              		.loc 1 221 0 discriminator 3
 387 002a EDB2     		uxtb	r5, r5
 388              	.LVL60:
 389              	.LBB19:
 390              	.LBB16:
 169:one_wire/DS18B20.c ****    {
 391              		.loc 1 169 0 discriminator 3
 392 002c 2B42     		tst	r3, r5
 393 002e 02D0     		beq	.L17
 171:one_wire/DS18B20.c ****    }
 394              		.loc 1 171 0
 395 0030 0120     		mov	r0, #1
 396 0032 7368     		ldr	r3, [r6, #4]
 397 0034 9847     		blx	r3
 398              	.LVL61:
 399              	.L17:
 174:one_wire/DS18B20.c ****    io->pin_write(1);
 400              		.loc 1 174 0
 401 0036 6420     		mov	r0, #100
 402 0038 FFF7FEFF 		bl	CyDelayUs
 403              	.LVL62:
 175:one_wire/DS18B20.c ****    
 404              		.loc 1 175 0
 405 003c 0120     		mov	r0, #1
 406 003e 7368     		ldr	r3, [r6, #4]
 407 0040 9847     		blx	r3
 408              	.LVL63:
 409 0042 0134     		add	r4, r4, #1
 410              	.LVL64:
 177:one_wire/DS18B20.c **** }
 411              		.loc 1 177 0
 412 0044 381C     		mov	r0, r7
 413 0046 FFF7FEFF 		bl	CyExitCriticalSection
 414              	.LVL65:
 415              	.LBE16:
 416              	.LBE19:
 219:one_wire/DS18B20.c ****    {
 417              		.loc 1 219 0
 418 004a 082C     		cmp	r4, #8
 419 004c E1D1     		bne	.L18
 223:one_wire/DS18B20.c ****       DS1820_WriteBit(io,temp);  /* write bit in temp into */
 224:one_wire/DS18B20.c ****    }
 225:one_wire/DS18B20.c **** 
 226:one_wire/DS18B20.c ****    CyDelayUs(105);
 420              		.loc 1 226 0
 421 004e 6920     		mov	r0, #105
 422 0050 FFF7FEFF 		bl	CyDelayUs
 423              	.LVL66:
 227:one_wire/DS18B20.c **** }
 424              		.loc 1 227 0
 425              		@ sp needed
 426              	.LVL67:
ARM GAS  C:\Users\glenn\AppData\Local\Temp\cc3rYttq.s 			page 13


 427              	.LVL68:
 428              	.LVL69:
 429 0054 0CBC     		pop	{r2, r3}
 430 0056 9046     		mov	r8, r2
 431 0058 9946     		mov	r9, r3
 432 005a F8BD     		pop	{r3, r4, r5, r6, r7, pc}
 433              		.cfi_endproc
 434              	.LFE66:
 435              		.size	DS1820_WriteByte, .-DS1820_WriteByte
 436              		.section	.text.DS1820_AddrDevice,"ax",%progbits
 437              		.align	2
 438              		.global	DS1820_AddrDevice
 439              		.code	16
 440              		.thumb_func
 441              		.type	DS1820_AddrDevice, %function
 442              	DS1820_AddrDevice:
 443              	.LFB67:
 228:one_wire/DS18B20.c **** 
 229:one_wire/DS18B20.c **** 
 230:one_wire/DS18B20.c **** 
 231:one_wire/DS18B20.c **** /* -------------------------------------------------------------------------- */
 232:one_wire/DS18B20.c **** /*                             API Interface                                  */
 233:one_wire/DS18B20.c **** /* -------------------------------------------------------------------------- */
 234:one_wire/DS18B20.c **** 
 235:one_wire/DS18B20.c **** 
 236:one_wire/DS18B20.c **** /*******************************************************************************
 237:one_wire/DS18B20.c ****  * FUNCTION:   DS1820_AddrDevice
 238:one_wire/DS18B20.c ****  * PURPOSE:    Addresses a single or all devices on the 1-wire bus.
 239:one_wire/DS18B20.c ****  *
 240:one_wire/DS18B20.c ****  * INPUT:      nAddrMethod       use DS1820_CMD_MATCHROM to select a single
 241:one_wire/DS18B20.c ****  *                               device or DS1820_CMD_SKIPROM to select all
 242:one_wire/DS18B20.c ****  * OUTPUT:     -
 243:one_wire/DS18B20.c ****  * RETURN:     -
 244:one_wire/DS18B20.c ****  ******************************************************************************/
 245:one_wire/DS18B20.c **** void DS1820_AddrDevice(ONE_WIRE_IO *io,ONE_WIRE_ADDRESS *addr)
 246:one_wire/DS18B20.c **** {
 444              		.loc 1 246 0
 445              		.cfi_startproc
 446              	.LVL70:
 447 0000 F8B5     		push	{r3, r4, r5, r6, r7, lr}
 448              		.cfi_def_cfa_offset 24
 449              		.cfi_offset 3, -24
 450              		.cfi_offset 4, -20
 451              		.cfi_offset 5, -16
 452              		.cfi_offset 6, -12
 453              		.cfi_offset 7, -8
 454              		.cfi_offset 14, -4
 455              	.LBB28:
 456              	.LBB29:
 221:one_wire/DS18B20.c ****       temp &= 0x01;           /* copy that bit to temp */
 457              		.loc 1 221 0
 458 0002 5523     		mov	r3, #85
 459              	.LBE29:
 460              	.LBE28:
 461              		.loc 1 246 0
 462 0004 5646     		mov	r6, r10
 463 0006 4446     		mov	r4, r8
ARM GAS  C:\Users\glenn\AppData\Local\Temp\cc3rYttq.s 			page 14


 464 0008 4D46     		mov	r5, r9
 465 000a 5F46     		mov	r7, fp
 466              	.LBB40:
 467              	.LBB38:
 221:one_wire/DS18B20.c ****       temp &= 0x01;           /* copy that bit to temp */
 468              		.loc 1 221 0
 469 000c 9A46     		mov	r10, r3
 222:one_wire/DS18B20.c ****       DS1820_WriteBit(io,temp);  /* write bit in temp into */
 470              		.loc 1 222 0
 471 000e 543B     		sub	r3, r3, #84
 472              	.LBE38:
 473              	.LBE40:
 474              		.loc 1 246 0
 475 0010 F0B4     		push	{r4, r5, r6, r7}
 476              		.cfi_def_cfa_offset 40
 477              		.cfi_offset 8, -40
 478              		.cfi_offset 9, -36
 479              		.cfi_offset 10, -32
 480              		.cfi_offset 11, -28
 481              		.loc 1 246 0
 482 0012 8946     		mov	r9, r1
 483 0014 061C     		mov	r6, r0
 484              	.LVL71:
 485 0016 0024     		mov	r4, #0
 486              	.LBB41:
 487              	.LBB39:
 222:one_wire/DS18B20.c ****       DS1820_WriteBit(io,temp);  /* write bit in temp into */
 488              		.loc 1 222 0
 489 0018 9846     		mov	r8, r3
 490              	.LVL72:
 491              	.L25:
 492              	.LBB30:
 493              	.LBB31:
 164:one_wire/DS18B20.c ****     
 494              		.loc 1 164 0
 495 001a FFF7FEFF 		bl	CyEnterCriticalSection
 496              	.LVL73:
 497              	.LBE31:
 498              	.LBE30:
 221:one_wire/DS18B20.c ****       temp &= 0x01;           /* copy that bit to temp */
 499              		.loc 1 221 0
 500 001e 5546     		mov	r5, r10
 501              	.LBB35:
 502              	.LBB32:
 166:one_wire/DS18B20.c ****    CyDelayUs(DS1820_MSTR_BITSTART);
 503              		.loc 1 166 0
 504 0020 7368     		ldr	r3, [r6, #4]
 164:one_wire/DS18B20.c ****     
 505              		.loc 1 164 0
 506 0022 071C     		mov	r7, r0
 166:one_wire/DS18B20.c ****    CyDelayUs(DS1820_MSTR_BITSTART);
 507              		.loc 1 166 0
 508 0024 0020     		mov	r0, #0
 509 0026 9847     		blx	r3
 510              	.LVL74:
 511              	.LBE32:
 512              	.LBE35:
ARM GAS  C:\Users\glenn\AppData\Local\Temp\cc3rYttq.s 			page 15


 221:one_wire/DS18B20.c ****       temp &= 0x01;           /* copy that bit to temp */
 513              		.loc 1 221 0
 514 0028 2541     		asr	r5, r5, r4
 515              	.LBB36:
 516              	.LBB33:
 167:one_wire/DS18B20.c **** 
 517              		.loc 1 167 0
 518 002a 0220     		mov	r0, #2
 519 002c FFF7FEFF 		bl	CyDelayUs
 520              	.LVL75:
 169:one_wire/DS18B20.c ****    {
 521              		.loc 1 169 0
 522 0030 4346     		mov	r3, r8
 523              	.LBE33:
 524              	.LBE36:
 221:one_wire/DS18B20.c ****       temp &= 0x01;           /* copy that bit to temp */
 525              		.loc 1 221 0
 526 0032 EDB2     		uxtb	r5, r5
 527              	.LVL76:
 528              	.LBB37:
 529              	.LBB34:
 169:one_wire/DS18B20.c ****    {
 530              		.loc 1 169 0
 531 0034 2B42     		tst	r3, r5
 532 0036 02D0     		beq	.L24
 171:one_wire/DS18B20.c ****    }
 533              		.loc 1 171 0
 534 0038 0120     		mov	r0, #1
 535 003a 7368     		ldr	r3, [r6, #4]
 536 003c 9847     		blx	r3
 537              	.LVL77:
 538              	.L24:
 174:one_wire/DS18B20.c ****    io->pin_write(1);
 539              		.loc 1 174 0
 540 003e 6420     		mov	r0, #100
 541 0040 FFF7FEFF 		bl	CyDelayUs
 542              	.LVL78:
 175:one_wire/DS18B20.c ****    
 543              		.loc 1 175 0
 544 0044 0120     		mov	r0, #1
 545 0046 7368     		ldr	r3, [r6, #4]
 546 0048 9847     		blx	r3
 547              	.LVL79:
 548 004a 0134     		add	r4, r4, #1
 549              	.LVL80:
 177:one_wire/DS18B20.c **** }
 550              		.loc 1 177 0
 551 004c 381C     		mov	r0, r7
 552 004e FFF7FEFF 		bl	CyExitCriticalSection
 553              	.LVL81:
 554              	.LBE34:
 555              	.LBE37:
 219:one_wire/DS18B20.c ****    {
 556              		.loc 1 219 0
 557 0052 082C     		cmp	r4, #8
 558 0054 E1D1     		bne	.L25
 226:one_wire/DS18B20.c **** }
ARM GAS  C:\Users\glenn\AppData\Local\Temp\cc3rYttq.s 			page 16


 559              		.loc 1 226 0
 560 0056 6920     		mov	r0, #105
 561 0058 FFF7FEFF 		bl	CyDelayUs
 562              	.LVL82:
 563 005c 0823     		mov	r3, #8
 564 005e 4B44     		add	r3, r3, r9
 565 0060 9A46     		mov	r10, r3
 566              	.LBE39:
 567              	.LBE41:
 568              	.LBB42:
 569              	.LBB43:
 222:one_wire/DS18B20.c ****       DS1820_WriteBit(io,temp);  /* write bit in temp into */
 570              		.loc 1 222 0
 571 0062 0123     		mov	r3, #1
 572 0064 9846     		mov	r8, r3
 573              	.LVL83:
 574              	.L28:
 575 0066 4B46     		mov	r3, r9
 576              	.LBE43:
 577              	.LBE42:
 247:one_wire/DS18B20.c ****    uint8 i;
 248:one_wire/DS18B20.c ****    
 249:one_wire/DS18B20.c ****       DS1820_WriteByte(io,DS1820_CMD_MATCHROM);     /* address single devices on bus */
 250:one_wire/DS18B20.c ****       for (i = 0; i < DS1820_ADDR_LEN; i ++)
 251:one_wire/DS18B20.c ****       {
 252:one_wire/DS18B20.c ****          DS1820_WriteByte(io,addr->nRomAddr_au8[i]);
 578              		.loc 1 252 0 discriminator 3
 579 0068 0024     		mov	r4, #0
 580 006a 1F78     		ldrb	r7, [r3]
 581              	.LVL84:
 582              	.L27:
 583              	.LBB53:
 584              	.LBB52:
 585              	.LBB44:
 586              	.LBB45:
 164:one_wire/DS18B20.c ****     
 587              		.loc 1 164 0
 588 006c FFF7FEFF 		bl	CyEnterCriticalSection
 589              	.LVL85:
 590              	.LBE45:
 591              	.LBE44:
 221:one_wire/DS18B20.c ****       temp &= 0x01;           /* copy that bit to temp */
 592              		.loc 1 221 0
 593 0070 3D1C     		mov	r5, r7
 594              	.LBB49:
 595              	.LBB46:
 166:one_wire/DS18B20.c ****    CyDelayUs(DS1820_MSTR_BITSTART);
 596              		.loc 1 166 0
 597 0072 7368     		ldr	r3, [r6, #4]
 164:one_wire/DS18B20.c ****     
 598              		.loc 1 164 0
 599 0074 8346     		mov	fp, r0
 166:one_wire/DS18B20.c ****    CyDelayUs(DS1820_MSTR_BITSTART);
 600              		.loc 1 166 0
 601 0076 0020     		mov	r0, #0
 602 0078 9847     		blx	r3
 603              	.LVL86:
ARM GAS  C:\Users\glenn\AppData\Local\Temp\cc3rYttq.s 			page 17


 604              	.LBE46:
 605              	.LBE49:
 221:one_wire/DS18B20.c ****       temp &= 0x01;           /* copy that bit to temp */
 606              		.loc 1 221 0
 607 007a 2541     		asr	r5, r5, r4
 608              	.LBB50:
 609              	.LBB47:
 167:one_wire/DS18B20.c **** 
 610              		.loc 1 167 0
 611 007c 0220     		mov	r0, #2
 612 007e FFF7FEFF 		bl	CyDelayUs
 613              	.LVL87:
 169:one_wire/DS18B20.c ****    {
 614              		.loc 1 169 0
 615 0082 4346     		mov	r3, r8
 616              	.LBE47:
 617              	.LBE50:
 221:one_wire/DS18B20.c ****       temp &= 0x01;           /* copy that bit to temp */
 618              		.loc 1 221 0
 619 0084 EDB2     		uxtb	r5, r5
 620              	.LVL88:
 621              	.LBB51:
 622              	.LBB48:
 169:one_wire/DS18B20.c ****    {
 623              		.loc 1 169 0
 624 0086 2B42     		tst	r3, r5
 625 0088 02D0     		beq	.L26
 171:one_wire/DS18B20.c ****    }
 626              		.loc 1 171 0
 627 008a 0120     		mov	r0, #1
 628 008c 7368     		ldr	r3, [r6, #4]
 629 008e 9847     		blx	r3
 630              	.LVL89:
 631              	.L26:
 174:one_wire/DS18B20.c ****    io->pin_write(1);
 632              		.loc 1 174 0
 633 0090 6420     		mov	r0, #100
 634 0092 FFF7FEFF 		bl	CyDelayUs
 635              	.LVL90:
 175:one_wire/DS18B20.c ****    
 636              		.loc 1 175 0
 637 0096 0120     		mov	r0, #1
 638 0098 7368     		ldr	r3, [r6, #4]
 639 009a 9847     		blx	r3
 640              	.LVL91:
 641 009c 0134     		add	r4, r4, #1
 642              	.LVL92:
 177:one_wire/DS18B20.c **** }
 643              		.loc 1 177 0
 644 009e 5846     		mov	r0, fp
 645 00a0 FFF7FEFF 		bl	CyExitCriticalSection
 646              	.LVL93:
 647              	.LBE48:
 648              	.LBE51:
 219:one_wire/DS18B20.c ****    {
 649              		.loc 1 219 0
 650 00a4 082C     		cmp	r4, #8
ARM GAS  C:\Users\glenn\AppData\Local\Temp\cc3rYttq.s 			page 18


 651 00a6 E1D1     		bne	.L27
 226:one_wire/DS18B20.c **** }
 652              		.loc 1 226 0
 653 00a8 6920     		mov	r0, #105
 654 00aa FFF7FEFF 		bl	CyDelayUs
 655              	.LVL94:
 656 00ae 0123     		mov	r3, #1
 657 00b0 9C46     		mov	ip, r3
 658 00b2 E144     		add	r9, r9, ip
 659              	.LVL95:
 660              	.LBE52:
 661              	.LBE53:
 250:one_wire/DS18B20.c ****       {
 662              		.loc 1 250 0
 663 00b4 D145     		cmp	r9, r10
 664 00b6 D6D1     		bne	.L28
 253:one_wire/DS18B20.c ****       }
 254:one_wire/DS18B20.c ****  
 255:one_wire/DS18B20.c **** }
 665              		.loc 1 255 0
 666              		@ sp needed
 667              	.LVL96:
 668              	.LVL97:
 669              	.LVL98:
 670              	.LVL99:
 671 00b8 3CBC     		pop	{r2, r3, r4, r5}
 672 00ba 9046     		mov	r8, r2
 673 00bc 9946     		mov	r9, r3
 674 00be A246     		mov	r10, r4
 675 00c0 AB46     		mov	fp, r5
 676 00c2 F8BD     		pop	{r3, r4, r5, r6, r7, pc}
 677              		.cfi_endproc
 678              	.LFE67:
 679              		.size	DS1820_AddrDevice, .-DS1820_AddrDevice
 680              		.section	.text.DS1820_FindNextDevice,"ax",%progbits
 681              		.align	2
 682              		.global	DS1820_FindNextDevice
 683              		.code	16
 684              		.thumb_func
 685              		.type	DS1820_FindNextDevice, %function
 686              	DS1820_FindNextDevice:
 687              	.LFB68:
 256:one_wire/DS18B20.c **** 
 257:one_wire/DS18B20.c **** 
 258:one_wire/DS18B20.c **** /*******************************************************************************
 259:one_wire/DS18B20.c ****  * FUNCTION:   DS1820_FindNextDevice
 260:one_wire/DS18B20.c ****  * PURPOSE:    Finds next device connected to the 1-wire bus.
 261:one_wire/DS18B20.c ****  *
 262:one_wire/DS18B20.c ****  * INPUT:      -
 263:one_wire/DS18B20.c ****  * OUTPUT:     nRomAddr_au8[]       ROM code of the next device
 264:one_wire/DS18B20.c ****  * RETURN:     bool                 TRUE if there are more devices on the 1-wire
 265:one_wire/DS18B20.c ****  *                                  bus, FALSE otherwise
 266:one_wire/DS18B20.c ****  ******************************************************************************/
 267:one_wire/DS18B20.c **** uint8 DS1820_FindNextDevice(ONE_WIRE_IO *io,ONE_WIRE_ADDRESS *addr)
 268:one_wire/DS18B20.c **** {
 688              		.loc 1 268 0
 689              		.cfi_startproc
ARM GAS  C:\Users\glenn\AppData\Local\Temp\cc3rYttq.s 			page 19


 690              	.LVL100:
 691 0000 F0B5     		push	{r4, r5, r6, r7, lr}
 692              		.cfi_def_cfa_offset 20
 693              		.cfi_offset 4, -20
 694              		.cfi_offset 5, -16
 695              		.cfi_offset 6, -12
 696              		.cfi_offset 7, -8
 697              		.cfi_offset 14, -4
 698 0002 4D46     		mov	r5, r9
 699 0004 4446     		mov	r4, r8
 700 0006 5F46     		mov	r7, fp
 701 0008 5646     		mov	r6, r10
 269:one_wire/DS18B20.c ****     uint8 state_u8;
 270:one_wire/DS18B20.c ****     uint8 byteidx_u8;
 271:one_wire/DS18B20.c ****     uint8 mask_u8 = 1;
 272:one_wire/DS18B20.c ****     uint8 bitpos_u8 = 1;
 273:one_wire/DS18B20.c ****     uint8 nDiscrepancyMarker_u8 = 0;
 274:one_wire/DS18B20.c ****     uint8 bit_b;
 275:one_wire/DS18B20.c ****     uint8 bStatus;
 276:one_wire/DS18B20.c ****     uint8 next_b = 0; //FALSE;
 277:one_wire/DS18B20.c ****     uint8 crc8;
 278:one_wire/DS18B20.c **** 
 279:one_wire/DS18B20.c ****     /* init ROM address */
 280:one_wire/DS18B20.c ****     for (byteidx_u8=0; byteidx_u8 < 8; byteidx_u8 ++)
 281:one_wire/DS18B20.c ****     {
 282:one_wire/DS18B20.c ****         addr->nRomAddr_au8[byteidx_u8] = 0x00;
 702              		.loc 1 282 0
 703 000a 0022     		mov	r2, #0
 268:one_wire/DS18B20.c ****     uint8 state_u8;
 704              		.loc 1 268 0
 705 000c F0B4     		push	{r4, r5, r6, r7}
 706              		.cfi_def_cfa_offset 36
 707              		.cfi_offset 8, -36
 708              		.cfi_offset 9, -32
 709              		.cfi_offset 10, -28
 710              		.cfi_offset 11, -24
 711 000e 041C     		mov	r4, r0
 712 0010 8946     		mov	r9, r1
 713 0012 0B1C     		mov	r3, r1
 714 0014 83B0     		sub	sp, sp, #12
 715              		.cfi_def_cfa_offset 48
 716 0016 0831     		add	r1, r1, #8
 717              	.LVL101:
 718              	.L39:
 719              		.loc 1 282 0 discriminator 3
 720 0018 1A70     		strb	r2, [r3]
 721              	.LVL102:
 722 001a 0133     		add	r3, r3, #1
 723              	.LVL103:
 280:one_wire/DS18B20.c ****     {
 724              		.loc 1 280 0 discriminator 3
 725 001c 8B42     		cmp	r3, r1
 726 001e FBD1     		bne	.L39
 727              	.LVL104:
 728              	.LBB70:
 729              	.LBB71:
 103:one_wire/DS18B20.c ****    
ARM GAS  C:\Users\glenn\AppData\Local\Temp\cc3rYttq.s 			page 20


 730              		.loc 1 103 0
 731 0020 FFF7FEFF 		bl	CyEnterCriticalSection
 732              	.LVL105:
 106:one_wire/DS18B20.c ****    CyDelayUs(DS1820_RST_PULSE);
 733              		.loc 1 106 0
 734 0024 6368     		ldr	r3, [r4, #4]
 103:one_wire/DS18B20.c ****    
 735              		.loc 1 103 0
 736 0026 061C     		mov	r6, r0
 737              	.LVL106:
 106:one_wire/DS18B20.c ****    CyDelayUs(DS1820_RST_PULSE);
 738              		.loc 1 106 0
 739 0028 0020     		mov	r0, #0
 740 002a 9847     		blx	r3
 741              	.LVL107:
 107:one_wire/DS18B20.c ****    io->pin_write(1);
 742              		.loc 1 107 0
 743 002c F020     		mov	r0, #240
 744 002e 4000     		lsl	r0, r0, #1
 745 0030 FFF7FEFF 		bl	CyDelayUs
 746              	.LVL108:
 108:one_wire/DS18B20.c **** 
 747              		.loc 1 108 0
 748 0034 6368     		ldr	r3, [r4, #4]
 749 0036 0120     		mov	r0, #1
 750 0038 9847     		blx	r3
 751              	.LVL109:
 111:one_wire/DS18B20.c **** 
 752              		.loc 1 111 0
 753 003a 2820     		mov	r0, #40
 754 003c FFF7FEFF 		bl	CyDelayUs
 755              	.LVL110:
 114:one_wire/DS18B20.c **** 
 756              		.loc 1 114 0
 757 0040 2368     		ldr	r3, [r4]
 758 0042 9847     		blx	r3
 759              	.LVL111:
 760 0044 051C     		mov	r5, r0
 761              	.LVL112:
 116:one_wire/DS18B20.c ****    
 762              		.loc 1 116 0
 763 0046 D420     		mov	r0, #212
 764 0048 4000     		lsl	r0, r0, #1
 765 004a FFF7FEFF 		bl	CyDelayUs
 766              	.LVL113:
 118:one_wire/DS18B20.c **** 
 767              		.loc 1 118 0
 768 004e 301C     		mov	r0, r6
 769 0050 FFF7FEFF 		bl	CyExitCriticalSection
 770              	.LVL114:
 771 0054 7A4B     		ldr	r3, .L79
 772 0056 0093     		str	r3, [sp]
 773              	.LBE71:
 774              	.LBE70:
 283:one_wire/DS18B20.c ****     }
 284:one_wire/DS18B20.c **** 
 285:one_wire/DS18B20.c ****     bStatus = DS1820_Reset(io);        /* reset the 1-wire */
ARM GAS  C:\Users\glenn\AppData\Local\Temp\cc3rYttq.s 			page 21


 286:one_wire/DS18B20.c **** 
 287:one_wire/DS18B20.c ****     if (bStatus || bDoneFlag)        /* no device found */
 775              		.loc 1 287 0
 776 0058 002D     		cmp	r5, #0
 777 005a 02D1     		bne	.L40
 778              		.loc 1 287 0 is_stmt 0 discriminator 1
 779 005c 1B78     		ldrb	r3, [r3]
 780 005e 002B     		cmp	r3, #0
 781 0060 0AD0     		beq	.L41
 782              	.LVL115:
 783              	.L40:
 288:one_wire/DS18B20.c ****     {
 289:one_wire/DS18B20.c ****         nLastDiscrepancy_u8 = 0;     /* reset the search */
 784              		.loc 1 289 0 is_stmt 1
 785 0062 0023     		mov	r3, #0
 290:one_wire/DS18B20.c ****         return 0; //FALSE;
 786              		.loc 1 290 0
 787 0064 0020     		mov	r0, #0
 289:one_wire/DS18B20.c ****         return 0; //FALSE;
 788              		.loc 1 289 0
 789 0066 009A     		ldr	r2, [sp]
 790 0068 5370     		strb	r3, [r2, #1]
 791              	.LVL116:
 792              	.L73:
 291:one_wire/DS18B20.c ****     }
 292:one_wire/DS18B20.c **** 
 293:one_wire/DS18B20.c ****     /* send search rom command */
 294:one_wire/DS18B20.c ****     DS1820_WriteByte(io,DS1820_CMD_SEARCHROM);
 295:one_wire/DS18B20.c **** 
 296:one_wire/DS18B20.c ****     byteidx_u8 = 0;
 297:one_wire/DS18B20.c ****     do
 298:one_wire/DS18B20.c ****     {
 299:one_wire/DS18B20.c ****         state_u8 = 0;
 300:one_wire/DS18B20.c **** 
 301:one_wire/DS18B20.c ****         /* read bit */
 302:one_wire/DS18B20.c ****         if ( DS1820_ReadBit(io) != 0 )
 303:one_wire/DS18B20.c ****         {
 304:one_wire/DS18B20.c ****             state_u8 = 2;
 305:one_wire/DS18B20.c ****         }
 306:one_wire/DS18B20.c ****         CyDelayUs(120);
 307:one_wire/DS18B20.c **** 
 308:one_wire/DS18B20.c ****         /* read bit complement */
 309:one_wire/DS18B20.c ****         if ( DS1820_ReadBit(io) != 0 )
 310:one_wire/DS18B20.c ****         {
 311:one_wire/DS18B20.c ****             state_u8 |= 1;
 312:one_wire/DS18B20.c ****         }
 313:one_wire/DS18B20.c ****         CyDelayUs(120);
 314:one_wire/DS18B20.c **** 
 315:one_wire/DS18B20.c ****         /* description for values of state_u8: */
 316:one_wire/DS18B20.c ****         /* 00    There are devices connected to the bus which have conflicting */
 317:one_wire/DS18B20.c ****         /*       bits in the current ROM code bit position. */
 318:one_wire/DS18B20.c ****         /* 01    All devices connected to the bus have a 0 in this bit position. */
 319:one_wire/DS18B20.c ****         /* 10    All devices connected to the bus have a 1 in this bit position. */
 320:one_wire/DS18B20.c ****         /* 11    There are no devices connected to the 1-wire bus. */
 321:one_wire/DS18B20.c **** 
 322:one_wire/DS18B20.c ****         /* if there are no devices on the bus */
 323:one_wire/DS18B20.c ****         if (state_u8 == 3)
ARM GAS  C:\Users\glenn\AppData\Local\Temp\cc3rYttq.s 			page 22


 324:one_wire/DS18B20.c ****         {
 325:one_wire/DS18B20.c ****             break;
 326:one_wire/DS18B20.c ****         }
 327:one_wire/DS18B20.c ****         else
 328:one_wire/DS18B20.c ****         {
 329:one_wire/DS18B20.c ****             /* devices have the same logical value at this position */
 330:one_wire/DS18B20.c ****             if (state_u8 > 0)
 331:one_wire/DS18B20.c ****             {
 332:one_wire/DS18B20.c ****                 /* get bit value */
 333:one_wire/DS18B20.c ****                 bit_b = (uint8)(state_u8 >> 1);
 334:one_wire/DS18B20.c ****             }
 335:one_wire/DS18B20.c ****             /* devices have confilcting bits in the current ROM code */
 336:one_wire/DS18B20.c ****             else
 337:one_wire/DS18B20.c ****             {
 338:one_wire/DS18B20.c ****                 /* if there was a conflict on the last iteration */
 339:one_wire/DS18B20.c ****                 if (bitpos_u8 < nLastDiscrepancy_u8)
 340:one_wire/DS18B20.c ****                 {
 341:one_wire/DS18B20.c ****                     /* take same bit as in last iteration */
 342:one_wire/DS18B20.c ****                     bit_b = ( (addr->nRomAddr_au8[byteidx_u8] & mask_u8) > 0 );
 343:one_wire/DS18B20.c ****                 }
 344:one_wire/DS18B20.c ****                 else
 345:one_wire/DS18B20.c ****                 {
 346:one_wire/DS18B20.c ****                     bit_b = (bitpos_u8 == nLastDiscrepancy_u8);
 347:one_wire/DS18B20.c ****                 }
 348:one_wire/DS18B20.c **** 
 349:one_wire/DS18B20.c ****                 if (bit_b == 0)
 350:one_wire/DS18B20.c ****                 {
 351:one_wire/DS18B20.c ****                     nDiscrepancyMarker_u8 = bitpos_u8;
 352:one_wire/DS18B20.c ****                 }
 353:one_wire/DS18B20.c ****             }
 354:one_wire/DS18B20.c **** 
 355:one_wire/DS18B20.c ****             /* store bit in ROM address */
 356:one_wire/DS18B20.c ****            if (bit_b != 0)
 357:one_wire/DS18B20.c ****            {
 358:one_wire/DS18B20.c ****                addr->nRomAddr_au8[byteidx_u8] |= mask_u8;
 359:one_wire/DS18B20.c ****            }
 360:one_wire/DS18B20.c ****            else
 361:one_wire/DS18B20.c ****            {
 362:one_wire/DS18B20.c ****                addr->nRomAddr_au8[byteidx_u8] &= ~mask_u8;
 363:one_wire/DS18B20.c ****            }
 364:one_wire/DS18B20.c **** 
 365:one_wire/DS18B20.c ****            DS1820_WriteBit(io,bit_b);
 366:one_wire/DS18B20.c **** 
 367:one_wire/DS18B20.c ****            /* increment bit position */
 368:one_wire/DS18B20.c ****            bitpos_u8 ++;
 369:one_wire/DS18B20.c **** 
 370:one_wire/DS18B20.c ****            /* calculate next mask value */
 371:one_wire/DS18B20.c ****            mask_u8 = mask_u8 << 1;
 372:one_wire/DS18B20.c **** 
 373:one_wire/DS18B20.c ****            /* check if this byte has finished */
 374:one_wire/DS18B20.c ****            if (mask_u8 == 0)
 375:one_wire/DS18B20.c ****            {
 376:one_wire/DS18B20.c ****                byteidx_u8 ++;  /* advance to next byte of ROM mask */
 377:one_wire/DS18B20.c ****                mask_u8 = 1;    /* update mask */
 378:one_wire/DS18B20.c ****            }
 379:one_wire/DS18B20.c ****         }
 380:one_wire/DS18B20.c ****     } while (byteidx_u8 < DS1820_ADDR_LEN);
ARM GAS  C:\Users\glenn\AppData\Local\Temp\cc3rYttq.s 			page 23


 381:one_wire/DS18B20.c **** 
 382:one_wire/DS18B20.c **** 
 383:one_wire/DS18B20.c ****     /* if search was unsuccessful then */
 384:one_wire/DS18B20.c ****     if (bitpos_u8 < 65)
 385:one_wire/DS18B20.c ****     {
 386:one_wire/DS18B20.c ****         /* reset the last discrepancy to 0 */
 387:one_wire/DS18B20.c ****         nLastDiscrepancy_u8 = 0;
 388:one_wire/DS18B20.c ****     }
 389:one_wire/DS18B20.c ****     else
 390:one_wire/DS18B20.c ****     {
 391:one_wire/DS18B20.c ****         /* search was successful */
 392:one_wire/DS18B20.c ****         nLastDiscrepancy_u8 = nDiscrepancyMarker_u8;
 393:one_wire/DS18B20.c ****         bDoneFlag = (nLastDiscrepancy_u8 == 0);
 394:one_wire/DS18B20.c **** 
 395:one_wire/DS18B20.c ****         /* indicates search is not complete yet, more parts remain */
 396:one_wire/DS18B20.c ****         next_b = 1 ; //TRUE;
 397:one_wire/DS18B20.c ****         // lets check crc on rom code
 398:one_wire/DS18B20.c ****         crc8 = compute_crc8(&addr->nRomAddr_au8[0], 7);
 399:one_wire/DS18B20.c ****         if( crc8 == addr->nRomAddr_au8[7] )
 400:one_wire/DS18B20.c ****         {
 401:one_wire/DS18B20.c ****             next_b = 1; // crc passed
 402:one_wire/DS18B20.c ****         }
 403:one_wire/DS18B20.c ****         else
 404:one_wire/DS18B20.c ****         {
 405:one_wire/DS18B20.c ****             next_b = 0;  // crc failed
 406:one_wire/DS18B20.c ****         }
 407:one_wire/DS18B20.c ****     }
 408:one_wire/DS18B20.c **** 
 409:one_wire/DS18B20.c ****     return next_b;
 410:one_wire/DS18B20.c **** }
 793              		.loc 1 410 0
 794 006a 03B0     		add	sp, sp, #12
 795              		@ sp needed
 796              	.LVL117:
 797 006c 3CBC     		pop	{r2, r3, r4, r5}
 798 006e 9046     		mov	r8, r2
 799 0070 9946     		mov	r9, r3
 800 0072 A246     		mov	r10, r4
 801 0074 AB46     		mov	fp, r5
 802 0076 F0BD     		pop	{r4, r5, r6, r7, pc}
 803              	.LVL118:
 804              	.L41:
 805              	.LBB72:
 806              	.LBB73:
 807              	.LBB74:
 808              	.LBB75:
 809              	.LBB76:
 810              	.LBB77:
 164:one_wire/DS18B20.c ****     
 811              		.loc 1 164 0
 812 0078 FFF7FEFF 		bl	CyEnterCriticalSection
 813              	.LVL119:
 166:one_wire/DS18B20.c ****    CyDelayUs(DS1820_MSTR_BITSTART);
 814              		.loc 1 166 0
 815 007c 6368     		ldr	r3, [r4, #4]
 164:one_wire/DS18B20.c ****     
 816              		.loc 1 164 0
ARM GAS  C:\Users\glenn\AppData\Local\Temp\cc3rYttq.s 			page 24


 817 007e 071C     		mov	r7, r0
 818              	.LVL120:
 166:one_wire/DS18B20.c ****    CyDelayUs(DS1820_MSTR_BITSTART);
 819              		.loc 1 166 0
 820 0080 0020     		mov	r0, #0
 821              	.LVL121:
 822 0082 9847     		blx	r3
 823              	.LVL122:
 167:one_wire/DS18B20.c **** 
 824              		.loc 1 167 0
 825 0084 0220     		mov	r0, #2
 826 0086 FFF7FEFF 		bl	CyDelayUs
 827              	.LVL123:
 828              	.LBE77:
 829              	.LBE76:
 221:one_wire/DS18B20.c ****       temp &= 0x01;           /* copy that bit to temp */
 830              		.loc 1 221 0
 831 008a F023     		mov	r3, #240
 832              	.LBB83:
 833              	.LBB78:
 167:one_wire/DS18B20.c **** 
 834              		.loc 1 167 0
 835 008c 0125     		mov	r5, #1
 836              	.LVL124:
 837              	.LBE78:
 838              	.LBE83:
 221:one_wire/DS18B20.c ****       temp &= 0x01;           /* copy that bit to temp */
 839              		.loc 1 221 0
 840 008e 9846     		mov	r8, r3
 841              	.LVL125:
 842              	.L59:
 843              	.LBB84:
 844              	.LBB79:
 174:one_wire/DS18B20.c ****    io->pin_write(1);
 845              		.loc 1 174 0
 846 0090 6420     		mov	r0, #100
 847 0092 FFF7FEFF 		bl	CyDelayUs
 848              	.LVL126:
 175:one_wire/DS18B20.c ****    
 849              		.loc 1 175 0
 850 0096 0120     		mov	r0, #1
 851 0098 6368     		ldr	r3, [r4, #4]
 852 009a 9847     		blx	r3
 853              	.LVL127:
 177:one_wire/DS18B20.c **** }
 854              		.loc 1 177 0
 855 009c 381C     		mov	r0, r7
 856 009e FFF7FEFF 		bl	CyExitCriticalSection
 857              	.LVL128:
 858              	.LBE79:
 859              	.LBE84:
 219:one_wire/DS18B20.c ****    {
 860              		.loc 1 219 0
 861 00a2 082D     		cmp	r5, #8
 862 00a4 14D0     		beq	.L76
 221:one_wire/DS18B20.c ****       temp &= 0x01;           /* copy that bit to temp */
 863              		.loc 1 221 0
ARM GAS  C:\Users\glenn\AppData\Local\Temp\cc3rYttq.s 			page 25


 864 00a6 4646     		mov	r6, r8
 865              	.LBB85:
 866              	.LBB80:
 164:one_wire/DS18B20.c ****     
 867              		.loc 1 164 0
 868 00a8 FFF7FEFF 		bl	CyEnterCriticalSection
 869              	.LVL129:
 870              	.LBE80:
 871              	.LBE85:
 221:one_wire/DS18B20.c ****       temp &= 0x01;           /* copy that bit to temp */
 872              		.loc 1 221 0
 873 00ac 2E41     		asr	r6, r6, r5
 874              	.LBB86:
 875              	.LBB81:
 166:one_wire/DS18B20.c ****    CyDelayUs(DS1820_MSTR_BITSTART);
 876              		.loc 1 166 0
 877 00ae 6368     		ldr	r3, [r4, #4]
 164:one_wire/DS18B20.c ****     
 878              		.loc 1 164 0
 879 00b0 071C     		mov	r7, r0
 166:one_wire/DS18B20.c ****    CyDelayUs(DS1820_MSTR_BITSTART);
 880              		.loc 1 166 0
 881 00b2 0020     		mov	r0, #0
 882 00b4 9847     		blx	r3
 883              	.LVL130:
 884              	.LBE81:
 885              	.LBE86:
 221:one_wire/DS18B20.c ****       temp &= 0x01;           /* copy that bit to temp */
 886              		.loc 1 221 0
 887 00b6 F6B2     		uxtb	r6, r6
 888              	.LVL131:
 889              	.LBB87:
 890              	.LBB82:
 167:one_wire/DS18B20.c **** 
 891              		.loc 1 167 0
 892 00b8 0220     		mov	r0, #2
 893 00ba FFF7FEFF 		bl	CyDelayUs
 894              	.LVL132:
 169:one_wire/DS18B20.c ****    {
 895              		.loc 1 169 0
 896 00be F307     		lsl	r3, r6, #31
 897 00c0 01D4     		bmi	.L77
 898 00c2 0135     		add	r5, r5, #1
 899              	.LVL133:
 900 00c4 E4E7     		b	.L59
 901              	.LVL134:
 902              	.L77:
 171:one_wire/DS18B20.c ****    }
 903              		.loc 1 171 0
 904 00c6 0120     		mov	r0, #1
 905 00c8 6368     		ldr	r3, [r4, #4]
 906 00ca 9847     		blx	r3
 907              	.LVL135:
 908 00cc 0135     		add	r5, r5, #1
 909              	.LVL136:
 910 00ce DFE7     		b	.L59
 911              	.LVL137:
ARM GAS  C:\Users\glenn\AppData\Local\Temp\cc3rYttq.s 			page 26


 912              	.L76:
 913              	.LBE82:
 914              	.LBE87:
 226:one_wire/DS18B20.c **** }
 915              		.loc 1 226 0
 916 00d0 6920     		mov	r0, #105
 917 00d2 FFF7FEFF 		bl	CyDelayUs
 918              	.LVL138:
 919              	.LBE75:
 920              	.LBE74:
 273:one_wire/DS18B20.c ****     uint8 bit_b;
 921              		.loc 1 273 0
 922 00d6 0023     		mov	r3, #0
 272:one_wire/DS18B20.c ****     uint8 nDiscrepancyMarker_u8 = 0;
 923              		.loc 1 272 0
 924 00d8 0127     		mov	r7, #1
 273:one_wire/DS18B20.c ****     uint8 bit_b;
 925              		.loc 1 273 0
 926 00da 0193     		str	r3, [sp, #4]
 271:one_wire/DS18B20.c ****     uint8 bitpos_u8 = 1;
 927              		.loc 1 271 0
 928 00dc 0126     		mov	r6, #1
 296:one_wire/DS18B20.c ****     do
 929              		.loc 1 296 0
 930 00de 9846     		mov	r8, r3
 931 00e0 35E0     		b	.L55
 932              	.LVL139:
 933              	.L78:
 311:one_wire/DS18B20.c ****         }
 934              		.loc 1 311 0
 935 00e2 0123     		mov	r3, #1
 936 00e4 1D43     		orr	r5, r3
 937              	.LVL140:
 938 00e6 EDB2     		uxtb	r5, r5
 939              	.LVL141:
 313:one_wire/DS18B20.c **** 
 940              		.loc 1 313 0
 941 00e8 7820     		mov	r0, #120
 942 00ea FFF7FEFF 		bl	CyDelayUs
 943              	.LVL142:
 323:one_wire/DS18B20.c ****         {
 944              		.loc 1 323 0
 945 00ee 032D     		cmp	r5, #3
 946 00f0 00D1     		bne	.LCB934
 947 00f2 89E0     		b	.L47	@long jump
 948              	.LCB934:
 949              	.L57:
 950              	.LVL143:
 951 00f4 4B46     		mov	r3, r9
 952 00f6 4246     		mov	r2, r8
 356:one_wire/DS18B20.c ****            {
 953              		.loc 1 356 0
 954 00f8 6D08     		lsr	r5, r5, #1
 955              	.LVL144:
 956 00fa 9B5C     		ldrb	r3, [r3, r2]
 957 00fc 002D     		cmp	r5, #0
 958 00fe 6DD0     		beq	.L52
ARM GAS  C:\Users\glenn\AppData\Local\Temp\cc3rYttq.s 			page 27


 959              	.L49:
 358:one_wire/DS18B20.c ****            }
 960              		.loc 1 358 0
 961 0100 4A46     		mov	r2, r9
 962 0102 4146     		mov	r1, r8
 963 0104 3343     		orr	r3, r6
 964 0106 5354     		strb	r3, [r2, r1]
 965              	.LVL145:
 966              	.LBB88:
 967              	.LBB89:
 164:one_wire/DS18B20.c ****     
 968              		.loc 1 164 0
 969 0108 FFF7FEFF 		bl	CyEnterCriticalSection
 970              	.LVL146:
 166:one_wire/DS18B20.c ****    CyDelayUs(DS1820_MSTR_BITSTART);
 971              		.loc 1 166 0
 972 010c 6368     		ldr	r3, [r4, #4]
 164:one_wire/DS18B20.c ****     
 973              		.loc 1 164 0
 974 010e 051C     		mov	r5, r0
 975              	.LVL147:
 166:one_wire/DS18B20.c ****    CyDelayUs(DS1820_MSTR_BITSTART);
 976              		.loc 1 166 0
 977 0110 0020     		mov	r0, #0
 978              	.LVL148:
 979 0112 9847     		blx	r3
 980              	.LVL149:
 167:one_wire/DS18B20.c **** 
 981              		.loc 1 167 0
 982 0114 0220     		mov	r0, #2
 983 0116 FFF7FEFF 		bl	CyDelayUs
 984              	.LVL150:
 171:one_wire/DS18B20.c ****    }
 985              		.loc 1 171 0
 986 011a 0120     		mov	r0, #1
 987 011c 6368     		ldr	r3, [r4, #4]
 988 011e 9847     		blx	r3
 989              	.LVL151:
 990              	.L53:
 174:one_wire/DS18B20.c ****    io->pin_write(1);
 991              		.loc 1 174 0
 992 0120 6420     		mov	r0, #100
 993 0122 FFF7FEFF 		bl	CyDelayUs
 994              	.LVL152:
 995              	.LBE89:
 996              	.LBE88:
 371:one_wire/DS18B20.c **** 
 997              		.loc 1 371 0
 998 0126 7600     		lsl	r6, r6, #1
 999              	.LVL153:
 1000              	.LBB94:
 1001              	.LBB90:
 175:one_wire/DS18B20.c ****    
 1002              		.loc 1 175 0
 1003 0128 0120     		mov	r0, #1
 1004 012a 6368     		ldr	r3, [r4, #4]
 1005 012c 9847     		blx	r3
ARM GAS  C:\Users\glenn\AppData\Local\Temp\cc3rYttq.s 			page 28


 1006              	.LVL154:
 1007              	.LBE90:
 1008              	.LBE94:
 368:one_wire/DS18B20.c **** 
 1009              		.loc 1 368 0
 1010 012e 0137     		add	r7, r7, #1
 1011              	.LVL155:
 1012              	.LBB95:
 1013              	.LBB91:
 177:one_wire/DS18B20.c **** }
 1014              		.loc 1 177 0
 1015 0130 281C     		mov	r0, r5
 1016              	.LBE91:
 1017              	.LBE95:
 371:one_wire/DS18B20.c **** 
 1018              		.loc 1 371 0
 1019 0132 F6B2     		uxtb	r6, r6
 1020              	.LBB96:
 1021              	.LBB92:
 177:one_wire/DS18B20.c **** }
 1022              		.loc 1 177 0
 1023 0134 FFF7FEFF 		bl	CyExitCriticalSection
 1024              	.LVL156:
 1025              	.LBE92:
 1026              	.LBE96:
 368:one_wire/DS18B20.c **** 
 1027              		.loc 1 368 0
 1028 0138 FFB2     		uxtb	r7, r7
 1029              	.LVL157:
 374:one_wire/DS18B20.c ****            {
 1030              		.loc 1 374 0
 1031 013a 002E     		cmp	r6, #0
 1032 013c 04D1     		bne	.L54
 376:one_wire/DS18B20.c ****                mask_u8 = 1;    /* update mask */
 1033              		.loc 1 376 0
 1034 013e 4346     		mov	r3, r8
 1035 0140 0133     		add	r3, r3, #1
 1036 0142 DBB2     		uxtb	r3, r3
 1037 0144 9846     		mov	r8, r3
 1038              	.LVL158:
 377:one_wire/DS18B20.c ****            }
 1039              		.loc 1 377 0
 1040 0146 0136     		add	r6, r6, #1
 1041              	.LVL159:
 1042              	.L54:
 380:one_wire/DS18B20.c **** 
 1043              		.loc 1 380 0
 1044 0148 4346     		mov	r3, r8
 1045 014a 072B     		cmp	r3, #7
 1046 014c 5CD8     		bhi	.L47
 1047              	.LVL160:
 1048              	.L55:
 1049              	.LBB97:
 1050              	.LBB98:
 137:one_wire/DS18B20.c **** 
 1051              		.loc 1 137 0
 1052 014e FFF7FEFF 		bl	CyEnterCriticalSection
ARM GAS  C:\Users\glenn\AppData\Local\Temp\cc3rYttq.s 			page 29


 1053              	.LVL161:
 140:one_wire/DS18B20.c ****    CyDelayUs(DS1820_MSTR_BITSTART);
 1054              		.loc 1 140 0
 1055 0152 6368     		ldr	r3, [r4, #4]
 137:one_wire/DS18B20.c **** 
 1056              		.loc 1 137 0
 1057 0154 8246     		mov	r10, r0
 1058              	.LVL162:
 140:one_wire/DS18B20.c ****    CyDelayUs(DS1820_MSTR_BITSTART);
 1059              		.loc 1 140 0
 1060 0156 0020     		mov	r0, #0
 1061 0158 9847     		blx	r3
 1062              	.LVL163:
 141:one_wire/DS18B20.c ****    io->pin_write(1);
 1063              		.loc 1 141 0
 1064 015a 0220     		mov	r0, #2
 1065 015c FFF7FEFF 		bl	CyDelayUs
 1066              	.LVL164:
 142:one_wire/DS18B20.c ****    CyDelayUs(DS1820_BITREAD_DLY);
 1067              		.loc 1 142 0
 1068 0160 6368     		ldr	r3, [r4, #4]
 1069 0162 0120     		mov	r0, #1
 1070 0164 9847     		blx	r3
 1071              	.LVL165:
 143:one_wire/DS18B20.c **** 
 1072              		.loc 1 143 0
 1073 0166 0520     		mov	r0, #5
 1074 0168 FFF7FEFF 		bl	CyDelayUs
 1075              	.LVL166:
 145:one_wire/DS18B20.c ****    
 1076              		.loc 1 145 0
 1077 016c 2368     		ldr	r3, [r4]
 1078 016e 9847     		blx	r3
 1079              	.LVL167:
 1080 0170 051C     		mov	r5, r0
 1081              	.LVL168:
 147:one_wire/DS18B20.c **** 
 1082              		.loc 1 147 0
 1083 0172 5046     		mov	r0, r10
 1084 0174 FFF7FEFF 		bl	CyExitCriticalSection
 1085              	.LVL169:
 1086              	.LBE98:
 1087              	.LBE97:
 306:one_wire/DS18B20.c **** 
 1088              		.loc 1 306 0
 1089 0178 7820     		mov	r0, #120
 1090 017a FFF7FEFF 		bl	CyDelayUs
 1091              	.LVL170:
 1092              	.LBB99:
 1093              	.LBB100:
 137:one_wire/DS18B20.c **** 
 1094              		.loc 1 137 0
 1095 017e FFF7FEFF 		bl	CyEnterCriticalSection
 1096              	.LVL171:
 1097              	.LBE100:
 1098              	.LBE99:
 304:one_wire/DS18B20.c ****         }
ARM GAS  C:\Users\glenn\AppData\Local\Temp\cc3rYttq.s 			page 30


 1099              		.loc 1 304 0
 1100 0182 6B1E     		sub	r3, r5, #1
 1101 0184 9D41     		sbc	r5, r5, r3
 1102              	.LVL172:
 1103              	.LBB102:
 1104              	.LBB101:
 137:one_wire/DS18B20.c **** 
 1105              		.loc 1 137 0
 1106 0186 8346     		mov	fp, r0
 140:one_wire/DS18B20.c ****    CyDelayUs(DS1820_MSTR_BITSTART);
 1107              		.loc 1 140 0
 1108 0188 6368     		ldr	r3, [r4, #4]
 1109 018a 0020     		mov	r0, #0
 1110 018c 9847     		blx	r3
 1111              	.LVL173:
 141:one_wire/DS18B20.c ****    io->pin_write(1);
 1112              		.loc 1 141 0
 1113 018e 0220     		mov	r0, #2
 1114 0190 FFF7FEFF 		bl	CyDelayUs
 1115              	.LVL174:
 142:one_wire/DS18B20.c ****    CyDelayUs(DS1820_BITREAD_DLY);
 1116              		.loc 1 142 0
 1117 0194 6368     		ldr	r3, [r4, #4]
 1118 0196 0120     		mov	r0, #1
 1119 0198 9847     		blx	r3
 1120              	.LVL175:
 143:one_wire/DS18B20.c **** 
 1121              		.loc 1 143 0
 1122 019a 0520     		mov	r0, #5
 1123 019c FFF7FEFF 		bl	CyDelayUs
 1124              	.LVL176:
 145:one_wire/DS18B20.c ****    
 1125              		.loc 1 145 0
 1126 01a0 2368     		ldr	r3, [r4]
 1127 01a2 9847     		blx	r3
 1128              	.LVL177:
 1129 01a4 8246     		mov	r10, r0
 1130              	.LVL178:
 147:one_wire/DS18B20.c **** 
 1131              		.loc 1 147 0
 1132 01a6 5846     		mov	r0, fp
 1133 01a8 FFF7FEFF 		bl	CyExitCriticalSection
 1134              	.LVL179:
 1135              	.LBE101:
 1136              	.LBE102:
 309:one_wire/DS18B20.c ****         {
 1137              		.loc 1 309 0
 1138 01ac 5346     		mov	r3, r10
 304:one_wire/DS18B20.c ****         }
 1139              		.loc 1 304 0
 1140 01ae 6D00     		lsl	r5, r5, #1
 1141              	.LVL180:
 309:one_wire/DS18B20.c ****         {
 1142              		.loc 1 309 0
 1143 01b0 002B     		cmp	r3, #0
 1144 01b2 96D1     		bne	.L78
 313:one_wire/DS18B20.c **** 
ARM GAS  C:\Users\glenn\AppData\Local\Temp\cc3rYttq.s 			page 31


 1145              		.loc 1 313 0
 1146 01b4 7820     		mov	r0, #120
 1147 01b6 FFF7FEFF 		bl	CyDelayUs
 1148              	.LVL181:
 330:one_wire/DS18B20.c ****             {
 1149              		.loc 1 330 0
 1150 01ba 002D     		cmp	r5, #0
 1151 01bc 9AD1     		bne	.L57
 339:one_wire/DS18B20.c ****                 {
 1152              		.loc 1 339 0
 1153 01be 009B     		ldr	r3, [sp]
 1154 01c0 5B78     		ldrb	r3, [r3, #1]
 1155 01c2 BB42     		cmp	r3, r7
 1156 01c4 18D9     		bls	.L50
 342:one_wire/DS18B20.c ****                 }
 1157              		.loc 1 342 0
 1158 01c6 4246     		mov	r2, r8
 1159 01c8 4B46     		mov	r3, r9
 1160 01ca 9B5C     		ldrb	r3, [r3, r2]
 1161 01cc 321C     		mov	r2, r6
 1162 01ce 1A40     		and	r2, r3
 1163 01d0 511E     		sub	r1, r2, #1
 1164 01d2 8A41     		sbc	r2, r2, r1
 1165 01d4 D2B2     		uxtb	r2, r2
 1166              	.LVL182:
 1167              	.L51:
 349:one_wire/DS18B20.c ****                 {
 1168              		.loc 1 349 0
 1169 01d6 002A     		cmp	r2, #0
 1170 01d8 92D1     		bne	.L49
 1171 01da 0197     		str	r7, [sp, #4]
 1172              	.LVL183:
 1173              	.L52:
 362:one_wire/DS18B20.c ****            }
 1174              		.loc 1 362 0
 1175 01dc 4A46     		mov	r2, r9
 1176 01de 4146     		mov	r1, r8
 1177 01e0 B343     		bic	r3, r6
 1178 01e2 5354     		strb	r3, [r2, r1]
 1179              	.LVL184:
 1180              	.LBB103:
 1181              	.LBB93:
 164:one_wire/DS18B20.c ****     
 1182              		.loc 1 164 0
 1183 01e4 FFF7FEFF 		bl	CyEnterCriticalSection
 1184              	.LVL185:
 166:one_wire/DS18B20.c ****    CyDelayUs(DS1820_MSTR_BITSTART);
 1185              		.loc 1 166 0
 1186 01e8 6368     		ldr	r3, [r4, #4]
 164:one_wire/DS18B20.c ****     
 1187              		.loc 1 164 0
 1188 01ea 051C     		mov	r5, r0
 1189              	.LVL186:
 166:one_wire/DS18B20.c ****    CyDelayUs(DS1820_MSTR_BITSTART);
 1190              		.loc 1 166 0
 1191 01ec 0020     		mov	r0, #0
 1192              	.LVL187:
ARM GAS  C:\Users\glenn\AppData\Local\Temp\cc3rYttq.s 			page 32


 1193 01ee 9847     		blx	r3
 1194              	.LVL188:
 167:one_wire/DS18B20.c **** 
 1195              		.loc 1 167 0
 1196 01f0 0220     		mov	r0, #2
 1197 01f2 FFF7FEFF 		bl	CyDelayUs
 1198              	.LVL189:
 1199 01f6 93E7     		b	.L53
 1200              	.LVL190:
 1201              	.L50:
 1202              	.LBE93:
 1203              	.LBE103:
 346:one_wire/DS18B20.c ****                 }
 1204              		.loc 1 346 0
 1205 01f8 DA1B     		sub	r2, r3, r7
 1206 01fa 5142     		neg	r1, r2
 1207 01fc 5141     		adc	r1, r1, r2
 1208 01fe 4B46     		mov	r3, r9
 1209 0200 CAB2     		uxtb	r2, r1
 1210              	.LVL191:
 1211 0202 4146     		mov	r1, r8
 1212 0204 5B5C     		ldrb	r3, [r3, r1]
 1213 0206 E6E7     		b	.L51
 1214              	.LVL192:
 1215              	.L47:
 384:one_wire/DS18B20.c ****     {
 1216              		.loc 1 384 0
 1217 0208 402F     		cmp	r7, #64
 1218 020a 00D8     		bhi	.LCB1248
 1219 020c 29E7     		b	.L40	@long jump
 1220              	.LCB1248:
 392:one_wire/DS18B20.c ****         bDoneFlag = (nLastDiscrepancy_u8 == 0);
 1221              		.loc 1 392 0
 1222 020e 0099     		ldr	r1, [sp]
 1223 0210 0198     		ldr	r0, [sp, #4]
 1224 0212 0B1C     		mov	r3, r1
 1225 0214 5870     		strb	r0, [r3, #1]
 393:one_wire/DS18B20.c **** 
 1226              		.loc 1 393 0
 1227 0216 031C     		mov	r3, r0
 1228 0218 5A42     		neg	r2, r3
 1229 021a 5341     		adc	r3, r3, r2
 1230 021c 0B70     		strb	r3, [r1]
 1231              	.LVL193:
 1232 021e 4B46     		mov	r3, r9
 1233              	.LBB104:
 1234              	.LBB105:
 411:one_wire/DS18B20.c **** 
 412:one_wire/DS18B20.c **** 
 413:one_wire/DS18B20.c **** /*******************************************************************************
 414:one_wire/DS18B20.c ****  * FUNCTION:   DS1820_FindFirstDevice
 415:one_wire/DS18B20.c ****  * PURPOSE:    Starts the device search on the 1-wire bus.
 416:one_wire/DS18B20.c ****  *
 417:one_wire/DS18B20.c ****  * INPUT:      -
 418:one_wire/DS18B20.c ****  * OUTPUT:     nRomAddr_au8[]       ROM code of the first device
 419:one_wire/DS18B20.c ****  * RETURN:     bool                 TRUE if there are more devices on the 1-wire
 420:one_wire/DS18B20.c ****  *                                  bus, FALSE otherwise
ARM GAS  C:\Users\glenn\AppData\Local\Temp\cc3rYttq.s 			page 33


 421:one_wire/DS18B20.c ****  ******************************************************************************/
 422:one_wire/DS18B20.c **** uint8 DS1820_FindFirstDevice(ONE_WIRE_IO *io,ONE_WIRE_ADDRESS *addr)
 423:one_wire/DS18B20.c **** {
 424:one_wire/DS18B20.c ****     nLastDiscrepancy_u8 = 0;
 425:one_wire/DS18B20.c ****     bDoneFlag = 0; //FALSE;
 426:one_wire/DS18B20.c **** 
 427:one_wire/DS18B20.c ****     return ( DS1820_FindNextDevice(io,addr) );
 428:one_wire/DS18B20.c **** }
 429:one_wire/DS18B20.c **** 
 430:one_wire/DS18B20.c **** 
 431:one_wire/DS18B20.c **** 
 432:one_wire/DS18B20.c **** /*******************************************************************************
 433:one_wire/DS18B20.c ****  * FUNCTION:   DS1820_GetTempRaw
 434:one_wire/DS18B20.c ****  * PURPOSE:    Get temperature raw value from single DS1820 device.
 435:one_wire/DS18B20.c ****  *
 436:one_wire/DS18B20.c ****  *             Scratchpad Memory Layout
 437:one_wire/DS18B20.c ****  *             Byte  Register
 438:one_wire/DS18B20.c ****  *             0     Temperature_LSB
 439:one_wire/DS18B20.c ****  *             1     Temperature_MSB
 440:one_wire/DS18B20.c ****  *             2     Temp Alarm High / User Byte 1
 441:one_wire/DS18B20.c ****  *             3     Temp Alarm Low / User Byte 2
 442:one_wire/DS18B20.c ****  *             4     Reserved
 443:one_wire/DS18B20.c ****  *             5     Reserved
 444:one_wire/DS18B20.c ****  *             6     Count_Remain
 445:one_wire/DS18B20.c ****  *             7     Count_per_C
 446:one_wire/DS18B20.c ****  *             8     CRC
 447:one_wire/DS18B20.c ****  *
 448:one_wire/DS18B20.c ****  *             Temperature calculation for DS18S20 (Family Code 0x10):
 449:one_wire/DS18B20.c ****  *             =======================================================
 450:one_wire/DS18B20.c ****  *                                             (Count_per_C - Count_Remain)
 451:one_wire/DS18B20.c ****  *             Temperature = temp_raw - 0.25 + ----------------------------
 452:one_wire/DS18B20.c ****  *                                                     Count_per_C
 453:one_wire/DS18B20.c ****  *
 454:one_wire/DS18B20.c ****  *             Where temp_raw is the value from the temp_MSB and temp_LSB with
 455:one_wire/DS18B20.c ****  *             the least significant bit removed (the 0.5C bit).
 456:one_wire/DS18B20.c ****  *
 457:one_wire/DS18B20.c ****  *
 458:one_wire/DS18B20.c ****  *             Temperature calculation for DS18B20 (Family Code 0x28):
 459:one_wire/DS18B20.c ****  *             =======================================================
 460:one_wire/DS18B20.c ****  *                      bit7   bit6   bit5   bit4   bit3   bit2   bit1   bit0
 461:one_wire/DS18B20.c ****  *             LSB      2^3    2^2    2^1    2^0    2^-1   2^-2   2^-3   2^-4
 462:one_wire/DS18B20.c ****  *                      bit15  bit14  bit13  bit12  bit3   bit2   bit1   bit0
 463:one_wire/DS18B20.c ****  *             MSB      S      S      S      S      S      2^6    2^5    2^4
 464:one_wire/DS18B20.c ****  *
 465:one_wire/DS18B20.c ****  *             The temperature data is stored as a 16-bit sign-extended twos
 466:one_wire/DS18B20.c ****  *             complement number in the temperature register. The sign bits (S)
 467:one_wire/DS18B20.c ****  *             indicate if the temperature is positive or negative: for
 468:one_wire/DS18B20.c ****  *             positive numbers S = 0 and for negative numbers S = 1.
 469:one_wire/DS18B20.c ****  *
 470:one_wire/DS18B20.c ****  * RETURN:     sint16         raw temperature value with a resolution
 471:one_wire/DS18B20.c ****  *                            of 1/256°C
 472:one_wire/DS18B20.c ****  ******************************************************************************/
 473:one_wire/DS18B20.c **** void DS1820_StartTemp_Reading(ONE_WIRE_IO *io,ONE_WIRE_ADDRESS *addr)
 474:one_wire/DS18B20.c **** {
 475:one_wire/DS18B20.c **** 
 476:one_wire/DS18B20.c ****     /* --- start temperature conversion -------------------------------------- */
 477:one_wire/DS18B20.c ****     DS1820_Reset(io);
ARM GAS  C:\Users\glenn\AppData\Local\Temp\cc3rYttq.s 			page 34


 478:one_wire/DS18B20.c ****     DS1820_AddrDevice(io,addr);     /* address the device */
 479:one_wire/DS18B20.c ****     io->pin_write(1);
 480:one_wire/DS18B20.c ****     DS1820_WriteByte(io,DS1820_CMD_CONVERTTEMP);   /* start conversion */
 481:one_wire/DS18B20.c ****     //DS1820_DelayMs(DS1820_TEMPCONVERT_DLY);   /* wait for temperature conversion */
 482:one_wire/DS18B20.c ****  }
 483:one_wire/DS18B20.c **** 
 484:one_wire/DS18B20.c **** 
 485:one_wire/DS18B20.c **** // Delay 750 between Colum    CyDelay(750);
 486:one_wire/DS18B20.c **** 
 487:one_wire/DS18B20.c **** int16 DS1820_GetTempRaw(ONE_WIRE_IO *io,ONE_WIRE_ADDRESS *addr)
 488:one_wire/DS18B20.c **** {
 489:one_wire/DS18B20.c ****     uint8 i;
 490:one_wire/DS18B20.c ****     uint16 temp_u16;
 491:one_wire/DS18B20.c ****     uint16 highres_u16;
 492:one_wire/DS18B20.c ****     uint8 scrpad[DS1820_SCRPADMEM_LEN];
 493:one_wire/DS18B20.c **** 
 494:one_wire/DS18B20.c ****     /* --- read sratchpad ---------------------------------------------------- */
 495:one_wire/DS18B20.c ****     DS1820_Reset(io);
 496:one_wire/DS18B20.c ****     DS1820_AddrDevice(io,addr);   /* address the device */
 497:one_wire/DS18B20.c ****     DS1820_WriteByte(io,DS1820_CMD_READSCRPAD);  /* read scratch pad */
 498:one_wire/DS18B20.c **** 
 499:one_wire/DS18B20.c ****     /* read scratch pad data */
 500:one_wire/DS18B20.c ****     for (i=0; i < DS1820_SCRPADMEM_LEN; i++)
 501:one_wire/DS18B20.c ****     {
 502:one_wire/DS18B20.c ****         scrpad[i] = DS1820_ReadByte(io);
 503:one_wire/DS18B20.c ****     }
 504:one_wire/DS18B20.c **** 
 505:one_wire/DS18B20.c **** 
 506:one_wire/DS18B20.c ****     /* --- calculate temperature --------------------------------------------- */
 507:one_wire/DS18B20.c ****     /* Formular for temperature calculation: */
 508:one_wire/DS18B20.c ****     /* Temp = Temp_read - 0.25 + ((Count_per_C - Count_Remain)/Count_per_C) */
 509:one_wire/DS18B20.c **** 
 510:one_wire/DS18B20.c ****     /* get raw value of temperature (0.5°C resolution) */
 511:one_wire/DS18B20.c ****     temp_u16 = 0;
 512:one_wire/DS18B20.c ****     temp_u16 = (uint16)((uint16)scrpad[DS1820_REG_TEMPMSB] << 8);
 513:one_wire/DS18B20.c ****     temp_u16 |= (uint16)(scrpad[DS1820_REG_TEMPLSB]);
 514:one_wire/DS18B20.c **** 
 515:one_wire/DS18B20.c ****     if (addr->nRomAddr_au8[0] == DS1820_FAMILY_CODE_DS18S20)
 516:one_wire/DS18B20.c ****     {
 517:one_wire/DS18B20.c ****         /* get temperature value in 1°C resolution */
 518:one_wire/DS18B20.c ****         temp_u16 >>= 1;
 519:one_wire/DS18B20.c ****     
 520:one_wire/DS18B20.c ****         /* temperature resolution is TEMP_RES (0x100), so 1°C equals 0x100 */
 521:one_wire/DS18B20.c ****         /* => convert to temperature to 1/256°C resolution */
 522:one_wire/DS18B20.c ****         temp_u16 = ((uint16)temp_u16 << 8);
 523:one_wire/DS18B20.c ****     
 524:one_wire/DS18B20.c ****         /* now substract 0.25°C */
 525:one_wire/DS18B20.c ****         temp_u16 -= ((uint16)TEMP_RES >> 2);
 526:one_wire/DS18B20.c ****     
 527:one_wire/DS18B20.c ****         /* now calculate high resolution */
 528:one_wire/DS18B20.c ****         highres_u16 = scrpad[DS1820_REG_CNTPERSEC] - scrpad[DS1820_REG_CNTREMAIN];
 529:one_wire/DS18B20.c ****         highres_u16 = ((uint16)highres_u16 << 8);
 530:one_wire/DS18B20.c ****         if (scrpad[DS1820_REG_CNTPERSEC])
 531:one_wire/DS18B20.c ****         {
 532:one_wire/DS18B20.c ****             highres_u16 = highres_u16 / (uint16)scrpad[DS1820_REG_CNTPERSEC];
 533:one_wire/DS18B20.c ****         }
 534:one_wire/DS18B20.c ****     
ARM GAS  C:\Users\glenn\AppData\Local\Temp\cc3rYttq.s 			page 35


 535:one_wire/DS18B20.c ****         /* now calculate result */
 536:one_wire/DS18B20.c ****         highres_u16 = highres_u16 + temp_u16;
 537:one_wire/DS18B20.c ****     }
 538:one_wire/DS18B20.c ****     else
 539:one_wire/DS18B20.c ****     {
 540:one_wire/DS18B20.c ****         /* 12 bit temperature value has 0.0625°C resolution */
 541:one_wire/DS18B20.c ****         /* shift left by 4 to get 1/256°C resolution */
 542:one_wire/DS18B20.c ****         highres_u16 = temp_u16;
 543:one_wire/DS18B20.c ****         highres_u16 <<= 4;
 544:one_wire/DS18B20.c ****     }
 545:one_wire/DS18B20.c **** 
 546:one_wire/DS18B20.c ****     return (highres_u16);
 547:one_wire/DS18B20.c **** }
 548:one_wire/DS18B20.c **** static const uint8 crc_table[] = {
 549:one_wire/DS18B20.c ****       0, 94,188,226, 97, 63,221,131,194,156,126, 32,163,253, 31, 65,
 550:one_wire/DS18B20.c ****     157,195, 33,127,252,162, 64, 30, 95,  1,227,189, 62, 96,130,220,
 551:one_wire/DS18B20.c ****      35,125,159,193, 66, 28,254,160,225,191, 93,  3,128,222, 60, 98,
 552:one_wire/DS18B20.c ****     190,224,  2, 92,223,129, 99, 61,124, 34,192,158, 29, 67,161,255,
 553:one_wire/DS18B20.c ****      70, 24,250,164, 39,121,155,197,132,218, 56,102,229,187, 89,  7,
 554:one_wire/DS18B20.c ****     219,133,103, 57,186,228,  6, 88, 25, 71,165,251,120, 38,196,154,
 555:one_wire/DS18B20.c ****     101, 59,217,135,  4, 90,184,230,167,249, 27, 69,198,152,122, 36,
 556:one_wire/DS18B20.c ****     248,166, 68, 26,153,199, 37,123, 58,100,134,216, 91,  5,231,185,
 557:one_wire/DS18B20.c ****     140,210, 48,110,237,179, 81, 15, 78, 16,242,172, 47,113,147,205,
 558:one_wire/DS18B20.c ****      17, 79,173,243,112, 46,204,146,211,141,111, 49,178,236, 14, 80,
 559:one_wire/DS18B20.c ****     175,241, 19, 77,206,144,114, 44,109, 51,209,143, 12, 82,176,238,
 560:one_wire/DS18B20.c ****      50,108,142,208, 83, 13,239,177,240,174, 76, 18,145,207, 45,115,
 561:one_wire/DS18B20.c ****     202,148,118, 40,171,245, 23, 73,  8, 86,180,234,105, 55,213,139,
 562:one_wire/DS18B20.c ****      87,  9,235,181, 54,104,138,212,149,203, 41,119,244,170, 72, 22,
 563:one_wire/DS18B20.c ****     233,183, 85, 11,136,214, 52,106, 43,117,151,201, 74, 20,246,168,
 564:one_wire/DS18B20.c ****     116, 42,200,150, 21, 75,169,247,182,232, 10, 84,215,137,107, 53};
 565:one_wire/DS18B20.c **** 
 566:one_wire/DS18B20.c **** //
 567:one_wire/DS18B20.c **** // Compute a Dallas Semiconductor 8 bit CRC. These show up in the ROM
 568:one_wire/DS18B20.c **** // and the registers.  (note: this might better be done without to
 569:one_wire/DS18B20.c **** // table, it would probably be smaller and certainly fast enough
 570:one_wire/DS18B20.c **** // compared to all those delayMicrosecond() calls.  But I got
 571:one_wire/DS18B20.c **** // confused, so I use this table from the examples.)
 572:one_wire/DS18B20.c **** //
 573:one_wire/DS18B20.c **** static uint8 compute_crc8(const uint8 *addr, uint8 len)
 574:one_wire/DS18B20.c **** {
 575:one_wire/DS18B20.c **** 	uint8 crc = 0;
 1235              		.loc 1 575 0
 1236 0220 0020     		mov	r0, #0
 1237 0222 0849     		ldr	r1, .L79+4
 1238 0224 DC1D     		add	r4, r3, #7
 1239              	.LVL194:
 1240              	.L56:
 576:one_wire/DS18B20.c **** 
 577:one_wire/DS18B20.c **** 	while (len--) {
 578:one_wire/DS18B20.c **** 		crc = crc_table[(crc ^ *addr++)];
 1241              		.loc 1 578 0
 1242 0226 1A78     		ldrb	r2, [r3]
 1243 0228 0133     		add	r3, r3, #1
 1244              	.LVL195:
 1245 022a 4240     		eor	r2, r0
 1246 022c 885C     		ldrb	r0, [r1, r2]
 1247              	.LVL196:
ARM GAS  C:\Users\glenn\AppData\Local\Temp\cc3rYttq.s 			page 36


 577:one_wire/DS18B20.c **** 		crc = crc_table[(crc ^ *addr++)];
 1248              		.loc 1 577 0
 1249 022e A342     		cmp	r3, r4
 1250 0230 F9D1     		bne	.L56
 1251              	.LBE105:
 1252              	.LBE104:
 399:one_wire/DS18B20.c ****         {
 1253              		.loc 1 399 0
 1254 0232 4B46     		mov	r3, r9
 1255              	.LVL197:
 1256 0234 DB79     		ldrb	r3, [r3, #7]
 1257 0236 181A     		sub	r0, r3, r0
 1258              	.LVL198:
 1259 0238 4342     		neg	r3, r0
 1260 023a 4341     		adc	r3, r3, r0
 1261              	.LVL199:
 1262              	.LBE73:
 1263              	.LBE72:
 290:one_wire/DS18B20.c ****     }
 1264              		.loc 1 290 0
 1265 023c D8B2     		uxtb	r0, r3
 1266 023e 14E7     		b	.L73
 1267              	.L80:
 1268              		.align	2
 1269              	.L79:
 1270 0240 00000000 		.word	.LANCHOR0
 1271 0244 00000000 		.word	.LANCHOR1
 1272              		.cfi_endproc
 1273              	.LFE68:
 1274              		.size	DS1820_FindNextDevice, .-DS1820_FindNextDevice
 1275              		.section	.text.DS1820_FindFirstDevice,"ax",%progbits
 1276              		.align	2
 1277              		.global	DS1820_FindFirstDevice
 1278              		.code	16
 1279              		.thumb_func
 1280              		.type	DS1820_FindFirstDevice, %function
 1281              	DS1820_FindFirstDevice:
 1282              	.LFB69:
 423:one_wire/DS18B20.c ****     nLastDiscrepancy_u8 = 0;
 1283              		.loc 1 423 0
 1284              		.cfi_startproc
 1285              	.LVL200:
 424:one_wire/DS18B20.c ****     bDoneFlag = 0; //FALSE;
 1286              		.loc 1 424 0
 1287 0000 0022     		mov	r2, #0
 423:one_wire/DS18B20.c ****     nLastDiscrepancy_u8 = 0;
 1288              		.loc 1 423 0
 1289 0002 08B5     		push	{r3, lr}
 1290              		.cfi_def_cfa_offset 8
 1291              		.cfi_offset 3, -8
 1292              		.cfi_offset 14, -4
 424:one_wire/DS18B20.c ****     bDoneFlag = 0; //FALSE;
 1293              		.loc 1 424 0
 1294 0004 024B     		ldr	r3, .L82
 428:one_wire/DS18B20.c **** 
 1295              		.loc 1 428 0
 1296              		@ sp needed
ARM GAS  C:\Users\glenn\AppData\Local\Temp\cc3rYttq.s 			page 37


 424:one_wire/DS18B20.c ****     bDoneFlag = 0; //FALSE;
 1297              		.loc 1 424 0
 1298 0006 5A70     		strb	r2, [r3, #1]
 425:one_wire/DS18B20.c **** 
 1299              		.loc 1 425 0
 1300 0008 1A70     		strb	r2, [r3]
 427:one_wire/DS18B20.c **** }
 1301              		.loc 1 427 0
 1302 000a FFF7FEFF 		bl	DS1820_FindNextDevice
 1303              	.LVL201:
 428:one_wire/DS18B20.c **** 
 1304              		.loc 1 428 0
 1305 000e 08BD     		pop	{r3, pc}
 1306              	.L83:
 1307              		.align	2
 1308              	.L82:
 1309 0010 00000000 		.word	.LANCHOR0
 1310              		.cfi_endproc
 1311              	.LFE69:
 1312              		.size	DS1820_FindFirstDevice, .-DS1820_FindFirstDevice
 1313              		.section	.text.DS1820_StartTemp_Reading,"ax",%progbits
 1314              		.align	2
 1315              		.global	DS1820_StartTemp_Reading
 1316              		.code	16
 1317              		.thumb_func
 1318              		.type	DS1820_StartTemp_Reading, %function
 1319              	DS1820_StartTemp_Reading:
 1320              	.LFB70:
 474:one_wire/DS18B20.c **** 
 1321              		.loc 1 474 0
 1322              		.cfi_startproc
 1323              	.LVL202:
 1324 0000 F8B5     		push	{r3, r4, r5, r6, r7, lr}
 1325              		.cfi_def_cfa_offset 24
 1326              		.cfi_offset 3, -24
 1327              		.cfi_offset 4, -20
 1328              		.cfi_offset 5, -16
 1329              		.cfi_offset 6, -12
 1330              		.cfi_offset 7, -8
 1331              		.cfi_offset 14, -4
 1332 0002 5646     		mov	r6, r10
 1333 0004 4446     		mov	r4, r8
 1334 0006 4D46     		mov	r5, r9
 1335 0008 5F46     		mov	r7, fp
 1336 000a F0B4     		push	{r4, r5, r6, r7}
 1337              		.cfi_def_cfa_offset 40
 1338              		.cfi_offset 8, -40
 1339              		.cfi_offset 9, -36
 1340              		.cfi_offset 10, -32
 1341              		.cfi_offset 11, -28
 474:one_wire/DS18B20.c **** 
 1342              		.loc 1 474 0
 1343 000c 8946     		mov	r9, r1
 1344 000e 061C     		mov	r6, r0
 1345              	.LVL203:
 1346              	.LBB122:
 1347              	.LBB123:
ARM GAS  C:\Users\glenn\AppData\Local\Temp\cc3rYttq.s 			page 38


 103:one_wire/DS18B20.c ****    
 1348              		.loc 1 103 0
 1349 0010 FFF7FEFF 		bl	CyEnterCriticalSection
 1350              	.LVL204:
 106:one_wire/DS18B20.c ****    CyDelayUs(DS1820_RST_PULSE);
 1351              		.loc 1 106 0
 1352 0014 7368     		ldr	r3, [r6, #4]
 103:one_wire/DS18B20.c ****    
 1353              		.loc 1 103 0
 1354 0016 041C     		mov	r4, r0
 1355              	.LVL205:
 106:one_wire/DS18B20.c ****    CyDelayUs(DS1820_RST_PULSE);
 1356              		.loc 1 106 0
 1357 0018 0020     		mov	r0, #0
 1358 001a 9847     		blx	r3
 1359              	.LVL206:
 107:one_wire/DS18B20.c ****    io->pin_write(1);
 1360              		.loc 1 107 0
 1361 001c F020     		mov	r0, #240
 1362 001e 4000     		lsl	r0, r0, #1
 1363 0020 FFF7FEFF 		bl	CyDelayUs
 1364              	.LVL207:
 108:one_wire/DS18B20.c **** 
 1365              		.loc 1 108 0
 1366 0024 7368     		ldr	r3, [r6, #4]
 1367 0026 0120     		mov	r0, #1
 1368 0028 9847     		blx	r3
 1369              	.LVL208:
 111:one_wire/DS18B20.c **** 
 1370              		.loc 1 111 0
 1371 002a 2820     		mov	r0, #40
 1372 002c FFF7FEFF 		bl	CyDelayUs
 1373              	.LVL209:
 114:one_wire/DS18B20.c **** 
 1374              		.loc 1 114 0
 1375 0030 3368     		ldr	r3, [r6]
 1376 0032 9847     		blx	r3
 1377              	.LVL210:
 116:one_wire/DS18B20.c ****    
 1378              		.loc 1 116 0
 1379 0034 D420     		mov	r0, #212
 1380 0036 4000     		lsl	r0, r0, #1
 1381 0038 FFF7FEFF 		bl	CyDelayUs
 1382              	.LVL211:
 118:one_wire/DS18B20.c **** 
 1383              		.loc 1 118 0
 1384 003c 201C     		mov	r0, r4
 1385 003e FFF7FEFF 		bl	CyExitCriticalSection
 1386              	.LVL212:
 1387              	.LBE123:
 1388              	.LBE122:
 1389              	.LBB125:
 1390              	.LBB126:
 1391              	.LBB127:
 1392              	.LBB128:
 221:one_wire/DS18B20.c ****       temp &= 0x01;           /* copy that bit to temp */
 1393              		.loc 1 221 0
ARM GAS  C:\Users\glenn\AppData\Local\Temp\cc3rYttq.s 			page 39


 1394 0042 5523     		mov	r3, #85
 1395 0044 9A46     		mov	r10, r3
 222:one_wire/DS18B20.c ****       DS1820_WriteBit(io,temp);  /* write bit in temp into */
 1396              		.loc 1 222 0
 1397 0046 543B     		sub	r3, r3, #84
 1398              	.LBE128:
 1399              	.LBE127:
 1400              	.LBE126:
 1401              	.LBE125:
 1402              	.LBB152:
 1403              	.LBB124:
 118:one_wire/DS18B20.c **** 
 1404              		.loc 1 118 0
 1405 0048 0024     		mov	r4, #0
 1406              	.LVL213:
 1407              	.LBE124:
 1408              	.LBE152:
 1409              	.LBB153:
 1410              	.LBB151:
 1411              	.LBB138:
 1412              	.LBB137:
 222:one_wire/DS18B20.c ****       DS1820_WriteBit(io,temp);  /* write bit in temp into */
 1413              		.loc 1 222 0
 1414 004a 9846     		mov	r8, r3
 1415              	.LVL214:
 1416              	.L86:
 1417              	.LBB129:
 1418              	.LBB130:
 164:one_wire/DS18B20.c ****     
 1419              		.loc 1 164 0
 1420 004c FFF7FEFF 		bl	CyEnterCriticalSection
 1421              	.LVL215:
 1422              	.LBE130:
 1423              	.LBE129:
 221:one_wire/DS18B20.c ****       temp &= 0x01;           /* copy that bit to temp */
 1424              		.loc 1 221 0
 1425 0050 5546     		mov	r5, r10
 1426              	.LBB134:
 1427              	.LBB131:
 166:one_wire/DS18B20.c ****    CyDelayUs(DS1820_MSTR_BITSTART);
 1428              		.loc 1 166 0
 1429 0052 7368     		ldr	r3, [r6, #4]
 164:one_wire/DS18B20.c ****     
 1430              		.loc 1 164 0
 1431 0054 071C     		mov	r7, r0
 166:one_wire/DS18B20.c ****    CyDelayUs(DS1820_MSTR_BITSTART);
 1432              		.loc 1 166 0
 1433 0056 0020     		mov	r0, #0
 1434 0058 9847     		blx	r3
 1435              	.LVL216:
 1436              	.LBE131:
 1437              	.LBE134:
 221:one_wire/DS18B20.c ****       temp &= 0x01;           /* copy that bit to temp */
 1438              		.loc 1 221 0
 1439 005a 2541     		asr	r5, r5, r4
 1440              	.LBB135:
 1441              	.LBB132:
ARM GAS  C:\Users\glenn\AppData\Local\Temp\cc3rYttq.s 			page 40


 167:one_wire/DS18B20.c **** 
 1442              		.loc 1 167 0
 1443 005c 0220     		mov	r0, #2
 1444 005e FFF7FEFF 		bl	CyDelayUs
 1445              	.LVL217:
 169:one_wire/DS18B20.c ****    {
 1446              		.loc 1 169 0
 1447 0062 4346     		mov	r3, r8
 1448              	.LBE132:
 1449              	.LBE135:
 221:one_wire/DS18B20.c ****       temp &= 0x01;           /* copy that bit to temp */
 1450              		.loc 1 221 0
 1451 0064 EDB2     		uxtb	r5, r5
 1452              	.LVL218:
 1453              	.LBB136:
 1454              	.LBB133:
 169:one_wire/DS18B20.c ****    {
 1455              		.loc 1 169 0
 1456 0066 2B42     		tst	r3, r5
 1457 0068 02D0     		beq	.L85
 171:one_wire/DS18B20.c ****    }
 1458              		.loc 1 171 0
 1459 006a 0120     		mov	r0, #1
 1460 006c 7368     		ldr	r3, [r6, #4]
 1461 006e 9847     		blx	r3
 1462              	.LVL219:
 1463              	.L85:
 174:one_wire/DS18B20.c ****    io->pin_write(1);
 1464              		.loc 1 174 0
 1465 0070 6420     		mov	r0, #100
 1466 0072 FFF7FEFF 		bl	CyDelayUs
 1467              	.LVL220:
 175:one_wire/DS18B20.c ****    
 1468              		.loc 1 175 0
 1469 0076 0120     		mov	r0, #1
 1470 0078 7368     		ldr	r3, [r6, #4]
 1471 007a 9847     		blx	r3
 1472              	.LVL221:
 1473 007c 0134     		add	r4, r4, #1
 1474              	.LVL222:
 177:one_wire/DS18B20.c **** }
 1475              		.loc 1 177 0
 1476 007e 381C     		mov	r0, r7
 1477 0080 FFF7FEFF 		bl	CyExitCriticalSection
 1478              	.LVL223:
 1479              	.LBE133:
 1480              	.LBE136:
 219:one_wire/DS18B20.c ****    {
 1481              		.loc 1 219 0
 1482 0084 082C     		cmp	r4, #8
 1483 0086 E1D1     		bne	.L86
 226:one_wire/DS18B20.c **** }
 1484              		.loc 1 226 0
 1485 0088 6920     		mov	r0, #105
 1486 008a FFF7FEFF 		bl	CyDelayUs
 1487              	.LVL224:
 1488 008e 0823     		mov	r3, #8
ARM GAS  C:\Users\glenn\AppData\Local\Temp\cc3rYttq.s 			page 41


 1489 0090 4B44     		add	r3, r3, r9
 1490 0092 9A46     		mov	r10, r3
 1491              	.LBE137:
 1492              	.LBE138:
 1493              	.LBB139:
 1494              	.LBB140:
 222:one_wire/DS18B20.c ****       DS1820_WriteBit(io,temp);  /* write bit in temp into */
 1495              		.loc 1 222 0
 1496 0094 0123     		mov	r3, #1
 1497 0096 9846     		mov	r8, r3
 1498              	.LVL225:
 1499              	.L89:
 1500 0098 4B46     		mov	r3, r9
 1501              	.LBE140:
 1502              	.LBE139:
 252:one_wire/DS18B20.c ****       }
 1503              		.loc 1 252 0
 1504 009a 0024     		mov	r4, #0
 1505 009c 1F78     		ldrb	r7, [r3]
 1506              	.LVL226:
 1507              	.L88:
 1508              	.LBB150:
 1509              	.LBB149:
 1510              	.LBB141:
 1511              	.LBB142:
 164:one_wire/DS18B20.c ****     
 1512              		.loc 1 164 0
 1513 009e FFF7FEFF 		bl	CyEnterCriticalSection
 1514              	.LVL227:
 1515              	.LBE142:
 1516              	.LBE141:
 221:one_wire/DS18B20.c ****       temp &= 0x01;           /* copy that bit to temp */
 1517              		.loc 1 221 0
 1518 00a2 3D1C     		mov	r5, r7
 1519              	.LBB146:
 1520              	.LBB143:
 166:one_wire/DS18B20.c ****    CyDelayUs(DS1820_MSTR_BITSTART);
 1521              		.loc 1 166 0
 1522 00a4 7368     		ldr	r3, [r6, #4]
 164:one_wire/DS18B20.c ****     
 1523              		.loc 1 164 0
 1524 00a6 8346     		mov	fp, r0
 166:one_wire/DS18B20.c ****    CyDelayUs(DS1820_MSTR_BITSTART);
 1525              		.loc 1 166 0
 1526 00a8 0020     		mov	r0, #0
 1527 00aa 9847     		blx	r3
 1528              	.LVL228:
 1529              	.LBE143:
 1530              	.LBE146:
 221:one_wire/DS18B20.c ****       temp &= 0x01;           /* copy that bit to temp */
 1531              		.loc 1 221 0
 1532 00ac 2541     		asr	r5, r5, r4
 1533              	.LBB147:
 1534              	.LBB144:
 167:one_wire/DS18B20.c **** 
 1535              		.loc 1 167 0
 1536 00ae 0220     		mov	r0, #2
ARM GAS  C:\Users\glenn\AppData\Local\Temp\cc3rYttq.s 			page 42


 1537 00b0 FFF7FEFF 		bl	CyDelayUs
 1538              	.LVL229:
 169:one_wire/DS18B20.c ****    {
 1539              		.loc 1 169 0
 1540 00b4 4346     		mov	r3, r8
 1541              	.LBE144:
 1542              	.LBE147:
 221:one_wire/DS18B20.c ****       temp &= 0x01;           /* copy that bit to temp */
 1543              		.loc 1 221 0
 1544 00b6 EDB2     		uxtb	r5, r5
 1545              	.LVL230:
 1546              	.LBB148:
 1547              	.LBB145:
 169:one_wire/DS18B20.c ****    {
 1548              		.loc 1 169 0
 1549 00b8 2B42     		tst	r3, r5
 1550 00ba 02D0     		beq	.L87
 171:one_wire/DS18B20.c ****    }
 1551              		.loc 1 171 0
 1552 00bc 0120     		mov	r0, #1
 1553 00be 7368     		ldr	r3, [r6, #4]
 1554 00c0 9847     		blx	r3
 1555              	.LVL231:
 1556              	.L87:
 174:one_wire/DS18B20.c ****    io->pin_write(1);
 1557              		.loc 1 174 0
 1558 00c2 6420     		mov	r0, #100
 1559 00c4 FFF7FEFF 		bl	CyDelayUs
 1560              	.LVL232:
 175:one_wire/DS18B20.c ****    
 1561              		.loc 1 175 0
 1562 00c8 0120     		mov	r0, #1
 1563 00ca 7368     		ldr	r3, [r6, #4]
 1564 00cc 9847     		blx	r3
 1565              	.LVL233:
 1566 00ce 0134     		add	r4, r4, #1
 1567              	.LVL234:
 177:one_wire/DS18B20.c **** }
 1568              		.loc 1 177 0
 1569 00d0 5846     		mov	r0, fp
 1570 00d2 FFF7FEFF 		bl	CyExitCriticalSection
 1571              	.LVL235:
 1572              	.LBE145:
 1573              	.LBE148:
 219:one_wire/DS18B20.c ****    {
 1574              		.loc 1 219 0
 1575 00d6 082C     		cmp	r4, #8
 1576 00d8 E1D1     		bne	.L88
 226:one_wire/DS18B20.c **** }
 1577              		.loc 1 226 0
 1578 00da 6920     		mov	r0, #105
 1579 00dc FFF7FEFF 		bl	CyDelayUs
 1580              	.LVL236:
 1581 00e0 0123     		mov	r3, #1
 1582 00e2 9C46     		mov	ip, r3
 1583 00e4 E144     		add	r9, r9, ip
 1584              	.LVL237:
ARM GAS  C:\Users\glenn\AppData\Local\Temp\cc3rYttq.s 			page 43


 1585              	.LBE149:
 1586              	.LBE150:
 250:one_wire/DS18B20.c ****       {
 1587              		.loc 1 250 0
 1588 00e6 D145     		cmp	r9, r10
 1589 00e8 D6D1     		bne	.L89
 1590              	.LBE151:
 1591              	.LBE153:
 479:one_wire/DS18B20.c ****     DS1820_WriteByte(io,DS1820_CMD_CONVERTTEMP);   /* start conversion */
 1592              		.loc 1 479 0
 1593 00ea 7368     		ldr	r3, [r6, #4]
 1594 00ec 0120     		mov	r0, #1
 1595 00ee 9847     		blx	r3
 1596              	.LVL238:
 1597              	.LBB154:
 1598              	.LBB155:
 1599              	.LBB156:
 1600              	.LBB157:
 164:one_wire/DS18B20.c ****     
 1601              		.loc 1 164 0
 1602 00f0 FFF7FEFF 		bl	CyEnterCriticalSection
 1603              	.LVL239:
 166:one_wire/DS18B20.c ****    CyDelayUs(DS1820_MSTR_BITSTART);
 1604              		.loc 1 166 0
 1605 00f4 7368     		ldr	r3, [r6, #4]
 164:one_wire/DS18B20.c ****     
 1606              		.loc 1 164 0
 1607 00f6 071C     		mov	r7, r0
 1608              	.LVL240:
 166:one_wire/DS18B20.c ****    CyDelayUs(DS1820_MSTR_BITSTART);
 1609              		.loc 1 166 0
 1610 00f8 0020     		mov	r0, #0
 1611              	.LVL241:
 1612 00fa 9847     		blx	r3
 1613              	.LVL242:
 167:one_wire/DS18B20.c **** 
 1614              		.loc 1 167 0
 1615 00fc 0220     		mov	r0, #2
 1616 00fe FFF7FEFF 		bl	CyDelayUs
 1617              	.LVL243:
 1618              	.LBE157:
 1619              	.LBE156:
 221:one_wire/DS18B20.c ****       temp &= 0x01;           /* copy that bit to temp */
 1620              		.loc 1 221 0
 1621 0102 4423     		mov	r3, #68
 1622 0104 9846     		mov	r8, r3
 1623              	.LBB162:
 1624              	.LBB158:
 167:one_wire/DS18B20.c **** 
 1625              		.loc 1 167 0
 1626 0106 073C     		sub	r4, r4, #7
 1627              	.LVL244:
 1628              	.L90:
 174:one_wire/DS18B20.c ****    io->pin_write(1);
 1629              		.loc 1 174 0
 1630 0108 6420     		mov	r0, #100
 1631 010a FFF7FEFF 		bl	CyDelayUs
ARM GAS  C:\Users\glenn\AppData\Local\Temp\cc3rYttq.s 			page 44


 1632              	.LVL245:
 175:one_wire/DS18B20.c ****    
 1633              		.loc 1 175 0
 1634 010e 0120     		mov	r0, #1
 1635 0110 7368     		ldr	r3, [r6, #4]
 1636 0112 9847     		blx	r3
 1637              	.LVL246:
 177:one_wire/DS18B20.c **** }
 1638              		.loc 1 177 0
 1639 0114 381C     		mov	r0, r7
 1640 0116 FFF7FEFF 		bl	CyExitCriticalSection
 1641              	.LVL247:
 1642              	.LBE158:
 1643              	.LBE162:
 219:one_wire/DS18B20.c ****    {
 1644              		.loc 1 219 0
 1645 011a 082C     		cmp	r4, #8
 1646 011c 14D0     		beq	.L105
 221:one_wire/DS18B20.c ****       temp &= 0x01;           /* copy that bit to temp */
 1647              		.loc 1 221 0
 1648 011e 4546     		mov	r5, r8
 1649              	.LBB163:
 1650              	.LBB159:
 164:one_wire/DS18B20.c ****     
 1651              		.loc 1 164 0
 1652 0120 FFF7FEFF 		bl	CyEnterCriticalSection
 1653              	.LVL248:
 1654              	.LBE159:
 1655              	.LBE163:
 221:one_wire/DS18B20.c ****       temp &= 0x01;           /* copy that bit to temp */
 1656              		.loc 1 221 0
 1657 0124 2541     		asr	r5, r5, r4
 1658              	.LBB164:
 1659              	.LBB160:
 166:one_wire/DS18B20.c ****    CyDelayUs(DS1820_MSTR_BITSTART);
 1660              		.loc 1 166 0
 1661 0126 7368     		ldr	r3, [r6, #4]
 164:one_wire/DS18B20.c ****     
 1662              		.loc 1 164 0
 1663 0128 071C     		mov	r7, r0
 166:one_wire/DS18B20.c ****    CyDelayUs(DS1820_MSTR_BITSTART);
 1664              		.loc 1 166 0
 1665 012a 0020     		mov	r0, #0
 1666 012c 9847     		blx	r3
 1667              	.LVL249:
 1668              	.LBE160:
 1669              	.LBE164:
 221:one_wire/DS18B20.c ****       temp &= 0x01;           /* copy that bit to temp */
 1670              		.loc 1 221 0
 1671 012e EDB2     		uxtb	r5, r5
 1672              	.LVL250:
 1673              	.LBB165:
 1674              	.LBB161:
 167:one_wire/DS18B20.c **** 
 1675              		.loc 1 167 0
 1676 0130 0220     		mov	r0, #2
 1677 0132 FFF7FEFF 		bl	CyDelayUs
ARM GAS  C:\Users\glenn\AppData\Local\Temp\cc3rYttq.s 			page 45


 1678              	.LVL251:
 169:one_wire/DS18B20.c ****    {
 1679              		.loc 1 169 0
 1680 0136 EB07     		lsl	r3, r5, #31
 1681 0138 01D4     		bmi	.L106
 1682 013a 0134     		add	r4, r4, #1
 1683              	.LVL252:
 1684 013c E4E7     		b	.L90
 1685              	.LVL253:
 1686              	.L106:
 171:one_wire/DS18B20.c ****    }
 1687              		.loc 1 171 0
 1688 013e 0120     		mov	r0, #1
 1689 0140 7368     		ldr	r3, [r6, #4]
 1690 0142 9847     		blx	r3
 1691              	.LVL254:
 1692 0144 0134     		add	r4, r4, #1
 1693              	.LVL255:
 1694 0146 DFE7     		b	.L90
 1695              	.LVL256:
 1696              	.L105:
 1697              	.LBE161:
 1698              	.LBE165:
 226:one_wire/DS18B20.c **** }
 1699              		.loc 1 226 0
 1700 0148 6920     		mov	r0, #105
 1701 014a FFF7FEFF 		bl	CyDelayUs
 1702              	.LVL257:
 1703              	.LBE155:
 1704              	.LBE154:
 482:one_wire/DS18B20.c **** 
 1705              		.loc 1 482 0
 1706              		@ sp needed
 1707              	.LVL258:
 1708              	.LVL259:
 1709              	.LVL260:
 1710 014e 3CBC     		pop	{r2, r3, r4, r5}
 1711 0150 9046     		mov	r8, r2
 1712 0152 9946     		mov	r9, r3
 1713 0154 A246     		mov	r10, r4
 1714 0156 AB46     		mov	fp, r5
 1715 0158 F8BD     		pop	{r3, r4, r5, r6, r7, pc}
 1716              		.cfi_endproc
 1717              	.LFE70:
 1718              		.size	DS1820_StartTemp_Reading, .-DS1820_StartTemp_Reading
 1719              		.global	__aeabi_idiv
 1720 015a C046     		.section	.text.DS1820_GetTempRaw,"ax",%progbits
 1721              		.align	2
 1722              		.global	DS1820_GetTempRaw
 1723              		.code	16
 1724              		.thumb_func
 1725              		.type	DS1820_GetTempRaw, %function
 1726              	DS1820_GetTempRaw:
 1727              	.LFB71:
 488:one_wire/DS18B20.c ****     uint8 i;
 1728              		.loc 1 488 0
 1729              		.cfi_startproc
ARM GAS  C:\Users\glenn\AppData\Local\Temp\cc3rYttq.s 			page 46


 1730              	.LVL261:
 1731 0000 F0B5     		push	{r4, r5, r6, r7, lr}
 1732              		.cfi_def_cfa_offset 20
 1733              		.cfi_offset 4, -20
 1734              		.cfi_offset 5, -16
 1735              		.cfi_offset 6, -12
 1736              		.cfi_offset 7, -8
 1737              		.cfi_offset 14, -4
 1738 0002 4D46     		mov	r5, r9
 1739 0004 4446     		mov	r4, r8
 1740 0006 5F46     		mov	r7, fp
 1741 0008 5646     		mov	r6, r10
 1742 000a F0B4     		push	{r4, r5, r6, r7}
 1743              		.cfi_def_cfa_offset 36
 1744              		.cfi_offset 8, -36
 1745              		.cfi_offset 9, -32
 1746              		.cfi_offset 10, -28
 1747              		.cfi_offset 11, -24
 1748 000c 87B0     		sub	sp, sp, #28
 1749              		.cfi_def_cfa_offset 64
 488:one_wire/DS18B20.c ****     uint8 i;
 1750              		.loc 1 488 0
 1751 000e 0191     		str	r1, [sp, #4]
 1752 0010 041C     		mov	r4, r0
 1753              	.LVL262:
 1754              	.LBB186:
 1755              	.LBB187:
 103:one_wire/DS18B20.c ****    
 1756              		.loc 1 103 0
 1757 0012 FFF7FEFF 		bl	CyEnterCriticalSection
 1758              	.LVL263:
 106:one_wire/DS18B20.c ****    CyDelayUs(DS1820_RST_PULSE);
 1759              		.loc 1 106 0
 1760 0016 6368     		ldr	r3, [r4, #4]
 103:one_wire/DS18B20.c ****    
 1761              		.loc 1 103 0
 1762 0018 051C     		mov	r5, r0
 1763              	.LVL264:
 106:one_wire/DS18B20.c ****    CyDelayUs(DS1820_RST_PULSE);
 1764              		.loc 1 106 0
 1765 001a 0020     		mov	r0, #0
 1766 001c 9847     		blx	r3
 1767              	.LVL265:
 107:one_wire/DS18B20.c ****    io->pin_write(1);
 1768              		.loc 1 107 0
 1769 001e F020     		mov	r0, #240
 1770 0020 4000     		lsl	r0, r0, #1
 1771 0022 FFF7FEFF 		bl	CyDelayUs
 1772              	.LVL266:
 108:one_wire/DS18B20.c **** 
 1773              		.loc 1 108 0
 1774 0026 6368     		ldr	r3, [r4, #4]
 1775 0028 0120     		mov	r0, #1
 1776 002a 9847     		blx	r3
 1777              	.LVL267:
 111:one_wire/DS18B20.c **** 
 1778              		.loc 1 111 0
ARM GAS  C:\Users\glenn\AppData\Local\Temp\cc3rYttq.s 			page 47


 1779 002c 2820     		mov	r0, #40
 1780 002e FFF7FEFF 		bl	CyDelayUs
 1781              	.LVL268:
 114:one_wire/DS18B20.c **** 
 1782              		.loc 1 114 0
 1783 0032 2368     		ldr	r3, [r4]
 1784 0034 9847     		blx	r3
 1785              	.LVL269:
 116:one_wire/DS18B20.c ****    
 1786              		.loc 1 116 0
 1787 0036 D420     		mov	r0, #212
 1788 0038 4000     		lsl	r0, r0, #1
 1789 003a FFF7FEFF 		bl	CyDelayUs
 1790              	.LVL270:
 118:one_wire/DS18B20.c **** 
 1791              		.loc 1 118 0
 1792 003e 281C     		mov	r0, r5
 1793 0040 FFF7FEFF 		bl	CyExitCriticalSection
 1794              	.LVL271:
 1795              	.LBE187:
 1796              	.LBE186:
 1797              	.LBB189:
 1798              	.LBB190:
 1799              	.LBB191:
 1800              	.LBB192:
 221:one_wire/DS18B20.c ****       temp &= 0x01;           /* copy that bit to temp */
 1801              		.loc 1 221 0
 1802 0044 5523     		mov	r3, #85
 1803 0046 9946     		mov	r9, r3
 222:one_wire/DS18B20.c ****       DS1820_WriteBit(io,temp);  /* write bit in temp into */
 1804              		.loc 1 222 0
 1805 0048 543B     		sub	r3, r3, #84
 1806              	.LBE192:
 1807              	.LBE191:
 1808              	.LBE190:
 1809              	.LBE189:
 1810              	.LBB216:
 1811              	.LBB188:
 118:one_wire/DS18B20.c **** 
 1812              		.loc 1 118 0
 1813 004a 0025     		mov	r5, #0
 1814              	.LVL272:
 1815              	.LBE188:
 1816              	.LBE216:
 1817              	.LBB217:
 1818              	.LBB215:
 1819              	.LBB202:
 1820              	.LBB201:
 222:one_wire/DS18B20.c ****       DS1820_WriteBit(io,temp);  /* write bit in temp into */
 1821              		.loc 1 222 0
 1822 004c 9846     		mov	r8, r3
 1823              	.LVL273:
 1824              	.L109:
 1825              	.LBB193:
 1826              	.LBB194:
 164:one_wire/DS18B20.c ****     
 1827              		.loc 1 164 0
ARM GAS  C:\Users\glenn\AppData\Local\Temp\cc3rYttq.s 			page 48


 1828 004e FFF7FEFF 		bl	CyEnterCriticalSection
 1829              	.LVL274:
 1830              	.LBE194:
 1831              	.LBE193:
 221:one_wire/DS18B20.c ****       temp &= 0x01;           /* copy that bit to temp */
 1832              		.loc 1 221 0
 1833 0052 4E46     		mov	r6, r9
 1834              	.LBB198:
 1835              	.LBB195:
 166:one_wire/DS18B20.c ****    CyDelayUs(DS1820_MSTR_BITSTART);
 1836              		.loc 1 166 0
 1837 0054 6368     		ldr	r3, [r4, #4]
 164:one_wire/DS18B20.c ****     
 1838              		.loc 1 164 0
 1839 0056 071C     		mov	r7, r0
 166:one_wire/DS18B20.c ****    CyDelayUs(DS1820_MSTR_BITSTART);
 1840              		.loc 1 166 0
 1841 0058 0020     		mov	r0, #0
 1842 005a 9847     		blx	r3
 1843              	.LVL275:
 1844              	.LBE195:
 1845              	.LBE198:
 221:one_wire/DS18B20.c ****       temp &= 0x01;           /* copy that bit to temp */
 1846              		.loc 1 221 0
 1847 005c 2E41     		asr	r6, r6, r5
 1848              	.LBB199:
 1849              	.LBB196:
 167:one_wire/DS18B20.c **** 
 1850              		.loc 1 167 0
 1851 005e 0220     		mov	r0, #2
 1852 0060 FFF7FEFF 		bl	CyDelayUs
 1853              	.LVL276:
 169:one_wire/DS18B20.c ****    {
 1854              		.loc 1 169 0
 1855 0064 4346     		mov	r3, r8
 1856              	.LBE196:
 1857              	.LBE199:
 221:one_wire/DS18B20.c ****       temp &= 0x01;           /* copy that bit to temp */
 1858              		.loc 1 221 0
 1859 0066 F6B2     		uxtb	r6, r6
 1860              	.LVL277:
 1861              	.LBB200:
 1862              	.LBB197:
 169:one_wire/DS18B20.c ****    {
 1863              		.loc 1 169 0
 1864 0068 3342     		tst	r3, r6
 1865 006a 02D0     		beq	.L108
 171:one_wire/DS18B20.c ****    }
 1866              		.loc 1 171 0
 1867 006c 0120     		mov	r0, #1
 1868 006e 6368     		ldr	r3, [r4, #4]
 1869 0070 9847     		blx	r3
 1870              	.LVL278:
 1871              	.L108:
 174:one_wire/DS18B20.c ****    io->pin_write(1);
 1872              		.loc 1 174 0
 1873 0072 6420     		mov	r0, #100
ARM GAS  C:\Users\glenn\AppData\Local\Temp\cc3rYttq.s 			page 49


 1874 0074 FFF7FEFF 		bl	CyDelayUs
 1875              	.LVL279:
 175:one_wire/DS18B20.c ****    
 1876              		.loc 1 175 0
 1877 0078 0120     		mov	r0, #1
 1878 007a 6368     		ldr	r3, [r4, #4]
 1879 007c 9847     		blx	r3
 1880              	.LVL280:
 1881 007e 0135     		add	r5, r5, #1
 1882              	.LVL281:
 177:one_wire/DS18B20.c **** }
 1883              		.loc 1 177 0
 1884 0080 381C     		mov	r0, r7
 1885 0082 FFF7FEFF 		bl	CyExitCriticalSection
 1886              	.LVL282:
 1887              	.LBE197:
 1888              	.LBE200:
 219:one_wire/DS18B20.c ****    {
 1889              		.loc 1 219 0
 1890 0086 082D     		cmp	r5, #8
 1891 0088 E1D1     		bne	.L109
 226:one_wire/DS18B20.c **** }
 1892              		.loc 1 226 0
 1893 008a 6920     		mov	r0, #105
 1894 008c FFF7FEFF 		bl	CyDelayUs
 1895              	.LVL283:
 1896 0090 019A     		ldr	r2, [sp, #4]
 1897 0092 131C     		mov	r3, r2
 1898 0094 9246     		mov	r10, r2
 1899 0096 0822     		mov	r2, #8
 1900 0098 9446     		mov	ip, r2
 1901 009a 6344     		add	r3, r3, ip
 1902 009c 9B46     		mov	fp, r3
 1903              	.LBE201:
 1904              	.LBE202:
 1905              	.LBB203:
 1906              	.LBB204:
 222:one_wire/DS18B20.c ****       DS1820_WriteBit(io,temp);  /* write bit in temp into */
 1907              		.loc 1 222 0
 1908 009e 0123     		mov	r3, #1
 1909 00a0 9946     		mov	r9, r3
 1910              	.LVL284:
 1911              	.L112:
 1912 00a2 5346     		mov	r3, r10
 1913 00a4 1B78     		ldrb	r3, [r3]
 1914              	.LBE204:
 1915              	.LBE203:
 252:one_wire/DS18B20.c ****       }
 1916              		.loc 1 252 0
 1917 00a6 0025     		mov	r5, #0
 1918 00a8 9846     		mov	r8, r3
 1919              	.LVL285:
 1920              	.L111:
 1921              	.LBB214:
 1922              	.LBB213:
 1923              	.LBB205:
 1924              	.LBB206:
ARM GAS  C:\Users\glenn\AppData\Local\Temp\cc3rYttq.s 			page 50


 164:one_wire/DS18B20.c ****     
 1925              		.loc 1 164 0
 1926 00aa FFF7FEFF 		bl	CyEnterCriticalSection
 1927              	.LVL286:
 1928              	.LBE206:
 1929              	.LBE205:
 221:one_wire/DS18B20.c ****       temp &= 0x01;           /* copy that bit to temp */
 1930              		.loc 1 221 0
 1931 00ae 4646     		mov	r6, r8
 1932              	.LBB210:
 1933              	.LBB207:
 166:one_wire/DS18B20.c ****    CyDelayUs(DS1820_MSTR_BITSTART);
 1934              		.loc 1 166 0
 1935 00b0 6368     		ldr	r3, [r4, #4]
 164:one_wire/DS18B20.c ****     
 1936              		.loc 1 164 0
 1937 00b2 071C     		mov	r7, r0
 166:one_wire/DS18B20.c ****    CyDelayUs(DS1820_MSTR_BITSTART);
 1938              		.loc 1 166 0
 1939 00b4 0020     		mov	r0, #0
 1940 00b6 9847     		blx	r3
 1941              	.LVL287:
 1942              	.LBE207:
 1943              	.LBE210:
 221:one_wire/DS18B20.c ****       temp &= 0x01;           /* copy that bit to temp */
 1944              		.loc 1 221 0
 1945 00b8 2E41     		asr	r6, r6, r5
 1946              	.LBB211:
 1947              	.LBB208:
 167:one_wire/DS18B20.c **** 
 1948              		.loc 1 167 0
 1949 00ba 0220     		mov	r0, #2
 1950 00bc FFF7FEFF 		bl	CyDelayUs
 1951              	.LVL288:
 169:one_wire/DS18B20.c ****    {
 1952              		.loc 1 169 0
 1953 00c0 4B46     		mov	r3, r9
 1954              	.LBE208:
 1955              	.LBE211:
 221:one_wire/DS18B20.c ****       temp &= 0x01;           /* copy that bit to temp */
 1956              		.loc 1 221 0
 1957 00c2 F6B2     		uxtb	r6, r6
 1958              	.LVL289:
 1959              	.LBB212:
 1960              	.LBB209:
 169:one_wire/DS18B20.c ****    {
 1961              		.loc 1 169 0
 1962 00c4 3342     		tst	r3, r6
 1963 00c6 02D0     		beq	.L110
 171:one_wire/DS18B20.c ****    }
 1964              		.loc 1 171 0
 1965 00c8 0120     		mov	r0, #1
 1966 00ca 6368     		ldr	r3, [r4, #4]
 1967 00cc 9847     		blx	r3
 1968              	.LVL290:
 1969              	.L110:
 174:one_wire/DS18B20.c ****    io->pin_write(1);
ARM GAS  C:\Users\glenn\AppData\Local\Temp\cc3rYttq.s 			page 51


 1970              		.loc 1 174 0
 1971 00ce 6420     		mov	r0, #100
 1972 00d0 FFF7FEFF 		bl	CyDelayUs
 1973              	.LVL291:
 175:one_wire/DS18B20.c ****    
 1974              		.loc 1 175 0
 1975 00d4 0120     		mov	r0, #1
 1976 00d6 6368     		ldr	r3, [r4, #4]
 1977 00d8 9847     		blx	r3
 1978              	.LVL292:
 1979 00da 0135     		add	r5, r5, #1
 1980              	.LVL293:
 177:one_wire/DS18B20.c **** }
 1981              		.loc 1 177 0
 1982 00dc 381C     		mov	r0, r7
 1983 00de FFF7FEFF 		bl	CyExitCriticalSection
 1984              	.LVL294:
 1985              	.LBE209:
 1986              	.LBE212:
 219:one_wire/DS18B20.c ****    {
 1987              		.loc 1 219 0
 1988 00e2 082D     		cmp	r5, #8
 1989 00e4 E1D1     		bne	.L111
 226:one_wire/DS18B20.c **** }
 1990              		.loc 1 226 0
 1991 00e6 6920     		mov	r0, #105
 1992 00e8 FFF7FEFF 		bl	CyDelayUs
 1993              	.LVL295:
 1994 00ec 0123     		mov	r3, #1
 1995 00ee 9C46     		mov	ip, r3
 1996 00f0 E244     		add	r10, r10, ip
 1997              	.LVL296:
 1998              	.LBE213:
 1999              	.LBE214:
 250:one_wire/DS18B20.c ****       {
 2000              		.loc 1 250 0
 2001 00f2 DA45     		cmp	r10, fp
 2002 00f4 D5D1     		bne	.L112
 2003              	.LVL297:
 2004              	.LBE215:
 2005              	.LBE217:
 2006              	.LBB218:
 2007              	.LBB219:
 2008              	.LBB220:
 2009              	.LBB221:
 164:one_wire/DS18B20.c ****     
 2010              		.loc 1 164 0
 2011 00f6 FFF7FEFF 		bl	CyEnterCriticalSection
 2012              	.LVL298:
 166:one_wire/DS18B20.c ****    CyDelayUs(DS1820_MSTR_BITSTART);
 2013              		.loc 1 166 0
 2014 00fa 6368     		ldr	r3, [r4, #4]
 164:one_wire/DS18B20.c ****     
 2015              		.loc 1 164 0
 2016 00fc 071C     		mov	r7, r0
 2017              	.LVL299:
 166:one_wire/DS18B20.c ****    CyDelayUs(DS1820_MSTR_BITSTART);
ARM GAS  C:\Users\glenn\AppData\Local\Temp\cc3rYttq.s 			page 52


 2018              		.loc 1 166 0
 2019 00fe 0020     		mov	r0, #0
 2020              	.LVL300:
 2021 0100 9847     		blx	r3
 2022              	.LVL301:
 167:one_wire/DS18B20.c **** 
 2023              		.loc 1 167 0
 2024 0102 0220     		mov	r0, #2
 2025 0104 FFF7FEFF 		bl	CyDelayUs
 2026              	.LVL302:
 2027              	.LBE221:
 2028              	.LBE220:
 221:one_wire/DS18B20.c ****       temp &= 0x01;           /* copy that bit to temp */
 2029              		.loc 1 221 0
 2030 0108 BE23     		mov	r3, #190
 2031              	.LBB227:
 2032              	.LBB222:
 167:one_wire/DS18B20.c **** 
 2033              		.loc 1 167 0
 2034 010a 0125     		mov	r5, #1
 2035              	.LBE222:
 2036              	.LBE227:
 221:one_wire/DS18B20.c ****       temp &= 0x01;           /* copy that bit to temp */
 2037              		.loc 1 221 0
 2038 010c 9846     		mov	r8, r3
 2039              	.LVL303:
 2040              	.L122:
 2041              	.LBB228:
 2042              	.LBB223:
 174:one_wire/DS18B20.c ****    io->pin_write(1);
 2043              		.loc 1 174 0
 2044 010e 6420     		mov	r0, #100
 2045 0110 FFF7FEFF 		bl	CyDelayUs
 2046              	.LVL304:
 175:one_wire/DS18B20.c ****    
 2047              		.loc 1 175 0
 2048 0114 0120     		mov	r0, #1
 2049 0116 6368     		ldr	r3, [r4, #4]
 2050 0118 9847     		blx	r3
 2051              	.LVL305:
 177:one_wire/DS18B20.c **** }
 2052              		.loc 1 177 0
 2053 011a 381C     		mov	r0, r7
 2054 011c FFF7FEFF 		bl	CyExitCriticalSection
 2055              	.LVL306:
 2056              	.LBE223:
 2057              	.LBE228:
 219:one_wire/DS18B20.c ****    {
 2058              		.loc 1 219 0
 2059 0120 082D     		cmp	r5, #8
 2060 0122 14D0     		beq	.L146
 221:one_wire/DS18B20.c ****       temp &= 0x01;           /* copy that bit to temp */
 2061              		.loc 1 221 0
 2062 0124 4646     		mov	r6, r8
 2063              	.LBB229:
 2064              	.LBB224:
 164:one_wire/DS18B20.c ****     
ARM GAS  C:\Users\glenn\AppData\Local\Temp\cc3rYttq.s 			page 53


 2065              		.loc 1 164 0
 2066 0126 FFF7FEFF 		bl	CyEnterCriticalSection
 2067              	.LVL307:
 2068              	.LBE224:
 2069              	.LBE229:
 221:one_wire/DS18B20.c ****       temp &= 0x01;           /* copy that bit to temp */
 2070              		.loc 1 221 0
 2071 012a 2E41     		asr	r6, r6, r5
 2072              	.LBB230:
 2073              	.LBB225:
 166:one_wire/DS18B20.c ****    CyDelayUs(DS1820_MSTR_BITSTART);
 2074              		.loc 1 166 0
 2075 012c 6368     		ldr	r3, [r4, #4]
 164:one_wire/DS18B20.c ****     
 2076              		.loc 1 164 0
 2077 012e 071C     		mov	r7, r0
 166:one_wire/DS18B20.c ****    CyDelayUs(DS1820_MSTR_BITSTART);
 2078              		.loc 1 166 0
 2079 0130 0020     		mov	r0, #0
 2080 0132 9847     		blx	r3
 2081              	.LVL308:
 2082              	.LBE225:
 2083              	.LBE230:
 221:one_wire/DS18B20.c ****       temp &= 0x01;           /* copy that bit to temp */
 2084              		.loc 1 221 0
 2085 0134 F6B2     		uxtb	r6, r6
 2086              	.LVL309:
 2087              	.LBB231:
 2088              	.LBB226:
 167:one_wire/DS18B20.c **** 
 2089              		.loc 1 167 0
 2090 0136 0220     		mov	r0, #2
 2091 0138 FFF7FEFF 		bl	CyDelayUs
 2092              	.LVL310:
 169:one_wire/DS18B20.c ****    {
 2093              		.loc 1 169 0
 2094 013c F307     		lsl	r3, r6, #31
 2095 013e 01D4     		bmi	.L147
 2096 0140 0135     		add	r5, r5, #1
 2097              	.LVL311:
 2098 0142 E4E7     		b	.L122
 2099              	.LVL312:
 2100              	.L147:
 171:one_wire/DS18B20.c ****    }
 2101              		.loc 1 171 0
 2102 0144 0120     		mov	r0, #1
 2103 0146 6368     		ldr	r3, [r4, #4]
 2104 0148 9847     		blx	r3
 2105              	.LVL313:
 2106 014a 0135     		add	r5, r5, #1
 2107              	.LVL314:
 2108 014c DFE7     		b	.L122
 2109              	.LVL315:
 2110              	.L146:
 2111              	.LBE226:
 2112              	.LBE231:
 226:one_wire/DS18B20.c **** }
ARM GAS  C:\Users\glenn\AppData\Local\Temp\cc3rYttq.s 			page 54


 2113              		.loc 1 226 0
 2114 014e 6920     		mov	r0, #105
 2115 0150 FFF7FEFF 		bl	CyDelayUs
 2116              	.LVL316:
 2117 0154 0023     		mov	r3, #0
 2118 0156 9846     		mov	r8, r3
 2119              	.LVL317:
 2120              	.L118:
 226:one_wire/DS18B20.c **** }
 2121              		.loc 1 226 0 is_stmt 0 discriminator 3
 2122 0158 0025     		mov	r5, #0
 2123              	.LBE219:
 2124              	.LBE218:
 2125              	.LBB232:
 2126              	.LBB233:
 192:one_wire/DS18B20.c **** 
 2127              		.loc 1 192 0 is_stmt 1 discriminator 3
 2128 015a 0026     		mov	r6, #0
 2129              	.LVL318:
 2130              	.L117:
 2131              	.LBB234:
 2132              	.LBB235:
 137:one_wire/DS18B20.c **** 
 2133              		.loc 1 137 0
 2134 015c FFF7FEFF 		bl	CyEnterCriticalSection
 2135              	.LVL319:
 140:one_wire/DS18B20.c ****    CyDelayUs(DS1820_MSTR_BITSTART);
 2136              		.loc 1 140 0
 2137 0160 6368     		ldr	r3, [r4, #4]
 137:one_wire/DS18B20.c **** 
 2138              		.loc 1 137 0
 2139 0162 8246     		mov	r10, r0
 2140              	.LVL320:
 140:one_wire/DS18B20.c ****    CyDelayUs(DS1820_MSTR_BITSTART);
 2141              		.loc 1 140 0
 2142 0164 0020     		mov	r0, #0
 2143 0166 9847     		blx	r3
 2144              	.LVL321:
 141:one_wire/DS18B20.c ****    io->pin_write(1);
 2145              		.loc 1 141 0
 2146 0168 0220     		mov	r0, #2
 2147 016a FFF7FEFF 		bl	CyDelayUs
 2148              	.LVL322:
 142:one_wire/DS18B20.c ****    CyDelayUs(DS1820_BITREAD_DLY);
 2149              		.loc 1 142 0
 2150 016e 6368     		ldr	r3, [r4, #4]
 2151 0170 0120     		mov	r0, #1
 2152 0172 9847     		blx	r3
 2153              	.LVL323:
 143:one_wire/DS18B20.c **** 
 2154              		.loc 1 143 0
 2155 0174 0520     		mov	r0, #5
 2156 0176 FFF7FEFF 		bl	CyDelayUs
 2157              	.LVL324:
 145:one_wire/DS18B20.c ****    
 2158              		.loc 1 145 0
 2159 017a 2368     		ldr	r3, [r4]
ARM GAS  C:\Users\glenn\AppData\Local\Temp\cc3rYttq.s 			page 55


 2160 017c 9847     		blx	r3
 2161              	.LVL325:
 2162 017e 071C     		mov	r7, r0
 2163              	.LVL326:
 147:one_wire/DS18B20.c **** 
 2164              		.loc 1 147 0
 2165 0180 5046     		mov	r0, r10
 2166 0182 FFF7FEFF 		bl	CyExitCriticalSection
 2167              	.LVL327:
 2168              	.LBE235:
 2169              	.LBE234:
 196:one_wire/DS18B20.c ****       {
 2170              		.loc 1 196 0
 2171 0186 002F     		cmp	r7, #0
 2172 0188 03D0     		beq	.L116
 198:one_wire/DS18B20.c ****       }
 2173              		.loc 1 198 0
 2174 018a 0123     		mov	r3, #1
 2175 018c AB40     		lsl	r3, r3, r5
 2176 018e 3343     		orr	r3, r6
 2177 0190 DEB2     		uxtb	r6, r3
 2178              	.LVL328:
 2179              	.L116:
 200:one_wire/DS18B20.c ****    }
 2180              		.loc 1 200 0
 2181 0192 7820     		mov	r0, #120
 2182 0194 0135     		add	r5, r5, #1
 2183              	.LVL329:
 2184 0196 FFF7FEFF 		bl	CyDelayUs
 2185              	.LVL330:
 194:one_wire/DS18B20.c ****    {
 2186              		.loc 1 194 0
 2187 019a 082D     		cmp	r5, #8
 2188 019c DED1     		bne	.L117
 2189              	.LBE233:
 2190              	.LBE232:
 502:one_wire/DS18B20.c ****     }
 2191              		.loc 1 502 0
 2192 019e 4246     		mov	r2, r8
 2193 01a0 03AB     		add	r3, sp, #12
 2194 01a2 9E54     		strb	r6, [r3, r2]
 2195              	.LVL331:
 2196 01a4 0123     		mov	r3, #1
 2197 01a6 9C46     		mov	ip, r3
 2198 01a8 E044     		add	r8, r8, ip
 2199              	.LVL332:
 500:one_wire/DS18B20.c ****     {
 2200              		.loc 1 500 0
 2201 01aa 4346     		mov	r3, r8
 2202 01ac 092B     		cmp	r3, #9
 2203 01ae D3D1     		bne	.L118
 2204              	.LVL333:
 513:one_wire/DS18B20.c **** 
 2205              		.loc 1 513 0
 2206 01b0 02AA     		add	r2, sp, #8
 2207 01b2 1079     		ldrb	r0, [r2, #4]
 512:one_wire/DS18B20.c ****     temp_u16 |= (uint16)(scrpad[DS1820_REG_TEMPLSB]);
ARM GAS  C:\Users\glenn\AppData\Local\Temp\cc3rYttq.s 			page 56


 2208              		.loc 1 512 0
 2209 01b4 02AB     		add	r3, sp, #8
 515:one_wire/DS18B20.c ****     {
 2210              		.loc 1 515 0
 2211 01b6 019A     		ldr	r2, [sp, #4]
 512:one_wire/DS18B20.c ****     temp_u16 |= (uint16)(scrpad[DS1820_REG_TEMPLSB]);
 2212              		.loc 1 512 0
 2213 01b8 5B79     		ldrb	r3, [r3, #5]
 515:one_wire/DS18B20.c ****     {
 2214              		.loc 1 515 0
 2215 01ba 1278     		ldrb	r2, [r2]
 512:one_wire/DS18B20.c ****     temp_u16 |= (uint16)(scrpad[DS1820_REG_TEMPLSB]);
 2216              		.loc 1 512 0
 2217 01bc 1B02     		lsl	r3, r3, #8
 513:one_wire/DS18B20.c **** 
 2218              		.loc 1 513 0
 2219 01be 0343     		orr	r3, r0
 2220              	.LVL334:
 515:one_wire/DS18B20.c ****     {
 2221              		.loc 1 515 0
 2222 01c0 102A     		cmp	r2, #16
 2223 01c2 09D0     		beq	.L148
 2224              	.LVL335:
 543:one_wire/DS18B20.c ****     }
 2225              		.loc 1 543 0
 2226 01c4 1B01     		lsl	r3, r3, #4
 2227              	.LVL336:
 2228 01c6 98B2     		uxth	r0, r3
 2229              	.LVL337:
 2230              	.L121:
 546:one_wire/DS18B20.c **** }
 2231              		.loc 1 546 0
 2232 01c8 00B2     		sxth	r0, r0
 547:one_wire/DS18B20.c **** static const uint8 crc_table[] = {
 2233              		.loc 1 547 0
 2234 01ca 07B0     		add	sp, sp, #28
 2235              		@ sp needed
 2236              	.LVL338:
 2237              	.LVL339:
 2238              	.LVL340:
 2239 01cc 3CBC     		pop	{r2, r3, r4, r5}
 2240 01ce 9046     		mov	r8, r2
 2241 01d0 9946     		mov	r9, r3
 2242 01d2 A246     		mov	r10, r4
 2243 01d4 AB46     		mov	fp, r5
 2244 01d6 F0BD     		pop	{r4, r5, r6, r7, pc}
 2245              	.LVL341:
 2246              	.L148:
 518:one_wire/DS18B20.c ****     
 2247              		.loc 1 518 0
 2248 01d8 5B08     		lsr	r3, r3, #1
 2249              	.LVL342:
 522:one_wire/DS18B20.c ****     
 2250              		.loc 1 522 0
 2251 01da 1B02     		lsl	r3, r3, #8
 2252              	.LVL343:
 525:one_wire/DS18B20.c ****     
ARM GAS  C:\Users\glenn\AppData\Local\Temp\cc3rYttq.s 			page 57


 2253              		.loc 1 525 0
 2254 01dc 403B     		sub	r3, r3, #64
 2255              	.LVL344:
 2256 01de 9CB2     		uxth	r4, r3
 2257              	.LVL345:
 528:one_wire/DS18B20.c ****         highres_u16 = ((uint16)highres_u16 << 8);
 2258              		.loc 1 528 0
 2259 01e0 02AB     		add	r3, sp, #8
 2260 01e2 D97A     		ldrb	r1, [r3, #11]
 2261 01e4 987A     		ldrb	r0, [r3, #10]
 2262 01e6 081A     		sub	r0, r1, r0
 2263 01e8 80B2     		uxth	r0, r0
 2264              	.LVL346:
 529:one_wire/DS18B20.c ****         if (scrpad[DS1820_REG_CNTPERSEC])
 2265              		.loc 1 529 0
 2266 01ea 0002     		lsl	r0, r0, #8
 2267              	.LVL347:
 2268 01ec 80B2     		uxth	r0, r0
 2269              	.LVL348:
 530:one_wire/DS18B20.c ****         {
 2270              		.loc 1 530 0
 2271 01ee 0029     		cmp	r1, #0
 2272 01f0 02D0     		beq	.L120
 532:one_wire/DS18B20.c ****         }
 2273              		.loc 1 532 0
 2274 01f2 FFF7FEFF 		bl	__aeabi_idiv
 2275              	.LVL349:
 2276 01f6 80B2     		uxth	r0, r0
 2277              	.LVL350:
 2278              	.L120:
 536:one_wire/DS18B20.c ****     }
 2279              		.loc 1 536 0
 2280 01f8 2018     		add	r0, r4, r0
 2281              	.LVL351:
 2282 01fa 80B2     		uxth	r0, r0
 2283              	.LVL352:
 2284 01fc E4E7     		b	.L121
 2285              		.cfi_endproc
 2286              	.LFE71:
 2287              		.size	DS1820_GetTempRaw, .-DS1820_GetTempRaw
 2288 01fe C046     		.section	.rodata
 2289              		.align	2
 2290              		.set	.LANCHOR1,. + 0
 2291              		.type	crc_table, %object
 2292              		.size	crc_table, 256
 2293              	crc_table:
 2294 0000 00       		.byte	0
 2295 0001 5E       		.byte	94
 2296 0002 BC       		.byte	-68
 2297 0003 E2       		.byte	-30
 2298 0004 61       		.byte	97
 2299 0005 3F       		.byte	63
 2300 0006 DD       		.byte	-35
 2301 0007 83       		.byte	-125
 2302 0008 C2       		.byte	-62
 2303 0009 9C       		.byte	-100
 2304 000a 7E       		.byte	126
ARM GAS  C:\Users\glenn\AppData\Local\Temp\cc3rYttq.s 			page 58


 2305 000b 20       		.byte	32
 2306 000c A3       		.byte	-93
 2307 000d FD       		.byte	-3
 2308 000e 1F       		.byte	31
 2309 000f 41       		.byte	65
 2310 0010 9D       		.byte	-99
 2311 0011 C3       		.byte	-61
 2312 0012 21       		.byte	33
 2313 0013 7F       		.byte	127
 2314 0014 FC       		.byte	-4
 2315 0015 A2       		.byte	-94
 2316 0016 40       		.byte	64
 2317 0017 1E       		.byte	30
 2318 0018 5F       		.byte	95
 2319 0019 01       		.byte	1
 2320 001a E3       		.byte	-29
 2321 001b BD       		.byte	-67
 2322 001c 3E       		.byte	62
 2323 001d 60       		.byte	96
 2324 001e 82       		.byte	-126
 2325 001f DC       		.byte	-36
 2326 0020 23       		.byte	35
 2327 0021 7D       		.byte	125
 2328 0022 9F       		.byte	-97
 2329 0023 C1       		.byte	-63
 2330 0024 42       		.byte	66
 2331 0025 1C       		.byte	28
 2332 0026 FE       		.byte	-2
 2333 0027 A0       		.byte	-96
 2334 0028 E1       		.byte	-31
 2335 0029 BF       		.byte	-65
 2336 002a 5D       		.byte	93
 2337 002b 03       		.byte	3
 2338 002c 80       		.byte	-128
 2339 002d DE       		.byte	-34
 2340 002e 3C       		.byte	60
 2341 002f 62       		.byte	98
 2342 0030 BE       		.byte	-66
 2343 0031 E0       		.byte	-32
 2344 0032 02       		.byte	2
 2345 0033 5C       		.byte	92
 2346 0034 DF       		.byte	-33
 2347 0035 81       		.byte	-127
 2348 0036 63       		.byte	99
 2349 0037 3D       		.byte	61
 2350 0038 7C       		.byte	124
 2351 0039 22       		.byte	34
 2352 003a C0       		.byte	-64
 2353 003b 9E       		.byte	-98
 2354 003c 1D       		.byte	29
 2355 003d 43       		.byte	67
 2356 003e A1       		.byte	-95
 2357 003f FF       		.byte	-1
 2358 0040 46       		.byte	70
 2359 0041 18       		.byte	24
 2360 0042 FA       		.byte	-6
 2361 0043 A4       		.byte	-92
ARM GAS  C:\Users\glenn\AppData\Local\Temp\cc3rYttq.s 			page 59


 2362 0044 27       		.byte	39
 2363 0045 79       		.byte	121
 2364 0046 9B       		.byte	-101
 2365 0047 C5       		.byte	-59
 2366 0048 84       		.byte	-124
 2367 0049 DA       		.byte	-38
 2368 004a 38       		.byte	56
 2369 004b 66       		.byte	102
 2370 004c E5       		.byte	-27
 2371 004d BB       		.byte	-69
 2372 004e 59       		.byte	89
 2373 004f 07       		.byte	7
 2374 0050 DB       		.byte	-37
 2375 0051 85       		.byte	-123
 2376 0052 67       		.byte	103
 2377 0053 39       		.byte	57
 2378 0054 BA       		.byte	-70
 2379 0055 E4       		.byte	-28
 2380 0056 06       		.byte	6
 2381 0057 58       		.byte	88
 2382 0058 19       		.byte	25
 2383 0059 47       		.byte	71
 2384 005a A5       		.byte	-91
 2385 005b FB       		.byte	-5
 2386 005c 78       		.byte	120
 2387 005d 26       		.byte	38
 2388 005e C4       		.byte	-60
 2389 005f 9A       		.byte	-102
 2390 0060 65       		.byte	101
 2391 0061 3B       		.byte	59
 2392 0062 D9       		.byte	-39
 2393 0063 87       		.byte	-121
 2394 0064 04       		.byte	4
 2395 0065 5A       		.byte	90
 2396 0066 B8       		.byte	-72
 2397 0067 E6       		.byte	-26
 2398 0068 A7       		.byte	-89
 2399 0069 F9       		.byte	-7
 2400 006a 1B       		.byte	27
 2401 006b 45       		.byte	69
 2402 006c C6       		.byte	-58
 2403 006d 98       		.byte	-104
 2404 006e 7A       		.byte	122
 2405 006f 24       		.byte	36
 2406 0070 F8       		.byte	-8
 2407 0071 A6       		.byte	-90
 2408 0072 44       		.byte	68
 2409 0073 1A       		.byte	26
 2410 0074 99       		.byte	-103
 2411 0075 C7       		.byte	-57
 2412 0076 25       		.byte	37
 2413 0077 7B       		.byte	123
 2414 0078 3A       		.byte	58
 2415 0079 64       		.byte	100
 2416 007a 86       		.byte	-122
 2417 007b D8       		.byte	-40
 2418 007c 5B       		.byte	91
ARM GAS  C:\Users\glenn\AppData\Local\Temp\cc3rYttq.s 			page 60


 2419 007d 05       		.byte	5
 2420 007e E7       		.byte	-25
 2421 007f B9       		.byte	-71
 2422 0080 8C       		.byte	-116
 2423 0081 D2       		.byte	-46
 2424 0082 30       		.byte	48
 2425 0083 6E       		.byte	110
 2426 0084 ED       		.byte	-19
 2427 0085 B3       		.byte	-77
 2428 0086 51       		.byte	81
 2429 0087 0F       		.byte	15
 2430 0088 4E       		.byte	78
 2431 0089 10       		.byte	16
 2432 008a F2       		.byte	-14
 2433 008b AC       		.byte	-84
 2434 008c 2F       		.byte	47
 2435 008d 71       		.byte	113
 2436 008e 93       		.byte	-109
 2437 008f CD       		.byte	-51
 2438 0090 11       		.byte	17
 2439 0091 4F       		.byte	79
 2440 0092 AD       		.byte	-83
 2441 0093 F3       		.byte	-13
 2442 0094 70       		.byte	112
 2443 0095 2E       		.byte	46
 2444 0096 CC       		.byte	-52
 2445 0097 92       		.byte	-110
 2446 0098 D3       		.byte	-45
 2447 0099 8D       		.byte	-115
 2448 009a 6F       		.byte	111
 2449 009b 31       		.byte	49
 2450 009c B2       		.byte	-78
 2451 009d EC       		.byte	-20
 2452 009e 0E       		.byte	14
 2453 009f 50       		.byte	80
 2454 00a0 AF       		.byte	-81
 2455 00a1 F1       		.byte	-15
 2456 00a2 13       		.byte	19
 2457 00a3 4D       		.byte	77
 2458 00a4 CE       		.byte	-50
 2459 00a5 90       		.byte	-112
 2460 00a6 72       		.byte	114
 2461 00a7 2C       		.byte	44
 2462 00a8 6D       		.byte	109
 2463 00a9 33       		.byte	51
 2464 00aa D1       		.byte	-47
 2465 00ab 8F       		.byte	-113
 2466 00ac 0C       		.byte	12
 2467 00ad 52       		.byte	82
 2468 00ae B0       		.byte	-80
 2469 00af EE       		.byte	-18
 2470 00b0 32       		.byte	50
 2471 00b1 6C       		.byte	108
 2472 00b2 8E       		.byte	-114
 2473 00b3 D0       		.byte	-48
 2474 00b4 53       		.byte	83
 2475 00b5 0D       		.byte	13
ARM GAS  C:\Users\glenn\AppData\Local\Temp\cc3rYttq.s 			page 61


 2476 00b6 EF       		.byte	-17
 2477 00b7 B1       		.byte	-79
 2478 00b8 F0       		.byte	-16
 2479 00b9 AE       		.byte	-82
 2480 00ba 4C       		.byte	76
 2481 00bb 12       		.byte	18
 2482 00bc 91       		.byte	-111
 2483 00bd CF       		.byte	-49
 2484 00be 2D       		.byte	45
 2485 00bf 73       		.byte	115
 2486 00c0 CA       		.byte	-54
 2487 00c1 94       		.byte	-108
 2488 00c2 76       		.byte	118
 2489 00c3 28       		.byte	40
 2490 00c4 AB       		.byte	-85
 2491 00c5 F5       		.byte	-11
 2492 00c6 17       		.byte	23
 2493 00c7 49       		.byte	73
 2494 00c8 08       		.byte	8
 2495 00c9 56       		.byte	86
 2496 00ca B4       		.byte	-76
 2497 00cb EA       		.byte	-22
 2498 00cc 69       		.byte	105
 2499 00cd 37       		.byte	55
 2500 00ce D5       		.byte	-43
 2501 00cf 8B       		.byte	-117
 2502 00d0 57       		.byte	87
 2503 00d1 09       		.byte	9
 2504 00d2 EB       		.byte	-21
 2505 00d3 B5       		.byte	-75
 2506 00d4 36       		.byte	54
 2507 00d5 68       		.byte	104
 2508 00d6 8A       		.byte	-118
 2509 00d7 D4       		.byte	-44
 2510 00d8 95       		.byte	-107
 2511 00d9 CB       		.byte	-53
 2512 00da 29       		.byte	41
 2513 00db 77       		.byte	119
 2514 00dc F4       		.byte	-12
 2515 00dd AA       		.byte	-86
 2516 00de 48       		.byte	72
 2517 00df 16       		.byte	22
 2518 00e0 E9       		.byte	-23
 2519 00e1 B7       		.byte	-73
 2520 00e2 55       		.byte	85
 2521 00e3 0B       		.byte	11
 2522 00e4 88       		.byte	-120
 2523 00e5 D6       		.byte	-42
 2524 00e6 34       		.byte	52
 2525 00e7 6A       		.byte	106
 2526 00e8 2B       		.byte	43
 2527 00e9 75       		.byte	117
 2528 00ea 97       		.byte	-105
 2529 00eb C9       		.byte	-55
 2530 00ec 4A       		.byte	74
 2531 00ed 14       		.byte	20
 2532 00ee F6       		.byte	-10
ARM GAS  C:\Users\glenn\AppData\Local\Temp\cc3rYttq.s 			page 62


 2533 00ef A8       		.byte	-88
 2534 00f0 74       		.byte	116
 2535 00f1 2A       		.byte	42
 2536 00f2 C8       		.byte	-56
 2537 00f3 96       		.byte	-106
 2538 00f4 15       		.byte	21
 2539 00f5 4B       		.byte	75
 2540 00f6 A9       		.byte	-87
 2541 00f7 F7       		.byte	-9
 2542 00f8 B6       		.byte	-74
 2543 00f9 E8       		.byte	-24
 2544 00fa 0A       		.byte	10
 2545 00fb 54       		.byte	84
 2546 00fc D7       		.byte	-41
 2547 00fd 89       		.byte	-119
 2548 00fe 6B       		.byte	107
 2549 00ff 35       		.byte	53
 2550              		.bss
 2551              		.set	.LANCHOR0,. + 0
 2552              		.type	bDoneFlag, %object
 2553              		.size	bDoneFlag, 1
 2554              	bDoneFlag:
 2555 0000 00       		.space	1
 2556              		.type	nLastDiscrepancy_u8, %object
 2557              		.size	nLastDiscrepancy_u8, 1
 2558              	nLastDiscrepancy_u8:
 2559 0001 00       		.space	1
 2560              		.text
 2561              	.Letext0:
 2562              		.file 2 "Generated_Source\\PSoC4/cytypes.h"
 2563              		.file 3 "one_wire\\DS18B20.h"
 2564              		.file 4 "Generated_Source\\PSoC4/CyLib.h"
 2565              		.section	.debug_info,"",%progbits
 2566              	.Ldebug_info0:
 2567 0000 C4170000 		.4byte	0x17c4
 2568 0004 0400     		.2byte	0x4
 2569 0006 00000000 		.4byte	.Ldebug_abbrev0
 2570 000a 04       		.byte	0x4
 2571 000b 01       		.uleb128 0x1
 2572 000c 4E000000 		.4byte	.LASF55
 2573 0010 01       		.byte	0x1
 2574 0011 E9010000 		.4byte	.LASF56
 2575 0015 0D030000 		.4byte	.LASF57
 2576 0019 F8020000 		.4byte	.Ldebug_ranges0+0x2f8
 2577 001d 00000000 		.4byte	0
 2578 0021 00000000 		.4byte	.Ldebug_line0
 2579 0025 02       		.uleb128 0x2
 2580 0026 01       		.byte	0x1
 2581 0027 06       		.byte	0x6
 2582 0028 8B010000 		.4byte	.LASF0
 2583 002c 02       		.uleb128 0x2
 2584 002d 01       		.byte	0x1
 2585 002e 08       		.byte	0x8
 2586 002f E7020000 		.4byte	.LASF1
 2587 0033 02       		.uleb128 0x2
 2588 0034 02       		.byte	0x2
 2589 0035 05       		.byte	0x5
ARM GAS  C:\Users\glenn\AppData\Local\Temp\cc3rYttq.s 			page 63


 2590 0036 03030000 		.4byte	.LASF2
 2591 003a 02       		.uleb128 0x2
 2592 003b 02       		.byte	0x2
 2593 003c 07       		.byte	0x7
 2594 003d 56020000 		.4byte	.LASF3
 2595 0041 02       		.uleb128 0x2
 2596 0042 04       		.byte	0x4
 2597 0043 05       		.byte	0x5
 2598 0044 A6010000 		.4byte	.LASF4
 2599 0048 02       		.uleb128 0x2
 2600 0049 04       		.byte	0x4
 2601 004a 07       		.byte	0x7
 2602 004b 1A020000 		.4byte	.LASF5
 2603 004f 02       		.uleb128 0x2
 2604 0050 08       		.byte	0x8
 2605 0051 05       		.byte	0x5
 2606 0052 7D010000 		.4byte	.LASF6
 2607 0056 02       		.uleb128 0x2
 2608 0057 08       		.byte	0x8
 2609 0058 07       		.byte	0x7
 2610 0059 46010000 		.4byte	.LASF7
 2611 005d 03       		.uleb128 0x3
 2612 005e 04       		.byte	0x4
 2613 005f 05       		.byte	0x5
 2614 0060 696E7400 		.ascii	"int\000"
 2615 0064 02       		.uleb128 0x2
 2616 0065 04       		.byte	0x4
 2617 0066 07       		.byte	0x7
 2618 0067 FC010000 		.4byte	.LASF8
 2619 006b 04       		.uleb128 0x4
 2620 006c C0010000 		.4byte	.LASF9
 2621 0070 02       		.byte	0x2
 2622 0071 9801     		.2byte	0x198
 2623 0073 2C000000 		.4byte	0x2c
 2624 0077 04       		.uleb128 0x4
 2625 0078 09000000 		.4byte	.LASF10
 2626 007c 02       		.byte	0x2
 2627 007d 9901     		.2byte	0x199
 2628 007f 3A000000 		.4byte	0x3a
 2629 0083 04       		.uleb128 0x4
 2630 0084 C8030000 		.4byte	.LASF11
 2631 0088 02       		.byte	0x2
 2632 0089 9C01     		.2byte	0x19c
 2633 008b 33000000 		.4byte	0x33
 2634 008f 02       		.uleb128 0x2
 2635 0090 04       		.byte	0x4
 2636 0091 04       		.byte	0x4
 2637 0092 E1020000 		.4byte	.LASF12
 2638 0096 02       		.uleb128 0x2
 2639 0097 08       		.byte	0x8
 2640 0098 04       		.byte	0x4
 2641 0099 D0010000 		.4byte	.LASF13
 2642 009d 02       		.uleb128 0x2
 2643 009e 01       		.byte	0x1
 2644 009f 08       		.byte	0x8
 2645 00a0 72030000 		.4byte	.LASF14
 2646 00a4 02       		.uleb128 0x2
ARM GAS  C:\Users\glenn\AppData\Local\Temp\cc3rYttq.s 			page 64


 2647 00a5 04       		.byte	0x4
 2648 00a6 07       		.byte	0x7
 2649 00a7 B9020000 		.4byte	.LASF15
 2650 00ab 05       		.uleb128 0x5
 2651 00ac 00000000 		.4byte	.LASF16
 2652 00b0 03       		.byte	0x3
 2653 00b1 10       		.byte	0x10
 2654 00b2 B6000000 		.4byte	0xb6
 2655 00b6 06       		.uleb128 0x6
 2656 00b7 04       		.byte	0x4
 2657 00b8 BC000000 		.4byte	0xbc
 2658 00bc 07       		.uleb128 0x7
 2659 00bd 6B000000 		.4byte	0x6b
 2660 00c1 05       		.uleb128 0x5
 2661 00c2 A2020000 		.4byte	.LASF17
 2662 00c6 03       		.byte	0x3
 2663 00c7 11       		.byte	0x11
 2664 00c8 CC000000 		.4byte	0xcc
 2665 00cc 06       		.uleb128 0x6
 2666 00cd 04       		.byte	0x4
 2667 00ce D2000000 		.4byte	0xd2
 2668 00d2 08       		.uleb128 0x8
 2669 00d3 DD000000 		.4byte	0xdd
 2670 00d7 09       		.uleb128 0x9
 2671 00d8 6B000000 		.4byte	0x6b
 2672 00dc 00       		.byte	0
 2673 00dd 0A       		.uleb128 0xa
 2674 00de 08       		.byte	0x8
 2675 00df 03       		.byte	0x3
 2676 00e0 15       		.byte	0x15
 2677 00e1 FE000000 		.4byte	0xfe
 2678 00e5 0B       		.uleb128 0xb
 2679 00e6 8E030000 		.4byte	.LASF18
 2680 00ea 03       		.byte	0x3
 2681 00eb 17       		.byte	0x17
 2682 00ec AB000000 		.4byte	0xab
 2683 00f0 00       		.byte	0
 2684 00f1 0B       		.uleb128 0xb
 2685 00f2 A1030000 		.4byte	.LASF19
 2686 00f6 03       		.byte	0x3
 2687 00f7 18       		.byte	0x18
 2688 00f8 C1000000 		.4byte	0xc1
 2689 00fc 04       		.byte	0x4
 2690 00fd 00       		.byte	0
 2691 00fe 05       		.uleb128 0x5
 2692 00ff D7010000 		.4byte	.LASF20
 2693 0103 03       		.byte	0x3
 2694 0104 19       		.byte	0x19
 2695 0105 09010000 		.4byte	0x109
 2696 0109 0C       		.uleb128 0xc
 2697 010a DD000000 		.4byte	0xdd
 2698 010e 0A       		.uleb128 0xa
 2699 010f 08       		.byte	0x8
 2700 0110 03       		.byte	0x3
 2701 0111 1B       		.byte	0x1b
 2702 0112 23010000 		.4byte	0x123
 2703 0116 0B       		.uleb128 0xb
ARM GAS  C:\Users\glenn\AppData\Local\Temp\cc3rYttq.s 			page 65


 2704 0117 D4020000 		.4byte	.LASF21
 2705 011b 03       		.byte	0x3
 2706 011c 1D       		.byte	0x1d
 2707 011d 23010000 		.4byte	0x123
 2708 0121 00       		.byte	0
 2709 0122 00       		.byte	0
 2710 0123 0D       		.uleb128 0xd
 2711 0124 6B000000 		.4byte	0x6b
 2712 0128 33010000 		.4byte	0x133
 2713 012c 0E       		.uleb128 0xe
 2714 012d A4000000 		.4byte	0xa4
 2715 0131 07       		.byte	0x7
 2716 0132 00       		.byte	0
 2717 0133 05       		.uleb128 0x5
 2718 0134 09020000 		.4byte	.LASF22
 2719 0138 03       		.byte	0x3
 2720 0139 1E       		.byte	0x1e
 2721 013a 0E010000 		.4byte	0x10e
 2722 013e 0F       		.uleb128 0xf
 2723 013f AC020000 		.4byte	.LASF58
 2724 0143 01       		.byte	0x1
 2725 0144 3D02     		.2byte	0x23d
 2726 0146 6B000000 		.4byte	0x6b
 2727 014a 01       		.byte	0x1
 2728 014b 74010000 		.4byte	0x174
 2729 014f 10       		.uleb128 0x10
 2730 0150 5D010000 		.4byte	.LASF23
 2731 0154 01       		.byte	0x1
 2732 0155 3D02     		.2byte	0x23d
 2733 0157 74010000 		.4byte	0x174
 2734 015b 11       		.uleb128 0x11
 2735 015c 6C656E00 		.ascii	"len\000"
 2736 0160 01       		.byte	0x1
 2737 0161 3D02     		.2byte	0x23d
 2738 0163 6B000000 		.4byte	0x6b
 2739 0167 12       		.uleb128 0x12
 2740 0168 63726300 		.ascii	"crc\000"
 2741 016c 01       		.byte	0x1
 2742 016d 3F02     		.2byte	0x23f
 2743 016f 6B000000 		.4byte	0x6b
 2744 0173 00       		.byte	0
 2745 0174 06       		.uleb128 0x6
 2746 0175 04       		.byte	0x4
 2747 0176 7A010000 		.4byte	0x17a
 2748 017a 0C       		.uleb128 0xc
 2749 017b 6B000000 		.4byte	0x6b
 2750 017f 13       		.uleb128 0x13
 2751 0180 10010000 		.4byte	.LASF33
 2752 0184 01       		.byte	0x1
 2753 0185 0B01     		.2byte	0x10b
 2754 0187 6B000000 		.4byte	0x6b
 2755 018b 01       		.byte	0x1
 2756 018c 14020000 		.4byte	0x214
 2757 0190 11       		.uleb128 0x11
 2758 0191 696F00   		.ascii	"io\000"
 2759 0194 01       		.byte	0x1
 2760 0195 0B01     		.2byte	0x10b
ARM GAS  C:\Users\glenn\AppData\Local\Temp\cc3rYttq.s 			page 66


 2761 0197 14020000 		.4byte	0x214
 2762 019b 10       		.uleb128 0x10
 2763 019c 5D010000 		.4byte	.LASF23
 2764 01a0 01       		.byte	0x1
 2765 01a1 0B01     		.2byte	0x10b
 2766 01a3 1A020000 		.4byte	0x21a
 2767 01a7 14       		.uleb128 0x14
 2768 01a8 99020000 		.4byte	.LASF24
 2769 01ac 01       		.byte	0x1
 2770 01ad 0D01     		.2byte	0x10d
 2771 01af 6B000000 		.4byte	0x6b
 2772 01b3 14       		.uleb128 0x14
 2773 01b4 AF010000 		.4byte	.LASF25
 2774 01b8 01       		.byte	0x1
 2775 01b9 0E01     		.2byte	0x10e
 2776 01bb 6B000000 		.4byte	0x6b
 2777 01bf 14       		.uleb128 0x14
 2778 01c0 77030000 		.4byte	.LASF26
 2779 01c4 01       		.byte	0x1
 2780 01c5 0F01     		.2byte	0x10f
 2781 01c7 6B000000 		.4byte	0x6b
 2782 01cb 14       		.uleb128 0x14
 2783 01cc 97010000 		.4byte	.LASF27
 2784 01d0 01       		.byte	0x1
 2785 01d1 1001     		.2byte	0x110
 2786 01d3 6B000000 		.4byte	0x6b
 2787 01d7 14       		.uleb128 0x14
 2788 01d8 67010000 		.4byte	.LASF28
 2789 01dc 01       		.byte	0x1
 2790 01dd 1101     		.2byte	0x111
 2791 01df 6B000000 		.4byte	0x6b
 2792 01e3 14       		.uleb128 0x14
 2793 01e4 BA010000 		.4byte	.LASF29
 2794 01e8 01       		.byte	0x1
 2795 01e9 1201     		.2byte	0x112
 2796 01eb 6B000000 		.4byte	0x6b
 2797 01ef 14       		.uleb128 0x14
 2798 01f0 CE030000 		.4byte	.LASF30
 2799 01f4 01       		.byte	0x1
 2800 01f5 1301     		.2byte	0x113
 2801 01f7 6B000000 		.4byte	0x6b
 2802 01fb 14       		.uleb128 0x14
 2803 01fc 3F010000 		.4byte	.LASF31
 2804 0200 01       		.byte	0x1
 2805 0201 1401     		.2byte	0x114
 2806 0203 6B000000 		.4byte	0x6b
 2807 0207 14       		.uleb128 0x14
 2808 0208 62010000 		.4byte	.LASF32
 2809 020c 01       		.byte	0x1
 2810 020d 1501     		.2byte	0x115
 2811 020f 6B000000 		.4byte	0x6b
 2812 0213 00       		.byte	0
 2813 0214 06       		.uleb128 0x6
 2814 0215 04       		.byte	0x4
 2815 0216 FE000000 		.4byte	0xfe
 2816 021a 06       		.uleb128 0x6
 2817 021b 04       		.byte	0x4
ARM GAS  C:\Users\glenn\AppData\Local\Temp\cc3rYttq.s 			page 67


 2818 021c 33010000 		.4byte	0x133
 2819 0220 15       		.uleb128 0x15
 2820 0221 36000000 		.4byte	.LASF34
 2821 0225 01       		.byte	0x1
 2822 0226 63       		.byte	0x63
 2823 0227 6B000000 		.4byte	0x6b
 2824 022b 01       		.byte	0x1
 2825 022c 51020000 		.4byte	0x251
 2826 0230 16       		.uleb128 0x16
 2827 0231 696F00   		.ascii	"io\000"
 2828 0234 01       		.byte	0x1
 2829 0235 63       		.byte	0x63
 2830 0236 14020000 		.4byte	0x214
 2831 023a 17       		.uleb128 0x17
 2832 023b 43000000 		.4byte	.LASF35
 2833 023f 01       		.byte	0x1
 2834 0240 65       		.byte	0x65
 2835 0241 6B000000 		.4byte	0x6b
 2836 0245 17       		.uleb128 0x17
 2837 0246 F5020000 		.4byte	.LASF36
 2838 024a 01       		.byte	0x1
 2839 024b 66       		.byte	0x66
 2840 024c 6B000000 		.4byte	0x6b
 2841 0250 00       		.byte	0
 2842 0251 18       		.uleb128 0x18
 2843 0252 20020000 		.4byte	0x220
 2844 0256 00000000 		.4byte	.LFB62
 2845 025a 3C000000 		.4byte	.LFE62-.LFB62
 2846 025e 01       		.uleb128 0x1
 2847 025f 9C       		.byte	0x9c
 2848 0260 F5020000 		.4byte	0x2f5
 2849 0264 19       		.uleb128 0x19
 2850 0265 30020000 		.4byte	0x230
 2851 0269 00000000 		.4byte	.LLST0
 2852 026d 1A       		.uleb128 0x1a
 2853 026e 3A020000 		.4byte	0x23a
 2854 0272 2C000000 		.4byte	.LLST1
 2855 0276 1A       		.uleb128 0x1a
 2856 0277 45020000 		.4byte	0x245
 2857 027b 3F000000 		.4byte	.LLST2
 2858 027f 1B       		.uleb128 0x1b
 2859 0280 08000000 		.4byte	.LVL1
 2860 0284 9E170000 		.4byte	0x179e
 2861 0288 1C       		.uleb128 0x1c
 2862 0289 10000000 		.4byte	.LVL3
 2863 028d 97020000 		.4byte	0x297
 2864 0291 1D       		.uleb128 0x1d
 2865 0292 01       		.uleb128 0x1
 2866 0293 50       		.byte	0x50
 2867 0294 01       		.uleb128 0x1
 2868 0295 30       		.byte	0x30
 2869 0296 00       		.byte	0
 2870 0297 1E       		.uleb128 0x1e
 2871 0298 18000000 		.4byte	.LVL4
 2872 029c A9170000 		.4byte	0x17a9
 2873 02a0 AC020000 		.4byte	0x2ac
 2874 02a4 1D       		.uleb128 0x1d
ARM GAS  C:\Users\glenn\AppData\Local\Temp\cc3rYttq.s 			page 68


 2875 02a5 01       		.uleb128 0x1
 2876 02a6 50       		.byte	0x50
 2877 02a7 03       		.uleb128 0x3
 2878 02a8 0A       		.byte	0xa
 2879 02a9 E001     		.2byte	0x1e0
 2880 02ab 00       		.byte	0
 2881 02ac 1C       		.uleb128 0x1c
 2882 02ad 1E000000 		.4byte	.LVL5
 2883 02b1 BB020000 		.4byte	0x2bb
 2884 02b5 1D       		.uleb128 0x1d
 2885 02b6 01       		.uleb128 0x1
 2886 02b7 50       		.byte	0x50
 2887 02b8 01       		.uleb128 0x1
 2888 02b9 31       		.byte	0x31
 2889 02ba 00       		.byte	0
 2890 02bb 1E       		.uleb128 0x1e
 2891 02bc 24000000 		.4byte	.LVL6
 2892 02c0 A9170000 		.4byte	0x17a9
 2893 02c4 CF020000 		.4byte	0x2cf
 2894 02c8 1D       		.uleb128 0x1d
 2895 02c9 01       		.uleb128 0x1
 2896 02ca 50       		.byte	0x50
 2897 02cb 02       		.uleb128 0x2
 2898 02cc 08       		.byte	0x8
 2899 02cd 28       		.byte	0x28
 2900 02ce 00       		.byte	0
 2901 02cf 1E       		.uleb128 0x1e
 2902 02d0 32000000 		.4byte	.LVL9
 2903 02d4 A9170000 		.4byte	0x17a9
 2904 02d8 E4020000 		.4byte	0x2e4
 2905 02dc 1D       		.uleb128 0x1d
 2906 02dd 01       		.uleb128 0x1
 2907 02de 50       		.byte	0x50
 2908 02df 03       		.uleb128 0x3
 2909 02e0 0A       		.byte	0xa
 2910 02e1 A801     		.2byte	0x1a8
 2911 02e3 00       		.byte	0
 2912 02e4 1F       		.uleb128 0x1f
 2913 02e5 38000000 		.4byte	.LVL10
 2914 02e9 BA170000 		.4byte	0x17ba
 2915 02ed 1D       		.uleb128 0x1d
 2916 02ee 01       		.uleb128 0x1
 2917 02ef 50       		.byte	0x50
 2918 02f0 02       		.uleb128 0x2
 2919 02f1 75       		.byte	0x75
 2920 02f2 00       		.sleb128 0
 2921 02f3 00       		.byte	0
 2922 02f4 00       		.byte	0
 2923 02f5 15       		.uleb128 0x15
 2924 02f6 63030000 		.4byte	.LASF37
 2925 02fa 01       		.byte	0x1
 2926 02fb 84       		.byte	0x84
 2927 02fc 6B000000 		.4byte	0x6b
 2928 0300 01       		.byte	0x1
 2929 0301 26030000 		.4byte	0x326
 2930 0305 16       		.uleb128 0x16
 2931 0306 696F00   		.ascii	"io\000"
ARM GAS  C:\Users\glenn\AppData\Local\Temp\cc3rYttq.s 			page 69


 2932 0309 01       		.byte	0x1
 2933 030a 84       		.byte	0x84
 2934 030b 14020000 		.4byte	0x214
 2935 030f 17       		.uleb128 0x17
 2936 0310 89030000 		.4byte	.LASF38
 2937 0314 01       		.byte	0x1
 2938 0315 86       		.byte	0x86
 2939 0316 6B000000 		.4byte	0x6b
 2940 031a 17       		.uleb128 0x17
 2941 031b F5020000 		.4byte	.LASF36
 2942 031f 01       		.byte	0x1
 2943 0320 88       		.byte	0x88
 2944 0321 6B000000 		.4byte	0x6b
 2945 0325 00       		.byte	0
 2946 0326 18       		.uleb128 0x18
 2947 0327 F5020000 		.4byte	0x2f5
 2948 032b 00000000 		.4byte	.LFB63
 2949 032f 32000000 		.4byte	.LFE63-.LFB63
 2950 0333 01       		.uleb128 0x1
 2951 0334 9C       		.byte	0x9c
 2952 0335 B2030000 		.4byte	0x3b2
 2953 0339 19       		.uleb128 0x19
 2954 033a 05030000 		.4byte	0x305
 2955 033e 52000000 		.4byte	.LLST3
 2956 0342 1A       		.uleb128 0x1a
 2957 0343 0F030000 		.4byte	0x30f
 2958 0347 7E000000 		.4byte	.LLST4
 2959 034b 1A       		.uleb128 0x1a
 2960 034c 1A030000 		.4byte	0x31a
 2961 0350 91000000 		.4byte	.LLST5
 2962 0354 1B       		.uleb128 0x1b
 2963 0355 08000000 		.4byte	.LVL14
 2964 0359 9E170000 		.4byte	0x179e
 2965 035d 1C       		.uleb128 0x1c
 2966 035e 10000000 		.4byte	.LVL16
 2967 0362 6C030000 		.4byte	0x36c
 2968 0366 1D       		.uleb128 0x1d
 2969 0367 01       		.uleb128 0x1
 2970 0368 50       		.byte	0x50
 2971 0369 01       		.uleb128 0x1
 2972 036a 30       		.byte	0x30
 2973 036b 00       		.byte	0
 2974 036c 1E       		.uleb128 0x1e
 2975 036d 16000000 		.4byte	.LVL17
 2976 0371 A9170000 		.4byte	0x17a9
 2977 0375 7F030000 		.4byte	0x37f
 2978 0379 1D       		.uleb128 0x1d
 2979 037a 01       		.uleb128 0x1
 2980 037b 50       		.byte	0x50
 2981 037c 01       		.uleb128 0x1
 2982 037d 32       		.byte	0x32
 2983 037e 00       		.byte	0
 2984 037f 1C       		.uleb128 0x1c
 2985 0380 1C000000 		.4byte	.LVL18
 2986 0384 8E030000 		.4byte	0x38e
 2987 0388 1D       		.uleb128 0x1d
 2988 0389 01       		.uleb128 0x1
ARM GAS  C:\Users\glenn\AppData\Local\Temp\cc3rYttq.s 			page 70


 2989 038a 50       		.byte	0x50
 2990 038b 01       		.uleb128 0x1
 2991 038c 31       		.byte	0x31
 2992 038d 00       		.byte	0
 2993 038e 1E       		.uleb128 0x1e
 2994 038f 22000000 		.4byte	.LVL19
 2995 0393 A9170000 		.4byte	0x17a9
 2996 0397 A1030000 		.4byte	0x3a1
 2997 039b 1D       		.uleb128 0x1d
 2998 039c 01       		.uleb128 0x1
 2999 039d 50       		.byte	0x50
 3000 039e 01       		.uleb128 0x1
 3001 039f 35       		.byte	0x35
 3002 03a0 00       		.byte	0
 3003 03a1 1F       		.uleb128 0x1f
 3004 03a2 2E000000 		.4byte	.LVL22
 3005 03a6 BA170000 		.4byte	0x17ba
 3006 03aa 1D       		.uleb128 0x1d
 3007 03ab 01       		.uleb128 0x1
 3008 03ac 50       		.byte	0x50
 3009 03ad 02       		.uleb128 0x2
 3010 03ae 75       		.byte	0x75
 3011 03af 00       		.sleb128 0
 3012 03b0 00       		.byte	0
 3013 03b1 00       		.byte	0
 3014 03b2 20       		.uleb128 0x20
 3015 03b3 10000000 		.4byte	.LASF41
 3016 03b7 01       		.byte	0x1
 3017 03b8 A1       		.byte	0xa1
 3018 03b9 01       		.byte	0x1
 3019 03ba DF030000 		.4byte	0x3df
 3020 03be 16       		.uleb128 0x16
 3021 03bf 696F00   		.ascii	"io\000"
 3022 03c2 01       		.byte	0x1
 3023 03c3 A1       		.byte	0xa1
 3024 03c4 14020000 		.4byte	0x214
 3025 03c8 21       		.uleb128 0x21
 3026 03c9 89030000 		.4byte	.LASF38
 3027 03cd 01       		.byte	0x1
 3028 03ce A1       		.byte	0xa1
 3029 03cf 6B000000 		.4byte	0x6b
 3030 03d3 17       		.uleb128 0x17
 3031 03d4 F5020000 		.4byte	.LASF36
 3032 03d8 01       		.byte	0x1
 3033 03d9 A3       		.byte	0xa3
 3034 03da 6B000000 		.4byte	0x6b
 3035 03de 00       		.byte	0
 3036 03df 22       		.uleb128 0x22
 3037 03e0 B2030000 		.4byte	0x3b2
 3038 03e4 00000000 		.4byte	.LFB64
 3039 03e8 36000000 		.4byte	.LFE64-.LFB64
 3040 03ec 01       		.uleb128 0x1
 3041 03ed 9C       		.byte	0x9c
 3042 03ee 7B040000 		.4byte	0x47b
 3043 03f2 19       		.uleb128 0x19
 3044 03f3 BE030000 		.4byte	0x3be
 3045 03f7 A4000000 		.4byte	.LLST6
ARM GAS  C:\Users\glenn\AppData\Local\Temp\cc3rYttq.s 			page 71


 3046 03fb 19       		.uleb128 0x19
 3047 03fc C8030000 		.4byte	0x3c8
 3048 0400 D0000000 		.4byte	.LLST7
 3049 0404 1A       		.uleb128 0x1a
 3050 0405 D3030000 		.4byte	0x3d3
 3051 0409 F1000000 		.4byte	.LLST8
 3052 040d 1B       		.uleb128 0x1b
 3053 040e 0A000000 		.4byte	.LVL26
 3054 0412 9E170000 		.4byte	0x179e
 3055 0416 1C       		.uleb128 0x1c
 3056 0417 12000000 		.4byte	.LVL28
 3057 041b 25040000 		.4byte	0x425
 3058 041f 1D       		.uleb128 0x1d
 3059 0420 01       		.uleb128 0x1
 3060 0421 50       		.byte	0x50
 3061 0422 01       		.uleb128 0x1
 3062 0423 30       		.byte	0x30
 3063 0424 00       		.byte	0
 3064 0425 1E       		.uleb128 0x1e
 3065 0426 18000000 		.4byte	.LVL29
 3066 042a A9170000 		.4byte	0x17a9
 3067 042e 38040000 		.4byte	0x438
 3068 0432 1D       		.uleb128 0x1d
 3069 0433 01       		.uleb128 0x1
 3070 0434 50       		.byte	0x50
 3071 0435 01       		.uleb128 0x1
 3072 0436 32       		.byte	0x32
 3073 0437 00       		.byte	0
 3074 0438 1C       		.uleb128 0x1c
 3075 0439 22000000 		.4byte	.LVL30
 3076 043d 47040000 		.4byte	0x447
 3077 0441 1D       		.uleb128 0x1d
 3078 0442 01       		.uleb128 0x1
 3079 0443 50       		.byte	0x50
 3080 0444 01       		.uleb128 0x1
 3081 0445 31       		.byte	0x31
 3082 0446 00       		.byte	0
 3083 0447 1E       		.uleb128 0x1e
 3084 0448 28000000 		.4byte	.LVL31
 3085 044c A9170000 		.4byte	0x17a9
 3086 0450 5B040000 		.4byte	0x45b
 3087 0454 1D       		.uleb128 0x1d
 3088 0455 01       		.uleb128 0x1
 3089 0456 50       		.byte	0x50
 3090 0457 02       		.uleb128 0x2
 3091 0458 08       		.byte	0x8
 3092 0459 64       		.byte	0x64
 3093 045a 00       		.byte	0
 3094 045b 1C       		.uleb128 0x1c
 3095 045c 2E000000 		.4byte	.LVL32
 3096 0460 6A040000 		.4byte	0x46a
 3097 0464 1D       		.uleb128 0x1d
 3098 0465 01       		.uleb128 0x1
 3099 0466 50       		.byte	0x50
 3100 0467 01       		.uleb128 0x1
 3101 0468 31       		.byte	0x31
 3102 0469 00       		.byte	0
ARM GAS  C:\Users\glenn\AppData\Local\Temp\cc3rYttq.s 			page 72


 3103 046a 1F       		.uleb128 0x1f
 3104 046b 34000000 		.4byte	.LVL33
 3105 046f BA170000 		.4byte	0x17ba
 3106 0473 1D       		.uleb128 0x1d
 3107 0474 01       		.uleb128 0x1
 3108 0475 50       		.byte	0x50
 3109 0476 02       		.uleb128 0x2
 3110 0477 75       		.byte	0x75
 3111 0478 00       		.sleb128 0
 3112 0479 00       		.byte	0
 3113 047a 00       		.byte	0
 3114 047b 15       		.uleb128 0x15
 3115 047c EF000000 		.4byte	.LASF39
 3116 0480 01       		.byte	0x1
 3117 0481 BD       		.byte	0xbd
 3118 0482 6B000000 		.4byte	0x6b
 3119 0486 01       		.byte	0x1
 3120 0487 AA040000 		.4byte	0x4aa
 3121 048b 16       		.uleb128 0x16
 3122 048c 696F00   		.ascii	"io\000"
 3123 048f 01       		.byte	0x1
 3124 0490 BD       		.byte	0xbd
 3125 0491 14020000 		.4byte	0x214
 3126 0495 23       		.uleb128 0x23
 3127 0496 6900     		.ascii	"i\000"
 3128 0498 01       		.byte	0x1
 3129 0499 BF       		.byte	0xbf
 3130 049a 6B000000 		.4byte	0x6b
 3131 049e 17       		.uleb128 0x17
 3132 049f E3010000 		.4byte	.LASF40
 3133 04a3 01       		.byte	0x1
 3134 04a4 C0       		.byte	0xc0
 3135 04a5 6B000000 		.4byte	0x6b
 3136 04a9 00       		.byte	0
 3137 04aa 18       		.uleb128 0x18
 3138 04ab 7B040000 		.4byte	0x47b
 3139 04af 00000000 		.4byte	.LFB65
 3140 04b3 56000000 		.4byte	.LFE65-.LFB65
 3141 04b7 01       		.uleb128 0x1
 3142 04b8 9C       		.byte	0x9c
 3143 04b9 7F050000 		.4byte	0x57f
 3144 04bd 19       		.uleb128 0x19
 3145 04be 8B040000 		.4byte	0x48b
 3146 04c2 04010000 		.4byte	.LLST9
 3147 04c6 1A       		.uleb128 0x1a
 3148 04c7 95040000 		.4byte	0x495
 3149 04cb 30010000 		.4byte	.LLST10
 3150 04cf 1A       		.uleb128 0x1a
 3151 04d0 9E040000 		.4byte	0x49e
 3152 04d4 4F010000 		.4byte	.LLST11
 3153 04d8 24       		.uleb128 0x24
 3154 04d9 F5020000 		.4byte	0x2f5
 3155 04dd 0C000000 		.4byte	.LBB8
 3156 04e1 2A000000 		.4byte	.LBE8-.LBB8
 3157 04e5 01       		.byte	0x1
 3158 04e6 C4       		.byte	0xc4
 3159 04e7 6E050000 		.4byte	0x56e
ARM GAS  C:\Users\glenn\AppData\Local\Temp\cc3rYttq.s 			page 73


 3160 04eb 19       		.uleb128 0x19
 3161 04ec 05030000 		.4byte	0x305
 3162 04f0 79010000 		.4byte	.LLST12
 3163 04f4 25       		.uleb128 0x25
 3164 04f5 0C000000 		.4byte	.LBB9
 3165 04f9 2A000000 		.4byte	.LBE9-.LBB9
 3166 04fd 1A       		.uleb128 0x1a
 3167 04fe 0F030000 		.4byte	0x30f
 3168 0502 9A010000 		.4byte	.LLST13
 3169 0506 1A       		.uleb128 0x1a
 3170 0507 1A030000 		.4byte	0x31a
 3171 050b AD010000 		.4byte	.LLST14
 3172 050f 1B       		.uleb128 0x1b
 3173 0510 10000000 		.4byte	.LVL38
 3174 0514 9E170000 		.4byte	0x179e
 3175 0518 1C       		.uleb128 0x1c
 3176 0519 18000000 		.4byte	.LVL40
 3177 051d 27050000 		.4byte	0x527
 3178 0521 1D       		.uleb128 0x1d
 3179 0522 01       		.uleb128 0x1
 3180 0523 50       		.byte	0x50
 3181 0524 01       		.uleb128 0x1
 3182 0525 30       		.byte	0x30
 3183 0526 00       		.byte	0
 3184 0527 1E       		.uleb128 0x1e
 3185 0528 1E000000 		.4byte	.LVL41
 3186 052c A9170000 		.4byte	0x17a9
 3187 0530 3A050000 		.4byte	0x53a
 3188 0534 1D       		.uleb128 0x1d
 3189 0535 01       		.uleb128 0x1
 3190 0536 50       		.byte	0x50
 3191 0537 01       		.uleb128 0x1
 3192 0538 32       		.byte	0x32
 3193 0539 00       		.byte	0
 3194 053a 1C       		.uleb128 0x1c
 3195 053b 24000000 		.4byte	.LVL42
 3196 053f 49050000 		.4byte	0x549
 3197 0543 1D       		.uleb128 0x1d
 3198 0544 01       		.uleb128 0x1
 3199 0545 50       		.byte	0x50
 3200 0546 01       		.uleb128 0x1
 3201 0547 31       		.byte	0x31
 3202 0548 00       		.byte	0
 3203 0549 1E       		.uleb128 0x1e
 3204 054a 2A000000 		.4byte	.LVL43
 3205 054e A9170000 		.4byte	0x17a9
 3206 0552 5C050000 		.4byte	0x55c
 3207 0556 1D       		.uleb128 0x1d
 3208 0557 01       		.uleb128 0x1
 3209 0558 50       		.byte	0x50
 3210 0559 01       		.uleb128 0x1
 3211 055a 35       		.byte	0x35
 3212 055b 00       		.byte	0
 3213 055c 1F       		.uleb128 0x1f
 3214 055d 36000000 		.4byte	.LVL46
 3215 0561 BA170000 		.4byte	0x17ba
 3216 0565 1D       		.uleb128 0x1d
ARM GAS  C:\Users\glenn\AppData\Local\Temp\cc3rYttq.s 			page 74


 3217 0566 01       		.uleb128 0x1
 3218 0567 50       		.byte	0x50
 3219 0568 02       		.uleb128 0x2
 3220 0569 78       		.byte	0x78
 3221 056a 00       		.sleb128 0
 3222 056b 00       		.byte	0
 3223 056c 00       		.byte	0
 3224 056d 00       		.byte	0
 3225 056e 1F       		.uleb128 0x1f
 3226 056f 4A000000 		.4byte	.LVL50
 3227 0573 A9170000 		.4byte	0x17a9
 3228 0577 1D       		.uleb128 0x1d
 3229 0578 01       		.uleb128 0x1
 3230 0579 50       		.byte	0x50
 3231 057a 02       		.uleb128 0x2
 3232 057b 08       		.byte	0x8
 3233 057c 78       		.byte	0x78
 3234 057d 00       		.byte	0
 3235 057e 00       		.byte	0
 3236 057f 20       		.uleb128 0x20
 3237 0580 FF000000 		.4byte	.LASF42
 3238 0584 01       		.byte	0x1
 3239 0585 D6       		.byte	0xd6
 3240 0586 01       		.byte	0x1
 3241 0587 B5050000 		.4byte	0x5b5
 3242 058b 16       		.uleb128 0x16
 3243 058c 696F00   		.ascii	"io\000"
 3244 058f 01       		.byte	0x1
 3245 0590 D6       		.byte	0xd6
 3246 0591 14020000 		.4byte	0x214
 3247 0595 21       		.uleb128 0x21
 3248 0596 26010000 		.4byte	.LASF43
 3249 059a 01       		.byte	0x1
 3250 059b D6       		.byte	0xd6
 3251 059c 6B000000 		.4byte	0x6b
 3252 05a0 23       		.uleb128 0x23
 3253 05a1 6900     		.ascii	"i\000"
 3254 05a3 01       		.byte	0x1
 3255 05a4 D8       		.byte	0xd8
 3256 05a5 6B000000 		.4byte	0x6b
 3257 05a9 17       		.uleb128 0x17
 3258 05aa A1010000 		.4byte	.LASF44
 3259 05ae 01       		.byte	0x1
 3260 05af D9       		.byte	0xd9
 3261 05b0 6B000000 		.4byte	0x6b
 3262 05b4 00       		.byte	0
 3263 05b5 22       		.uleb128 0x22
 3264 05b6 7F050000 		.4byte	0x57f
 3265 05ba 00000000 		.4byte	.LFB66
 3266 05be 5C000000 		.4byte	.LFE66-.LFB66
 3267 05c2 01       		.uleb128 0x1
 3268 05c3 9C       		.byte	0x9c
 3269 05c4 A1060000 		.4byte	0x6a1
 3270 05c8 19       		.uleb128 0x19
 3271 05c9 8B050000 		.4byte	0x58b
 3272 05cd C0010000 		.4byte	.LLST15
 3273 05d1 19       		.uleb128 0x19
ARM GAS  C:\Users\glenn\AppData\Local\Temp\cc3rYttq.s 			page 75


 3274 05d2 95050000 		.4byte	0x595
 3275 05d6 EC010000 		.4byte	.LLST16
 3276 05da 1A       		.uleb128 0x1a
 3277 05db A0050000 		.4byte	0x5a0
 3278 05df 0D020000 		.4byte	.LLST17
 3279 05e3 1A       		.uleb128 0x1a
 3280 05e4 A9050000 		.4byte	0x5a9
 3281 05e8 2C020000 		.4byte	.LLST18
 3282 05ec 26       		.uleb128 0x26
 3283 05ed B2030000 		.4byte	0x3b2
 3284 05f1 12000000 		.4byte	.LBB12
 3285 05f5 00000000 		.4byte	.Ldebug_ranges0+0
 3286 05f9 01       		.byte	0x1
 3287 05fa DF       		.byte	0xdf
 3288 05fb 90060000 		.4byte	0x690
 3289 05ff 19       		.uleb128 0x19
 3290 0600 C8030000 		.4byte	0x3c8
 3291 0604 2C020000 		.4byte	.LLST18
 3292 0608 19       		.uleb128 0x19
 3293 0609 BE030000 		.4byte	0x3be
 3294 060d 43020000 		.4byte	.LLST20
 3295 0611 27       		.uleb128 0x27
 3296 0612 00000000 		.4byte	.Ldebug_ranges0+0
 3297 0616 1A       		.uleb128 0x1a
 3298 0617 D3030000 		.4byte	0x3d3
 3299 061b 64020000 		.4byte	.LLST21
 3300 061f 1B       		.uleb128 0x1b
 3301 0620 16000000 		.4byte	.LVL57
 3302 0624 9E170000 		.4byte	0x179e
 3303 0628 1C       		.uleb128 0x1c
 3304 0629 20000000 		.4byte	.LVL58
 3305 062d 37060000 		.4byte	0x637
 3306 0631 1D       		.uleb128 0x1d
 3307 0632 01       		.uleb128 0x1
 3308 0633 50       		.byte	0x50
 3309 0634 01       		.uleb128 0x1
 3310 0635 30       		.byte	0x30
 3311 0636 00       		.byte	0
 3312 0637 1E       		.uleb128 0x1e
 3313 0638 28000000 		.4byte	.LVL59
 3314 063c A9170000 		.4byte	0x17a9
 3315 0640 4A060000 		.4byte	0x64a
 3316 0644 1D       		.uleb128 0x1d
 3317 0645 01       		.uleb128 0x1
 3318 0646 50       		.byte	0x50
 3319 0647 01       		.uleb128 0x1
 3320 0648 32       		.byte	0x32
 3321 0649 00       		.byte	0
 3322 064a 1C       		.uleb128 0x1c
 3323 064b 36000000 		.4byte	.LVL61
 3324 064f 5A060000 		.4byte	0x65a
 3325 0653 1D       		.uleb128 0x1d
 3326 0654 01       		.uleb128 0x1
 3327 0655 50       		.byte	0x50
 3328 0656 02       		.uleb128 0x2
 3329 0657 78       		.byte	0x78
 3330 0658 00       		.sleb128 0
ARM GAS  C:\Users\glenn\AppData\Local\Temp\cc3rYttq.s 			page 76


 3331 0659 00       		.byte	0
 3332 065a 1E       		.uleb128 0x1e
 3333 065b 3C000000 		.4byte	.LVL62
 3334 065f A9170000 		.4byte	0x17a9
 3335 0663 6E060000 		.4byte	0x66e
 3336 0667 1D       		.uleb128 0x1d
 3337 0668 01       		.uleb128 0x1
 3338 0669 50       		.byte	0x50
 3339 066a 02       		.uleb128 0x2
 3340 066b 08       		.byte	0x8
 3341 066c 64       		.byte	0x64
 3342 066d 00       		.byte	0
 3343 066e 1C       		.uleb128 0x1c
 3344 066f 42000000 		.4byte	.LVL63
 3345 0673 7E060000 		.4byte	0x67e
 3346 0677 1D       		.uleb128 0x1d
 3347 0678 01       		.uleb128 0x1
 3348 0679 50       		.byte	0x50
 3349 067a 02       		.uleb128 0x2
 3350 067b 78       		.byte	0x78
 3351 067c 00       		.sleb128 0
 3352 067d 00       		.byte	0
 3353 067e 1F       		.uleb128 0x1f
 3354 067f 4A000000 		.4byte	.LVL65
 3355 0683 BA170000 		.4byte	0x17ba
 3356 0687 1D       		.uleb128 0x1d
 3357 0688 01       		.uleb128 0x1
 3358 0689 50       		.byte	0x50
 3359 068a 02       		.uleb128 0x2
 3360 068b 77       		.byte	0x77
 3361 068c 00       		.sleb128 0
 3362 068d 00       		.byte	0
 3363 068e 00       		.byte	0
 3364 068f 00       		.byte	0
 3365 0690 1F       		.uleb128 0x1f
 3366 0691 54000000 		.4byte	.LVL66
 3367 0695 A9170000 		.4byte	0x17a9
 3368 0699 1D       		.uleb128 0x1d
 3369 069a 01       		.uleb128 0x1
 3370 069b 50       		.byte	0x50
 3371 069c 02       		.uleb128 0x2
 3372 069d 08       		.byte	0x8
 3373 069e 69       		.byte	0x69
 3374 069f 00       		.byte	0
 3375 06a0 00       		.byte	0
 3376 06a1 20       		.uleb128 0x20
 3377 06a2 C2020000 		.4byte	.LASF45
 3378 06a6 01       		.byte	0x1
 3379 06a7 F5       		.byte	0xf5
 3380 06a8 01       		.byte	0x1
 3381 06a9 CC060000 		.4byte	0x6cc
 3382 06ad 16       		.uleb128 0x16
 3383 06ae 696F00   		.ascii	"io\000"
 3384 06b1 01       		.byte	0x1
 3385 06b2 F5       		.byte	0xf5
 3386 06b3 14020000 		.4byte	0x214
 3387 06b7 21       		.uleb128 0x21
ARM GAS  C:\Users\glenn\AppData\Local\Temp\cc3rYttq.s 			page 77


 3388 06b8 5D010000 		.4byte	.LASF23
 3389 06bc 01       		.byte	0x1
 3390 06bd F5       		.byte	0xf5
 3391 06be 1A020000 		.4byte	0x21a
 3392 06c2 23       		.uleb128 0x23
 3393 06c3 6900     		.ascii	"i\000"
 3394 06c5 01       		.byte	0x1
 3395 06c6 F7       		.byte	0xf7
 3396 06c7 6B000000 		.4byte	0x6b
 3397 06cb 00       		.byte	0
 3398 06cc 22       		.uleb128 0x22
 3399 06cd A1060000 		.4byte	0x6a1
 3400 06d1 00000000 		.4byte	.LFB67
 3401 06d5 C4000000 		.4byte	.LFE67-.LFB67
 3402 06d9 01       		.uleb128 0x1
 3403 06da 9C       		.byte	0x9c
 3404 06db D6080000 		.4byte	0x8d6
 3405 06df 19       		.uleb128 0x19
 3406 06e0 AD060000 		.4byte	0x6ad
 3407 06e4 77020000 		.4byte	.LLST22
 3408 06e8 19       		.uleb128 0x19
 3409 06e9 B7060000 		.4byte	0x6b7
 3410 06ed A3020000 		.4byte	.LLST23
 3411 06f1 1A       		.uleb128 0x1a
 3412 06f2 C2060000 		.4byte	0x6c2
 3413 06f6 CF020000 		.4byte	.LLST24
 3414 06fa 26       		.uleb128 0x26
 3415 06fb 7F050000 		.4byte	0x57f
 3416 06ff 02000000 		.4byte	.LBB28
 3417 0703 28000000 		.4byte	.Ldebug_ranges0+0x28
 3418 0707 01       		.byte	0x1
 3419 0708 F9       		.byte	0xf9
 3420 0709 E7070000 		.4byte	0x7e7
 3421 070d 28       		.uleb128 0x28
 3422 070e 95050000 		.4byte	0x595
 3423 0712 55       		.byte	0x55
 3424 0713 19       		.uleb128 0x19
 3425 0714 8B050000 		.4byte	0x58b
 3426 0718 07030000 		.4byte	.LLST25
 3427 071c 27       		.uleb128 0x27
 3428 071d 28000000 		.4byte	.Ldebug_ranges0+0x28
 3429 0721 1A       		.uleb128 0x1a
 3430 0722 A0050000 		.4byte	0x5a0
 3431 0726 33030000 		.4byte	.LLST26
 3432 072a 1A       		.uleb128 0x1a
 3433 072b A9050000 		.4byte	0x5a9
 3434 072f 52030000 		.4byte	.LLST27
 3435 0733 26       		.uleb128 0x26
 3436 0734 B2030000 		.4byte	0x3b2
 3437 0738 1A000000 		.4byte	.LBB30
 3438 073c 48000000 		.4byte	.Ldebug_ranges0+0x48
 3439 0740 01       		.byte	0x1
 3440 0741 DF       		.byte	0xdf
 3441 0742 D5070000 		.4byte	0x7d5
 3442 0746 19       		.uleb128 0x19
 3443 0747 C8030000 		.4byte	0x3c8
 3444 074b 52030000 		.4byte	.LLST27
ARM GAS  C:\Users\glenn\AppData\Local\Temp\cc3rYttq.s 			page 78


 3445 074f 19       		.uleb128 0x19
 3446 0750 BE030000 		.4byte	0x3be
 3447 0754 69030000 		.4byte	.LLST29
 3448 0758 27       		.uleb128 0x27
 3449 0759 48000000 		.4byte	.Ldebug_ranges0+0x48
 3450 075d 1A       		.uleb128 0x1a
 3451 075e D3030000 		.4byte	0x3d3
 3452 0762 8A030000 		.4byte	.LLST30
 3453 0766 1B       		.uleb128 0x1b
 3454 0767 1E000000 		.4byte	.LVL73
 3455 076b 9E170000 		.4byte	0x179e
 3456 076f 1C       		.uleb128 0x1c
 3457 0770 28000000 		.4byte	.LVL74
 3458 0774 7E070000 		.4byte	0x77e
 3459 0778 1D       		.uleb128 0x1d
 3460 0779 01       		.uleb128 0x1
 3461 077a 50       		.byte	0x50
 3462 077b 01       		.uleb128 0x1
 3463 077c 30       		.byte	0x30
 3464 077d 00       		.byte	0
 3465 077e 1E       		.uleb128 0x1e
 3466 077f 30000000 		.4byte	.LVL75
 3467 0783 A9170000 		.4byte	0x17a9
 3468 0787 91070000 		.4byte	0x791
 3469 078b 1D       		.uleb128 0x1d
 3470 078c 01       		.uleb128 0x1
 3471 078d 50       		.byte	0x50
 3472 078e 01       		.uleb128 0x1
 3473 078f 32       		.byte	0x32
 3474 0790 00       		.byte	0
 3475 0791 1C       		.uleb128 0x1c
 3476 0792 3E000000 		.4byte	.LVL77
 3477 0796 A0070000 		.4byte	0x7a0
 3478 079a 1D       		.uleb128 0x1d
 3479 079b 01       		.uleb128 0x1
 3480 079c 50       		.byte	0x50
 3481 079d 01       		.uleb128 0x1
 3482 079e 31       		.byte	0x31
 3483 079f 00       		.byte	0
 3484 07a0 1E       		.uleb128 0x1e
 3485 07a1 44000000 		.4byte	.LVL78
 3486 07a5 A9170000 		.4byte	0x17a9
 3487 07a9 B4070000 		.4byte	0x7b4
 3488 07ad 1D       		.uleb128 0x1d
 3489 07ae 01       		.uleb128 0x1
 3490 07af 50       		.byte	0x50
 3491 07b0 02       		.uleb128 0x2
 3492 07b1 08       		.byte	0x8
 3493 07b2 64       		.byte	0x64
 3494 07b3 00       		.byte	0
 3495 07b4 1C       		.uleb128 0x1c
 3496 07b5 4A000000 		.4byte	.LVL79
 3497 07b9 C3070000 		.4byte	0x7c3
 3498 07bd 1D       		.uleb128 0x1d
 3499 07be 01       		.uleb128 0x1
 3500 07bf 50       		.byte	0x50
 3501 07c0 01       		.uleb128 0x1
ARM GAS  C:\Users\glenn\AppData\Local\Temp\cc3rYttq.s 			page 79


 3502 07c1 31       		.byte	0x31
 3503 07c2 00       		.byte	0
 3504 07c3 1F       		.uleb128 0x1f
 3505 07c4 52000000 		.4byte	.LVL81
 3506 07c8 BA170000 		.4byte	0x17ba
 3507 07cc 1D       		.uleb128 0x1d
 3508 07cd 01       		.uleb128 0x1
 3509 07ce 50       		.byte	0x50
 3510 07cf 02       		.uleb128 0x2
 3511 07d0 77       		.byte	0x77
 3512 07d1 00       		.sleb128 0
 3513 07d2 00       		.byte	0
 3514 07d3 00       		.byte	0
 3515 07d4 00       		.byte	0
 3516 07d5 1F       		.uleb128 0x1f
 3517 07d6 5C000000 		.4byte	.LVL82
 3518 07da A9170000 		.4byte	0x17a9
 3519 07de 1D       		.uleb128 0x1d
 3520 07df 01       		.uleb128 0x1
 3521 07e0 50       		.byte	0x50
 3522 07e1 02       		.uleb128 0x2
 3523 07e2 08       		.byte	0x8
 3524 07e3 69       		.byte	0x69
 3525 07e4 00       		.byte	0
 3526 07e5 00       		.byte	0
 3527 07e6 00       		.byte	0
 3528 07e7 29       		.uleb128 0x29
 3529 07e8 7F050000 		.4byte	0x57f
 3530 07ec 62000000 		.4byte	.LBB42
 3531 07f0 70000000 		.4byte	.Ldebug_ranges0+0x70
 3532 07f4 01       		.byte	0x1
 3533 07f5 FC       		.byte	0xfc
 3534 07f6 19       		.uleb128 0x19
 3535 07f7 95050000 		.4byte	0x595
 3536 07fb 9D030000 		.4byte	.LLST31
 3537 07ff 19       		.uleb128 0x19
 3538 0800 8B050000 		.4byte	0x58b
 3539 0804 BC030000 		.4byte	.LLST32
 3540 0808 27       		.uleb128 0x27
 3541 0809 70000000 		.4byte	.Ldebug_ranges0+0x70
 3542 080d 1A       		.uleb128 0x1a
 3543 080e A0050000 		.4byte	0x5a0
 3544 0812 DD030000 		.4byte	.LLST33
 3545 0816 1A       		.uleb128 0x1a
 3546 0817 A9050000 		.4byte	0x5a9
 3547 081b FC030000 		.4byte	.LLST34
 3548 081f 26       		.uleb128 0x26
 3549 0820 B2030000 		.4byte	0x3b2
 3550 0824 6C000000 		.4byte	.LBB44
 3551 0828 88000000 		.4byte	.Ldebug_ranges0+0x88
 3552 082c 01       		.byte	0x1
 3553 082d DF       		.byte	0xdf
 3554 082e C3080000 		.4byte	0x8c3
 3555 0832 19       		.uleb128 0x19
 3556 0833 C8030000 		.4byte	0x3c8
 3557 0837 FC030000 		.4byte	.LLST34
 3558 083b 19       		.uleb128 0x19
ARM GAS  C:\Users\glenn\AppData\Local\Temp\cc3rYttq.s 			page 80


 3559 083c BE030000 		.4byte	0x3be
 3560 0840 13040000 		.4byte	.LLST36
 3561 0844 27       		.uleb128 0x27
 3562 0845 88000000 		.4byte	.Ldebug_ranges0+0x88
 3563 0849 1A       		.uleb128 0x1a
 3564 084a D3030000 		.4byte	0x3d3
 3565 084e 34040000 		.4byte	.LLST37
 3566 0852 1B       		.uleb128 0x1b
 3567 0853 70000000 		.4byte	.LVL85
 3568 0857 9E170000 		.4byte	0x179e
 3569 085b 1C       		.uleb128 0x1c
 3570 085c 7A000000 		.4byte	.LVL86
 3571 0860 6A080000 		.4byte	0x86a
 3572 0864 1D       		.uleb128 0x1d
 3573 0865 01       		.uleb128 0x1
 3574 0866 50       		.byte	0x50
 3575 0867 01       		.uleb128 0x1
 3576 0868 30       		.byte	0x30
 3577 0869 00       		.byte	0
 3578 086a 1E       		.uleb128 0x1e
 3579 086b 82000000 		.4byte	.LVL87
 3580 086f A9170000 		.4byte	0x17a9
 3581 0873 7D080000 		.4byte	0x87d
 3582 0877 1D       		.uleb128 0x1d
 3583 0878 01       		.uleb128 0x1
 3584 0879 50       		.byte	0x50
 3585 087a 01       		.uleb128 0x1
 3586 087b 32       		.byte	0x32
 3587 087c 00       		.byte	0
 3588 087d 1C       		.uleb128 0x1c
 3589 087e 90000000 		.4byte	.LVL89
 3590 0882 8D080000 		.4byte	0x88d
 3591 0886 1D       		.uleb128 0x1d
 3592 0887 01       		.uleb128 0x1
 3593 0888 50       		.byte	0x50
 3594 0889 02       		.uleb128 0x2
 3595 088a 78       		.byte	0x78
 3596 088b 00       		.sleb128 0
 3597 088c 00       		.byte	0
 3598 088d 1E       		.uleb128 0x1e
 3599 088e 96000000 		.4byte	.LVL90
 3600 0892 A9170000 		.4byte	0x17a9
 3601 0896 A1080000 		.4byte	0x8a1
 3602 089a 1D       		.uleb128 0x1d
 3603 089b 01       		.uleb128 0x1
 3604 089c 50       		.byte	0x50
 3605 089d 02       		.uleb128 0x2
 3606 089e 08       		.byte	0x8
 3607 089f 64       		.byte	0x64
 3608 08a0 00       		.byte	0
 3609 08a1 1C       		.uleb128 0x1c
 3610 08a2 9C000000 		.4byte	.LVL91
 3611 08a6 B1080000 		.4byte	0x8b1
 3612 08aa 1D       		.uleb128 0x1d
 3613 08ab 01       		.uleb128 0x1
 3614 08ac 50       		.byte	0x50
 3615 08ad 02       		.uleb128 0x2
ARM GAS  C:\Users\glenn\AppData\Local\Temp\cc3rYttq.s 			page 81


 3616 08ae 78       		.byte	0x78
 3617 08af 00       		.sleb128 0
 3618 08b0 00       		.byte	0
 3619 08b1 1F       		.uleb128 0x1f
 3620 08b2 A4000000 		.4byte	.LVL93
 3621 08b6 BA170000 		.4byte	0x17ba
 3622 08ba 1D       		.uleb128 0x1d
 3623 08bb 01       		.uleb128 0x1
 3624 08bc 50       		.byte	0x50
 3625 08bd 02       		.uleb128 0x2
 3626 08be 7B       		.byte	0x7b
 3627 08bf 00       		.sleb128 0
 3628 08c0 00       		.byte	0
 3629 08c1 00       		.byte	0
 3630 08c2 00       		.byte	0
 3631 08c3 1F       		.uleb128 0x1f
 3632 08c4 AE000000 		.4byte	.LVL94
 3633 08c8 A9170000 		.4byte	0x17a9
 3634 08cc 1D       		.uleb128 0x1d
 3635 08cd 01       		.uleb128 0x1
 3636 08ce 50       		.byte	0x50
 3637 08cf 02       		.uleb128 0x2
 3638 08d0 08       		.byte	0x8
 3639 08d1 69       		.byte	0x69
 3640 08d2 00       		.byte	0
 3641 08d3 00       		.byte	0
 3642 08d4 00       		.byte	0
 3643 08d5 00       		.byte	0
 3644 08d6 18       		.uleb128 0x18
 3645 08d7 7F010000 		.4byte	0x17f
 3646 08db 00000000 		.4byte	.LFB68
 3647 08df 48020000 		.4byte	.LFE68-.LFB68
 3648 08e3 01       		.uleb128 0x1
 3649 08e4 9C       		.byte	0x9c
 3650 08e5 C10D0000 		.4byte	0xdc1
 3651 08e9 19       		.uleb128 0x19
 3652 08ea 90010000 		.4byte	0x190
 3653 08ee 47040000 		.4byte	.LLST38
 3654 08f2 19       		.uleb128 0x19
 3655 08f3 9B010000 		.4byte	0x19b
 3656 08f7 8C040000 		.4byte	.LLST39
 3657 08fb 2A       		.uleb128 0x2a
 3658 08fc A7010000 		.4byte	0x1a7
 3659 0900 1A       		.uleb128 0x1a
 3660 0901 B3010000 		.4byte	0x1b3
 3661 0905 C3040000 		.4byte	.LLST40
 3662 0909 2B       		.uleb128 0x2b
 3663 090a BF010000 		.4byte	0x1bf
 3664 090e 01       		.byte	0x1
 3665 090f 2B       		.uleb128 0x2b
 3666 0910 CB010000 		.4byte	0x1cb
 3667 0914 01       		.byte	0x1
 3668 0915 2B       		.uleb128 0x2b
 3669 0916 D7010000 		.4byte	0x1d7
 3670 091a 00       		.byte	0
 3671 091b 2A       		.uleb128 0x2a
 3672 091c E3010000 		.4byte	0x1e3
ARM GAS  C:\Users\glenn\AppData\Local\Temp\cc3rYttq.s 			page 82


 3673 0920 2A       		.uleb128 0x2a
 3674 0921 EF010000 		.4byte	0x1ef
 3675 0925 2B       		.uleb128 0x2b
 3676 0926 FB010000 		.4byte	0x1fb
 3677 092a 00       		.byte	0
 3678 092b 2A       		.uleb128 0x2a
 3679 092c 07020000 		.4byte	0x207
 3680 0930 2C       		.uleb128 0x2c
 3681 0931 20020000 		.4byte	0x220
 3682 0935 20000000 		.4byte	.LBB70
 3683 0939 38000000 		.4byte	.LBE70-.LBB70
 3684 093d 01       		.byte	0x1
 3685 093e 1D01     		.2byte	0x11d
 3686 0940 DF090000 		.4byte	0x9df
 3687 0944 19       		.uleb128 0x19
 3688 0945 30020000 		.4byte	0x230
 3689 0949 F9040000 		.4byte	.LLST41
 3690 094d 25       		.uleb128 0x25
 3691 094e 20000000 		.4byte	.LBB71
 3692 0952 38000000 		.4byte	.LBE71-.LBB71
 3693 0956 1A       		.uleb128 0x1a
 3694 0957 3A020000 		.4byte	0x23a
 3695 095b 3E050000 		.4byte	.LLST42
 3696 095f 1A       		.uleb128 0x1a
 3697 0960 45020000 		.4byte	0x245
 3698 0964 5C050000 		.4byte	.LLST43
 3699 0968 1B       		.uleb128 0x1b
 3700 0969 24000000 		.4byte	.LVL105
 3701 096d 9E170000 		.4byte	0x179e
 3702 0971 1C       		.uleb128 0x1c
 3703 0972 2C000000 		.4byte	.LVL107
 3704 0976 80090000 		.4byte	0x980
 3705 097a 1D       		.uleb128 0x1d
 3706 097b 01       		.uleb128 0x1
 3707 097c 50       		.byte	0x50
 3708 097d 01       		.uleb128 0x1
 3709 097e 30       		.byte	0x30
 3710 097f 00       		.byte	0
 3711 0980 1E       		.uleb128 0x1e
 3712 0981 34000000 		.4byte	.LVL108
 3713 0985 A9170000 		.4byte	0x17a9
 3714 0989 95090000 		.4byte	0x995
 3715 098d 1D       		.uleb128 0x1d
 3716 098e 01       		.uleb128 0x1
 3717 098f 50       		.byte	0x50
 3718 0990 03       		.uleb128 0x3
 3719 0991 0A       		.byte	0xa
 3720 0992 E001     		.2byte	0x1e0
 3721 0994 00       		.byte	0
 3722 0995 1C       		.uleb128 0x1c
 3723 0996 3A000000 		.4byte	.LVL109
 3724 099a A4090000 		.4byte	0x9a4
 3725 099e 1D       		.uleb128 0x1d
 3726 099f 01       		.uleb128 0x1
 3727 09a0 50       		.byte	0x50
 3728 09a1 01       		.uleb128 0x1
 3729 09a2 31       		.byte	0x31
ARM GAS  C:\Users\glenn\AppData\Local\Temp\cc3rYttq.s 			page 83


 3730 09a3 00       		.byte	0
 3731 09a4 1E       		.uleb128 0x1e
 3732 09a5 40000000 		.4byte	.LVL110
 3733 09a9 A9170000 		.4byte	0x17a9
 3734 09ad B8090000 		.4byte	0x9b8
 3735 09b1 1D       		.uleb128 0x1d
 3736 09b2 01       		.uleb128 0x1
 3737 09b3 50       		.byte	0x50
 3738 09b4 02       		.uleb128 0x2
 3739 09b5 08       		.byte	0x8
 3740 09b6 28       		.byte	0x28
 3741 09b7 00       		.byte	0
 3742 09b8 1E       		.uleb128 0x1e
 3743 09b9 4E000000 		.4byte	.LVL113
 3744 09bd A9170000 		.4byte	0x17a9
 3745 09c1 CD090000 		.4byte	0x9cd
 3746 09c5 1D       		.uleb128 0x1d
 3747 09c6 01       		.uleb128 0x1
 3748 09c7 50       		.byte	0x50
 3749 09c8 03       		.uleb128 0x3
 3750 09c9 0A       		.byte	0xa
 3751 09ca A801     		.2byte	0x1a8
 3752 09cc 00       		.byte	0
 3753 09cd 1F       		.uleb128 0x1f
 3754 09ce 54000000 		.4byte	.LVL114
 3755 09d2 BA170000 		.4byte	0x17ba
 3756 09d6 1D       		.uleb128 0x1d
 3757 09d7 01       		.uleb128 0x1
 3758 09d8 50       		.byte	0x50
 3759 09d9 02       		.uleb128 0x2
 3760 09da 76       		.byte	0x76
 3761 09db 00       		.sleb128 0
 3762 09dc 00       		.byte	0
 3763 09dd 00       		.byte	0
 3764 09de 00       		.byte	0
 3765 09df 25       		.uleb128 0x25
 3766 09e0 78000000 		.4byte	.LBB72
 3767 09e4 C4010000 		.4byte	.LBE72-.LBB72
 3768 09e8 2D       		.uleb128 0x2d
 3769 09e9 9B010000 		.4byte	0x19b
 3770 09ed 2D       		.uleb128 0x2d
 3771 09ee 90010000 		.4byte	0x190
 3772 09f2 25       		.uleb128 0x25
 3773 09f3 78000000 		.4byte	.LBB73
 3774 09f7 C4010000 		.4byte	.LBE73-.LBB73
 3775 09fb 1A       		.uleb128 0x1a
 3776 09fc A7010000 		.4byte	0x1a7
 3777 0a00 7A050000 		.4byte	.LLST44
 3778 0a04 2E       		.uleb128 0x2e
 3779 0a05 B3010000 		.4byte	0x1b3
 3780 0a09 01       		.uleb128 0x1
 3781 0a0a 58       		.byte	0x58
 3782 0a0b 1A       		.uleb128 0x1a
 3783 0a0c BF010000 		.4byte	0x1bf
 3784 0a10 BA050000 		.4byte	.LLST45
 3785 0a14 1A       		.uleb128 0x1a
 3786 0a15 CB010000 		.4byte	0x1cb
ARM GAS  C:\Users\glenn\AppData\Local\Temp\cc3rYttq.s 			page 84


 3787 0a19 EF050000 		.4byte	.LLST46
 3788 0a1d 2E       		.uleb128 0x2e
 3789 0a1e D7010000 		.4byte	0x1d7
 3790 0a22 02       		.uleb128 0x2
 3791 0a23 91       		.byte	0x91
 3792 0a24 54       		.sleb128 -44
 3793 0a25 1A       		.uleb128 0x1a
 3794 0a26 E3010000 		.4byte	0x1e3
 3795 0a2a 0D060000 		.4byte	.LLST47
 3796 0a2e 2A       		.uleb128 0x2a
 3797 0a2f EF010000 		.4byte	0x1ef
 3798 0a33 2B       		.uleb128 0x2b
 3799 0a34 FB010000 		.4byte	0x1fb
 3800 0a38 01       		.byte	0x1
 3801 0a39 2E       		.uleb128 0x2e
 3802 0a3a 07020000 		.4byte	0x207
 3803 0a3e 01       		.uleb128 0x1
 3804 0a3f 50       		.byte	0x50
 3805 0a40 2C       		.uleb128 0x2c
 3806 0a41 7F050000 		.4byte	0x57f
 3807 0a45 78000000 		.4byte	.LBB74
 3808 0a49 5E000000 		.4byte	.LBE74-.LBB74
 3809 0a4d 01       		.byte	0x1
 3810 0a4e 2601     		.2byte	0x126
 3811 0a50 580B0000 		.4byte	0xb58
 3812 0a54 2D       		.uleb128 0x2d
 3813 0a55 95050000 		.4byte	0x595
 3814 0a59 2D       		.uleb128 0x2d
 3815 0a5a 8B050000 		.4byte	0x58b
 3816 0a5e 25       		.uleb128 0x25
 3817 0a5f 78000000 		.4byte	.LBB75
 3818 0a63 5E000000 		.4byte	.LBE75-.LBB75
 3819 0a67 1A       		.uleb128 0x1a
 3820 0a68 A0050000 		.4byte	0x5a0
 3821 0a6c 3A060000 		.4byte	.LLST48
 3822 0a70 1A       		.uleb128 0x1a
 3823 0a71 A9050000 		.4byte	0x5a9
 3824 0a75 6F060000 		.4byte	.LLST49
 3825 0a79 26       		.uleb128 0x26
 3826 0a7a B2030000 		.4byte	0x3b2
 3827 0a7e 78000000 		.4byte	.LBB76
 3828 0a82 B0000000 		.4byte	.Ldebug_ranges0+0xb0
 3829 0a86 01       		.byte	0x1
 3830 0a87 DF       		.byte	0xdf
 3831 0a88 460B0000 		.4byte	0xb46
 3832 0a8c 19       		.uleb128 0x19
 3833 0a8d C8030000 		.4byte	0x3c8
 3834 0a91 6F060000 		.4byte	.LLST49
 3835 0a95 19       		.uleb128 0x19
 3836 0a96 BE030000 		.4byte	0x3be
 3837 0a9a 92060000 		.4byte	.LLST51
 3838 0a9e 27       		.uleb128 0x27
 3839 0a9f B0000000 		.4byte	.Ldebug_ranges0+0xb0
 3840 0aa3 1A       		.uleb128 0x1a
 3841 0aa4 D3030000 		.4byte	0x3d3
 3842 0aa8 B3060000 		.4byte	.LLST52
 3843 0aac 1B       		.uleb128 0x1b
ARM GAS  C:\Users\glenn\AppData\Local\Temp\cc3rYttq.s 			page 85


 3844 0aad 7C000000 		.4byte	.LVL119
 3845 0ab1 9E170000 		.4byte	0x179e
 3846 0ab5 1C       		.uleb128 0x1c
 3847 0ab6 84000000 		.4byte	.LVL122
 3848 0aba C40A0000 		.4byte	0xac4
 3849 0abe 1D       		.uleb128 0x1d
 3850 0abf 01       		.uleb128 0x1
 3851 0ac0 50       		.byte	0x50
 3852 0ac1 01       		.uleb128 0x1
 3853 0ac2 30       		.byte	0x30
 3854 0ac3 00       		.byte	0
 3855 0ac4 1E       		.uleb128 0x1e
 3856 0ac5 8A000000 		.4byte	.LVL123
 3857 0ac9 A9170000 		.4byte	0x17a9
 3858 0acd D70A0000 		.4byte	0xad7
 3859 0ad1 1D       		.uleb128 0x1d
 3860 0ad2 01       		.uleb128 0x1
 3861 0ad3 50       		.byte	0x50
 3862 0ad4 01       		.uleb128 0x1
 3863 0ad5 32       		.byte	0x32
 3864 0ad6 00       		.byte	0
 3865 0ad7 1E       		.uleb128 0x1e
 3866 0ad8 96000000 		.4byte	.LVL126
 3867 0adc A9170000 		.4byte	0x17a9
 3868 0ae0 EB0A0000 		.4byte	0xaeb
 3869 0ae4 1D       		.uleb128 0x1d
 3870 0ae5 01       		.uleb128 0x1
 3871 0ae6 50       		.byte	0x50
 3872 0ae7 02       		.uleb128 0x2
 3873 0ae8 08       		.byte	0x8
 3874 0ae9 64       		.byte	0x64
 3875 0aea 00       		.byte	0
 3876 0aeb 1C       		.uleb128 0x1c
 3877 0aec 9C000000 		.4byte	.LVL127
 3878 0af0 FA0A0000 		.4byte	0xafa
 3879 0af4 1D       		.uleb128 0x1d
 3880 0af5 01       		.uleb128 0x1
 3881 0af6 50       		.byte	0x50
 3882 0af7 01       		.uleb128 0x1
 3883 0af8 31       		.byte	0x31
 3884 0af9 00       		.byte	0
 3885 0afa 1E       		.uleb128 0x1e
 3886 0afb A2000000 		.4byte	.LVL128
 3887 0aff BA170000 		.4byte	0x17ba
 3888 0b03 0E0B0000 		.4byte	0xb0e
 3889 0b07 1D       		.uleb128 0x1d
 3890 0b08 01       		.uleb128 0x1
 3891 0b09 50       		.byte	0x50
 3892 0b0a 02       		.uleb128 0x2
 3893 0b0b 77       		.byte	0x77
 3894 0b0c 00       		.sleb128 0
 3895 0b0d 00       		.byte	0
 3896 0b0e 1B       		.uleb128 0x1b
 3897 0b0f AC000000 		.4byte	.LVL129
 3898 0b13 9E170000 		.4byte	0x179e
 3899 0b17 1C       		.uleb128 0x1c
 3900 0b18 B6000000 		.4byte	.LVL130
ARM GAS  C:\Users\glenn\AppData\Local\Temp\cc3rYttq.s 			page 86


 3901 0b1c 260B0000 		.4byte	0xb26
 3902 0b20 1D       		.uleb128 0x1d
 3903 0b21 01       		.uleb128 0x1
 3904 0b22 50       		.byte	0x50
 3905 0b23 01       		.uleb128 0x1
 3906 0b24 30       		.byte	0x30
 3907 0b25 00       		.byte	0
 3908 0b26 1E       		.uleb128 0x1e
 3909 0b27 BE000000 		.4byte	.LVL132
 3910 0b2b A9170000 		.4byte	0x17a9
 3911 0b2f 390B0000 		.4byte	0xb39
 3912 0b33 1D       		.uleb128 0x1d
 3913 0b34 01       		.uleb128 0x1
 3914 0b35 50       		.byte	0x50
 3915 0b36 01       		.uleb128 0x1
 3916 0b37 32       		.byte	0x32
 3917 0b38 00       		.byte	0
 3918 0b39 2F       		.uleb128 0x2f
 3919 0b3a CC000000 		.4byte	.LVL135
 3920 0b3e 1D       		.uleb128 0x1d
 3921 0b3f 01       		.uleb128 0x1
 3922 0b40 50       		.byte	0x50
 3923 0b41 01       		.uleb128 0x1
 3924 0b42 31       		.byte	0x31
 3925 0b43 00       		.byte	0
 3926 0b44 00       		.byte	0
 3927 0b45 00       		.byte	0
 3928 0b46 1F       		.uleb128 0x1f
 3929 0b47 D6000000 		.4byte	.LVL138
 3930 0b4b A9170000 		.4byte	0x17a9
 3931 0b4f 1D       		.uleb128 0x1d
 3932 0b50 01       		.uleb128 0x1
 3933 0b51 50       		.byte	0x50
 3934 0b52 02       		.uleb128 0x2
 3935 0b53 08       		.byte	0x8
 3936 0b54 69       		.byte	0x69
 3937 0b55 00       		.byte	0
 3938 0b56 00       		.byte	0
 3939 0b57 00       		.byte	0
 3940 0b58 30       		.uleb128 0x30
 3941 0b59 B2030000 		.4byte	0x3b2
 3942 0b5d 08010000 		.4byte	.LBB88
 3943 0b61 E8000000 		.4byte	.Ldebug_ranges0+0xe8
 3944 0b65 01       		.byte	0x1
 3945 0b66 6D01     		.2byte	0x16d
 3946 0b68 220C0000 		.4byte	0xc22
 3947 0b6c 2D       		.uleb128 0x2d
 3948 0b6d C8030000 		.4byte	0x3c8
 3949 0b71 19       		.uleb128 0x19
 3950 0b72 BE030000 		.4byte	0x3be
 3951 0b76 DC060000 		.4byte	.LLST53
 3952 0b7a 27       		.uleb128 0x27
 3953 0b7b E8000000 		.4byte	.Ldebug_ranges0+0xe8
 3954 0b7f 1A       		.uleb128 0x1a
 3955 0b80 D3030000 		.4byte	0x3d3
 3956 0b84 FA060000 		.4byte	.LLST54
 3957 0b88 1B       		.uleb128 0x1b
ARM GAS  C:\Users\glenn\AppData\Local\Temp\cc3rYttq.s 			page 87


 3958 0b89 0C010000 		.4byte	.LVL146
 3959 0b8d 9E170000 		.4byte	0x179e
 3960 0b91 1C       		.uleb128 0x1c
 3961 0b92 14010000 		.4byte	.LVL149
 3962 0b96 A00B0000 		.4byte	0xba0
 3963 0b9a 1D       		.uleb128 0x1d
 3964 0b9b 01       		.uleb128 0x1
 3965 0b9c 50       		.byte	0x50
 3966 0b9d 01       		.uleb128 0x1
 3967 0b9e 30       		.byte	0x30
 3968 0b9f 00       		.byte	0
 3969 0ba0 1E       		.uleb128 0x1e
 3970 0ba1 1A010000 		.4byte	.LVL150
 3971 0ba5 A9170000 		.4byte	0x17a9
 3972 0ba9 B30B0000 		.4byte	0xbb3
 3973 0bad 1D       		.uleb128 0x1d
 3974 0bae 01       		.uleb128 0x1
 3975 0baf 50       		.byte	0x50
 3976 0bb0 01       		.uleb128 0x1
 3977 0bb1 32       		.byte	0x32
 3978 0bb2 00       		.byte	0
 3979 0bb3 1C       		.uleb128 0x1c
 3980 0bb4 20010000 		.4byte	.LVL151
 3981 0bb8 C20B0000 		.4byte	0xbc2
 3982 0bbc 1D       		.uleb128 0x1d
 3983 0bbd 01       		.uleb128 0x1
 3984 0bbe 50       		.byte	0x50
 3985 0bbf 01       		.uleb128 0x1
 3986 0bc0 31       		.byte	0x31
 3987 0bc1 00       		.byte	0
 3988 0bc2 1E       		.uleb128 0x1e
 3989 0bc3 26010000 		.4byte	.LVL152
 3990 0bc7 A9170000 		.4byte	0x17a9
 3991 0bcb D60B0000 		.4byte	0xbd6
 3992 0bcf 1D       		.uleb128 0x1d
 3993 0bd0 01       		.uleb128 0x1
 3994 0bd1 50       		.byte	0x50
 3995 0bd2 02       		.uleb128 0x2
 3996 0bd3 08       		.byte	0x8
 3997 0bd4 64       		.byte	0x64
 3998 0bd5 00       		.byte	0
 3999 0bd6 1C       		.uleb128 0x1c
 4000 0bd7 2E010000 		.4byte	.LVL154
 4001 0bdb E50B0000 		.4byte	0xbe5
 4002 0bdf 1D       		.uleb128 0x1d
 4003 0be0 01       		.uleb128 0x1
 4004 0be1 50       		.byte	0x50
 4005 0be2 01       		.uleb128 0x1
 4006 0be3 31       		.byte	0x31
 4007 0be4 00       		.byte	0
 4008 0be5 1E       		.uleb128 0x1e
 4009 0be6 38010000 		.4byte	.LVL156
 4010 0bea BA170000 		.4byte	0x17ba
 4011 0bee F90B0000 		.4byte	0xbf9
 4012 0bf2 1D       		.uleb128 0x1d
 4013 0bf3 01       		.uleb128 0x1
 4014 0bf4 50       		.byte	0x50
ARM GAS  C:\Users\glenn\AppData\Local\Temp\cc3rYttq.s 			page 88


 4015 0bf5 02       		.uleb128 0x2
 4016 0bf6 75       		.byte	0x75
 4017 0bf7 00       		.sleb128 0
 4018 0bf8 00       		.byte	0
 4019 0bf9 1B       		.uleb128 0x1b
 4020 0bfa E8010000 		.4byte	.LVL185
 4021 0bfe 9E170000 		.4byte	0x179e
 4022 0c02 1C       		.uleb128 0x1c
 4023 0c03 F0010000 		.4byte	.LVL188
 4024 0c07 110C0000 		.4byte	0xc11
 4025 0c0b 1D       		.uleb128 0x1d
 4026 0c0c 01       		.uleb128 0x1
 4027 0c0d 50       		.byte	0x50
 4028 0c0e 01       		.uleb128 0x1
 4029 0c0f 30       		.byte	0x30
 4030 0c10 00       		.byte	0
 4031 0c11 1F       		.uleb128 0x1f
 4032 0c12 F6010000 		.4byte	.LVL189
 4033 0c16 A9170000 		.4byte	0x17a9
 4034 0c1a 1D       		.uleb128 0x1d
 4035 0c1b 01       		.uleb128 0x1
 4036 0c1c 50       		.byte	0x50
 4037 0c1d 01       		.uleb128 0x1
 4038 0c1e 32       		.byte	0x32
 4039 0c1f 00       		.byte	0
 4040 0c20 00       		.byte	0
 4041 0c21 00       		.byte	0
 4042 0c22 2C       		.uleb128 0x2c
 4043 0c23 F5020000 		.4byte	0x2f5
 4044 0c27 4E010000 		.4byte	.LBB97
 4045 0c2b 2A000000 		.4byte	.LBE97-.LBB97
 4046 0c2f 01       		.byte	0x1
 4047 0c30 2E01     		.2byte	0x12e
 4048 0c32 B90C0000 		.4byte	0xcb9
 4049 0c36 19       		.uleb128 0x19
 4050 0c37 05030000 		.4byte	0x305
 4051 0c3b 2E070000 		.4byte	.LLST55
 4052 0c3f 25       		.uleb128 0x25
 4053 0c40 4E010000 		.4byte	.LBB98
 4054 0c44 2A000000 		.4byte	.LBE98-.LBB98
 4055 0c48 1A       		.uleb128 0x1a
 4056 0c49 0F030000 		.4byte	0x30f
 4057 0c4d 4F070000 		.4byte	.LLST56
 4058 0c51 1A       		.uleb128 0x1a
 4059 0c52 1A030000 		.4byte	0x31a
 4060 0c56 62070000 		.4byte	.LLST57
 4061 0c5a 1B       		.uleb128 0x1b
 4062 0c5b 52010000 		.4byte	.LVL161
 4063 0c5f 9E170000 		.4byte	0x179e
 4064 0c63 1C       		.uleb128 0x1c
 4065 0c64 5A010000 		.4byte	.LVL163
 4066 0c68 720C0000 		.4byte	0xc72
 4067 0c6c 1D       		.uleb128 0x1d
 4068 0c6d 01       		.uleb128 0x1
 4069 0c6e 50       		.byte	0x50
 4070 0c6f 01       		.uleb128 0x1
 4071 0c70 30       		.byte	0x30
ARM GAS  C:\Users\glenn\AppData\Local\Temp\cc3rYttq.s 			page 89


 4072 0c71 00       		.byte	0
 4073 0c72 1E       		.uleb128 0x1e
 4074 0c73 60010000 		.4byte	.LVL164
 4075 0c77 A9170000 		.4byte	0x17a9
 4076 0c7b 850C0000 		.4byte	0xc85
 4077 0c7f 1D       		.uleb128 0x1d
 4078 0c80 01       		.uleb128 0x1
 4079 0c81 50       		.byte	0x50
 4080 0c82 01       		.uleb128 0x1
 4081 0c83 32       		.byte	0x32
 4082 0c84 00       		.byte	0
 4083 0c85 1C       		.uleb128 0x1c
 4084 0c86 66010000 		.4byte	.LVL165
 4085 0c8a 940C0000 		.4byte	0xc94
 4086 0c8e 1D       		.uleb128 0x1d
 4087 0c8f 01       		.uleb128 0x1
 4088 0c90 50       		.byte	0x50
 4089 0c91 01       		.uleb128 0x1
 4090 0c92 31       		.byte	0x31
 4091 0c93 00       		.byte	0
 4092 0c94 1E       		.uleb128 0x1e
 4093 0c95 6C010000 		.4byte	.LVL166
 4094 0c99 A9170000 		.4byte	0x17a9
 4095 0c9d A70C0000 		.4byte	0xca7
 4096 0ca1 1D       		.uleb128 0x1d
 4097 0ca2 01       		.uleb128 0x1
 4098 0ca3 50       		.byte	0x50
 4099 0ca4 01       		.uleb128 0x1
 4100 0ca5 35       		.byte	0x35
 4101 0ca6 00       		.byte	0
 4102 0ca7 1F       		.uleb128 0x1f
 4103 0ca8 78010000 		.4byte	.LVL169
 4104 0cac BA170000 		.4byte	0x17ba
 4105 0cb0 1D       		.uleb128 0x1d
 4106 0cb1 01       		.uleb128 0x1
 4107 0cb2 50       		.byte	0x50
 4108 0cb3 02       		.uleb128 0x2
 4109 0cb4 7A       		.byte	0x7a
 4110 0cb5 00       		.sleb128 0
 4111 0cb6 00       		.byte	0
 4112 0cb7 00       		.byte	0
 4113 0cb8 00       		.byte	0
 4114 0cb9 30       		.uleb128 0x30
 4115 0cba F5020000 		.4byte	0x2f5
 4116 0cbe 7E010000 		.4byte	.LBB99
 4117 0cc2 18010000 		.4byte	.Ldebug_ranges0+0x118
 4118 0cc6 01       		.byte	0x1
 4119 0cc7 3501     		.2byte	0x135
 4120 0cc9 4C0D0000 		.4byte	0xd4c
 4121 0ccd 19       		.uleb128 0x19
 4122 0cce 05030000 		.4byte	0x305
 4123 0cd2 75070000 		.4byte	.LLST58
 4124 0cd6 27       		.uleb128 0x27
 4125 0cd7 18010000 		.4byte	.Ldebug_ranges0+0x118
 4126 0cdb 1A       		.uleb128 0x1a
 4127 0cdc 0F030000 		.4byte	0x30f
 4128 0ce0 A1070000 		.4byte	.LLST59
ARM GAS  C:\Users\glenn\AppData\Local\Temp\cc3rYttq.s 			page 90


 4129 0ce4 1A       		.uleb128 0x1a
 4130 0ce5 1A030000 		.4byte	0x31a
 4131 0ce9 BF070000 		.4byte	.LLST60
 4132 0ced 1B       		.uleb128 0x1b
 4133 0cee 82010000 		.4byte	.LVL171
 4134 0cf2 9E170000 		.4byte	0x179e
 4135 0cf6 1C       		.uleb128 0x1c
 4136 0cf7 8E010000 		.4byte	.LVL173
 4137 0cfb 050D0000 		.4byte	0xd05
 4138 0cff 1D       		.uleb128 0x1d
 4139 0d00 01       		.uleb128 0x1
 4140 0d01 50       		.byte	0x50
 4141 0d02 01       		.uleb128 0x1
 4142 0d03 30       		.byte	0x30
 4143 0d04 00       		.byte	0
 4144 0d05 1E       		.uleb128 0x1e
 4145 0d06 94010000 		.4byte	.LVL174
 4146 0d0a A9170000 		.4byte	0x17a9
 4147 0d0e 180D0000 		.4byte	0xd18
 4148 0d12 1D       		.uleb128 0x1d
 4149 0d13 01       		.uleb128 0x1
 4150 0d14 50       		.byte	0x50
 4151 0d15 01       		.uleb128 0x1
 4152 0d16 32       		.byte	0x32
 4153 0d17 00       		.byte	0
 4154 0d18 1C       		.uleb128 0x1c
 4155 0d19 9A010000 		.4byte	.LVL175
 4156 0d1d 270D0000 		.4byte	0xd27
 4157 0d21 1D       		.uleb128 0x1d
 4158 0d22 01       		.uleb128 0x1
 4159 0d23 50       		.byte	0x50
 4160 0d24 01       		.uleb128 0x1
 4161 0d25 31       		.byte	0x31
 4162 0d26 00       		.byte	0
 4163 0d27 1E       		.uleb128 0x1e
 4164 0d28 A0010000 		.4byte	.LVL176
 4165 0d2c A9170000 		.4byte	0x17a9
 4166 0d30 3A0D0000 		.4byte	0xd3a
 4167 0d34 1D       		.uleb128 0x1d
 4168 0d35 01       		.uleb128 0x1
 4169 0d36 50       		.byte	0x50
 4170 0d37 01       		.uleb128 0x1
 4171 0d38 35       		.byte	0x35
 4172 0d39 00       		.byte	0
 4173 0d3a 1F       		.uleb128 0x1f
 4174 0d3b AC010000 		.4byte	.LVL179
 4175 0d3f BA170000 		.4byte	0x17ba
 4176 0d43 1D       		.uleb128 0x1d
 4177 0d44 01       		.uleb128 0x1
 4178 0d45 50       		.byte	0x50
 4179 0d46 02       		.uleb128 0x2
 4180 0d47 7B       		.byte	0x7b
 4181 0d48 00       		.sleb128 0
 4182 0d49 00       		.byte	0
 4183 0d4a 00       		.byte	0
 4184 0d4b 00       		.byte	0
 4185 0d4c 2C       		.uleb128 0x2c
ARM GAS  C:\Users\glenn\AppData\Local\Temp\cc3rYttq.s 			page 91


 4186 0d4d 3E010000 		.4byte	0x13e
 4187 0d51 20020000 		.4byte	.LBB104
 4188 0d55 12000000 		.4byte	.LBE104-.LBB104
 4189 0d59 01       		.byte	0x1
 4190 0d5a 8E01     		.2byte	0x18e
 4191 0d5c 860D0000 		.4byte	0xd86
 4192 0d60 19       		.uleb128 0x19
 4193 0d61 5B010000 		.4byte	0x15b
 4194 0d65 DD070000 		.4byte	.LLST61
 4195 0d69 19       		.uleb128 0x19
 4196 0d6a 4F010000 		.4byte	0x14f
 4197 0d6e 03080000 		.4byte	.LLST62
 4198 0d72 25       		.uleb128 0x25
 4199 0d73 20020000 		.4byte	.LBB105
 4200 0d77 12000000 		.4byte	.LBE105-.LBB105
 4201 0d7b 1A       		.uleb128 0x1a
 4202 0d7c 67010000 		.4byte	0x167
 4203 0d80 2E080000 		.4byte	.LLST63
 4204 0d84 00       		.byte	0
 4205 0d85 00       		.byte	0
 4206 0d86 1E       		.uleb128 0x1e
 4207 0d87 EE000000 		.4byte	.LVL142
 4208 0d8b A9170000 		.4byte	0x17a9
 4209 0d8f 9A0D0000 		.4byte	0xd9a
 4210 0d93 1D       		.uleb128 0x1d
 4211 0d94 01       		.uleb128 0x1
 4212 0d95 50       		.byte	0x50
 4213 0d96 02       		.uleb128 0x2
 4214 0d97 08       		.byte	0x8
 4215 0d98 78       		.byte	0x78
 4216 0d99 00       		.byte	0
 4217 0d9a 1E       		.uleb128 0x1e
 4218 0d9b 7E010000 		.4byte	.LVL170
 4219 0d9f A9170000 		.4byte	0x17a9
 4220 0da3 AE0D0000 		.4byte	0xdae
 4221 0da7 1D       		.uleb128 0x1d
 4222 0da8 01       		.uleb128 0x1
 4223 0da9 50       		.byte	0x50
 4224 0daa 02       		.uleb128 0x2
 4225 0dab 08       		.byte	0x8
 4226 0dac 78       		.byte	0x78
 4227 0dad 00       		.byte	0
 4228 0dae 1F       		.uleb128 0x1f
 4229 0daf BA010000 		.4byte	.LVL181
 4230 0db3 A9170000 		.4byte	0x17a9
 4231 0db7 1D       		.uleb128 0x1d
 4232 0db8 01       		.uleb128 0x1
 4233 0db9 50       		.byte	0x50
 4234 0dba 02       		.uleb128 0x2
 4235 0dbb 08       		.byte	0x8
 4236 0dbc 78       		.byte	0x78
 4237 0dbd 00       		.byte	0
 4238 0dbe 00       		.byte	0
 4239 0dbf 00       		.byte	0
 4240 0dc0 00       		.byte	0
 4241 0dc1 31       		.uleb128 0x31
 4242 0dc2 69020000 		.4byte	.LASF46
ARM GAS  C:\Users\glenn\AppData\Local\Temp\cc3rYttq.s 			page 92


 4243 0dc6 01       		.byte	0x1
 4244 0dc7 A601     		.2byte	0x1a6
 4245 0dc9 6B000000 		.4byte	0x6b
 4246 0dcd 00000000 		.4byte	.LFB69
 4247 0dd1 14000000 		.4byte	.LFE69-.LFB69
 4248 0dd5 01       		.uleb128 0x1
 4249 0dd6 9C       		.byte	0x9c
 4250 0dd7 130E0000 		.4byte	0xe13
 4251 0ddb 32       		.uleb128 0x32
 4252 0ddc 696F00   		.ascii	"io\000"
 4253 0ddf 01       		.byte	0x1
 4254 0de0 A601     		.2byte	0x1a6
 4255 0de2 14020000 		.4byte	0x214
 4256 0de6 5C080000 		.4byte	.LLST64
 4257 0dea 33       		.uleb128 0x33
 4258 0deb 5D010000 		.4byte	.LASF23
 4259 0def 01       		.byte	0x1
 4260 0df0 A601     		.2byte	0x1a6
 4261 0df2 1A020000 		.4byte	0x21a
 4262 0df6 7D080000 		.4byte	.LLST65
 4263 0dfa 1F       		.uleb128 0x1f
 4264 0dfb 0E000000 		.4byte	.LVL201
 4265 0dff 7F010000 		.4byte	0x17f
 4266 0e03 1D       		.uleb128 0x1d
 4267 0e04 01       		.uleb128 0x1
 4268 0e05 51       		.byte	0x51
 4269 0e06 03       		.uleb128 0x3
 4270 0e07 F3       		.byte	0xf3
 4271 0e08 01       		.uleb128 0x1
 4272 0e09 51       		.byte	0x51
 4273 0e0a 1D       		.uleb128 0x1d
 4274 0e0b 01       		.uleb128 0x1
 4275 0e0c 50       		.byte	0x50
 4276 0e0d 03       		.uleb128 0x3
 4277 0e0e F3       		.byte	0xf3
 4278 0e0f 01       		.uleb128 0x1
 4279 0e10 50       		.byte	0x50
 4280 0e11 00       		.byte	0
 4281 0e12 00       		.byte	0
 4282 0e13 34       		.uleb128 0x34
 4283 0e14 80020000 		.4byte	.LASF59
 4284 0e18 01       		.byte	0x1
 4285 0e19 D901     		.2byte	0x1d9
 4286 0e1b 00000000 		.4byte	.LFB70
 4287 0e1f 5A010000 		.4byte	.LFE70-.LFB70
 4288 0e23 01       		.uleb128 0x1
 4289 0e24 9C       		.byte	0x9c
 4290 0e25 25120000 		.4byte	0x1225
 4291 0e29 32       		.uleb128 0x32
 4292 0e2a 696F00   		.ascii	"io\000"
 4293 0e2d 01       		.byte	0x1
 4294 0e2e D901     		.2byte	0x1d9
 4295 0e30 14020000 		.4byte	0x214
 4296 0e34 9E080000 		.4byte	.LLST66
 4297 0e38 33       		.uleb128 0x33
 4298 0e39 5D010000 		.4byte	.LASF23
 4299 0e3d 01       		.byte	0x1
ARM GAS  C:\Users\glenn\AppData\Local\Temp\cc3rYttq.s 			page 93


 4300 0e3e D901     		.2byte	0x1d9
 4301 0e40 1A020000 		.4byte	0x21a
 4302 0e44 CA080000 		.4byte	.LLST67
 4303 0e48 30       		.uleb128 0x30
 4304 0e49 20020000 		.4byte	0x220
 4305 0e4d 10000000 		.4byte	.LBB122
 4306 0e51 30010000 		.4byte	.Ldebug_ranges0+0x130
 4307 0e55 01       		.byte	0x1
 4308 0e56 DD01     		.2byte	0x1dd
 4309 0e58 EF0E0000 		.4byte	0xeef
 4310 0e5c 19       		.uleb128 0x19
 4311 0e5d 30020000 		.4byte	0x230
 4312 0e61 F6080000 		.4byte	.LLST68
 4313 0e65 27       		.uleb128 0x27
 4314 0e66 30010000 		.4byte	.Ldebug_ranges0+0x130
 4315 0e6a 2A       		.uleb128 0x2a
 4316 0e6b 3A020000 		.4byte	0x23a
 4317 0e6f 1A       		.uleb128 0x1a
 4318 0e70 45020000 		.4byte	0x245
 4319 0e74 22090000 		.4byte	.LLST69
 4320 0e78 1B       		.uleb128 0x1b
 4321 0e79 14000000 		.4byte	.LVL204
 4322 0e7d 9E170000 		.4byte	0x179e
 4323 0e81 1C       		.uleb128 0x1c
 4324 0e82 1C000000 		.4byte	.LVL206
 4325 0e86 900E0000 		.4byte	0xe90
 4326 0e8a 1D       		.uleb128 0x1d
 4327 0e8b 01       		.uleb128 0x1
 4328 0e8c 50       		.byte	0x50
 4329 0e8d 01       		.uleb128 0x1
 4330 0e8e 30       		.byte	0x30
 4331 0e8f 00       		.byte	0
 4332 0e90 1E       		.uleb128 0x1e
 4333 0e91 24000000 		.4byte	.LVL207
 4334 0e95 A9170000 		.4byte	0x17a9
 4335 0e99 A50E0000 		.4byte	0xea5
 4336 0e9d 1D       		.uleb128 0x1d
 4337 0e9e 01       		.uleb128 0x1
 4338 0e9f 50       		.byte	0x50
 4339 0ea0 03       		.uleb128 0x3
 4340 0ea1 0A       		.byte	0xa
 4341 0ea2 E001     		.2byte	0x1e0
 4342 0ea4 00       		.byte	0
 4343 0ea5 1C       		.uleb128 0x1c
 4344 0ea6 2A000000 		.4byte	.LVL208
 4345 0eaa B40E0000 		.4byte	0xeb4
 4346 0eae 1D       		.uleb128 0x1d
 4347 0eaf 01       		.uleb128 0x1
 4348 0eb0 50       		.byte	0x50
 4349 0eb1 01       		.uleb128 0x1
 4350 0eb2 31       		.byte	0x31
 4351 0eb3 00       		.byte	0
 4352 0eb4 1E       		.uleb128 0x1e
 4353 0eb5 30000000 		.4byte	.LVL209
 4354 0eb9 A9170000 		.4byte	0x17a9
 4355 0ebd C80E0000 		.4byte	0xec8
 4356 0ec1 1D       		.uleb128 0x1d
ARM GAS  C:\Users\glenn\AppData\Local\Temp\cc3rYttq.s 			page 94


 4357 0ec2 01       		.uleb128 0x1
 4358 0ec3 50       		.byte	0x50
 4359 0ec4 02       		.uleb128 0x2
 4360 0ec5 08       		.byte	0x8
 4361 0ec6 28       		.byte	0x28
 4362 0ec7 00       		.byte	0
 4363 0ec8 1E       		.uleb128 0x1e
 4364 0ec9 3C000000 		.4byte	.LVL211
 4365 0ecd A9170000 		.4byte	0x17a9
 4366 0ed1 DD0E0000 		.4byte	0xedd
 4367 0ed5 1D       		.uleb128 0x1d
 4368 0ed6 01       		.uleb128 0x1
 4369 0ed7 50       		.byte	0x50
 4370 0ed8 03       		.uleb128 0x3
 4371 0ed9 0A       		.byte	0xa
 4372 0eda A801     		.2byte	0x1a8
 4373 0edc 00       		.byte	0
 4374 0edd 1F       		.uleb128 0x1f
 4375 0ede 42000000 		.4byte	.LVL212
 4376 0ee2 BA170000 		.4byte	0x17ba
 4377 0ee6 1D       		.uleb128 0x1d
 4378 0ee7 01       		.uleb128 0x1
 4379 0ee8 50       		.byte	0x50
 4380 0ee9 02       		.uleb128 0x2
 4381 0eea 74       		.byte	0x74
 4382 0eeb 00       		.sleb128 0
 4383 0eec 00       		.byte	0
 4384 0eed 00       		.byte	0
 4385 0eee 00       		.byte	0
 4386 0eef 30       		.uleb128 0x30
 4387 0ef0 A1060000 		.4byte	0x6a1
 4388 0ef4 42000000 		.4byte	.LBB125
 4389 0ef8 48010000 		.4byte	.Ldebug_ranges0+0x148
 4390 0efc 01       		.byte	0x1
 4391 0efd DE01     		.2byte	0x1de
 4392 0eff FB100000 		.4byte	0x10fb
 4393 0f03 19       		.uleb128 0x19
 4394 0f04 B7060000 		.4byte	0x6b7
 4395 0f08 35090000 		.4byte	.LLST70
 4396 0f0c 19       		.uleb128 0x19
 4397 0f0d AD060000 		.4byte	0x6ad
 4398 0f11 56090000 		.4byte	.LLST71
 4399 0f15 27       		.uleb128 0x27
 4400 0f16 48010000 		.4byte	.Ldebug_ranges0+0x148
 4401 0f1a 1A       		.uleb128 0x1a
 4402 0f1b C2060000 		.4byte	0x6c2
 4403 0f1f 77090000 		.4byte	.LLST72
 4404 0f23 26       		.uleb128 0x26
 4405 0f24 7F050000 		.4byte	0x57f
 4406 0f28 42000000 		.4byte	.LBB127
 4407 0f2c 60010000 		.4byte	.Ldebug_ranges0+0x160
 4408 0f30 01       		.byte	0x1
 4409 0f31 F9       		.byte	0xf9
 4410 0f32 0B100000 		.4byte	0x100b
 4411 0f36 2D       		.uleb128 0x2d
 4412 0f37 95050000 		.4byte	0x595
 4413 0f3b 2D       		.uleb128 0x2d
ARM GAS  C:\Users\glenn\AppData\Local\Temp\cc3rYttq.s 			page 95


 4414 0f3c 8B050000 		.4byte	0x58b
 4415 0f40 27       		.uleb128 0x27
 4416 0f41 60010000 		.4byte	.Ldebug_ranges0+0x160
 4417 0f45 1A       		.uleb128 0x1a
 4418 0f46 A0050000 		.4byte	0x5a0
 4419 0f4a AF090000 		.4byte	.LLST73
 4420 0f4e 1A       		.uleb128 0x1a
 4421 0f4f A9050000 		.4byte	0x5a9
 4422 0f53 CE090000 		.4byte	.LLST74
 4423 0f57 26       		.uleb128 0x26
 4424 0f58 B2030000 		.4byte	0x3b2
 4425 0f5c 4C000000 		.4byte	.LBB129
 4426 0f60 78010000 		.4byte	.Ldebug_ranges0+0x178
 4427 0f64 01       		.byte	0x1
 4428 0f65 DF       		.byte	0xdf
 4429 0f66 F90F0000 		.4byte	0xff9
 4430 0f6a 19       		.uleb128 0x19
 4431 0f6b C8030000 		.4byte	0x3c8
 4432 0f6f CE090000 		.4byte	.LLST74
 4433 0f73 19       		.uleb128 0x19
 4434 0f74 BE030000 		.4byte	0x3be
 4435 0f78 E5090000 		.4byte	.LLST76
 4436 0f7c 27       		.uleb128 0x27
 4437 0f7d 78010000 		.4byte	.Ldebug_ranges0+0x178
 4438 0f81 1A       		.uleb128 0x1a
 4439 0f82 D3030000 		.4byte	0x3d3
 4440 0f86 060A0000 		.4byte	.LLST77
 4441 0f8a 1B       		.uleb128 0x1b
 4442 0f8b 50000000 		.4byte	.LVL215
 4443 0f8f 9E170000 		.4byte	0x179e
 4444 0f93 1C       		.uleb128 0x1c
 4445 0f94 5A000000 		.4byte	.LVL216
 4446 0f98 A20F0000 		.4byte	0xfa2
 4447 0f9c 1D       		.uleb128 0x1d
 4448 0f9d 01       		.uleb128 0x1
 4449 0f9e 50       		.byte	0x50
 4450 0f9f 01       		.uleb128 0x1
 4451 0fa0 30       		.byte	0x30
 4452 0fa1 00       		.byte	0
 4453 0fa2 1E       		.uleb128 0x1e
 4454 0fa3 62000000 		.4byte	.LVL217
 4455 0fa7 A9170000 		.4byte	0x17a9
 4456 0fab B50F0000 		.4byte	0xfb5
 4457 0faf 1D       		.uleb128 0x1d
 4458 0fb0 01       		.uleb128 0x1
 4459 0fb1 50       		.byte	0x50
 4460 0fb2 01       		.uleb128 0x1
 4461 0fb3 32       		.byte	0x32
 4462 0fb4 00       		.byte	0
 4463 0fb5 1C       		.uleb128 0x1c
 4464 0fb6 70000000 		.4byte	.LVL219
 4465 0fba C40F0000 		.4byte	0xfc4
 4466 0fbe 1D       		.uleb128 0x1d
 4467 0fbf 01       		.uleb128 0x1
 4468 0fc0 50       		.byte	0x50
 4469 0fc1 01       		.uleb128 0x1
 4470 0fc2 31       		.byte	0x31
ARM GAS  C:\Users\glenn\AppData\Local\Temp\cc3rYttq.s 			page 96


 4471 0fc3 00       		.byte	0
 4472 0fc4 1E       		.uleb128 0x1e
 4473 0fc5 76000000 		.4byte	.LVL220
 4474 0fc9 A9170000 		.4byte	0x17a9
 4475 0fcd D80F0000 		.4byte	0xfd8
 4476 0fd1 1D       		.uleb128 0x1d
 4477 0fd2 01       		.uleb128 0x1
 4478 0fd3 50       		.byte	0x50
 4479 0fd4 02       		.uleb128 0x2
 4480 0fd5 08       		.byte	0x8
 4481 0fd6 64       		.byte	0x64
 4482 0fd7 00       		.byte	0
 4483 0fd8 1C       		.uleb128 0x1c
 4484 0fd9 7C000000 		.4byte	.LVL221
 4485 0fdd E70F0000 		.4byte	0xfe7
 4486 0fe1 1D       		.uleb128 0x1d
 4487 0fe2 01       		.uleb128 0x1
 4488 0fe3 50       		.byte	0x50
 4489 0fe4 01       		.uleb128 0x1
 4490 0fe5 31       		.byte	0x31
 4491 0fe6 00       		.byte	0
 4492 0fe7 1F       		.uleb128 0x1f
 4493 0fe8 84000000 		.4byte	.LVL223
 4494 0fec BA170000 		.4byte	0x17ba
 4495 0ff0 1D       		.uleb128 0x1d
 4496 0ff1 01       		.uleb128 0x1
 4497 0ff2 50       		.byte	0x50
 4498 0ff3 02       		.uleb128 0x2
 4499 0ff4 77       		.byte	0x77
 4500 0ff5 00       		.sleb128 0
 4501 0ff6 00       		.byte	0
 4502 0ff7 00       		.byte	0
 4503 0ff8 00       		.byte	0
 4504 0ff9 1F       		.uleb128 0x1f
 4505 0ffa 8E000000 		.4byte	.LVL224
 4506 0ffe A9170000 		.4byte	0x17a9
 4507 1002 1D       		.uleb128 0x1d
 4508 1003 01       		.uleb128 0x1
 4509 1004 50       		.byte	0x50
 4510 1005 02       		.uleb128 0x2
 4511 1006 08       		.byte	0x8
 4512 1007 69       		.byte	0x69
 4513 1008 00       		.byte	0
 4514 1009 00       		.byte	0
 4515 100a 00       		.byte	0
 4516 100b 29       		.uleb128 0x29
 4517 100c 7F050000 		.4byte	0x57f
 4518 1010 94000000 		.4byte	.LBB139
 4519 1014 A0010000 		.4byte	.Ldebug_ranges0+0x1a0
 4520 1018 01       		.byte	0x1
 4521 1019 FC       		.byte	0xfc
 4522 101a 19       		.uleb128 0x19
 4523 101b 95050000 		.4byte	0x595
 4524 101f 190A0000 		.4byte	.LLST78
 4525 1023 19       		.uleb128 0x19
 4526 1024 8B050000 		.4byte	0x58b
 4527 1028 380A0000 		.4byte	.LLST79
ARM GAS  C:\Users\glenn\AppData\Local\Temp\cc3rYttq.s 			page 97


 4528 102c 27       		.uleb128 0x27
 4529 102d A0010000 		.4byte	.Ldebug_ranges0+0x1a0
 4530 1031 1A       		.uleb128 0x1a
 4531 1032 A0050000 		.4byte	0x5a0
 4532 1036 590A0000 		.4byte	.LLST80
 4533 103a 1A       		.uleb128 0x1a
 4534 103b A9050000 		.4byte	0x5a9
 4535 103f 780A0000 		.4byte	.LLST81
 4536 1043 26       		.uleb128 0x26
 4537 1044 B2030000 		.4byte	0x3b2
 4538 1048 9E000000 		.4byte	.LBB141
 4539 104c B8010000 		.4byte	.Ldebug_ranges0+0x1b8
 4540 1050 01       		.byte	0x1
 4541 1051 DF       		.byte	0xdf
 4542 1052 E7100000 		.4byte	0x10e7
 4543 1056 19       		.uleb128 0x19
 4544 1057 C8030000 		.4byte	0x3c8
 4545 105b 780A0000 		.4byte	.LLST81
 4546 105f 19       		.uleb128 0x19
 4547 1060 BE030000 		.4byte	0x3be
 4548 1064 8F0A0000 		.4byte	.LLST83
 4549 1068 27       		.uleb128 0x27
 4550 1069 B8010000 		.4byte	.Ldebug_ranges0+0x1b8
 4551 106d 1A       		.uleb128 0x1a
 4552 106e D3030000 		.4byte	0x3d3
 4553 1072 B00A0000 		.4byte	.LLST84
 4554 1076 1B       		.uleb128 0x1b
 4555 1077 A2000000 		.4byte	.LVL227
 4556 107b 9E170000 		.4byte	0x179e
 4557 107f 1C       		.uleb128 0x1c
 4558 1080 AC000000 		.4byte	.LVL228
 4559 1084 8E100000 		.4byte	0x108e
 4560 1088 1D       		.uleb128 0x1d
 4561 1089 01       		.uleb128 0x1
 4562 108a 50       		.byte	0x50
 4563 108b 01       		.uleb128 0x1
 4564 108c 30       		.byte	0x30
 4565 108d 00       		.byte	0
 4566 108e 1E       		.uleb128 0x1e
 4567 108f B4000000 		.4byte	.LVL229
 4568 1093 A9170000 		.4byte	0x17a9
 4569 1097 A1100000 		.4byte	0x10a1
 4570 109b 1D       		.uleb128 0x1d
 4571 109c 01       		.uleb128 0x1
 4572 109d 50       		.byte	0x50
 4573 109e 01       		.uleb128 0x1
 4574 109f 32       		.byte	0x32
 4575 10a0 00       		.byte	0
 4576 10a1 1C       		.uleb128 0x1c
 4577 10a2 C2000000 		.4byte	.LVL231
 4578 10a6 B1100000 		.4byte	0x10b1
 4579 10aa 1D       		.uleb128 0x1d
 4580 10ab 01       		.uleb128 0x1
 4581 10ac 50       		.byte	0x50
 4582 10ad 02       		.uleb128 0x2
 4583 10ae 78       		.byte	0x78
 4584 10af 00       		.sleb128 0
ARM GAS  C:\Users\glenn\AppData\Local\Temp\cc3rYttq.s 			page 98


 4585 10b0 00       		.byte	0
 4586 10b1 1E       		.uleb128 0x1e
 4587 10b2 C8000000 		.4byte	.LVL232
 4588 10b6 A9170000 		.4byte	0x17a9
 4589 10ba C5100000 		.4byte	0x10c5
 4590 10be 1D       		.uleb128 0x1d
 4591 10bf 01       		.uleb128 0x1
 4592 10c0 50       		.byte	0x50
 4593 10c1 02       		.uleb128 0x2
 4594 10c2 08       		.byte	0x8
 4595 10c3 64       		.byte	0x64
 4596 10c4 00       		.byte	0
 4597 10c5 1C       		.uleb128 0x1c
 4598 10c6 CE000000 		.4byte	.LVL233
 4599 10ca D5100000 		.4byte	0x10d5
 4600 10ce 1D       		.uleb128 0x1d
 4601 10cf 01       		.uleb128 0x1
 4602 10d0 50       		.byte	0x50
 4603 10d1 02       		.uleb128 0x2
 4604 10d2 78       		.byte	0x78
 4605 10d3 00       		.sleb128 0
 4606 10d4 00       		.byte	0
 4607 10d5 1F       		.uleb128 0x1f
 4608 10d6 D6000000 		.4byte	.LVL235
 4609 10da BA170000 		.4byte	0x17ba
 4610 10de 1D       		.uleb128 0x1d
 4611 10df 01       		.uleb128 0x1
 4612 10e0 50       		.byte	0x50
 4613 10e1 02       		.uleb128 0x2
 4614 10e2 7B       		.byte	0x7b
 4615 10e3 00       		.sleb128 0
 4616 10e4 00       		.byte	0
 4617 10e5 00       		.byte	0
 4618 10e6 00       		.byte	0
 4619 10e7 1F       		.uleb128 0x1f
 4620 10e8 E0000000 		.4byte	.LVL236
 4621 10ec A9170000 		.4byte	0x17a9
 4622 10f0 1D       		.uleb128 0x1d
 4623 10f1 01       		.uleb128 0x1
 4624 10f2 50       		.byte	0x50
 4625 10f3 02       		.uleb128 0x2
 4626 10f4 08       		.byte	0x8
 4627 10f5 69       		.byte	0x69
 4628 10f6 00       		.byte	0
 4629 10f7 00       		.byte	0
 4630 10f8 00       		.byte	0
 4631 10f9 00       		.byte	0
 4632 10fa 00       		.byte	0
 4633 10fb 2C       		.uleb128 0x2c
 4634 10fc 7F050000 		.4byte	0x57f
 4635 1100 F0000000 		.4byte	.LBB154
 4636 1104 5E000000 		.4byte	.LBE154-.LBB154
 4637 1108 01       		.byte	0x1
 4638 1109 E001     		.2byte	0x1e0
 4639 110b 18120000 		.4byte	0x1218
 4640 110f 28       		.uleb128 0x28
 4641 1110 95050000 		.4byte	0x595
ARM GAS  C:\Users\glenn\AppData\Local\Temp\cc3rYttq.s 			page 99


 4642 1114 44       		.byte	0x44
 4643 1115 19       		.uleb128 0x19
 4644 1116 8B050000 		.4byte	0x58b
 4645 111a C30A0000 		.4byte	.LLST85
 4646 111e 25       		.uleb128 0x25
 4647 111f F0000000 		.4byte	.LBB155
 4648 1123 5E000000 		.4byte	.LBE155-.LBB155
 4649 1127 1A       		.uleb128 0x1a
 4650 1128 A0050000 		.4byte	0x5a0
 4651 112c E40A0000 		.4byte	.LLST86
 4652 1130 1A       		.uleb128 0x1a
 4653 1131 A9050000 		.4byte	0x5a9
 4654 1135 190B0000 		.4byte	.LLST87
 4655 1139 26       		.uleb128 0x26
 4656 113a B2030000 		.4byte	0x3b2
 4657 113e F0000000 		.4byte	.LBB156
 4658 1142 E0010000 		.4byte	.Ldebug_ranges0+0x1e0
 4659 1146 01       		.byte	0x1
 4660 1147 DF       		.byte	0xdf
 4661 1148 06120000 		.4byte	0x1206
 4662 114c 19       		.uleb128 0x19
 4663 114d C8030000 		.4byte	0x3c8
 4664 1151 190B0000 		.4byte	.LLST87
 4665 1155 19       		.uleb128 0x19
 4666 1156 BE030000 		.4byte	0x3be
 4667 115a C30A0000 		.4byte	.LLST85
 4668 115e 27       		.uleb128 0x27
 4669 115f E0010000 		.4byte	.Ldebug_ranges0+0x1e0
 4670 1163 1A       		.uleb128 0x1a
 4671 1164 D3030000 		.4byte	0x3d3
 4672 1168 3C0B0000 		.4byte	.LLST90
 4673 116c 1B       		.uleb128 0x1b
 4674 116d F4000000 		.4byte	.LVL239
 4675 1171 9E170000 		.4byte	0x179e
 4676 1175 1C       		.uleb128 0x1c
 4677 1176 FC000000 		.4byte	.LVL242
 4678 117a 84110000 		.4byte	0x1184
 4679 117e 1D       		.uleb128 0x1d
 4680 117f 01       		.uleb128 0x1
 4681 1180 50       		.byte	0x50
 4682 1181 01       		.uleb128 0x1
 4683 1182 30       		.byte	0x30
 4684 1183 00       		.byte	0
 4685 1184 1E       		.uleb128 0x1e
 4686 1185 02010000 		.4byte	.LVL243
 4687 1189 A9170000 		.4byte	0x17a9
 4688 118d 97110000 		.4byte	0x1197
 4689 1191 1D       		.uleb128 0x1d
 4690 1192 01       		.uleb128 0x1
 4691 1193 50       		.byte	0x50
 4692 1194 01       		.uleb128 0x1
 4693 1195 32       		.byte	0x32
 4694 1196 00       		.byte	0
 4695 1197 1E       		.uleb128 0x1e
 4696 1198 0E010000 		.4byte	.LVL245
 4697 119c A9170000 		.4byte	0x17a9
 4698 11a0 AB110000 		.4byte	0x11ab
ARM GAS  C:\Users\glenn\AppData\Local\Temp\cc3rYttq.s 			page 100


 4699 11a4 1D       		.uleb128 0x1d
 4700 11a5 01       		.uleb128 0x1
 4701 11a6 50       		.byte	0x50
 4702 11a7 02       		.uleb128 0x2
 4703 11a8 08       		.byte	0x8
 4704 11a9 64       		.byte	0x64
 4705 11aa 00       		.byte	0
 4706 11ab 1C       		.uleb128 0x1c
 4707 11ac 14010000 		.4byte	.LVL246
 4708 11b0 BA110000 		.4byte	0x11ba
 4709 11b4 1D       		.uleb128 0x1d
 4710 11b5 01       		.uleb128 0x1
 4711 11b6 50       		.byte	0x50
 4712 11b7 01       		.uleb128 0x1
 4713 11b8 31       		.byte	0x31
 4714 11b9 00       		.byte	0
 4715 11ba 1E       		.uleb128 0x1e
 4716 11bb 1A010000 		.4byte	.LVL247
 4717 11bf BA170000 		.4byte	0x17ba
 4718 11c3 CE110000 		.4byte	0x11ce
 4719 11c7 1D       		.uleb128 0x1d
 4720 11c8 01       		.uleb128 0x1
 4721 11c9 50       		.byte	0x50
 4722 11ca 02       		.uleb128 0x2
 4723 11cb 77       		.byte	0x77
 4724 11cc 00       		.sleb128 0
 4725 11cd 00       		.byte	0
 4726 11ce 1B       		.uleb128 0x1b
 4727 11cf 24010000 		.4byte	.LVL248
 4728 11d3 9E170000 		.4byte	0x179e
 4729 11d7 1C       		.uleb128 0x1c
 4730 11d8 2E010000 		.4byte	.LVL249
 4731 11dc E6110000 		.4byte	0x11e6
 4732 11e0 1D       		.uleb128 0x1d
 4733 11e1 01       		.uleb128 0x1
 4734 11e2 50       		.byte	0x50
 4735 11e3 01       		.uleb128 0x1
 4736 11e4 30       		.byte	0x30
 4737 11e5 00       		.byte	0
 4738 11e6 1E       		.uleb128 0x1e
 4739 11e7 36010000 		.4byte	.LVL251
 4740 11eb A9170000 		.4byte	0x17a9
 4741 11ef F9110000 		.4byte	0x11f9
 4742 11f3 1D       		.uleb128 0x1d
 4743 11f4 01       		.uleb128 0x1
 4744 11f5 50       		.byte	0x50
 4745 11f6 01       		.uleb128 0x1
 4746 11f7 32       		.byte	0x32
 4747 11f8 00       		.byte	0
 4748 11f9 2F       		.uleb128 0x2f
 4749 11fa 44010000 		.4byte	.LVL254
 4750 11fe 1D       		.uleb128 0x1d
 4751 11ff 01       		.uleb128 0x1
 4752 1200 50       		.byte	0x50
 4753 1201 01       		.uleb128 0x1
 4754 1202 31       		.byte	0x31
 4755 1203 00       		.byte	0
ARM GAS  C:\Users\glenn\AppData\Local\Temp\cc3rYttq.s 			page 101


 4756 1204 00       		.byte	0
 4757 1205 00       		.byte	0
 4758 1206 1F       		.uleb128 0x1f
 4759 1207 4E010000 		.4byte	.LVL257
 4760 120b A9170000 		.4byte	0x17a9
 4761 120f 1D       		.uleb128 0x1d
 4762 1210 01       		.uleb128 0x1
 4763 1211 50       		.byte	0x50
 4764 1212 02       		.uleb128 0x2
 4765 1213 08       		.byte	0x8
 4766 1214 69       		.byte	0x69
 4767 1215 00       		.byte	0
 4768 1216 00       		.byte	0
 4769 1217 00       		.byte	0
 4770 1218 2F       		.uleb128 0x2f
 4771 1219 F0000000 		.4byte	.LVL238
 4772 121d 1D       		.uleb128 0x1d
 4773 121e 01       		.uleb128 0x1
 4774 121f 50       		.byte	0x50
 4775 1220 02       		.uleb128 0x2
 4776 1221 78       		.byte	0x78
 4777 1222 00       		.sleb128 0
 4778 1223 00       		.byte	0
 4779 1224 00       		.byte	0
 4780 1225 35       		.uleb128 0x35
 4781 1226 2D010000 		.4byte	.LASF47
 4782 122a 01       		.byte	0x1
 4783 122b E701     		.2byte	0x1e7
 4784 122d 83000000 		.4byte	0x83
 4785 1231 00000000 		.4byte	.LFB71
 4786 1235 FE010000 		.4byte	.LFE71-.LFB71
 4787 1239 01       		.uleb128 0x1
 4788 123a 9C       		.byte	0x9c
 4789 123b 45170000 		.4byte	0x1745
 4790 123f 32       		.uleb128 0x32
 4791 1240 696F00   		.ascii	"io\000"
 4792 1243 01       		.byte	0x1
 4793 1244 E701     		.2byte	0x1e7
 4794 1246 14020000 		.4byte	0x214
 4795 124a 650B0000 		.4byte	.LLST91
 4796 124e 33       		.uleb128 0x33
 4797 124f 5D010000 		.4byte	.LASF23
 4798 1253 01       		.byte	0x1
 4799 1254 E701     		.2byte	0x1e7
 4800 1256 1A020000 		.4byte	0x21a
 4801 125a AA0B0000 		.4byte	.LLST92
 4802 125e 36       		.uleb128 0x36
 4803 125f 6900     		.ascii	"i\000"
 4804 1261 01       		.byte	0x1
 4805 1262 E901     		.2byte	0x1e9
 4806 1264 6B000000 		.4byte	0x6b
 4807 1268 C90B0000 		.4byte	.LLST93
 4808 126c 37       		.uleb128 0x37
 4809 126d BF030000 		.4byte	.LASF48
 4810 1271 01       		.byte	0x1
 4811 1272 EA01     		.2byte	0x1ea
 4812 1274 77000000 		.4byte	0x77
ARM GAS  C:\Users\glenn\AppData\Local\Temp\cc3rYttq.s 			page 102


 4813 1278 F50B0000 		.4byte	.LLST94
 4814 127c 37       		.uleb128 0x37
 4815 127d 4A020000 		.4byte	.LASF49
 4816 1281 01       		.byte	0x1
 4817 1282 EB01     		.2byte	0x1eb
 4818 1284 77000000 		.4byte	0x77
 4819 1288 6C0C0000 		.4byte	.LLST95
 4820 128c 38       		.uleb128 0x38
 4821 128d 43020000 		.4byte	.LASF50
 4822 1291 01       		.byte	0x1
 4823 1292 EC01     		.2byte	0x1ec
 4824 1294 45170000 		.4byte	0x1745
 4825 1298 02       		.uleb128 0x2
 4826 1299 91       		.byte	0x91
 4827 129a 4C       		.sleb128 -52
 4828 129b 30       		.uleb128 0x30
 4829 129c 20020000 		.4byte	0x220
 4830 12a0 12000000 		.4byte	.LBB186
 4831 12a4 10020000 		.4byte	.Ldebug_ranges0+0x210
 4832 12a8 01       		.byte	0x1
 4833 12a9 EF01     		.2byte	0x1ef
 4834 12ab 42130000 		.4byte	0x1342
 4835 12af 19       		.uleb128 0x19
 4836 12b0 30020000 		.4byte	0x230
 4837 12b4 E20C0000 		.4byte	.LLST96
 4838 12b8 27       		.uleb128 0x27
 4839 12b9 10020000 		.4byte	.Ldebug_ranges0+0x210
 4840 12bd 2A       		.uleb128 0x2a
 4841 12be 3A020000 		.4byte	0x23a
 4842 12c2 1A       		.uleb128 0x1a
 4843 12c3 45020000 		.4byte	0x245
 4844 12c7 270D0000 		.4byte	.LLST97
 4845 12cb 1B       		.uleb128 0x1b
 4846 12cc 16000000 		.4byte	.LVL263
 4847 12d0 9E170000 		.4byte	0x179e
 4848 12d4 1C       		.uleb128 0x1c
 4849 12d5 1E000000 		.4byte	.LVL265
 4850 12d9 E3120000 		.4byte	0x12e3
 4851 12dd 1D       		.uleb128 0x1d
 4852 12de 01       		.uleb128 0x1
 4853 12df 50       		.byte	0x50
 4854 12e0 01       		.uleb128 0x1
 4855 12e1 30       		.byte	0x30
 4856 12e2 00       		.byte	0
 4857 12e3 1E       		.uleb128 0x1e
 4858 12e4 26000000 		.4byte	.LVL266
 4859 12e8 A9170000 		.4byte	0x17a9
 4860 12ec F8120000 		.4byte	0x12f8
 4861 12f0 1D       		.uleb128 0x1d
 4862 12f1 01       		.uleb128 0x1
 4863 12f2 50       		.byte	0x50
 4864 12f3 03       		.uleb128 0x3
 4865 12f4 0A       		.byte	0xa
 4866 12f5 E001     		.2byte	0x1e0
 4867 12f7 00       		.byte	0
 4868 12f8 1C       		.uleb128 0x1c
 4869 12f9 2C000000 		.4byte	.LVL267
ARM GAS  C:\Users\glenn\AppData\Local\Temp\cc3rYttq.s 			page 103


 4870 12fd 07130000 		.4byte	0x1307
 4871 1301 1D       		.uleb128 0x1d
 4872 1302 01       		.uleb128 0x1
 4873 1303 50       		.byte	0x50
 4874 1304 01       		.uleb128 0x1
 4875 1305 31       		.byte	0x31
 4876 1306 00       		.byte	0
 4877 1307 1E       		.uleb128 0x1e
 4878 1308 32000000 		.4byte	.LVL268
 4879 130c A9170000 		.4byte	0x17a9
 4880 1310 1B130000 		.4byte	0x131b
 4881 1314 1D       		.uleb128 0x1d
 4882 1315 01       		.uleb128 0x1
 4883 1316 50       		.byte	0x50
 4884 1317 02       		.uleb128 0x2
 4885 1318 08       		.byte	0x8
 4886 1319 28       		.byte	0x28
 4887 131a 00       		.byte	0
 4888 131b 1E       		.uleb128 0x1e
 4889 131c 3E000000 		.4byte	.LVL270
 4890 1320 A9170000 		.4byte	0x17a9
 4891 1324 30130000 		.4byte	0x1330
 4892 1328 1D       		.uleb128 0x1d
 4893 1329 01       		.uleb128 0x1
 4894 132a 50       		.byte	0x50
 4895 132b 03       		.uleb128 0x3
 4896 132c 0A       		.byte	0xa
 4897 132d A801     		.2byte	0x1a8
 4898 132f 00       		.byte	0
 4899 1330 1F       		.uleb128 0x1f
 4900 1331 44000000 		.4byte	.LVL271
 4901 1335 BA170000 		.4byte	0x17ba
 4902 1339 1D       		.uleb128 0x1d
 4903 133a 01       		.uleb128 0x1
 4904 133b 50       		.byte	0x50
 4905 133c 02       		.uleb128 0x2
 4906 133d 75       		.byte	0x75
 4907 133e 00       		.sleb128 0
 4908 133f 00       		.byte	0
 4909 1340 00       		.byte	0
 4910 1341 00       		.byte	0
 4911 1342 30       		.uleb128 0x30
 4912 1343 A1060000 		.4byte	0x6a1
 4913 1347 44000000 		.4byte	.LBB189
 4914 134b 28020000 		.4byte	.Ldebug_ranges0+0x228
 4915 134f 01       		.byte	0x1
 4916 1350 F001     		.2byte	0x1f0
 4917 1352 4D150000 		.4byte	0x154d
 4918 1356 39       		.uleb128 0x39
 4919 1357 B7060000 		.4byte	0x6b7
 4920 135b 02       		.uleb128 0x2
 4921 135c 91       		.byte	0x91
 4922 135d 44       		.sleb128 -60
 4923 135e 19       		.uleb128 0x19
 4924 135f AD060000 		.4byte	0x6ad
 4925 1363 3A0D0000 		.4byte	.LLST98
 4926 1367 27       		.uleb128 0x27
ARM GAS  C:\Users\glenn\AppData\Local\Temp\cc3rYttq.s 			page 104


 4927 1368 28020000 		.4byte	.Ldebug_ranges0+0x228
 4928 136c 1A       		.uleb128 0x1a
 4929 136d C2060000 		.4byte	0x6c2
 4930 1371 740D0000 		.4byte	.LLST99
 4931 1375 26       		.uleb128 0x26
 4932 1376 7F050000 		.4byte	0x57f
 4933 137a 44000000 		.4byte	.LBB191
 4934 137e 40020000 		.4byte	.Ldebug_ranges0+0x240
 4935 1382 01       		.byte	0x1
 4936 1383 F9       		.byte	0xf9
 4937 1384 5D140000 		.4byte	0x145d
 4938 1388 2D       		.uleb128 0x2d
 4939 1389 95050000 		.4byte	0x595
 4940 138d 2D       		.uleb128 0x2d
 4941 138e 8B050000 		.4byte	0x58b
 4942 1392 27       		.uleb128 0x27
 4943 1393 40020000 		.4byte	.Ldebug_ranges0+0x240
 4944 1397 1A       		.uleb128 0x1a
 4945 1398 A0050000 		.4byte	0x5a0
 4946 139c AE0D0000 		.4byte	.LLST100
 4947 13a0 1A       		.uleb128 0x1a
 4948 13a1 A9050000 		.4byte	0x5a9
 4949 13a5 CD0D0000 		.4byte	.LLST101
 4950 13a9 26       		.uleb128 0x26
 4951 13aa B2030000 		.4byte	0x3b2
 4952 13ae 4E000000 		.4byte	.LBB193
 4953 13b2 58020000 		.4byte	.Ldebug_ranges0+0x258
 4954 13b6 01       		.byte	0x1
 4955 13b7 DF       		.byte	0xdf
 4956 13b8 4B140000 		.4byte	0x144b
 4957 13bc 19       		.uleb128 0x19
 4958 13bd C8030000 		.4byte	0x3c8
 4959 13c1 CD0D0000 		.4byte	.LLST101
 4960 13c5 19       		.uleb128 0x19
 4961 13c6 BE030000 		.4byte	0x3be
 4962 13ca E40D0000 		.4byte	.LLST103
 4963 13ce 27       		.uleb128 0x27
 4964 13cf 58020000 		.4byte	.Ldebug_ranges0+0x258
 4965 13d3 1A       		.uleb128 0x1a
 4966 13d4 D3030000 		.4byte	0x3d3
 4967 13d8 1E0E0000 		.4byte	.LLST104
 4968 13dc 1B       		.uleb128 0x1b
 4969 13dd 52000000 		.4byte	.LVL274
 4970 13e1 9E170000 		.4byte	0x179e
 4971 13e5 1C       		.uleb128 0x1c
 4972 13e6 5C000000 		.4byte	.LVL275
 4973 13ea F4130000 		.4byte	0x13f4
 4974 13ee 1D       		.uleb128 0x1d
 4975 13ef 01       		.uleb128 0x1
 4976 13f0 50       		.byte	0x50
 4977 13f1 01       		.uleb128 0x1
 4978 13f2 30       		.byte	0x30
 4979 13f3 00       		.byte	0
 4980 13f4 1E       		.uleb128 0x1e
 4981 13f5 64000000 		.4byte	.LVL276
 4982 13f9 A9170000 		.4byte	0x17a9
 4983 13fd 07140000 		.4byte	0x1407
ARM GAS  C:\Users\glenn\AppData\Local\Temp\cc3rYttq.s 			page 105


 4984 1401 1D       		.uleb128 0x1d
 4985 1402 01       		.uleb128 0x1
 4986 1403 50       		.byte	0x50
 4987 1404 01       		.uleb128 0x1
 4988 1405 32       		.byte	0x32
 4989 1406 00       		.byte	0
 4990 1407 1C       		.uleb128 0x1c
 4991 1408 72000000 		.4byte	.LVL278
 4992 140c 16140000 		.4byte	0x1416
 4993 1410 1D       		.uleb128 0x1d
 4994 1411 01       		.uleb128 0x1
 4995 1412 50       		.byte	0x50
 4996 1413 01       		.uleb128 0x1
 4997 1414 31       		.byte	0x31
 4998 1415 00       		.byte	0
 4999 1416 1E       		.uleb128 0x1e
 5000 1417 78000000 		.4byte	.LVL279
 5001 141b A9170000 		.4byte	0x17a9
 5002 141f 2A140000 		.4byte	0x142a
 5003 1423 1D       		.uleb128 0x1d
 5004 1424 01       		.uleb128 0x1
 5005 1425 50       		.byte	0x50
 5006 1426 02       		.uleb128 0x2
 5007 1427 08       		.byte	0x8
 5008 1428 64       		.byte	0x64
 5009 1429 00       		.byte	0
 5010 142a 1C       		.uleb128 0x1c
 5011 142b 7E000000 		.4byte	.LVL280
 5012 142f 39140000 		.4byte	0x1439
 5013 1433 1D       		.uleb128 0x1d
 5014 1434 01       		.uleb128 0x1
 5015 1435 50       		.byte	0x50
 5016 1436 01       		.uleb128 0x1
 5017 1437 31       		.byte	0x31
 5018 1438 00       		.byte	0
 5019 1439 1F       		.uleb128 0x1f
 5020 143a 86000000 		.4byte	.LVL282
 5021 143e BA170000 		.4byte	0x17ba
 5022 1442 1D       		.uleb128 0x1d
 5023 1443 01       		.uleb128 0x1
 5024 1444 50       		.byte	0x50
 5025 1445 02       		.uleb128 0x2
 5026 1446 77       		.byte	0x77
 5027 1447 00       		.sleb128 0
 5028 1448 00       		.byte	0
 5029 1449 00       		.byte	0
 5030 144a 00       		.byte	0
 5031 144b 1F       		.uleb128 0x1f
 5032 144c 90000000 		.4byte	.LVL283
 5033 1450 A9170000 		.4byte	0x17a9
 5034 1454 1D       		.uleb128 0x1d
 5035 1455 01       		.uleb128 0x1
 5036 1456 50       		.byte	0x50
 5037 1457 02       		.uleb128 0x2
 5038 1458 08       		.byte	0x8
 5039 1459 69       		.byte	0x69
 5040 145a 00       		.byte	0
ARM GAS  C:\Users\glenn\AppData\Local\Temp\cc3rYttq.s 			page 106


 5041 145b 00       		.byte	0
 5042 145c 00       		.byte	0
 5043 145d 29       		.uleb128 0x29
 5044 145e 7F050000 		.4byte	0x57f
 5045 1462 9E000000 		.4byte	.LBB203
 5046 1466 80020000 		.4byte	.Ldebug_ranges0+0x280
 5047 146a 01       		.byte	0x1
 5048 146b FC       		.byte	0xfc
 5049 146c 19       		.uleb128 0x19
 5050 146d 95050000 		.4byte	0x595
 5051 1471 310E0000 		.4byte	.LLST105
 5052 1475 19       		.uleb128 0x19
 5053 1476 8B050000 		.4byte	0x58b
 5054 147a 500E0000 		.4byte	.LLST106
 5055 147e 27       		.uleb128 0x27
 5056 147f 80020000 		.4byte	.Ldebug_ranges0+0x280
 5057 1483 1A       		.uleb128 0x1a
 5058 1484 A0050000 		.4byte	0x5a0
 5059 1488 8A0E0000 		.4byte	.LLST107
 5060 148c 1A       		.uleb128 0x1a
 5061 148d A9050000 		.4byte	0x5a9
 5062 1491 A90E0000 		.4byte	.LLST108
 5063 1495 26       		.uleb128 0x26
 5064 1496 B2030000 		.4byte	0x3b2
 5065 149a AA000000 		.4byte	.LBB205
 5066 149e 98020000 		.4byte	.Ldebug_ranges0+0x298
 5067 14a2 01       		.byte	0x1
 5068 14a3 DF       		.byte	0xdf
 5069 14a4 39150000 		.4byte	0x1539
 5070 14a8 19       		.uleb128 0x19
 5071 14a9 C8030000 		.4byte	0x3c8
 5072 14ad A90E0000 		.4byte	.LLST108
 5073 14b1 19       		.uleb128 0x19
 5074 14b2 BE030000 		.4byte	0x3be
 5075 14b6 C00E0000 		.4byte	.LLST110
 5076 14ba 27       		.uleb128 0x27
 5077 14bb 98020000 		.4byte	.Ldebug_ranges0+0x298
 5078 14bf 1A       		.uleb128 0x1a
 5079 14c0 D3030000 		.4byte	0x3d3
 5080 14c4 FA0E0000 		.4byte	.LLST111
 5081 14c8 1B       		.uleb128 0x1b
 5082 14c9 AE000000 		.4byte	.LVL286
 5083 14cd 9E170000 		.4byte	0x179e
 5084 14d1 1C       		.uleb128 0x1c
 5085 14d2 B8000000 		.4byte	.LVL287
 5086 14d6 E0140000 		.4byte	0x14e0
 5087 14da 1D       		.uleb128 0x1d
 5088 14db 01       		.uleb128 0x1
 5089 14dc 50       		.byte	0x50
 5090 14dd 01       		.uleb128 0x1
 5091 14de 30       		.byte	0x30
 5092 14df 00       		.byte	0
 5093 14e0 1E       		.uleb128 0x1e
 5094 14e1 C0000000 		.4byte	.LVL288
 5095 14e5 A9170000 		.4byte	0x17a9
 5096 14e9 F3140000 		.4byte	0x14f3
 5097 14ed 1D       		.uleb128 0x1d
ARM GAS  C:\Users\glenn\AppData\Local\Temp\cc3rYttq.s 			page 107


 5098 14ee 01       		.uleb128 0x1
 5099 14ef 50       		.byte	0x50
 5100 14f0 01       		.uleb128 0x1
 5101 14f1 32       		.byte	0x32
 5102 14f2 00       		.byte	0
 5103 14f3 1C       		.uleb128 0x1c
 5104 14f4 CE000000 		.4byte	.LVL290
 5105 14f8 03150000 		.4byte	0x1503
 5106 14fc 1D       		.uleb128 0x1d
 5107 14fd 01       		.uleb128 0x1
 5108 14fe 50       		.byte	0x50
 5109 14ff 02       		.uleb128 0x2
 5110 1500 79       		.byte	0x79
 5111 1501 00       		.sleb128 0
 5112 1502 00       		.byte	0
 5113 1503 1E       		.uleb128 0x1e
 5114 1504 D4000000 		.4byte	.LVL291
 5115 1508 A9170000 		.4byte	0x17a9
 5116 150c 17150000 		.4byte	0x1517
 5117 1510 1D       		.uleb128 0x1d
 5118 1511 01       		.uleb128 0x1
 5119 1512 50       		.byte	0x50
 5120 1513 02       		.uleb128 0x2
 5121 1514 08       		.byte	0x8
 5122 1515 64       		.byte	0x64
 5123 1516 00       		.byte	0
 5124 1517 1C       		.uleb128 0x1c
 5125 1518 DA000000 		.4byte	.LVL292
 5126 151c 27150000 		.4byte	0x1527
 5127 1520 1D       		.uleb128 0x1d
 5128 1521 01       		.uleb128 0x1
 5129 1522 50       		.byte	0x50
 5130 1523 02       		.uleb128 0x2
 5131 1524 79       		.byte	0x79
 5132 1525 00       		.sleb128 0
 5133 1526 00       		.byte	0
 5134 1527 1F       		.uleb128 0x1f
 5135 1528 E2000000 		.4byte	.LVL294
 5136 152c BA170000 		.4byte	0x17ba
 5137 1530 1D       		.uleb128 0x1d
 5138 1531 01       		.uleb128 0x1
 5139 1532 50       		.byte	0x50
 5140 1533 02       		.uleb128 0x2
 5141 1534 77       		.byte	0x77
 5142 1535 00       		.sleb128 0
 5143 1536 00       		.byte	0
 5144 1537 00       		.byte	0
 5145 1538 00       		.byte	0
 5146 1539 1F       		.uleb128 0x1f
 5147 153a EC000000 		.4byte	.LVL295
 5148 153e A9170000 		.4byte	0x17a9
 5149 1542 1D       		.uleb128 0x1d
 5150 1543 01       		.uleb128 0x1
 5151 1544 50       		.byte	0x50
 5152 1545 02       		.uleb128 0x2
 5153 1546 08       		.byte	0x8
 5154 1547 69       		.byte	0x69
ARM GAS  C:\Users\glenn\AppData\Local\Temp\cc3rYttq.s 			page 108


 5155 1548 00       		.byte	0
 5156 1549 00       		.byte	0
 5157 154a 00       		.byte	0
 5158 154b 00       		.byte	0
 5159 154c 00       		.byte	0
 5160 154d 2C       		.uleb128 0x2c
 5161 154e 7F050000 		.4byte	0x57f
 5162 1552 F6000000 		.4byte	.LBB218
 5163 1556 64000000 		.4byte	.LBE218-.LBB218
 5164 155a 01       		.byte	0x1
 5165 155b F101     		.2byte	0x1f1
 5166 155d 67160000 		.4byte	0x1667
 5167 1561 2D       		.uleb128 0x2d
 5168 1562 95050000 		.4byte	0x595
 5169 1566 2D       		.uleb128 0x2d
 5170 1567 8B050000 		.4byte	0x58b
 5171 156b 25       		.uleb128 0x25
 5172 156c F6000000 		.4byte	.LBB219
 5173 1570 64000000 		.4byte	.LBE219-.LBB219
 5174 1574 1A       		.uleb128 0x1a
 5175 1575 A0050000 		.4byte	0x5a0
 5176 1579 0D0F0000 		.4byte	.LLST112
 5177 157d 1A       		.uleb128 0x1a
 5178 157e A9050000 		.4byte	0x5a9
 5179 1582 420F0000 		.4byte	.LLST113
 5180 1586 26       		.uleb128 0x26
 5181 1587 B2030000 		.4byte	0x3b2
 5182 158b F6000000 		.4byte	.LBB220
 5183 158f C0020000 		.4byte	.Ldebug_ranges0+0x2c0
 5184 1593 01       		.byte	0x1
 5185 1594 DF       		.byte	0xdf
 5186 1595 55160000 		.4byte	0x1655
 5187 1599 19       		.uleb128 0x19
 5188 159a C8030000 		.4byte	0x3c8
 5189 159e 420F0000 		.4byte	.LLST113
 5190 15a2 19       		.uleb128 0x19
 5191 15a3 BE030000 		.4byte	0x3be
 5192 15a7 650F0000 		.4byte	.LLST115
 5193 15ab 27       		.uleb128 0x27
 5194 15ac C0020000 		.4byte	.Ldebug_ranges0+0x2c0
 5195 15b0 1A       		.uleb128 0x1a
 5196 15b1 D3030000 		.4byte	0x3d3
 5197 15b5 9F0F0000 		.4byte	.LLST116
 5198 15b9 1B       		.uleb128 0x1b
 5199 15ba FA000000 		.4byte	.LVL298
 5200 15be 9E170000 		.4byte	0x179e
 5201 15c2 1C       		.uleb128 0x1c
 5202 15c3 02010000 		.4byte	.LVL301
 5203 15c7 D1150000 		.4byte	0x15d1
 5204 15cb 1D       		.uleb128 0x1d
 5205 15cc 01       		.uleb128 0x1
 5206 15cd 50       		.byte	0x50
 5207 15ce 01       		.uleb128 0x1
 5208 15cf 30       		.byte	0x30
 5209 15d0 00       		.byte	0
 5210 15d1 1E       		.uleb128 0x1e
 5211 15d2 08010000 		.4byte	.LVL302
ARM GAS  C:\Users\glenn\AppData\Local\Temp\cc3rYttq.s 			page 109


 5212 15d6 A9170000 		.4byte	0x17a9
 5213 15da E4150000 		.4byte	0x15e4
 5214 15de 1D       		.uleb128 0x1d
 5215 15df 01       		.uleb128 0x1
 5216 15e0 50       		.byte	0x50
 5217 15e1 01       		.uleb128 0x1
 5218 15e2 32       		.byte	0x32
 5219 15e3 00       		.byte	0
 5220 15e4 1E       		.uleb128 0x1e
 5221 15e5 14010000 		.4byte	.LVL304
 5222 15e9 A9170000 		.4byte	0x17a9
 5223 15ed F8150000 		.4byte	0x15f8
 5224 15f1 1D       		.uleb128 0x1d
 5225 15f2 01       		.uleb128 0x1
 5226 15f3 50       		.byte	0x50
 5227 15f4 02       		.uleb128 0x2
 5228 15f5 08       		.byte	0x8
 5229 15f6 64       		.byte	0x64
 5230 15f7 00       		.byte	0
 5231 15f8 1C       		.uleb128 0x1c
 5232 15f9 1A010000 		.4byte	.LVL305
 5233 15fd 08160000 		.4byte	0x1608
 5234 1601 1D       		.uleb128 0x1d
 5235 1602 01       		.uleb128 0x1
 5236 1603 50       		.byte	0x50
 5237 1604 02       		.uleb128 0x2
 5238 1605 79       		.byte	0x79
 5239 1606 00       		.sleb128 0
 5240 1607 00       		.byte	0
 5241 1608 1E       		.uleb128 0x1e
 5242 1609 20010000 		.4byte	.LVL306
 5243 160d BA170000 		.4byte	0x17ba
 5244 1611 1C160000 		.4byte	0x161c
 5245 1615 1D       		.uleb128 0x1d
 5246 1616 01       		.uleb128 0x1
 5247 1617 50       		.byte	0x50
 5248 1618 02       		.uleb128 0x2
 5249 1619 77       		.byte	0x77
 5250 161a 00       		.sleb128 0
 5251 161b 00       		.byte	0
 5252 161c 1B       		.uleb128 0x1b
 5253 161d 2A010000 		.4byte	.LVL307
 5254 1621 9E170000 		.4byte	0x179e
 5255 1625 1C       		.uleb128 0x1c
 5256 1626 34010000 		.4byte	.LVL308
 5257 162a 34160000 		.4byte	0x1634
 5258 162e 1D       		.uleb128 0x1d
 5259 162f 01       		.uleb128 0x1
 5260 1630 50       		.byte	0x50
 5261 1631 01       		.uleb128 0x1
 5262 1632 30       		.byte	0x30
 5263 1633 00       		.byte	0
 5264 1634 1E       		.uleb128 0x1e
 5265 1635 3C010000 		.4byte	.LVL310
 5266 1639 A9170000 		.4byte	0x17a9
 5267 163d 47160000 		.4byte	0x1647
 5268 1641 1D       		.uleb128 0x1d
ARM GAS  C:\Users\glenn\AppData\Local\Temp\cc3rYttq.s 			page 110


 5269 1642 01       		.uleb128 0x1
 5270 1643 50       		.byte	0x50
 5271 1644 01       		.uleb128 0x1
 5272 1645 32       		.byte	0x32
 5273 1646 00       		.byte	0
 5274 1647 2F       		.uleb128 0x2f
 5275 1648 4A010000 		.4byte	.LVL313
 5276 164c 1D       		.uleb128 0x1d
 5277 164d 01       		.uleb128 0x1
 5278 164e 50       		.byte	0x50
 5279 164f 02       		.uleb128 0x2
 5280 1650 79       		.byte	0x79
 5281 1651 00       		.sleb128 0
 5282 1652 00       		.byte	0
 5283 1653 00       		.byte	0
 5284 1654 00       		.byte	0
 5285 1655 1F       		.uleb128 0x1f
 5286 1656 54010000 		.4byte	.LVL316
 5287 165a A9170000 		.4byte	0x17a9
 5288 165e 1D       		.uleb128 0x1d
 5289 165f 01       		.uleb128 0x1
 5290 1660 50       		.byte	0x50
 5291 1661 02       		.uleb128 0x2
 5292 1662 08       		.byte	0x8
 5293 1663 69       		.byte	0x69
 5294 1664 00       		.byte	0
 5295 1665 00       		.byte	0
 5296 1666 00       		.byte	0
 5297 1667 3A       		.uleb128 0x3a
 5298 1668 7B040000 		.4byte	0x47b
 5299 166c 5A010000 		.4byte	.LBB232
 5300 1670 44000000 		.4byte	.LBE232-.LBB232
 5301 1674 01       		.byte	0x1
 5302 1675 F601     		.2byte	0x1f6
 5303 1677 19       		.uleb128 0x19
 5304 1678 8B040000 		.4byte	0x48b
 5305 167c C80F0000 		.4byte	.LLST117
 5306 1680 25       		.uleb128 0x25
 5307 1681 5A010000 		.4byte	.LBB233
 5308 1685 44000000 		.4byte	.LBE233-.LBB233
 5309 1689 1A       		.uleb128 0x1a
 5310 168a 95040000 		.4byte	0x495
 5311 168e 02100000 		.4byte	.LLST118
 5312 1692 1A       		.uleb128 0x1a
 5313 1693 9E040000 		.4byte	0x49e
 5314 1697 21100000 		.4byte	.LLST119
 5315 169b 24       		.uleb128 0x24
 5316 169c F5020000 		.4byte	0x2f5
 5317 16a0 5C010000 		.4byte	.LBB234
 5318 16a4 2A000000 		.4byte	.LBE234-.LBB234
 5319 16a8 01       		.byte	0x1
 5320 16a9 C4       		.byte	0xc4
 5321 16aa 32170000 		.4byte	0x1732
 5322 16ae 19       		.uleb128 0x19
 5323 16af 05030000 		.4byte	0x305
 5324 16b3 4B100000 		.4byte	.LLST120
 5325 16b7 25       		.uleb128 0x25
ARM GAS  C:\Users\glenn\AppData\Local\Temp\cc3rYttq.s 			page 111


 5326 16b8 5C010000 		.4byte	.LBB235
 5327 16bc 2A000000 		.4byte	.LBE235-.LBB235
 5328 16c0 1A       		.uleb128 0x1a
 5329 16c1 0F030000 		.4byte	0x30f
 5330 16c5 85100000 		.4byte	.LLST121
 5331 16c9 1A       		.uleb128 0x1a
 5332 16ca 1A030000 		.4byte	0x31a
 5333 16ce A3100000 		.4byte	.LLST122
 5334 16d2 1B       		.uleb128 0x1b
 5335 16d3 60010000 		.4byte	.LVL319
 5336 16d7 9E170000 		.4byte	0x179e
 5337 16db 1C       		.uleb128 0x1c
 5338 16dc 68010000 		.4byte	.LVL321
 5339 16e0 EA160000 		.4byte	0x16ea
 5340 16e4 1D       		.uleb128 0x1d
 5341 16e5 01       		.uleb128 0x1
 5342 16e6 50       		.byte	0x50
 5343 16e7 01       		.uleb128 0x1
 5344 16e8 30       		.byte	0x30
 5345 16e9 00       		.byte	0
 5346 16ea 1E       		.uleb128 0x1e
 5347 16eb 6E010000 		.4byte	.LVL322
 5348 16ef A9170000 		.4byte	0x17a9
 5349 16f3 FD160000 		.4byte	0x16fd
 5350 16f7 1D       		.uleb128 0x1d
 5351 16f8 01       		.uleb128 0x1
 5352 16f9 50       		.byte	0x50
 5353 16fa 01       		.uleb128 0x1
 5354 16fb 32       		.byte	0x32
 5355 16fc 00       		.byte	0
 5356 16fd 1C       		.uleb128 0x1c
 5357 16fe 74010000 		.4byte	.LVL323
 5358 1702 0D170000 		.4byte	0x170d
 5359 1706 1D       		.uleb128 0x1d
 5360 1707 01       		.uleb128 0x1
 5361 1708 50       		.byte	0x50
 5362 1709 02       		.uleb128 0x2
 5363 170a 79       		.byte	0x79
 5364 170b 00       		.sleb128 0
 5365 170c 00       		.byte	0
 5366 170d 1E       		.uleb128 0x1e
 5367 170e 7A010000 		.4byte	.LVL324
 5368 1712 A9170000 		.4byte	0x17a9
 5369 1716 20170000 		.4byte	0x1720
 5370 171a 1D       		.uleb128 0x1d
 5371 171b 01       		.uleb128 0x1
 5372 171c 50       		.byte	0x50
 5373 171d 01       		.uleb128 0x1
 5374 171e 35       		.byte	0x35
 5375 171f 00       		.byte	0
 5376 1720 1F       		.uleb128 0x1f
 5377 1721 86010000 		.4byte	.LVL327
 5378 1725 BA170000 		.4byte	0x17ba
 5379 1729 1D       		.uleb128 0x1d
 5380 172a 01       		.uleb128 0x1
 5381 172b 50       		.byte	0x50
 5382 172c 02       		.uleb128 0x2
ARM GAS  C:\Users\glenn\AppData\Local\Temp\cc3rYttq.s 			page 112


 5383 172d 7A       		.byte	0x7a
 5384 172e 00       		.sleb128 0
 5385 172f 00       		.byte	0
 5386 1730 00       		.byte	0
 5387 1731 00       		.byte	0
 5388 1732 1F       		.uleb128 0x1f
 5389 1733 9A010000 		.4byte	.LVL330
 5390 1737 A9170000 		.4byte	0x17a9
 5391 173b 1D       		.uleb128 0x1d
 5392 173c 01       		.uleb128 0x1
 5393 173d 50       		.byte	0x50
 5394 173e 02       		.uleb128 0x2
 5395 173f 08       		.byte	0x8
 5396 1740 78       		.byte	0x78
 5397 1741 00       		.byte	0
 5398 1742 00       		.byte	0
 5399 1743 00       		.byte	0
 5400 1744 00       		.byte	0
 5401 1745 0D       		.uleb128 0xd
 5402 1746 6B000000 		.4byte	0x6b
 5403 174a 55170000 		.4byte	0x1755
 5404 174e 0E       		.uleb128 0xe
 5405 174f A4000000 		.4byte	0xa4
 5406 1753 08       		.byte	0x8
 5407 1754 00       		.byte	0
 5408 1755 3B       		.uleb128 0x3b
 5409 1756 97030000 		.4byte	.LASF51
 5410 175a 01       		.byte	0x1
 5411 175b 47       		.byte	0x47
 5412 175c 6B000000 		.4byte	0x6b
 5413 1760 05       		.uleb128 0x5
 5414 1761 03       		.byte	0x3
 5415 1762 00000000 		.4byte	bDoneFlag
 5416 1766 3B       		.uleb128 0x3b
 5417 1767 AB030000 		.4byte	.LASF52
 5418 176b 01       		.byte	0x1
 5419 176c 48       		.byte	0x48
 5420 176d 6B000000 		.4byte	0x6b
 5421 1771 05       		.uleb128 0x5
 5422 1772 03       		.byte	0x3
 5423 1773 01000000 		.4byte	nLastDiscrepancy_u8
 5424 1777 0D       		.uleb128 0xd
 5425 1778 6B000000 		.4byte	0x6b
 5426 177c 87170000 		.4byte	0x1787
 5427 1780 0E       		.uleb128 0xe
 5428 1781 A4000000 		.4byte	0xa4
 5429 1785 FF       		.byte	0xff
 5430 1786 00       		.byte	0
 5431 1787 38       		.uleb128 0x38
 5432 1788 7F030000 		.4byte	.LASF53
 5433 178c 01       		.byte	0x1
 5434 178d 2402     		.2byte	0x224
 5435 178f 99170000 		.4byte	0x1799
 5436 1793 05       		.uleb128 0x5
 5437 1794 03       		.byte	0x3
 5438 1795 00000000 		.4byte	crc_table
 5439 1799 0C       		.uleb128 0xc
ARM GAS  C:\Users\glenn\AppData\Local\Temp\cc3rYttq.s 			page 113


 5440 179a 77170000 		.4byte	0x1777
 5441 179e 3C       		.uleb128 0x3c
 5442 179f 2C020000 		.4byte	.LASF60
 5443 17a3 04       		.byte	0x4
 5444 17a4 E3       		.byte	0xe3
 5445 17a5 6B000000 		.4byte	0x6b
 5446 17a9 3D       		.uleb128 0x3d
 5447 17aa C6010000 		.4byte	.LASF54
 5448 17ae 04       		.byte	0x4
 5449 17af D8       		.byte	0xd8
 5450 17b0 BA170000 		.4byte	0x17ba
 5451 17b4 09       		.uleb128 0x9
 5452 17b5 77000000 		.4byte	0x77
 5453 17b9 00       		.byte	0
 5454 17ba 3E       		.uleb128 0x3e
 5455 17bb 20000000 		.4byte	.LASF61
 5456 17bf 04       		.byte	0x4
 5457 17c0 E4       		.byte	0xe4
 5458 17c1 09       		.uleb128 0x9
 5459 17c2 6B000000 		.4byte	0x6b
 5460 17c6 00       		.byte	0
 5461 17c7 00       		.byte	0
 5462              		.section	.debug_abbrev,"",%progbits
 5463              	.Ldebug_abbrev0:
 5464 0000 01       		.uleb128 0x1
 5465 0001 11       		.uleb128 0x11
 5466 0002 01       		.byte	0x1
 5467 0003 25       		.uleb128 0x25
 5468 0004 0E       		.uleb128 0xe
 5469 0005 13       		.uleb128 0x13
 5470 0006 0B       		.uleb128 0xb
 5471 0007 03       		.uleb128 0x3
 5472 0008 0E       		.uleb128 0xe
 5473 0009 1B       		.uleb128 0x1b
 5474 000a 0E       		.uleb128 0xe
 5475 000b 55       		.uleb128 0x55
 5476 000c 17       		.uleb128 0x17
 5477 000d 11       		.uleb128 0x11
 5478 000e 01       		.uleb128 0x1
 5479 000f 10       		.uleb128 0x10
 5480 0010 17       		.uleb128 0x17
 5481 0011 00       		.byte	0
 5482 0012 00       		.byte	0
 5483 0013 02       		.uleb128 0x2
 5484 0014 24       		.uleb128 0x24
 5485 0015 00       		.byte	0
 5486 0016 0B       		.uleb128 0xb
 5487 0017 0B       		.uleb128 0xb
 5488 0018 3E       		.uleb128 0x3e
 5489 0019 0B       		.uleb128 0xb
 5490 001a 03       		.uleb128 0x3
 5491 001b 0E       		.uleb128 0xe
 5492 001c 00       		.byte	0
 5493 001d 00       		.byte	0
 5494 001e 03       		.uleb128 0x3
 5495 001f 24       		.uleb128 0x24
 5496 0020 00       		.byte	0
ARM GAS  C:\Users\glenn\AppData\Local\Temp\cc3rYttq.s 			page 114


 5497 0021 0B       		.uleb128 0xb
 5498 0022 0B       		.uleb128 0xb
 5499 0023 3E       		.uleb128 0x3e
 5500 0024 0B       		.uleb128 0xb
 5501 0025 03       		.uleb128 0x3
 5502 0026 08       		.uleb128 0x8
 5503 0027 00       		.byte	0
 5504 0028 00       		.byte	0
 5505 0029 04       		.uleb128 0x4
 5506 002a 16       		.uleb128 0x16
 5507 002b 00       		.byte	0
 5508 002c 03       		.uleb128 0x3
 5509 002d 0E       		.uleb128 0xe
 5510 002e 3A       		.uleb128 0x3a
 5511 002f 0B       		.uleb128 0xb
 5512 0030 3B       		.uleb128 0x3b
 5513 0031 05       		.uleb128 0x5
 5514 0032 49       		.uleb128 0x49
 5515 0033 13       		.uleb128 0x13
 5516 0034 00       		.byte	0
 5517 0035 00       		.byte	0
 5518 0036 05       		.uleb128 0x5
 5519 0037 16       		.uleb128 0x16
 5520 0038 00       		.byte	0
 5521 0039 03       		.uleb128 0x3
 5522 003a 0E       		.uleb128 0xe
 5523 003b 3A       		.uleb128 0x3a
 5524 003c 0B       		.uleb128 0xb
 5525 003d 3B       		.uleb128 0x3b
 5526 003e 0B       		.uleb128 0xb
 5527 003f 49       		.uleb128 0x49
 5528 0040 13       		.uleb128 0x13
 5529 0041 00       		.byte	0
 5530 0042 00       		.byte	0
 5531 0043 06       		.uleb128 0x6
 5532 0044 0F       		.uleb128 0xf
 5533 0045 00       		.byte	0
 5534 0046 0B       		.uleb128 0xb
 5535 0047 0B       		.uleb128 0xb
 5536 0048 49       		.uleb128 0x49
 5537 0049 13       		.uleb128 0x13
 5538 004a 00       		.byte	0
 5539 004b 00       		.byte	0
 5540 004c 07       		.uleb128 0x7
 5541 004d 15       		.uleb128 0x15
 5542 004e 00       		.byte	0
 5543 004f 27       		.uleb128 0x27
 5544 0050 19       		.uleb128 0x19
 5545 0051 49       		.uleb128 0x49
 5546 0052 13       		.uleb128 0x13
 5547 0053 00       		.byte	0
 5548 0054 00       		.byte	0
 5549 0055 08       		.uleb128 0x8
 5550 0056 15       		.uleb128 0x15
 5551 0057 01       		.byte	0x1
 5552 0058 27       		.uleb128 0x27
 5553 0059 19       		.uleb128 0x19
ARM GAS  C:\Users\glenn\AppData\Local\Temp\cc3rYttq.s 			page 115


 5554 005a 01       		.uleb128 0x1
 5555 005b 13       		.uleb128 0x13
 5556 005c 00       		.byte	0
 5557 005d 00       		.byte	0
 5558 005e 09       		.uleb128 0x9
 5559 005f 05       		.uleb128 0x5
 5560 0060 00       		.byte	0
 5561 0061 49       		.uleb128 0x49
 5562 0062 13       		.uleb128 0x13
 5563 0063 00       		.byte	0
 5564 0064 00       		.byte	0
 5565 0065 0A       		.uleb128 0xa
 5566 0066 13       		.uleb128 0x13
 5567 0067 01       		.byte	0x1
 5568 0068 0B       		.uleb128 0xb
 5569 0069 0B       		.uleb128 0xb
 5570 006a 3A       		.uleb128 0x3a
 5571 006b 0B       		.uleb128 0xb
 5572 006c 3B       		.uleb128 0x3b
 5573 006d 0B       		.uleb128 0xb
 5574 006e 01       		.uleb128 0x1
 5575 006f 13       		.uleb128 0x13
 5576 0070 00       		.byte	0
 5577 0071 00       		.byte	0
 5578 0072 0B       		.uleb128 0xb
 5579 0073 0D       		.uleb128 0xd
 5580 0074 00       		.byte	0
 5581 0075 03       		.uleb128 0x3
 5582 0076 0E       		.uleb128 0xe
 5583 0077 3A       		.uleb128 0x3a
 5584 0078 0B       		.uleb128 0xb
 5585 0079 3B       		.uleb128 0x3b
 5586 007a 0B       		.uleb128 0xb
 5587 007b 49       		.uleb128 0x49
 5588 007c 13       		.uleb128 0x13
 5589 007d 38       		.uleb128 0x38
 5590 007e 0B       		.uleb128 0xb
 5591 007f 00       		.byte	0
 5592 0080 00       		.byte	0
 5593 0081 0C       		.uleb128 0xc
 5594 0082 26       		.uleb128 0x26
 5595 0083 00       		.byte	0
 5596 0084 49       		.uleb128 0x49
 5597 0085 13       		.uleb128 0x13
 5598 0086 00       		.byte	0
 5599 0087 00       		.byte	0
 5600 0088 0D       		.uleb128 0xd
 5601 0089 01       		.uleb128 0x1
 5602 008a 01       		.byte	0x1
 5603 008b 49       		.uleb128 0x49
 5604 008c 13       		.uleb128 0x13
 5605 008d 01       		.uleb128 0x1
 5606 008e 13       		.uleb128 0x13
 5607 008f 00       		.byte	0
 5608 0090 00       		.byte	0
 5609 0091 0E       		.uleb128 0xe
 5610 0092 21       		.uleb128 0x21
ARM GAS  C:\Users\glenn\AppData\Local\Temp\cc3rYttq.s 			page 116


 5611 0093 00       		.byte	0
 5612 0094 49       		.uleb128 0x49
 5613 0095 13       		.uleb128 0x13
 5614 0096 2F       		.uleb128 0x2f
 5615 0097 0B       		.uleb128 0xb
 5616 0098 00       		.byte	0
 5617 0099 00       		.byte	0
 5618 009a 0F       		.uleb128 0xf
 5619 009b 2E       		.uleb128 0x2e
 5620 009c 01       		.byte	0x1
 5621 009d 03       		.uleb128 0x3
 5622 009e 0E       		.uleb128 0xe
 5623 009f 3A       		.uleb128 0x3a
 5624 00a0 0B       		.uleb128 0xb
 5625 00a1 3B       		.uleb128 0x3b
 5626 00a2 05       		.uleb128 0x5
 5627 00a3 27       		.uleb128 0x27
 5628 00a4 19       		.uleb128 0x19
 5629 00a5 49       		.uleb128 0x49
 5630 00a6 13       		.uleb128 0x13
 5631 00a7 20       		.uleb128 0x20
 5632 00a8 0B       		.uleb128 0xb
 5633 00a9 01       		.uleb128 0x1
 5634 00aa 13       		.uleb128 0x13
 5635 00ab 00       		.byte	0
 5636 00ac 00       		.byte	0
 5637 00ad 10       		.uleb128 0x10
 5638 00ae 05       		.uleb128 0x5
 5639 00af 00       		.byte	0
 5640 00b0 03       		.uleb128 0x3
 5641 00b1 0E       		.uleb128 0xe
 5642 00b2 3A       		.uleb128 0x3a
 5643 00b3 0B       		.uleb128 0xb
 5644 00b4 3B       		.uleb128 0x3b
 5645 00b5 05       		.uleb128 0x5
 5646 00b6 49       		.uleb128 0x49
 5647 00b7 13       		.uleb128 0x13
 5648 00b8 00       		.byte	0
 5649 00b9 00       		.byte	0
 5650 00ba 11       		.uleb128 0x11
 5651 00bb 05       		.uleb128 0x5
 5652 00bc 00       		.byte	0
 5653 00bd 03       		.uleb128 0x3
 5654 00be 08       		.uleb128 0x8
 5655 00bf 3A       		.uleb128 0x3a
 5656 00c0 0B       		.uleb128 0xb
 5657 00c1 3B       		.uleb128 0x3b
 5658 00c2 05       		.uleb128 0x5
 5659 00c3 49       		.uleb128 0x49
 5660 00c4 13       		.uleb128 0x13
 5661 00c5 00       		.byte	0
 5662 00c6 00       		.byte	0
 5663 00c7 12       		.uleb128 0x12
 5664 00c8 34       		.uleb128 0x34
 5665 00c9 00       		.byte	0
 5666 00ca 03       		.uleb128 0x3
 5667 00cb 08       		.uleb128 0x8
ARM GAS  C:\Users\glenn\AppData\Local\Temp\cc3rYttq.s 			page 117


 5668 00cc 3A       		.uleb128 0x3a
 5669 00cd 0B       		.uleb128 0xb
 5670 00ce 3B       		.uleb128 0x3b
 5671 00cf 05       		.uleb128 0x5
 5672 00d0 49       		.uleb128 0x49
 5673 00d1 13       		.uleb128 0x13
 5674 00d2 00       		.byte	0
 5675 00d3 00       		.byte	0
 5676 00d4 13       		.uleb128 0x13
 5677 00d5 2E       		.uleb128 0x2e
 5678 00d6 01       		.byte	0x1
 5679 00d7 3F       		.uleb128 0x3f
 5680 00d8 19       		.uleb128 0x19
 5681 00d9 03       		.uleb128 0x3
 5682 00da 0E       		.uleb128 0xe
 5683 00db 3A       		.uleb128 0x3a
 5684 00dc 0B       		.uleb128 0xb
 5685 00dd 3B       		.uleb128 0x3b
 5686 00de 05       		.uleb128 0x5
 5687 00df 27       		.uleb128 0x27
 5688 00e0 19       		.uleb128 0x19
 5689 00e1 49       		.uleb128 0x49
 5690 00e2 13       		.uleb128 0x13
 5691 00e3 20       		.uleb128 0x20
 5692 00e4 0B       		.uleb128 0xb
 5693 00e5 01       		.uleb128 0x1
 5694 00e6 13       		.uleb128 0x13
 5695 00e7 00       		.byte	0
 5696 00e8 00       		.byte	0
 5697 00e9 14       		.uleb128 0x14
 5698 00ea 34       		.uleb128 0x34
 5699 00eb 00       		.byte	0
 5700 00ec 03       		.uleb128 0x3
 5701 00ed 0E       		.uleb128 0xe
 5702 00ee 3A       		.uleb128 0x3a
 5703 00ef 0B       		.uleb128 0xb
 5704 00f0 3B       		.uleb128 0x3b
 5705 00f1 05       		.uleb128 0x5
 5706 00f2 49       		.uleb128 0x49
 5707 00f3 13       		.uleb128 0x13
 5708 00f4 00       		.byte	0
 5709 00f5 00       		.byte	0
 5710 00f6 15       		.uleb128 0x15
 5711 00f7 2E       		.uleb128 0x2e
 5712 00f8 01       		.byte	0x1
 5713 00f9 3F       		.uleb128 0x3f
 5714 00fa 19       		.uleb128 0x19
 5715 00fb 03       		.uleb128 0x3
 5716 00fc 0E       		.uleb128 0xe
 5717 00fd 3A       		.uleb128 0x3a
 5718 00fe 0B       		.uleb128 0xb
 5719 00ff 3B       		.uleb128 0x3b
 5720 0100 0B       		.uleb128 0xb
 5721 0101 27       		.uleb128 0x27
 5722 0102 19       		.uleb128 0x19
 5723 0103 49       		.uleb128 0x49
 5724 0104 13       		.uleb128 0x13
ARM GAS  C:\Users\glenn\AppData\Local\Temp\cc3rYttq.s 			page 118


 5725 0105 20       		.uleb128 0x20
 5726 0106 0B       		.uleb128 0xb
 5727 0107 01       		.uleb128 0x1
 5728 0108 13       		.uleb128 0x13
 5729 0109 00       		.byte	0
 5730 010a 00       		.byte	0
 5731 010b 16       		.uleb128 0x16
 5732 010c 05       		.uleb128 0x5
 5733 010d 00       		.byte	0
 5734 010e 03       		.uleb128 0x3
 5735 010f 08       		.uleb128 0x8
 5736 0110 3A       		.uleb128 0x3a
 5737 0111 0B       		.uleb128 0xb
 5738 0112 3B       		.uleb128 0x3b
 5739 0113 0B       		.uleb128 0xb
 5740 0114 49       		.uleb128 0x49
 5741 0115 13       		.uleb128 0x13
 5742 0116 00       		.byte	0
 5743 0117 00       		.byte	0
 5744 0118 17       		.uleb128 0x17
 5745 0119 34       		.uleb128 0x34
 5746 011a 00       		.byte	0
 5747 011b 03       		.uleb128 0x3
 5748 011c 0E       		.uleb128 0xe
 5749 011d 3A       		.uleb128 0x3a
 5750 011e 0B       		.uleb128 0xb
 5751 011f 3B       		.uleb128 0x3b
 5752 0120 0B       		.uleb128 0xb
 5753 0121 49       		.uleb128 0x49
 5754 0122 13       		.uleb128 0x13
 5755 0123 00       		.byte	0
 5756 0124 00       		.byte	0
 5757 0125 18       		.uleb128 0x18
 5758 0126 2E       		.uleb128 0x2e
 5759 0127 01       		.byte	0x1
 5760 0128 31       		.uleb128 0x31
 5761 0129 13       		.uleb128 0x13
 5762 012a 11       		.uleb128 0x11
 5763 012b 01       		.uleb128 0x1
 5764 012c 12       		.uleb128 0x12
 5765 012d 06       		.uleb128 0x6
 5766 012e 40       		.uleb128 0x40
 5767 012f 18       		.uleb128 0x18
 5768 0130 9642     		.uleb128 0x2116
 5769 0132 19       		.uleb128 0x19
 5770 0133 01       		.uleb128 0x1
 5771 0134 13       		.uleb128 0x13
 5772 0135 00       		.byte	0
 5773 0136 00       		.byte	0
 5774 0137 19       		.uleb128 0x19
 5775 0138 05       		.uleb128 0x5
 5776 0139 00       		.byte	0
 5777 013a 31       		.uleb128 0x31
 5778 013b 13       		.uleb128 0x13
 5779 013c 02       		.uleb128 0x2
 5780 013d 17       		.uleb128 0x17
 5781 013e 00       		.byte	0
ARM GAS  C:\Users\glenn\AppData\Local\Temp\cc3rYttq.s 			page 119


 5782 013f 00       		.byte	0
 5783 0140 1A       		.uleb128 0x1a
 5784 0141 34       		.uleb128 0x34
 5785 0142 00       		.byte	0
 5786 0143 31       		.uleb128 0x31
 5787 0144 13       		.uleb128 0x13
 5788 0145 02       		.uleb128 0x2
 5789 0146 17       		.uleb128 0x17
 5790 0147 00       		.byte	0
 5791 0148 00       		.byte	0
 5792 0149 1B       		.uleb128 0x1b
 5793 014a 898201   		.uleb128 0x4109
 5794 014d 00       		.byte	0
 5795 014e 11       		.uleb128 0x11
 5796 014f 01       		.uleb128 0x1
 5797 0150 31       		.uleb128 0x31
 5798 0151 13       		.uleb128 0x13
 5799 0152 00       		.byte	0
 5800 0153 00       		.byte	0
 5801 0154 1C       		.uleb128 0x1c
 5802 0155 898201   		.uleb128 0x4109
 5803 0158 01       		.byte	0x1
 5804 0159 11       		.uleb128 0x11
 5805 015a 01       		.uleb128 0x1
 5806 015b 01       		.uleb128 0x1
 5807 015c 13       		.uleb128 0x13
 5808 015d 00       		.byte	0
 5809 015e 00       		.byte	0
 5810 015f 1D       		.uleb128 0x1d
 5811 0160 8A8201   		.uleb128 0x410a
 5812 0163 00       		.byte	0
 5813 0164 02       		.uleb128 0x2
 5814 0165 18       		.uleb128 0x18
 5815 0166 9142     		.uleb128 0x2111
 5816 0168 18       		.uleb128 0x18
 5817 0169 00       		.byte	0
 5818 016a 00       		.byte	0
 5819 016b 1E       		.uleb128 0x1e
 5820 016c 898201   		.uleb128 0x4109
 5821 016f 01       		.byte	0x1
 5822 0170 11       		.uleb128 0x11
 5823 0171 01       		.uleb128 0x1
 5824 0172 31       		.uleb128 0x31
 5825 0173 13       		.uleb128 0x13
 5826 0174 01       		.uleb128 0x1
 5827 0175 13       		.uleb128 0x13
 5828 0176 00       		.byte	0
 5829 0177 00       		.byte	0
 5830 0178 1F       		.uleb128 0x1f
 5831 0179 898201   		.uleb128 0x4109
 5832 017c 01       		.byte	0x1
 5833 017d 11       		.uleb128 0x11
 5834 017e 01       		.uleb128 0x1
 5835 017f 31       		.uleb128 0x31
 5836 0180 13       		.uleb128 0x13
 5837 0181 00       		.byte	0
 5838 0182 00       		.byte	0
ARM GAS  C:\Users\glenn\AppData\Local\Temp\cc3rYttq.s 			page 120


 5839 0183 20       		.uleb128 0x20
 5840 0184 2E       		.uleb128 0x2e
 5841 0185 01       		.byte	0x1
 5842 0186 3F       		.uleb128 0x3f
 5843 0187 19       		.uleb128 0x19
 5844 0188 03       		.uleb128 0x3
 5845 0189 0E       		.uleb128 0xe
 5846 018a 3A       		.uleb128 0x3a
 5847 018b 0B       		.uleb128 0xb
 5848 018c 3B       		.uleb128 0x3b
 5849 018d 0B       		.uleb128 0xb
 5850 018e 27       		.uleb128 0x27
 5851 018f 19       		.uleb128 0x19
 5852 0190 20       		.uleb128 0x20
 5853 0191 0B       		.uleb128 0xb
 5854 0192 01       		.uleb128 0x1
 5855 0193 13       		.uleb128 0x13
 5856 0194 00       		.byte	0
 5857 0195 00       		.byte	0
 5858 0196 21       		.uleb128 0x21
 5859 0197 05       		.uleb128 0x5
 5860 0198 00       		.byte	0
 5861 0199 03       		.uleb128 0x3
 5862 019a 0E       		.uleb128 0xe
 5863 019b 3A       		.uleb128 0x3a
 5864 019c 0B       		.uleb128 0xb
 5865 019d 3B       		.uleb128 0x3b
 5866 019e 0B       		.uleb128 0xb
 5867 019f 49       		.uleb128 0x49
 5868 01a0 13       		.uleb128 0x13
 5869 01a1 00       		.byte	0
 5870 01a2 00       		.byte	0
 5871 01a3 22       		.uleb128 0x22
 5872 01a4 2E       		.uleb128 0x2e
 5873 01a5 01       		.byte	0x1
 5874 01a6 31       		.uleb128 0x31
 5875 01a7 13       		.uleb128 0x13
 5876 01a8 11       		.uleb128 0x11
 5877 01a9 01       		.uleb128 0x1
 5878 01aa 12       		.uleb128 0x12
 5879 01ab 06       		.uleb128 0x6
 5880 01ac 40       		.uleb128 0x40
 5881 01ad 18       		.uleb128 0x18
 5882 01ae 9742     		.uleb128 0x2117
 5883 01b0 19       		.uleb128 0x19
 5884 01b1 01       		.uleb128 0x1
 5885 01b2 13       		.uleb128 0x13
 5886 01b3 00       		.byte	0
 5887 01b4 00       		.byte	0
 5888 01b5 23       		.uleb128 0x23
 5889 01b6 34       		.uleb128 0x34
 5890 01b7 00       		.byte	0
 5891 01b8 03       		.uleb128 0x3
 5892 01b9 08       		.uleb128 0x8
 5893 01ba 3A       		.uleb128 0x3a
 5894 01bb 0B       		.uleb128 0xb
 5895 01bc 3B       		.uleb128 0x3b
ARM GAS  C:\Users\glenn\AppData\Local\Temp\cc3rYttq.s 			page 121


 5896 01bd 0B       		.uleb128 0xb
 5897 01be 49       		.uleb128 0x49
 5898 01bf 13       		.uleb128 0x13
 5899 01c0 00       		.byte	0
 5900 01c1 00       		.byte	0
 5901 01c2 24       		.uleb128 0x24
 5902 01c3 1D       		.uleb128 0x1d
 5903 01c4 01       		.byte	0x1
 5904 01c5 31       		.uleb128 0x31
 5905 01c6 13       		.uleb128 0x13
 5906 01c7 11       		.uleb128 0x11
 5907 01c8 01       		.uleb128 0x1
 5908 01c9 12       		.uleb128 0x12
 5909 01ca 06       		.uleb128 0x6
 5910 01cb 58       		.uleb128 0x58
 5911 01cc 0B       		.uleb128 0xb
 5912 01cd 59       		.uleb128 0x59
 5913 01ce 0B       		.uleb128 0xb
 5914 01cf 01       		.uleb128 0x1
 5915 01d0 13       		.uleb128 0x13
 5916 01d1 00       		.byte	0
 5917 01d2 00       		.byte	0
 5918 01d3 25       		.uleb128 0x25
 5919 01d4 0B       		.uleb128 0xb
 5920 01d5 01       		.byte	0x1
 5921 01d6 11       		.uleb128 0x11
 5922 01d7 01       		.uleb128 0x1
 5923 01d8 12       		.uleb128 0x12
 5924 01d9 06       		.uleb128 0x6
 5925 01da 00       		.byte	0
 5926 01db 00       		.byte	0
 5927 01dc 26       		.uleb128 0x26
 5928 01dd 1D       		.uleb128 0x1d
 5929 01de 01       		.byte	0x1
 5930 01df 31       		.uleb128 0x31
 5931 01e0 13       		.uleb128 0x13
 5932 01e1 52       		.uleb128 0x52
 5933 01e2 01       		.uleb128 0x1
 5934 01e3 55       		.uleb128 0x55
 5935 01e4 17       		.uleb128 0x17
 5936 01e5 58       		.uleb128 0x58
 5937 01e6 0B       		.uleb128 0xb
 5938 01e7 59       		.uleb128 0x59
 5939 01e8 0B       		.uleb128 0xb
 5940 01e9 01       		.uleb128 0x1
 5941 01ea 13       		.uleb128 0x13
 5942 01eb 00       		.byte	0
 5943 01ec 00       		.byte	0
 5944 01ed 27       		.uleb128 0x27
 5945 01ee 0B       		.uleb128 0xb
 5946 01ef 01       		.byte	0x1
 5947 01f0 55       		.uleb128 0x55
 5948 01f1 17       		.uleb128 0x17
 5949 01f2 00       		.byte	0
 5950 01f3 00       		.byte	0
 5951 01f4 28       		.uleb128 0x28
 5952 01f5 05       		.uleb128 0x5
ARM GAS  C:\Users\glenn\AppData\Local\Temp\cc3rYttq.s 			page 122


 5953 01f6 00       		.byte	0
 5954 01f7 31       		.uleb128 0x31
 5955 01f8 13       		.uleb128 0x13
 5956 01f9 1C       		.uleb128 0x1c
 5957 01fa 0B       		.uleb128 0xb
 5958 01fb 00       		.byte	0
 5959 01fc 00       		.byte	0
 5960 01fd 29       		.uleb128 0x29
 5961 01fe 1D       		.uleb128 0x1d
 5962 01ff 01       		.byte	0x1
 5963 0200 31       		.uleb128 0x31
 5964 0201 13       		.uleb128 0x13
 5965 0202 52       		.uleb128 0x52
 5966 0203 01       		.uleb128 0x1
 5967 0204 55       		.uleb128 0x55
 5968 0205 17       		.uleb128 0x17
 5969 0206 58       		.uleb128 0x58
 5970 0207 0B       		.uleb128 0xb
 5971 0208 59       		.uleb128 0x59
 5972 0209 0B       		.uleb128 0xb
 5973 020a 00       		.byte	0
 5974 020b 00       		.byte	0
 5975 020c 2A       		.uleb128 0x2a
 5976 020d 34       		.uleb128 0x34
 5977 020e 00       		.byte	0
 5978 020f 31       		.uleb128 0x31
 5979 0210 13       		.uleb128 0x13
 5980 0211 00       		.byte	0
 5981 0212 00       		.byte	0
 5982 0213 2B       		.uleb128 0x2b
 5983 0214 34       		.uleb128 0x34
 5984 0215 00       		.byte	0
 5985 0216 31       		.uleb128 0x31
 5986 0217 13       		.uleb128 0x13
 5987 0218 1C       		.uleb128 0x1c
 5988 0219 0B       		.uleb128 0xb
 5989 021a 00       		.byte	0
 5990 021b 00       		.byte	0
 5991 021c 2C       		.uleb128 0x2c
 5992 021d 1D       		.uleb128 0x1d
 5993 021e 01       		.byte	0x1
 5994 021f 31       		.uleb128 0x31
 5995 0220 13       		.uleb128 0x13
 5996 0221 11       		.uleb128 0x11
 5997 0222 01       		.uleb128 0x1
 5998 0223 12       		.uleb128 0x12
 5999 0224 06       		.uleb128 0x6
 6000 0225 58       		.uleb128 0x58
 6001 0226 0B       		.uleb128 0xb
 6002 0227 59       		.uleb128 0x59
 6003 0228 05       		.uleb128 0x5
 6004 0229 01       		.uleb128 0x1
 6005 022a 13       		.uleb128 0x13
 6006 022b 00       		.byte	0
 6007 022c 00       		.byte	0
 6008 022d 2D       		.uleb128 0x2d
 6009 022e 05       		.uleb128 0x5
ARM GAS  C:\Users\glenn\AppData\Local\Temp\cc3rYttq.s 			page 123


 6010 022f 00       		.byte	0
 6011 0230 31       		.uleb128 0x31
 6012 0231 13       		.uleb128 0x13
 6013 0232 00       		.byte	0
 6014 0233 00       		.byte	0
 6015 0234 2E       		.uleb128 0x2e
 6016 0235 34       		.uleb128 0x34
 6017 0236 00       		.byte	0
 6018 0237 31       		.uleb128 0x31
 6019 0238 13       		.uleb128 0x13
 6020 0239 02       		.uleb128 0x2
 6021 023a 18       		.uleb128 0x18
 6022 023b 00       		.byte	0
 6023 023c 00       		.byte	0
 6024 023d 2F       		.uleb128 0x2f
 6025 023e 898201   		.uleb128 0x4109
 6026 0241 01       		.byte	0x1
 6027 0242 11       		.uleb128 0x11
 6028 0243 01       		.uleb128 0x1
 6029 0244 00       		.byte	0
 6030 0245 00       		.byte	0
 6031 0246 30       		.uleb128 0x30
 6032 0247 1D       		.uleb128 0x1d
 6033 0248 01       		.byte	0x1
 6034 0249 31       		.uleb128 0x31
 6035 024a 13       		.uleb128 0x13
 6036 024b 52       		.uleb128 0x52
 6037 024c 01       		.uleb128 0x1
 6038 024d 55       		.uleb128 0x55
 6039 024e 17       		.uleb128 0x17
 6040 024f 58       		.uleb128 0x58
 6041 0250 0B       		.uleb128 0xb
 6042 0251 59       		.uleb128 0x59
 6043 0252 05       		.uleb128 0x5
 6044 0253 01       		.uleb128 0x1
 6045 0254 13       		.uleb128 0x13
 6046 0255 00       		.byte	0
 6047 0256 00       		.byte	0
 6048 0257 31       		.uleb128 0x31
 6049 0258 2E       		.uleb128 0x2e
 6050 0259 01       		.byte	0x1
 6051 025a 3F       		.uleb128 0x3f
 6052 025b 19       		.uleb128 0x19
 6053 025c 03       		.uleb128 0x3
 6054 025d 0E       		.uleb128 0xe
 6055 025e 3A       		.uleb128 0x3a
 6056 025f 0B       		.uleb128 0xb
 6057 0260 3B       		.uleb128 0x3b
 6058 0261 05       		.uleb128 0x5
 6059 0262 27       		.uleb128 0x27
 6060 0263 19       		.uleb128 0x19
 6061 0264 49       		.uleb128 0x49
 6062 0265 13       		.uleb128 0x13
 6063 0266 11       		.uleb128 0x11
 6064 0267 01       		.uleb128 0x1
 6065 0268 12       		.uleb128 0x12
 6066 0269 06       		.uleb128 0x6
ARM GAS  C:\Users\glenn\AppData\Local\Temp\cc3rYttq.s 			page 124


 6067 026a 40       		.uleb128 0x40
 6068 026b 18       		.uleb128 0x18
 6069 026c 9742     		.uleb128 0x2117
 6070 026e 19       		.uleb128 0x19
 6071 026f 01       		.uleb128 0x1
 6072 0270 13       		.uleb128 0x13
 6073 0271 00       		.byte	0
 6074 0272 00       		.byte	0
 6075 0273 32       		.uleb128 0x32
 6076 0274 05       		.uleb128 0x5
 6077 0275 00       		.byte	0
 6078 0276 03       		.uleb128 0x3
 6079 0277 08       		.uleb128 0x8
 6080 0278 3A       		.uleb128 0x3a
 6081 0279 0B       		.uleb128 0xb
 6082 027a 3B       		.uleb128 0x3b
 6083 027b 05       		.uleb128 0x5
 6084 027c 49       		.uleb128 0x49
 6085 027d 13       		.uleb128 0x13
 6086 027e 02       		.uleb128 0x2
 6087 027f 17       		.uleb128 0x17
 6088 0280 00       		.byte	0
 6089 0281 00       		.byte	0
 6090 0282 33       		.uleb128 0x33
 6091 0283 05       		.uleb128 0x5
 6092 0284 00       		.byte	0
 6093 0285 03       		.uleb128 0x3
 6094 0286 0E       		.uleb128 0xe
 6095 0287 3A       		.uleb128 0x3a
 6096 0288 0B       		.uleb128 0xb
 6097 0289 3B       		.uleb128 0x3b
 6098 028a 05       		.uleb128 0x5
 6099 028b 49       		.uleb128 0x49
 6100 028c 13       		.uleb128 0x13
 6101 028d 02       		.uleb128 0x2
 6102 028e 17       		.uleb128 0x17
 6103 028f 00       		.byte	0
 6104 0290 00       		.byte	0
 6105 0291 34       		.uleb128 0x34
 6106 0292 2E       		.uleb128 0x2e
 6107 0293 01       		.byte	0x1
 6108 0294 3F       		.uleb128 0x3f
 6109 0295 19       		.uleb128 0x19
 6110 0296 03       		.uleb128 0x3
 6111 0297 0E       		.uleb128 0xe
 6112 0298 3A       		.uleb128 0x3a
 6113 0299 0B       		.uleb128 0xb
 6114 029a 3B       		.uleb128 0x3b
 6115 029b 05       		.uleb128 0x5
 6116 029c 27       		.uleb128 0x27
 6117 029d 19       		.uleb128 0x19
 6118 029e 11       		.uleb128 0x11
 6119 029f 01       		.uleb128 0x1
 6120 02a0 12       		.uleb128 0x12
 6121 02a1 06       		.uleb128 0x6
 6122 02a2 40       		.uleb128 0x40
 6123 02a3 18       		.uleb128 0x18
ARM GAS  C:\Users\glenn\AppData\Local\Temp\cc3rYttq.s 			page 125


 6124 02a4 9642     		.uleb128 0x2116
 6125 02a6 19       		.uleb128 0x19
 6126 02a7 01       		.uleb128 0x1
 6127 02a8 13       		.uleb128 0x13
 6128 02a9 00       		.byte	0
 6129 02aa 00       		.byte	0
 6130 02ab 35       		.uleb128 0x35
 6131 02ac 2E       		.uleb128 0x2e
 6132 02ad 01       		.byte	0x1
 6133 02ae 3F       		.uleb128 0x3f
 6134 02af 19       		.uleb128 0x19
 6135 02b0 03       		.uleb128 0x3
 6136 02b1 0E       		.uleb128 0xe
 6137 02b2 3A       		.uleb128 0x3a
 6138 02b3 0B       		.uleb128 0xb
 6139 02b4 3B       		.uleb128 0x3b
 6140 02b5 05       		.uleb128 0x5
 6141 02b6 27       		.uleb128 0x27
 6142 02b7 19       		.uleb128 0x19
 6143 02b8 49       		.uleb128 0x49
 6144 02b9 13       		.uleb128 0x13
 6145 02ba 11       		.uleb128 0x11
 6146 02bb 01       		.uleb128 0x1
 6147 02bc 12       		.uleb128 0x12
 6148 02bd 06       		.uleb128 0x6
 6149 02be 40       		.uleb128 0x40
 6150 02bf 18       		.uleb128 0x18
 6151 02c0 9642     		.uleb128 0x2116
 6152 02c2 19       		.uleb128 0x19
 6153 02c3 01       		.uleb128 0x1
 6154 02c4 13       		.uleb128 0x13
 6155 02c5 00       		.byte	0
 6156 02c6 00       		.byte	0
 6157 02c7 36       		.uleb128 0x36
 6158 02c8 34       		.uleb128 0x34
 6159 02c9 00       		.byte	0
 6160 02ca 03       		.uleb128 0x3
 6161 02cb 08       		.uleb128 0x8
 6162 02cc 3A       		.uleb128 0x3a
 6163 02cd 0B       		.uleb128 0xb
 6164 02ce 3B       		.uleb128 0x3b
 6165 02cf 05       		.uleb128 0x5
 6166 02d0 49       		.uleb128 0x49
 6167 02d1 13       		.uleb128 0x13
 6168 02d2 02       		.uleb128 0x2
 6169 02d3 17       		.uleb128 0x17
 6170 02d4 00       		.byte	0
 6171 02d5 00       		.byte	0
 6172 02d6 37       		.uleb128 0x37
 6173 02d7 34       		.uleb128 0x34
 6174 02d8 00       		.byte	0
 6175 02d9 03       		.uleb128 0x3
 6176 02da 0E       		.uleb128 0xe
 6177 02db 3A       		.uleb128 0x3a
 6178 02dc 0B       		.uleb128 0xb
 6179 02dd 3B       		.uleb128 0x3b
 6180 02de 05       		.uleb128 0x5
ARM GAS  C:\Users\glenn\AppData\Local\Temp\cc3rYttq.s 			page 126


 6181 02df 49       		.uleb128 0x49
 6182 02e0 13       		.uleb128 0x13
 6183 02e1 02       		.uleb128 0x2
 6184 02e2 17       		.uleb128 0x17
 6185 02e3 00       		.byte	0
 6186 02e4 00       		.byte	0
 6187 02e5 38       		.uleb128 0x38
 6188 02e6 34       		.uleb128 0x34
 6189 02e7 00       		.byte	0
 6190 02e8 03       		.uleb128 0x3
 6191 02e9 0E       		.uleb128 0xe
 6192 02ea 3A       		.uleb128 0x3a
 6193 02eb 0B       		.uleb128 0xb
 6194 02ec 3B       		.uleb128 0x3b
 6195 02ed 05       		.uleb128 0x5
 6196 02ee 49       		.uleb128 0x49
 6197 02ef 13       		.uleb128 0x13
 6198 02f0 02       		.uleb128 0x2
 6199 02f1 18       		.uleb128 0x18
 6200 02f2 00       		.byte	0
 6201 02f3 00       		.byte	0
 6202 02f4 39       		.uleb128 0x39
 6203 02f5 05       		.uleb128 0x5
 6204 02f6 00       		.byte	0
 6205 02f7 31       		.uleb128 0x31
 6206 02f8 13       		.uleb128 0x13
 6207 02f9 02       		.uleb128 0x2
 6208 02fa 18       		.uleb128 0x18
 6209 02fb 00       		.byte	0
 6210 02fc 00       		.byte	0
 6211 02fd 3A       		.uleb128 0x3a
 6212 02fe 1D       		.uleb128 0x1d
 6213 02ff 01       		.byte	0x1
 6214 0300 31       		.uleb128 0x31
 6215 0301 13       		.uleb128 0x13
 6216 0302 11       		.uleb128 0x11
 6217 0303 01       		.uleb128 0x1
 6218 0304 12       		.uleb128 0x12
 6219 0305 06       		.uleb128 0x6
 6220 0306 58       		.uleb128 0x58
 6221 0307 0B       		.uleb128 0xb
 6222 0308 59       		.uleb128 0x59
 6223 0309 05       		.uleb128 0x5
 6224 030a 00       		.byte	0
 6225 030b 00       		.byte	0
 6226 030c 3B       		.uleb128 0x3b
 6227 030d 34       		.uleb128 0x34
 6228 030e 00       		.byte	0
 6229 030f 03       		.uleb128 0x3
 6230 0310 0E       		.uleb128 0xe
 6231 0311 3A       		.uleb128 0x3a
 6232 0312 0B       		.uleb128 0xb
 6233 0313 3B       		.uleb128 0x3b
 6234 0314 0B       		.uleb128 0xb
 6235 0315 49       		.uleb128 0x49
 6236 0316 13       		.uleb128 0x13
 6237 0317 02       		.uleb128 0x2
ARM GAS  C:\Users\glenn\AppData\Local\Temp\cc3rYttq.s 			page 127


 6238 0318 18       		.uleb128 0x18
 6239 0319 00       		.byte	0
 6240 031a 00       		.byte	0
 6241 031b 3C       		.uleb128 0x3c
 6242 031c 2E       		.uleb128 0x2e
 6243 031d 00       		.byte	0
 6244 031e 3F       		.uleb128 0x3f
 6245 031f 19       		.uleb128 0x19
 6246 0320 03       		.uleb128 0x3
 6247 0321 0E       		.uleb128 0xe
 6248 0322 3A       		.uleb128 0x3a
 6249 0323 0B       		.uleb128 0xb
 6250 0324 3B       		.uleb128 0x3b
 6251 0325 0B       		.uleb128 0xb
 6252 0326 27       		.uleb128 0x27
 6253 0327 19       		.uleb128 0x19
 6254 0328 49       		.uleb128 0x49
 6255 0329 13       		.uleb128 0x13
 6256 032a 3C       		.uleb128 0x3c
 6257 032b 19       		.uleb128 0x19
 6258 032c 00       		.byte	0
 6259 032d 00       		.byte	0
 6260 032e 3D       		.uleb128 0x3d
 6261 032f 2E       		.uleb128 0x2e
 6262 0330 01       		.byte	0x1
 6263 0331 3F       		.uleb128 0x3f
 6264 0332 19       		.uleb128 0x19
 6265 0333 03       		.uleb128 0x3
 6266 0334 0E       		.uleb128 0xe
 6267 0335 3A       		.uleb128 0x3a
 6268 0336 0B       		.uleb128 0xb
 6269 0337 3B       		.uleb128 0x3b
 6270 0338 0B       		.uleb128 0xb
 6271 0339 27       		.uleb128 0x27
 6272 033a 19       		.uleb128 0x19
 6273 033b 3C       		.uleb128 0x3c
 6274 033c 19       		.uleb128 0x19
 6275 033d 01       		.uleb128 0x1
 6276 033e 13       		.uleb128 0x13
 6277 033f 00       		.byte	0
 6278 0340 00       		.byte	0
 6279 0341 3E       		.uleb128 0x3e
 6280 0342 2E       		.uleb128 0x2e
 6281 0343 01       		.byte	0x1
 6282 0344 3F       		.uleb128 0x3f
 6283 0345 19       		.uleb128 0x19
 6284 0346 03       		.uleb128 0x3
 6285 0347 0E       		.uleb128 0xe
 6286 0348 3A       		.uleb128 0x3a
 6287 0349 0B       		.uleb128 0xb
 6288 034a 3B       		.uleb128 0x3b
 6289 034b 0B       		.uleb128 0xb
 6290 034c 27       		.uleb128 0x27
 6291 034d 19       		.uleb128 0x19
 6292 034e 3C       		.uleb128 0x3c
 6293 034f 19       		.uleb128 0x19
 6294 0350 00       		.byte	0
ARM GAS  C:\Users\glenn\AppData\Local\Temp\cc3rYttq.s 			page 128


 6295 0351 00       		.byte	0
 6296 0352 00       		.byte	0
 6297              		.section	.debug_loc,"",%progbits
 6298              	.Ldebug_loc0:
 6299              	.LLST0:
 6300 0000 00000000 		.4byte	.LVL0
 6301 0004 07000000 		.4byte	.LVL1-1
 6302 0008 0100     		.2byte	0x1
 6303 000a 50       		.byte	0x50
 6304 000b 07000000 		.4byte	.LVL1-1
 6305 000f 2A000000 		.4byte	.LVL8
 6306 0013 0100     		.2byte	0x1
 6307 0015 54       		.byte	0x54
 6308 0016 2A000000 		.4byte	.LVL8
 6309 001a 3C000000 		.4byte	.LFE62
 6310 001e 0400     		.2byte	0x4
 6311 0020 F3       		.byte	0xf3
 6312 0021 01       		.uleb128 0x1
 6313 0022 50       		.byte	0x50
 6314 0023 9F       		.byte	0x9f
 6315 0024 00000000 		.4byte	0
 6316 0028 00000000 		.4byte	0
 6317              	.LLST1:
 6318 002c 2A000000 		.4byte	.LVL8
 6319 0030 3A000000 		.4byte	.LVL11
 6320 0034 0100     		.2byte	0x1
 6321 0036 54       		.byte	0x54
 6322 0037 00000000 		.4byte	0
 6323 003b 00000000 		.4byte	0
 6324              	.LLST2:
 6325 003f 0C000000 		.4byte	.LVL2
 6326 0043 3A000000 		.4byte	.LVL12
 6327 0047 0100     		.2byte	0x1
 6328 0049 55       		.byte	0x55
 6329 004a 00000000 		.4byte	0
 6330 004e 00000000 		.4byte	0
 6331              	.LLST3:
 6332 0052 00000000 		.4byte	.LVL13
 6333 0056 07000000 		.4byte	.LVL14-1
 6334 005a 0100     		.2byte	0x1
 6335 005c 50       		.byte	0x50
 6336 005d 07000000 		.4byte	.LVL14-1
 6337 0061 28000000 		.4byte	.LVL21
 6338 0065 0100     		.2byte	0x1
 6339 0067 54       		.byte	0x54
 6340 0068 28000000 		.4byte	.LVL21
 6341 006c 32000000 		.4byte	.LFE63
 6342 0070 0400     		.2byte	0x4
 6343 0072 F3       		.byte	0xf3
 6344 0073 01       		.uleb128 0x1
 6345 0074 50       		.byte	0x50
 6346 0075 9F       		.byte	0x9f
 6347 0076 00000000 		.4byte	0
 6348 007a 00000000 		.4byte	0
 6349              	.LLST4:
 6350 007e 28000000 		.4byte	.LVL21
 6351 0082 30000000 		.4byte	.LVL23
ARM GAS  C:\Users\glenn\AppData\Local\Temp\cc3rYttq.s 			page 129


 6352 0086 0100     		.2byte	0x1
 6353 0088 54       		.byte	0x54
 6354 0089 00000000 		.4byte	0
 6355 008d 00000000 		.4byte	0
 6356              	.LLST5:
 6357 0091 0C000000 		.4byte	.LVL15
 6358 0095 30000000 		.4byte	.LVL24
 6359 0099 0100     		.2byte	0x1
 6360 009b 55       		.byte	0x55
 6361 009c 00000000 		.4byte	0
 6362 00a0 00000000 		.4byte	0
 6363              	.LLST6:
 6364 00a4 00000000 		.4byte	.LVL25
 6365 00a8 09000000 		.4byte	.LVL26-1
 6366 00ac 0100     		.2byte	0x1
 6367 00ae 50       		.byte	0x50
 6368 00af 09000000 		.4byte	.LVL26-1
 6369 00b3 34000000 		.4byte	.LVL34
 6370 00b7 0100     		.2byte	0x1
 6371 00b9 54       		.byte	0x54
 6372 00ba 34000000 		.4byte	.LVL34
 6373 00be 36000000 		.4byte	.LFE64
 6374 00c2 0400     		.2byte	0x4
 6375 00c4 F3       		.byte	0xf3
 6376 00c5 01       		.uleb128 0x1
 6377 00c6 50       		.byte	0x50
 6378 00c7 9F       		.byte	0x9f
 6379 00c8 00000000 		.4byte	0
 6380 00cc 00000000 		.4byte	0
 6381              	.LLST7:
 6382 00d0 00000000 		.4byte	.LVL25
 6383 00d4 09000000 		.4byte	.LVL26-1
 6384 00d8 0100     		.2byte	0x1
 6385 00da 51       		.byte	0x51
 6386 00db 09000000 		.4byte	.LVL26-1
 6387 00df 36000000 		.4byte	.LFE64
 6388 00e3 0400     		.2byte	0x4
 6389 00e5 F3       		.byte	0xf3
 6390 00e6 01       		.uleb128 0x1
 6391 00e7 51       		.byte	0x51
 6392 00e8 9F       		.byte	0x9f
 6393 00e9 00000000 		.4byte	0
 6394 00ed 00000000 		.4byte	0
 6395              	.LLST8:
 6396 00f1 0E000000 		.4byte	.LVL27
 6397 00f5 34000000 		.4byte	.LVL35
 6398 00f9 0100     		.2byte	0x1
 6399 00fb 55       		.byte	0x55
 6400 00fc 00000000 		.4byte	0
 6401 0100 00000000 		.4byte	0
 6402              	.LLST9:
 6403 0104 00000000 		.4byte	.LVL36
 6404 0108 0C000000 		.4byte	.LVL37
 6405 010c 0100     		.2byte	0x1
 6406 010e 50       		.byte	0x50
 6407 010f 0C000000 		.4byte	.LVL37
 6408 0113 50000000 		.4byte	.LVL51
ARM GAS  C:\Users\glenn\AppData\Local\Temp\cc3rYttq.s 			page 130


 6409 0117 0100     		.2byte	0x1
 6410 0119 55       		.byte	0x55
 6411 011a 50000000 		.4byte	.LVL51
 6412 011e 56000000 		.4byte	.LFE65
 6413 0122 0400     		.2byte	0x4
 6414 0124 F3       		.byte	0xf3
 6415 0125 01       		.uleb128 0x1
 6416 0126 50       		.byte	0x50
 6417 0127 9F       		.byte	0x9f
 6418 0128 00000000 		.4byte	0
 6419 012c 00000000 		.4byte	0
 6420              	.LLST10:
 6421 0130 00000000 		.4byte	.LVL36
 6422 0134 0C000000 		.4byte	.LVL37
 6423 0138 0200     		.2byte	0x2
 6424 013a 30       		.byte	0x30
 6425 013b 9F       		.byte	0x9f
 6426 013c 0C000000 		.4byte	.LVL37
 6427 0140 46000000 		.4byte	.LVL49
 6428 0144 0100     		.2byte	0x1
 6429 0146 54       		.byte	0x54
 6430 0147 00000000 		.4byte	0
 6431 014b 00000000 		.4byte	0
 6432              	.LLST11:
 6433 014f 00000000 		.4byte	.LVL36
 6434 0153 0C000000 		.4byte	.LVL37
 6435 0157 0200     		.2byte	0x2
 6436 0159 30       		.byte	0x30
 6437 015a 9F       		.byte	0x9f
 6438 015b 0C000000 		.4byte	.LVL37
 6439 015f 40000000 		.4byte	.LVL47
 6440 0163 0100     		.2byte	0x1
 6441 0165 56       		.byte	0x56
 6442 0166 42000000 		.4byte	.LVL48
 6443 016a 50000000 		.4byte	.LVL52
 6444 016e 0100     		.2byte	0x1
 6445 0170 56       		.byte	0x56
 6446 0171 00000000 		.4byte	0
 6447 0175 00000000 		.4byte	0
 6448              	.LLST12:
 6449 0179 0C000000 		.4byte	.LVL37
 6450 017d 50000000 		.4byte	.LVL51
 6451 0181 0100     		.2byte	0x1
 6452 0183 55       		.byte	0x55
 6453 0184 50000000 		.4byte	.LVL51
 6454 0188 56000000 		.4byte	.LFE65
 6455 018c 0400     		.2byte	0x4
 6456 018e F3       		.byte	0xf3
 6457 018f 01       		.uleb128 0x1
 6458 0190 50       		.byte	0x50
 6459 0191 9F       		.byte	0x9f
 6460 0192 00000000 		.4byte	0
 6461 0196 00000000 		.4byte	0
 6462              	.LLST13:
 6463 019a 30000000 		.4byte	.LVL45
 6464 019e 50000000 		.4byte	.LVL53
 6465 01a2 0100     		.2byte	0x1
ARM GAS  C:\Users\glenn\AppData\Local\Temp\cc3rYttq.s 			page 131


 6466 01a4 57       		.byte	0x57
 6467 01a5 00000000 		.4byte	0
 6468 01a9 00000000 		.4byte	0
 6469              	.LLST14:
 6470 01ad 14000000 		.4byte	.LVL39
 6471 01b1 50000000 		.4byte	.LVL54
 6472 01b5 0100     		.2byte	0x1
 6473 01b7 58       		.byte	0x58
 6474 01b8 00000000 		.4byte	0
 6475 01bc 00000000 		.4byte	0
 6476              	.LLST15:
 6477 01c0 00000000 		.4byte	.LVL55
 6478 01c4 12000000 		.4byte	.LVL56
 6479 01c8 0100     		.2byte	0x1
 6480 01ca 50       		.byte	0x50
 6481 01cb 12000000 		.4byte	.LVL56
 6482 01cf 54000000 		.4byte	.LVL68
 6483 01d3 0100     		.2byte	0x1
 6484 01d5 56       		.byte	0x56
 6485 01d6 54000000 		.4byte	.LVL68
 6486 01da 5C000000 		.4byte	.LFE66
 6487 01de 0400     		.2byte	0x4
 6488 01e0 F3       		.byte	0xf3
 6489 01e1 01       		.uleb128 0x1
 6490 01e2 50       		.byte	0x50
 6491 01e3 9F       		.byte	0x9f
 6492 01e4 00000000 		.4byte	0
 6493 01e8 00000000 		.4byte	0
 6494              	.LLST16:
 6495 01ec 00000000 		.4byte	.LVL55
 6496 01f0 12000000 		.4byte	.LVL56
 6497 01f4 0100     		.2byte	0x1
 6498 01f6 51       		.byte	0x51
 6499 01f7 12000000 		.4byte	.LVL56
 6500 01fb 5C000000 		.4byte	.LFE66
 6501 01ff 0400     		.2byte	0x4
 6502 0201 F3       		.byte	0xf3
 6503 0202 01       		.uleb128 0x1
 6504 0203 51       		.byte	0x51
 6505 0204 9F       		.byte	0x9f
 6506 0205 00000000 		.4byte	0
 6507 0209 00000000 		.4byte	0
 6508              	.LLST17:
 6509 020d 00000000 		.4byte	.LVL55
 6510 0211 12000000 		.4byte	.LVL56
 6511 0215 0200     		.2byte	0x2
 6512 0217 30       		.byte	0x30
 6513 0218 9F       		.byte	0x9f
 6514 0219 12000000 		.4byte	.LVL56
 6515 021d 44000000 		.4byte	.LVL64
 6516 0221 0100     		.2byte	0x1
 6517 0223 54       		.byte	0x54
 6518 0224 00000000 		.4byte	0
 6519 0228 00000000 		.4byte	0
 6520              	.LLST18:
 6521 022c 2C000000 		.4byte	.LVL60
 6522 0230 54000000 		.4byte	.LVL67
ARM GAS  C:\Users\glenn\AppData\Local\Temp\cc3rYttq.s 			page 132


 6523 0234 0500     		.2byte	0x5
 6524 0236 75       		.byte	0x75
 6525 0237 00       		.sleb128 0
 6526 0238 31       		.byte	0x31
 6527 0239 1A       		.byte	0x1a
 6528 023a 9F       		.byte	0x9f
 6529 023b 00000000 		.4byte	0
 6530 023f 00000000 		.4byte	0
 6531              	.LLST20:
 6532 0243 2C000000 		.4byte	.LVL60
 6533 0247 54000000 		.4byte	.LVL68
 6534 024b 0100     		.2byte	0x1
 6535 024d 56       		.byte	0x56
 6536 024e 54000000 		.4byte	.LVL68
 6537 0252 5C000000 		.4byte	.LFE66
 6538 0256 0400     		.2byte	0x4
 6539 0258 F3       		.byte	0xf3
 6540 0259 01       		.uleb128 0x1
 6541 025a 50       		.byte	0x50
 6542 025b 9F       		.byte	0x9f
 6543 025c 00000000 		.4byte	0
 6544 0260 00000000 		.4byte	0
 6545              	.LLST21:
 6546 0264 2C000000 		.4byte	.LVL60
 6547 0268 54000000 		.4byte	.LVL69
 6548 026c 0100     		.2byte	0x1
 6549 026e 57       		.byte	0x57
 6550 026f 00000000 		.4byte	0
 6551 0273 00000000 		.4byte	0
 6552              	.LLST22:
 6553 0277 00000000 		.4byte	.LVL70
 6554 027b 1A000000 		.4byte	.LVL72
 6555 027f 0100     		.2byte	0x1
 6556 0281 50       		.byte	0x50
 6557 0282 1A000000 		.4byte	.LVL72
 6558 0286 B8000000 		.4byte	.LVL97
 6559 028a 0100     		.2byte	0x1
 6560 028c 56       		.byte	0x56
 6561 028d B8000000 		.4byte	.LVL97
 6562 0291 C4000000 		.4byte	.LFE67
 6563 0295 0400     		.2byte	0x4
 6564 0297 F3       		.byte	0xf3
 6565 0298 01       		.uleb128 0x1
 6566 0299 50       		.byte	0x50
 6567 029a 9F       		.byte	0x9f
 6568 029b 00000000 		.4byte	0
 6569 029f 00000000 		.4byte	0
 6570              	.LLST23:
 6571 02a3 00000000 		.4byte	.LVL70
 6572 02a7 1A000000 		.4byte	.LVL72
 6573 02ab 0100     		.2byte	0x1
 6574 02ad 51       		.byte	0x51
 6575 02ae 1A000000 		.4byte	.LVL72
 6576 02b2 66000000 		.4byte	.LVL83
 6577 02b6 0100     		.2byte	0x1
 6578 02b8 59       		.byte	0x59
 6579 02b9 66000000 		.4byte	.LVL83
ARM GAS  C:\Users\glenn\AppData\Local\Temp\cc3rYttq.s 			page 133


 6580 02bd C4000000 		.4byte	.LFE67
 6581 02c1 0400     		.2byte	0x4
 6582 02c3 F3       		.byte	0xf3
 6583 02c4 01       		.uleb128 0x1
 6584 02c5 51       		.byte	0x51
 6585 02c6 9F       		.byte	0x9f
 6586 02c7 00000000 		.4byte	0
 6587 02cb 00000000 		.4byte	0
 6588              	.LLST24:
 6589 02cf 5C000000 		.4byte	.LVL82
 6590 02d3 66000000 		.4byte	.LVL83
 6591 02d7 0200     		.2byte	0x2
 6592 02d9 30       		.byte	0x30
 6593 02da 9F       		.byte	0x9f
 6594 02db 66000000 		.4byte	.LVL83
 6595 02df AE000000 		.4byte	.LVL94
 6596 02e3 0700     		.2byte	0x7
 6597 02e5 79       		.byte	0x79
 6598 02e6 00       		.sleb128 0
 6599 02e7 F3       		.byte	0xf3
 6600 02e8 01       		.uleb128 0x1
 6601 02e9 51       		.byte	0x51
 6602 02ea 1C       		.byte	0x1c
 6603 02eb 9F       		.byte	0x9f
 6604 02ec AE000000 		.4byte	.LVL94
 6605 02f0 B4000000 		.4byte	.LVL95
 6606 02f4 0900     		.2byte	0x9
 6607 02f6 79       		.byte	0x79
 6608 02f7 00       		.sleb128 0
 6609 02f8 F3       		.byte	0xf3
 6610 02f9 01       		.uleb128 0x1
 6611 02fa 51       		.byte	0x51
 6612 02fb 1C       		.byte	0x1c
 6613 02fc 23       		.byte	0x23
 6614 02fd 01       		.uleb128 0x1
 6615 02fe 9F       		.byte	0x9f
 6616 02ff 00000000 		.4byte	0
 6617 0303 00000000 		.4byte	0
 6618              	.LLST25:
 6619 0307 16000000 		.4byte	.LVL71
 6620 030b 1A000000 		.4byte	.LVL72
 6621 030f 0100     		.2byte	0x1
 6622 0311 50       		.byte	0x50
 6623 0312 1A000000 		.4byte	.LVL72
 6624 0316 B8000000 		.4byte	.LVL97
 6625 031a 0100     		.2byte	0x1
 6626 031c 56       		.byte	0x56
 6627 031d B8000000 		.4byte	.LVL97
 6628 0321 C4000000 		.4byte	.LFE67
 6629 0325 0400     		.2byte	0x4
 6630 0327 F3       		.byte	0xf3
 6631 0328 01       		.uleb128 0x1
 6632 0329 50       		.byte	0x50
 6633 032a 9F       		.byte	0x9f
 6634 032b 00000000 		.4byte	0
 6635 032f 00000000 		.4byte	0
 6636              	.LLST26:
ARM GAS  C:\Users\glenn\AppData\Local\Temp\cc3rYttq.s 			page 134


 6637 0333 16000000 		.4byte	.LVL71
 6638 0337 1A000000 		.4byte	.LVL72
 6639 033b 0200     		.2byte	0x2
 6640 033d 30       		.byte	0x30
 6641 033e 9F       		.byte	0x9f
 6642 033f 1A000000 		.4byte	.LVL72
 6643 0343 4C000000 		.4byte	.LVL80
 6644 0347 0100     		.2byte	0x1
 6645 0349 54       		.byte	0x54
 6646 034a 00000000 		.4byte	0
 6647 034e 00000000 		.4byte	0
 6648              	.LLST27:
 6649 0352 34000000 		.4byte	.LVL76
 6650 0356 3E000000 		.4byte	.LVL77
 6651 035a 0500     		.2byte	0x5
 6652 035c 75       		.byte	0x75
 6653 035d 00       		.sleb128 0
 6654 035e 31       		.byte	0x31
 6655 035f 1A       		.byte	0x1a
 6656 0360 9F       		.byte	0x9f
 6657 0361 00000000 		.4byte	0
 6658 0365 00000000 		.4byte	0
 6659              	.LLST29:
 6660 0369 34000000 		.4byte	.LVL76
 6661 036d B8000000 		.4byte	.LVL97
 6662 0371 0100     		.2byte	0x1
 6663 0373 56       		.byte	0x56
 6664 0374 B8000000 		.4byte	.LVL97
 6665 0378 C4000000 		.4byte	.LFE67
 6666 037c 0400     		.2byte	0x4
 6667 037e F3       		.byte	0xf3
 6668 037f 01       		.uleb128 0x1
 6669 0380 50       		.byte	0x50
 6670 0381 9F       		.byte	0x9f
 6671 0382 00000000 		.4byte	0
 6672 0386 00000000 		.4byte	0
 6673              	.LLST30:
 6674 038a 34000000 		.4byte	.LVL76
 6675 038e 66000000 		.4byte	.LVL83
 6676 0392 0100     		.2byte	0x1
 6677 0394 57       		.byte	0x57
 6678 0395 00000000 		.4byte	0
 6679 0399 00000000 		.4byte	0
 6680              	.LLST31:
 6681 039d 66000000 		.4byte	.LVL83
 6682 03a1 6C000000 		.4byte	.LVL84
 6683 03a5 0200     		.2byte	0x2
 6684 03a7 79       		.byte	0x79
 6685 03a8 00       		.sleb128 0
 6686 03a9 6C000000 		.4byte	.LVL84
 6687 03ad B8000000 		.4byte	.LVL98
 6688 03b1 0100     		.2byte	0x1
 6689 03b3 57       		.byte	0x57
 6690 03b4 00000000 		.4byte	0
 6691 03b8 00000000 		.4byte	0
 6692              	.LLST32:
 6693 03bc 66000000 		.4byte	.LVL83
ARM GAS  C:\Users\glenn\AppData\Local\Temp\cc3rYttq.s 			page 135


 6694 03c0 B8000000 		.4byte	.LVL97
 6695 03c4 0100     		.2byte	0x1
 6696 03c6 56       		.byte	0x56
 6697 03c7 B8000000 		.4byte	.LVL97
 6698 03cb C4000000 		.4byte	.LFE67
 6699 03cf 0400     		.2byte	0x4
 6700 03d1 F3       		.byte	0xf3
 6701 03d2 01       		.uleb128 0x1
 6702 03d3 50       		.byte	0x50
 6703 03d4 9F       		.byte	0x9f
 6704 03d5 00000000 		.4byte	0
 6705 03d9 00000000 		.4byte	0
 6706              	.LLST33:
 6707 03dd 66000000 		.4byte	.LVL83
 6708 03e1 6C000000 		.4byte	.LVL84
 6709 03e5 0200     		.2byte	0x2
 6710 03e7 30       		.byte	0x30
 6711 03e8 9F       		.byte	0x9f
 6712 03e9 6C000000 		.4byte	.LVL84
 6713 03ed 9E000000 		.4byte	.LVL92
 6714 03f1 0100     		.2byte	0x1
 6715 03f3 54       		.byte	0x54
 6716 03f4 00000000 		.4byte	0
 6717 03f8 00000000 		.4byte	0
 6718              	.LLST34:
 6719 03fc 86000000 		.4byte	.LVL88
 6720 0400 B8000000 		.4byte	.LVL96
 6721 0404 0500     		.2byte	0x5
 6722 0406 75       		.byte	0x75
 6723 0407 00       		.sleb128 0
 6724 0408 31       		.byte	0x31
 6725 0409 1A       		.byte	0x1a
 6726 040a 9F       		.byte	0x9f
 6727 040b 00000000 		.4byte	0
 6728 040f 00000000 		.4byte	0
 6729              	.LLST36:
 6730 0413 86000000 		.4byte	.LVL88
 6731 0417 B8000000 		.4byte	.LVL97
 6732 041b 0100     		.2byte	0x1
 6733 041d 56       		.byte	0x56
 6734 041e B8000000 		.4byte	.LVL97
 6735 0422 C4000000 		.4byte	.LFE67
 6736 0426 0400     		.2byte	0x4
 6737 0428 F3       		.byte	0xf3
 6738 0429 01       		.uleb128 0x1
 6739 042a 50       		.byte	0x50
 6740 042b 9F       		.byte	0x9f
 6741 042c 00000000 		.4byte	0
 6742 0430 00000000 		.4byte	0
 6743              	.LLST37:
 6744 0434 86000000 		.4byte	.LVL88
 6745 0438 B8000000 		.4byte	.LVL99
 6746 043c 0100     		.2byte	0x1
 6747 043e 5B       		.byte	0x5b
 6748 043f 00000000 		.4byte	0
 6749 0443 00000000 		.4byte	0
 6750              	.LLST38:
ARM GAS  C:\Users\glenn\AppData\Local\Temp\cc3rYttq.s 			page 136


 6751 0447 00000000 		.4byte	.LVL100
 6752 044b 23000000 		.4byte	.LVL105-1
 6753 044f 0100     		.2byte	0x1
 6754 0451 50       		.byte	0x50
 6755 0452 23000000 		.4byte	.LVL105-1
 6756 0456 6A000000 		.4byte	.LVL116
 6757 045a 0100     		.2byte	0x1
 6758 045c 54       		.byte	0x54
 6759 045d 6A000000 		.4byte	.LVL116
 6760 0461 78000000 		.4byte	.LVL118
 6761 0465 0400     		.2byte	0x4
 6762 0467 F3       		.byte	0xf3
 6763 0468 01       		.uleb128 0x1
 6764 0469 50       		.byte	0x50
 6765 046a 9F       		.byte	0x9f
 6766 046b 78000000 		.4byte	.LVL118
 6767 046f 26020000 		.4byte	.LVL194
 6768 0473 0100     		.2byte	0x1
 6769 0475 54       		.byte	0x54
 6770 0476 26020000 		.4byte	.LVL194
 6771 047a 48020000 		.4byte	.LFE68
 6772 047e 0400     		.2byte	0x4
 6773 0480 F3       		.byte	0xf3
 6774 0481 01       		.uleb128 0x1
 6775 0482 50       		.byte	0x50
 6776 0483 9F       		.byte	0x9f
 6777 0484 00000000 		.4byte	0
 6778 0488 00000000 		.4byte	0
 6779              	.LLST39:
 6780 048c 00000000 		.4byte	.LVL100
 6781 0490 18000000 		.4byte	.LVL101
 6782 0494 0100     		.2byte	0x1
 6783 0496 51       		.byte	0x51
 6784 0497 18000000 		.4byte	.LVL101
 6785 049b 6C000000 		.4byte	.LVL117
 6786 049f 0100     		.2byte	0x1
 6787 04a1 59       		.byte	0x59
 6788 04a2 6C000000 		.4byte	.LVL117
 6789 04a6 78000000 		.4byte	.LVL118
 6790 04aa 0400     		.2byte	0x4
 6791 04ac F3       		.byte	0xf3
 6792 04ad 01       		.uleb128 0x1
 6793 04ae 51       		.byte	0x51
 6794 04af 9F       		.byte	0x9f
 6795 04b0 78000000 		.4byte	.LVL118
 6796 04b4 48020000 		.4byte	.LFE68
 6797 04b8 0100     		.2byte	0x1
 6798 04ba 59       		.byte	0x59
 6799 04bb 00000000 		.4byte	0
 6800 04bf 00000000 		.4byte	0
 6801              	.LLST40:
 6802 04c3 00000000 		.4byte	.LVL100
 6803 04c7 18000000 		.4byte	.LVL101
 6804 04cb 0200     		.2byte	0x2
 6805 04cd 30       		.byte	0x30
 6806 04ce 9F       		.byte	0x9f
 6807 04cf 18000000 		.4byte	.LVL101
ARM GAS  C:\Users\glenn\AppData\Local\Temp\cc3rYttq.s 			page 137


 6808 04d3 1A000000 		.4byte	.LVL102
 6809 04d7 0600     		.2byte	0x6
 6810 04d9 73       		.byte	0x73
 6811 04da 00       		.sleb128 0
 6812 04db 79       		.byte	0x79
 6813 04dc 00       		.sleb128 0
 6814 04dd 1C       		.byte	0x1c
 6815 04de 9F       		.byte	0x9f
 6816 04df 1A000000 		.4byte	.LVL102
 6817 04e3 1C000000 		.4byte	.LVL103
 6818 04e7 0800     		.2byte	0x8
 6819 04e9 73       		.byte	0x73
 6820 04ea 00       		.sleb128 0
 6821 04eb 79       		.byte	0x79
 6822 04ec 00       		.sleb128 0
 6823 04ed 1C       		.byte	0x1c
 6824 04ee 23       		.byte	0x23
 6825 04ef 01       		.uleb128 0x1
 6826 04f0 9F       		.byte	0x9f
 6827 04f1 00000000 		.4byte	0
 6828 04f5 00000000 		.4byte	0
 6829              	.LLST41:
 6830 04f9 20000000 		.4byte	.LVL104
 6831 04fd 23000000 		.4byte	.LVL105-1
 6832 0501 0100     		.2byte	0x1
 6833 0503 50       		.byte	0x50
 6834 0504 23000000 		.4byte	.LVL105-1
 6835 0508 6A000000 		.4byte	.LVL116
 6836 050c 0100     		.2byte	0x1
 6837 050e 54       		.byte	0x54
 6838 050f 6A000000 		.4byte	.LVL116
 6839 0513 78000000 		.4byte	.LVL118
 6840 0517 0400     		.2byte	0x4
 6841 0519 F3       		.byte	0xf3
 6842 051a 01       		.uleb128 0x1
 6843 051b 50       		.byte	0x50
 6844 051c 9F       		.byte	0x9f
 6845 051d 78000000 		.4byte	.LVL118
 6846 0521 26020000 		.4byte	.LVL194
 6847 0525 0100     		.2byte	0x1
 6848 0527 54       		.byte	0x54
 6849 0528 26020000 		.4byte	.LVL194
 6850 052c 48020000 		.4byte	.LFE68
 6851 0530 0400     		.2byte	0x4
 6852 0532 F3       		.byte	0xf3
 6853 0533 01       		.uleb128 0x1
 6854 0534 50       		.byte	0x50
 6855 0535 9F       		.byte	0x9f
 6856 0536 00000000 		.4byte	0
 6857 053a 00000000 		.4byte	0
 6858              	.LLST42:
 6859 053e 46000000 		.4byte	.LVL112
 6860 0542 62000000 		.4byte	.LVL115
 6861 0546 0100     		.2byte	0x1
 6862 0548 55       		.byte	0x55
 6863 0549 78000000 		.4byte	.LVL118
 6864 054d 8E000000 		.4byte	.LVL124
ARM GAS  C:\Users\glenn\AppData\Local\Temp\cc3rYttq.s 			page 138


 6865 0551 0100     		.2byte	0x1
 6866 0553 55       		.byte	0x55
 6867 0554 00000000 		.4byte	0
 6868 0558 00000000 		.4byte	0
 6869              	.LLST43:
 6870 055c 28000000 		.4byte	.LVL106
 6871 0560 62000000 		.4byte	.LVL115
 6872 0564 0100     		.2byte	0x1
 6873 0566 56       		.byte	0x56
 6874 0567 78000000 		.4byte	.LVL118
 6875 056b 90000000 		.4byte	.LVL125
 6876 056f 0100     		.2byte	0x1
 6877 0571 56       		.byte	0x56
 6878 0572 00000000 		.4byte	0
 6879 0576 00000000 		.4byte	0
 6880              	.LLST44:
 6881 057a E2000000 		.4byte	.LVL139
 6882 057e E6000000 		.4byte	.LVL140
 6883 0582 0100     		.2byte	0x1
 6884 0584 55       		.byte	0x55
 6885 0585 E8000000 		.4byte	.LVL141
 6886 0589 FA000000 		.4byte	.LVL144
 6887 058d 0100     		.2byte	0x1
 6888 058f 55       		.byte	0x55
 6889 0590 4E010000 		.4byte	.LVL160
 6890 0594 B0010000 		.4byte	.LVL180
 6891 0598 0200     		.2byte	0x2
 6892 059a 30       		.byte	0x30
 6893 059b 9F       		.byte	0x9f
 6894 059c B0010000 		.4byte	.LVL180
 6895 05a0 DC010000 		.4byte	.LVL183
 6896 05a4 0100     		.2byte	0x1
 6897 05a6 55       		.byte	0x55
 6898 05a7 F8010000 		.4byte	.LVL190
 6899 05ab 08020000 		.4byte	.LVL192
 6900 05af 0100     		.2byte	0x1
 6901 05b1 55       		.byte	0x55
 6902 05b2 00000000 		.4byte	0
 6903 05b6 00000000 		.4byte	0
 6904              	.LLST45:
 6905 05ba E2000000 		.4byte	.LVL139
 6906 05be 28010000 		.4byte	.LVL153
 6907 05c2 0100     		.2byte	0x1
 6908 05c4 56       		.byte	0x56
 6909 05c5 3A010000 		.4byte	.LVL157
 6910 05c9 46010000 		.4byte	.LVL158
 6911 05cd 0100     		.2byte	0x1
 6912 05cf 56       		.byte	0x56
 6913 05d0 46010000 		.4byte	.LVL158
 6914 05d4 48010000 		.4byte	.LVL159
 6915 05d8 0200     		.2byte	0x2
 6916 05da 31       		.byte	0x31
 6917 05db 9F       		.byte	0x9f
 6918 05dc 48010000 		.4byte	.LVL159
 6919 05e0 48020000 		.4byte	.LFE68
 6920 05e4 0100     		.2byte	0x1
 6921 05e6 56       		.byte	0x56
ARM GAS  C:\Users\glenn\AppData\Local\Temp\cc3rYttq.s 			page 139


 6922 05e7 00000000 		.4byte	0
 6923 05eb 00000000 		.4byte	0
 6924              	.LLST46:
 6925 05ef E2000000 		.4byte	.LVL139
 6926 05f3 30010000 		.4byte	.LVL155
 6927 05f7 0100     		.2byte	0x1
 6928 05f9 57       		.byte	0x57
 6929 05fa 3A010000 		.4byte	.LVL157
 6930 05fe 48020000 		.4byte	.LFE68
 6931 0602 0100     		.2byte	0x1
 6932 0604 57       		.byte	0x57
 6933 0605 00000000 		.4byte	0
 6934 0609 00000000 		.4byte	0
 6935              	.LLST47:
 6936 060d F4000000 		.4byte	.LVL143
 6937 0611 FA000000 		.4byte	.LVL144
 6938 0615 0500     		.2byte	0x5
 6939 0617 75       		.byte	0x75
 6940 0618 00       		.sleb128 0
 6941 0619 31       		.byte	0x31
 6942 061a 25       		.byte	0x25
 6943 061b 9F       		.byte	0x9f
 6944 061c D6010000 		.4byte	.LVL182
 6945 0620 DC010000 		.4byte	.LVL183
 6946 0624 0100     		.2byte	0x1
 6947 0626 52       		.byte	0x52
 6948 0627 02020000 		.4byte	.LVL191
 6949 062b 08020000 		.4byte	.LVL192
 6950 062f 0100     		.2byte	0x1
 6951 0631 52       		.byte	0x52
 6952 0632 00000000 		.4byte	0
 6953 0636 00000000 		.4byte	0
 6954              	.LLST48:
 6955 063a 78000000 		.4byte	.LVL118
 6956 063e 90000000 		.4byte	.LVL125
 6957 0642 0200     		.2byte	0x2
 6958 0644 30       		.byte	0x30
 6959 0645 9F       		.byte	0x9f
 6960 0646 A2000000 		.4byte	.LVL128
 6961 064a C4000000 		.4byte	.LVL133
 6962 064e 0100     		.2byte	0x1
 6963 0650 55       		.byte	0x55
 6964 0651 C6000000 		.4byte	.LVL134
 6965 0655 CE000000 		.4byte	.LVL136
 6966 0659 0100     		.2byte	0x1
 6967 065b 55       		.byte	0x55
 6968 065c D0000000 		.4byte	.LVL137
 6969 0660 E2000000 		.4byte	.LVL139
 6970 0664 0100     		.2byte	0x1
 6971 0666 55       		.byte	0x55
 6972 0667 00000000 		.4byte	0
 6973 066b 00000000 		.4byte	0
 6974              	.LLST49:
 6975 066f 78000000 		.4byte	.LVL118
 6976 0673 90000000 		.4byte	.LVL125
 6977 0677 0200     		.2byte	0x2
 6978 0679 30       		.byte	0x30
ARM GAS  C:\Users\glenn\AppData\Local\Temp\cc3rYttq.s 			page 140


 6979 067a 9F       		.byte	0x9f
 6980 067b B8000000 		.4byte	.LVL131
 6981 067f D0000000 		.4byte	.LVL137
 6982 0683 0500     		.2byte	0x5
 6983 0685 76       		.byte	0x76
 6984 0686 00       		.sleb128 0
 6985 0687 31       		.byte	0x31
 6986 0688 1A       		.byte	0x1a
 6987 0689 9F       		.byte	0x9f
 6988 068a 00000000 		.4byte	0
 6989 068e 00000000 		.4byte	0
 6990              	.LLST51:
 6991 0692 78000000 		.4byte	.LVL118
 6992 0696 26020000 		.4byte	.LVL194
 6993 069a 0100     		.2byte	0x1
 6994 069c 54       		.byte	0x54
 6995 069d 26020000 		.4byte	.LVL194
 6996 06a1 48020000 		.4byte	.LFE68
 6997 06a5 0400     		.2byte	0x4
 6998 06a7 F3       		.byte	0xf3
 6999 06a8 01       		.uleb128 0x1
 7000 06a9 50       		.byte	0x50
 7001 06aa 9F       		.byte	0x9f
 7002 06ab 00000000 		.4byte	0
 7003 06af 00000000 		.4byte	0
 7004              	.LLST52:
 7005 06b3 80000000 		.4byte	.LVL120
 7006 06b7 82000000 		.4byte	.LVL121
 7007 06bb 0100     		.2byte	0x1
 7008 06bd 50       		.byte	0x50
 7009 06be 82000000 		.4byte	.LVL121
 7010 06c2 90000000 		.4byte	.LVL125
 7011 06c6 0100     		.2byte	0x1
 7012 06c8 57       		.byte	0x57
 7013 06c9 B8000000 		.4byte	.LVL131
 7014 06cd D0000000 		.4byte	.LVL137
 7015 06d1 0100     		.2byte	0x1
 7016 06d3 57       		.byte	0x57
 7017 06d4 00000000 		.4byte	0
 7018 06d8 00000000 		.4byte	0
 7019              	.LLST53:
 7020 06dc 08010000 		.4byte	.LVL145
 7021 06e0 4E010000 		.4byte	.LVL160
 7022 06e4 0100     		.2byte	0x1
 7023 06e6 54       		.byte	0x54
 7024 06e7 E4010000 		.4byte	.LVL184
 7025 06eb F8010000 		.4byte	.LVL190
 7026 06ef 0100     		.2byte	0x1
 7027 06f1 54       		.byte	0x54
 7028 06f2 00000000 		.4byte	0
 7029 06f6 00000000 		.4byte	0
 7030              	.LLST54:
 7031 06fa 10010000 		.4byte	.LVL147
 7032 06fe 12010000 		.4byte	.LVL148
 7033 0702 0100     		.2byte	0x1
 7034 0704 50       		.byte	0x50
 7035 0705 12010000 		.4byte	.LVL148
ARM GAS  C:\Users\glenn\AppData\Local\Temp\cc3rYttq.s 			page 141


 7036 0709 20010000 		.4byte	.LVL151
 7037 070d 0100     		.2byte	0x1
 7038 070f 55       		.byte	0x55
 7039 0710 EC010000 		.4byte	.LVL186
 7040 0714 EE010000 		.4byte	.LVL187
 7041 0718 0100     		.2byte	0x1
 7042 071a 50       		.byte	0x50
 7043 071b EE010000 		.4byte	.LVL187
 7044 071f F8010000 		.4byte	.LVL190
 7045 0723 0100     		.2byte	0x1
 7046 0725 55       		.byte	0x55
 7047 0726 00000000 		.4byte	0
 7048 072a 00000000 		.4byte	0
 7049              	.LLST55:
 7050 072e E2000000 		.4byte	.LVL139
 7051 0732 26020000 		.4byte	.LVL194
 7052 0736 0100     		.2byte	0x1
 7053 0738 54       		.byte	0x54
 7054 0739 26020000 		.4byte	.LVL194
 7055 073d 48020000 		.4byte	.LFE68
 7056 0741 0400     		.2byte	0x4
 7057 0743 F3       		.byte	0xf3
 7058 0744 01       		.uleb128 0x1
 7059 0745 50       		.byte	0x50
 7060 0746 9F       		.byte	0x9f
 7061 0747 00000000 		.4byte	0
 7062 074b 00000000 		.4byte	0
 7063              	.LLST56:
 7064 074f 72010000 		.4byte	.LVL168
 7065 0753 86010000 		.4byte	.LVL172
 7066 0757 0100     		.2byte	0x1
 7067 0759 55       		.byte	0x55
 7068 075a 00000000 		.4byte	0
 7069 075e 00000000 		.4byte	0
 7070              	.LLST57:
 7071 0762 56010000 		.4byte	.LVL162
 7072 0766 A6010000 		.4byte	.LVL178
 7073 076a 0100     		.2byte	0x1
 7074 076c 5A       		.byte	0x5a
 7075 076d 00000000 		.4byte	0
 7076 0771 00000000 		.4byte	0
 7077              	.LLST58:
 7078 0775 E2000000 		.4byte	.LVL139
 7079 0779 4E010000 		.4byte	.LVL160
 7080 077d 0100     		.2byte	0x1
 7081 077f 54       		.byte	0x54
 7082 0780 B0010000 		.4byte	.LVL180
 7083 0784 26020000 		.4byte	.LVL194
 7084 0788 0100     		.2byte	0x1
 7085 078a 54       		.byte	0x54
 7086 078b 26020000 		.4byte	.LVL194
 7087 078f 48020000 		.4byte	.LFE68
 7088 0793 0400     		.2byte	0x4
 7089 0795 F3       		.byte	0xf3
 7090 0796 01       		.uleb128 0x1
 7091 0797 50       		.byte	0x50
 7092 0798 9F       		.byte	0x9f
ARM GAS  C:\Users\glenn\AppData\Local\Temp\cc3rYttq.s 			page 142


 7093 0799 00000000 		.4byte	0
 7094 079d 00000000 		.4byte	0
 7095              	.LLST59:
 7096 07a1 E2000000 		.4byte	.LVL139
 7097 07a5 4E010000 		.4byte	.LVL160
 7098 07a9 0100     		.2byte	0x1
 7099 07ab 5A       		.byte	0x5a
 7100 07ac B0010000 		.4byte	.LVL180
 7101 07b0 48020000 		.4byte	.LFE68
 7102 07b4 0100     		.2byte	0x1
 7103 07b6 5A       		.byte	0x5a
 7104 07b7 00000000 		.4byte	0
 7105 07bb 00000000 		.4byte	0
 7106              	.LLST60:
 7107 07bf E2000000 		.4byte	.LVL139
 7108 07c3 4E010000 		.4byte	.LVL160
 7109 07c7 0100     		.2byte	0x1
 7110 07c9 5B       		.byte	0x5b
 7111 07ca B0010000 		.4byte	.LVL180
 7112 07ce 48020000 		.4byte	.LFE68
 7113 07d2 0100     		.2byte	0x1
 7114 07d4 5B       		.byte	0x5b
 7115 07d5 00000000 		.4byte	0
 7116 07d9 00000000 		.4byte	0
 7117              	.LLST61:
 7118 07dd 1E020000 		.4byte	.LVL193
 7119 07e1 26020000 		.4byte	.LVL194
 7120 07e5 0200     		.2byte	0x2
 7121 07e7 36       		.byte	0x36
 7122 07e8 9F       		.byte	0x9f
 7123 07e9 26020000 		.4byte	.LVL194
 7124 07ed 2A020000 		.4byte	.LVL195
 7125 07f1 0800     		.2byte	0x8
 7126 07f3 79       		.byte	0x79
 7127 07f4 00       		.sleb128 0
 7128 07f5 73       		.byte	0x73
 7129 07f6 00       		.sleb128 0
 7130 07f7 1C       		.byte	0x1c
 7131 07f8 23       		.byte	0x23
 7132 07f9 06       		.uleb128 0x6
 7133 07fa 9F       		.byte	0x9f
 7134 07fb 00000000 		.4byte	0
 7135 07ff 00000000 		.4byte	0
 7136              	.LLST62:
 7137 0803 1E020000 		.4byte	.LVL193
 7138 0807 26020000 		.4byte	.LVL194
 7139 080b 0100     		.2byte	0x1
 7140 080d 59       		.byte	0x59
 7141 080e 26020000 		.4byte	.LVL194
 7142 0812 2A020000 		.4byte	.LVL195
 7143 0816 0300     		.2byte	0x3
 7144 0818 73       		.byte	0x73
 7145 0819 01       		.sleb128 1
 7146 081a 9F       		.byte	0x9f
 7147 081b 2A020000 		.4byte	.LVL195
 7148 081f 34020000 		.4byte	.LVL197
 7149 0823 0100     		.2byte	0x1
ARM GAS  C:\Users\glenn\AppData\Local\Temp\cc3rYttq.s 			page 143


 7150 0825 53       		.byte	0x53
 7151 0826 00000000 		.4byte	0
 7152 082a 00000000 		.4byte	0
 7153              	.LLST63:
 7154 082e 1E020000 		.4byte	.LVL193
 7155 0832 26020000 		.4byte	.LVL194
 7156 0836 0200     		.2byte	0x2
 7157 0838 30       		.byte	0x30
 7158 0839 9F       		.byte	0x9f
 7159 083a 26020000 		.4byte	.LVL194
 7160 083e 38020000 		.4byte	.LVL198
 7161 0842 0100     		.2byte	0x1
 7162 0844 50       		.byte	0x50
 7163 0845 38020000 		.4byte	.LVL198
 7164 0849 3C020000 		.4byte	.LVL199
 7165 084d 0500     		.2byte	0x5
 7166 084f 71       		.byte	0x71
 7167 0850 00       		.sleb128 0
 7168 0851 72       		.byte	0x72
 7169 0852 00       		.sleb128 0
 7170 0853 22       		.byte	0x22
 7171 0854 00000000 		.4byte	0
 7172 0858 00000000 		.4byte	0
 7173              	.LLST64:
 7174 085c 00000000 		.4byte	.LVL200
 7175 0860 0D000000 		.4byte	.LVL201-1
 7176 0864 0100     		.2byte	0x1
 7177 0866 50       		.byte	0x50
 7178 0867 0D000000 		.4byte	.LVL201-1
 7179 086b 14000000 		.4byte	.LFE69
 7180 086f 0400     		.2byte	0x4
 7181 0871 F3       		.byte	0xf3
 7182 0872 01       		.uleb128 0x1
 7183 0873 50       		.byte	0x50
 7184 0874 9F       		.byte	0x9f
 7185 0875 00000000 		.4byte	0
 7186 0879 00000000 		.4byte	0
 7187              	.LLST65:
 7188 087d 00000000 		.4byte	.LVL200
 7189 0881 0D000000 		.4byte	.LVL201-1
 7190 0885 0100     		.2byte	0x1
 7191 0887 51       		.byte	0x51
 7192 0888 0D000000 		.4byte	.LVL201-1
 7193 088c 14000000 		.4byte	.LFE69
 7194 0890 0400     		.2byte	0x4
 7195 0892 F3       		.byte	0xf3
 7196 0893 01       		.uleb128 0x1
 7197 0894 51       		.byte	0x51
 7198 0895 9F       		.byte	0x9f
 7199 0896 00000000 		.4byte	0
 7200 089a 00000000 		.4byte	0
 7201              	.LLST66:
 7202 089e 00000000 		.4byte	.LVL202
 7203 08a2 13000000 		.4byte	.LVL204-1
 7204 08a6 0100     		.2byte	0x1
 7205 08a8 50       		.byte	0x50
 7206 08a9 13000000 		.4byte	.LVL204-1
ARM GAS  C:\Users\glenn\AppData\Local\Temp\cc3rYttq.s 			page 144


 7207 08ad 4E010000 		.4byte	.LVL259
 7208 08b1 0100     		.2byte	0x1
 7209 08b3 56       		.byte	0x56
 7210 08b4 4E010000 		.4byte	.LVL259
 7211 08b8 5A010000 		.4byte	.LFE70
 7212 08bc 0400     		.2byte	0x4
 7213 08be F3       		.byte	0xf3
 7214 08bf 01       		.uleb128 0x1
 7215 08c0 50       		.byte	0x50
 7216 08c1 9F       		.byte	0x9f
 7217 08c2 00000000 		.4byte	0
 7218 08c6 00000000 		.4byte	0
 7219              	.LLST67:
 7220 08ca 00000000 		.4byte	.LVL202
 7221 08ce 13000000 		.4byte	.LVL204-1
 7222 08d2 0100     		.2byte	0x1
 7223 08d4 51       		.byte	0x51
 7224 08d5 13000000 		.4byte	.LVL204-1
 7225 08d9 98000000 		.4byte	.LVL225
 7226 08dd 0100     		.2byte	0x1
 7227 08df 59       		.byte	0x59
 7228 08e0 98000000 		.4byte	.LVL225
 7229 08e4 5A010000 		.4byte	.LFE70
 7230 08e8 0400     		.2byte	0x4
 7231 08ea F3       		.byte	0xf3
 7232 08eb 01       		.uleb128 0x1
 7233 08ec 51       		.byte	0x51
 7234 08ed 9F       		.byte	0x9f
 7235 08ee 00000000 		.4byte	0
 7236 08f2 00000000 		.4byte	0
 7237              	.LLST68:
 7238 08f6 10000000 		.4byte	.LVL203
 7239 08fa 13000000 		.4byte	.LVL204-1
 7240 08fe 0100     		.2byte	0x1
 7241 0900 50       		.byte	0x50
 7242 0901 13000000 		.4byte	.LVL204-1
 7243 0905 4E010000 		.4byte	.LVL259
 7244 0909 0100     		.2byte	0x1
 7245 090b 56       		.byte	0x56
 7246 090c 4E010000 		.4byte	.LVL259
 7247 0910 5A010000 		.4byte	.LFE70
 7248 0914 0400     		.2byte	0x4
 7249 0916 F3       		.byte	0xf3
 7250 0917 01       		.uleb128 0x1
 7251 0918 50       		.byte	0x50
 7252 0919 9F       		.byte	0x9f
 7253 091a 00000000 		.4byte	0
 7254 091e 00000000 		.4byte	0
 7255              	.LLST69:
 7256 0922 18000000 		.4byte	.LVL205
 7257 0926 4A000000 		.4byte	.LVL213
 7258 092a 0100     		.2byte	0x1
 7259 092c 54       		.byte	0x54
 7260 092d 00000000 		.4byte	0
 7261 0931 00000000 		.4byte	0
 7262              	.LLST70:
 7263 0935 42000000 		.4byte	.LVL212
ARM GAS  C:\Users\glenn\AppData\Local\Temp\cc3rYttq.s 			page 145


 7264 0939 98000000 		.4byte	.LVL225
 7265 093d 0100     		.2byte	0x1
 7266 093f 59       		.byte	0x59
 7267 0940 98000000 		.4byte	.LVL225
 7268 0944 5A010000 		.4byte	.LFE70
 7269 0948 0400     		.2byte	0x4
 7270 094a F3       		.byte	0xf3
 7271 094b 01       		.uleb128 0x1
 7272 094c 51       		.byte	0x51
 7273 094d 9F       		.byte	0x9f
 7274 094e 00000000 		.4byte	0
 7275 0952 00000000 		.4byte	0
 7276              	.LLST71:
 7277 0956 42000000 		.4byte	.LVL212
 7278 095a 4E010000 		.4byte	.LVL259
 7279 095e 0100     		.2byte	0x1
 7280 0960 56       		.byte	0x56
 7281 0961 4E010000 		.4byte	.LVL259
 7282 0965 5A010000 		.4byte	.LFE70
 7283 0969 0400     		.2byte	0x4
 7284 096b F3       		.byte	0xf3
 7285 096c 01       		.uleb128 0x1
 7286 096d 50       		.byte	0x50
 7287 096e 9F       		.byte	0x9f
 7288 096f 00000000 		.4byte	0
 7289 0973 00000000 		.4byte	0
 7290              	.LLST72:
 7291 0977 8E000000 		.4byte	.LVL224
 7292 097b 98000000 		.4byte	.LVL225
 7293 097f 0200     		.2byte	0x2
 7294 0981 30       		.byte	0x30
 7295 0982 9F       		.byte	0x9f
 7296 0983 98000000 		.4byte	.LVL225
 7297 0987 E0000000 		.4byte	.LVL236
 7298 098b 0700     		.2byte	0x7
 7299 098d 79       		.byte	0x79
 7300 098e 00       		.sleb128 0
 7301 098f F3       		.byte	0xf3
 7302 0990 01       		.uleb128 0x1
 7303 0991 51       		.byte	0x51
 7304 0992 1C       		.byte	0x1c
 7305 0993 9F       		.byte	0x9f
 7306 0994 E0000000 		.4byte	.LVL236
 7307 0998 E6000000 		.4byte	.LVL237
 7308 099c 0900     		.2byte	0x9
 7309 099e 79       		.byte	0x79
 7310 099f 00       		.sleb128 0
 7311 09a0 F3       		.byte	0xf3
 7312 09a1 01       		.uleb128 0x1
 7313 09a2 51       		.byte	0x51
 7314 09a3 1C       		.byte	0x1c
 7315 09a4 23       		.byte	0x23
 7316 09a5 01       		.uleb128 0x1
 7317 09a6 9F       		.byte	0x9f
 7318 09a7 00000000 		.4byte	0
 7319 09ab 00000000 		.4byte	0
 7320              	.LLST73:
ARM GAS  C:\Users\glenn\AppData\Local\Temp\cc3rYttq.s 			page 146


 7321 09af 42000000 		.4byte	.LVL212
 7322 09b3 4C000000 		.4byte	.LVL214
 7323 09b7 0200     		.2byte	0x2
 7324 09b9 30       		.byte	0x30
 7325 09ba 9F       		.byte	0x9f
 7326 09bb 4C000000 		.4byte	.LVL214
 7327 09bf 7E000000 		.4byte	.LVL222
 7328 09c3 0100     		.2byte	0x1
 7329 09c5 54       		.byte	0x54
 7330 09c6 00000000 		.4byte	0
 7331 09ca 00000000 		.4byte	0
 7332              	.LLST74:
 7333 09ce 66000000 		.4byte	.LVL218
 7334 09d2 70000000 		.4byte	.LVL219
 7335 09d6 0500     		.2byte	0x5
 7336 09d8 75       		.byte	0x75
 7337 09d9 00       		.sleb128 0
 7338 09da 31       		.byte	0x31
 7339 09db 1A       		.byte	0x1a
 7340 09dc 9F       		.byte	0x9f
 7341 09dd 00000000 		.4byte	0
 7342 09e1 00000000 		.4byte	0
 7343              	.LLST76:
 7344 09e5 66000000 		.4byte	.LVL218
 7345 09e9 4E010000 		.4byte	.LVL259
 7346 09ed 0100     		.2byte	0x1
 7347 09ef 56       		.byte	0x56
 7348 09f0 4E010000 		.4byte	.LVL259
 7349 09f4 5A010000 		.4byte	.LFE70
 7350 09f8 0400     		.2byte	0x4
 7351 09fa F3       		.byte	0xf3
 7352 09fb 01       		.uleb128 0x1
 7353 09fc 50       		.byte	0x50
 7354 09fd 9F       		.byte	0x9f
 7355 09fe 00000000 		.4byte	0
 7356 0a02 00000000 		.4byte	0
 7357              	.LLST77:
 7358 0a06 66000000 		.4byte	.LVL218
 7359 0a0a 98000000 		.4byte	.LVL225
 7360 0a0e 0100     		.2byte	0x1
 7361 0a10 57       		.byte	0x57
 7362 0a11 00000000 		.4byte	0
 7363 0a15 00000000 		.4byte	0
 7364              	.LLST78:
 7365 0a19 98000000 		.4byte	.LVL225
 7366 0a1d 9E000000 		.4byte	.LVL226
 7367 0a21 0200     		.2byte	0x2
 7368 0a23 79       		.byte	0x79
 7369 0a24 00       		.sleb128 0
 7370 0a25 9E000000 		.4byte	.LVL226
 7371 0a29 F8000000 		.4byte	.LVL240
 7372 0a2d 0100     		.2byte	0x1
 7373 0a2f 57       		.byte	0x57
 7374 0a30 00000000 		.4byte	0
 7375 0a34 00000000 		.4byte	0
 7376              	.LLST79:
 7377 0a38 98000000 		.4byte	.LVL225
ARM GAS  C:\Users\glenn\AppData\Local\Temp\cc3rYttq.s 			page 147


 7378 0a3c 4E010000 		.4byte	.LVL259
 7379 0a40 0100     		.2byte	0x1
 7380 0a42 56       		.byte	0x56
 7381 0a43 4E010000 		.4byte	.LVL259
 7382 0a47 5A010000 		.4byte	.LFE70
 7383 0a4b 0400     		.2byte	0x4
 7384 0a4d F3       		.byte	0xf3
 7385 0a4e 01       		.uleb128 0x1
 7386 0a4f 50       		.byte	0x50
 7387 0a50 9F       		.byte	0x9f
 7388 0a51 00000000 		.4byte	0
 7389 0a55 00000000 		.4byte	0
 7390              	.LLST80:
 7391 0a59 98000000 		.4byte	.LVL225
 7392 0a5d 9E000000 		.4byte	.LVL226
 7393 0a61 0200     		.2byte	0x2
 7394 0a63 30       		.byte	0x30
 7395 0a64 9F       		.byte	0x9f
 7396 0a65 9E000000 		.4byte	.LVL226
 7397 0a69 D0000000 		.4byte	.LVL234
 7398 0a6d 0100     		.2byte	0x1
 7399 0a6f 54       		.byte	0x54
 7400 0a70 00000000 		.4byte	0
 7401 0a74 00000000 		.4byte	0
 7402              	.LLST81:
 7403 0a78 B8000000 		.4byte	.LVL230
 7404 0a7c 08010000 		.4byte	.LVL244
 7405 0a80 0500     		.2byte	0x5
 7406 0a82 75       		.byte	0x75
 7407 0a83 00       		.sleb128 0
 7408 0a84 31       		.byte	0x31
 7409 0a85 1A       		.byte	0x1a
 7410 0a86 9F       		.byte	0x9f
 7411 0a87 00000000 		.4byte	0
 7412 0a8b 00000000 		.4byte	0
 7413              	.LLST83:
 7414 0a8f B8000000 		.4byte	.LVL230
 7415 0a93 4E010000 		.4byte	.LVL259
 7416 0a97 0100     		.2byte	0x1
 7417 0a99 56       		.byte	0x56
 7418 0a9a 4E010000 		.4byte	.LVL259
 7419 0a9e 5A010000 		.4byte	.LFE70
 7420 0aa2 0400     		.2byte	0x4
 7421 0aa4 F3       		.byte	0xf3
 7422 0aa5 01       		.uleb128 0x1
 7423 0aa6 50       		.byte	0x50
 7424 0aa7 9F       		.byte	0x9f
 7425 0aa8 00000000 		.4byte	0
 7426 0aac 00000000 		.4byte	0
 7427              	.LLST84:
 7428 0ab0 B8000000 		.4byte	.LVL230
 7429 0ab4 4E010000 		.4byte	.LVL260
 7430 0ab8 0100     		.2byte	0x1
 7431 0aba 5B       		.byte	0x5b
 7432 0abb 00000000 		.4byte	0
 7433 0abf 00000000 		.4byte	0
 7434              	.LLST85:
ARM GAS  C:\Users\glenn\AppData\Local\Temp\cc3rYttq.s 			page 148


 7435 0ac3 F0000000 		.4byte	.LVL238
 7436 0ac7 4E010000 		.4byte	.LVL259
 7437 0acb 0100     		.2byte	0x1
 7438 0acd 56       		.byte	0x56
 7439 0ace 4E010000 		.4byte	.LVL259
 7440 0ad2 5A010000 		.4byte	.LFE70
 7441 0ad6 0400     		.2byte	0x4
 7442 0ad8 F3       		.byte	0xf3
 7443 0ad9 01       		.uleb128 0x1
 7444 0ada 50       		.byte	0x50
 7445 0adb 9F       		.byte	0x9f
 7446 0adc 00000000 		.4byte	0
 7447 0ae0 00000000 		.4byte	0
 7448              	.LLST86:
 7449 0ae4 F0000000 		.4byte	.LVL238
 7450 0ae8 08010000 		.4byte	.LVL244
 7451 0aec 0200     		.2byte	0x2
 7452 0aee 30       		.byte	0x30
 7453 0aef 9F       		.byte	0x9f
 7454 0af0 1A010000 		.4byte	.LVL247
 7455 0af4 3C010000 		.4byte	.LVL252
 7456 0af8 0100     		.2byte	0x1
 7457 0afa 54       		.byte	0x54
 7458 0afb 3E010000 		.4byte	.LVL253
 7459 0aff 46010000 		.4byte	.LVL255
 7460 0b03 0100     		.2byte	0x1
 7461 0b05 54       		.byte	0x54
 7462 0b06 48010000 		.4byte	.LVL256
 7463 0b0a 4E010000 		.4byte	.LVL258
 7464 0b0e 0100     		.2byte	0x1
 7465 0b10 54       		.byte	0x54
 7466 0b11 00000000 		.4byte	0
 7467 0b15 00000000 		.4byte	0
 7468              	.LLST87:
 7469 0b19 F0000000 		.4byte	.LVL238
 7470 0b1d 08010000 		.4byte	.LVL244
 7471 0b21 0200     		.2byte	0x2
 7472 0b23 30       		.byte	0x30
 7473 0b24 9F       		.byte	0x9f
 7474 0b25 30010000 		.4byte	.LVL250
 7475 0b29 48010000 		.4byte	.LVL256
 7476 0b2d 0500     		.2byte	0x5
 7477 0b2f 75       		.byte	0x75
 7478 0b30 00       		.sleb128 0
 7479 0b31 31       		.byte	0x31
 7480 0b32 1A       		.byte	0x1a
 7481 0b33 9F       		.byte	0x9f
 7482 0b34 00000000 		.4byte	0
 7483 0b38 00000000 		.4byte	0
 7484              	.LLST90:
 7485 0b3c F8000000 		.4byte	.LVL240
 7486 0b40 FA000000 		.4byte	.LVL241
 7487 0b44 0100     		.2byte	0x1
 7488 0b46 50       		.byte	0x50
 7489 0b47 FA000000 		.4byte	.LVL241
 7490 0b4b 08010000 		.4byte	.LVL244
 7491 0b4f 0100     		.2byte	0x1
ARM GAS  C:\Users\glenn\AppData\Local\Temp\cc3rYttq.s 			page 149


 7492 0b51 57       		.byte	0x57
 7493 0b52 30010000 		.4byte	.LVL250
 7494 0b56 48010000 		.4byte	.LVL256
 7495 0b5a 0100     		.2byte	0x1
 7496 0b5c 57       		.byte	0x57
 7497 0b5d 00000000 		.4byte	0
 7498 0b61 00000000 		.4byte	0
 7499              	.LLST91:
 7500 0b65 00000000 		.4byte	.LVL261
 7501 0b69 15000000 		.4byte	.LVL263-1
 7502 0b6d 0100     		.2byte	0x1
 7503 0b6f 50       		.byte	0x50
 7504 0b70 15000000 		.4byte	.LVL263-1
 7505 0b74 C8010000 		.4byte	.LVL337
 7506 0b78 0100     		.2byte	0x1
 7507 0b7a 54       		.byte	0x54
 7508 0b7b C8010000 		.4byte	.LVL337
 7509 0b7f D8010000 		.4byte	.LVL341
 7510 0b83 0400     		.2byte	0x4
 7511 0b85 F3       		.byte	0xf3
 7512 0b86 01       		.uleb128 0x1
 7513 0b87 50       		.byte	0x50
 7514 0b88 9F       		.byte	0x9f
 7515 0b89 D8010000 		.4byte	.LVL341
 7516 0b8d E0010000 		.4byte	.LVL345
 7517 0b91 0100     		.2byte	0x1
 7518 0b93 54       		.byte	0x54
 7519 0b94 E0010000 		.4byte	.LVL345
 7520 0b98 FE010000 		.4byte	.LFE71
 7521 0b9c 0400     		.2byte	0x4
 7522 0b9e F3       		.byte	0xf3
 7523 0b9f 01       		.uleb128 0x1
 7524 0ba0 50       		.byte	0x50
 7525 0ba1 9F       		.byte	0x9f
 7526 0ba2 00000000 		.4byte	0
 7527 0ba6 00000000 		.4byte	0
 7528              	.LLST92:
 7529 0baa 00000000 		.4byte	.LVL261
 7530 0bae 15000000 		.4byte	.LVL263-1
 7531 0bb2 0100     		.2byte	0x1
 7532 0bb4 51       		.byte	0x51
 7533 0bb5 15000000 		.4byte	.LVL263-1
 7534 0bb9 FE010000 		.4byte	.LFE71
 7535 0bbd 0200     		.2byte	0x2
 7536 0bbf 91       		.byte	0x91
 7537 0bc0 44       		.sleb128 -60
 7538 0bc1 00000000 		.4byte	0
 7539 0bc5 00000000 		.4byte	0
 7540              	.LLST93:
 7541 0bc9 54010000 		.4byte	.LVL316
 7542 0bcd 58010000 		.4byte	.LVL317
 7543 0bd1 0200     		.2byte	0x2
 7544 0bd3 30       		.byte	0x30
 7545 0bd4 9F       		.byte	0x9f
 7546 0bd5 58010000 		.4byte	.LVL317
 7547 0bd9 A4010000 		.4byte	.LVL331
 7548 0bdd 0100     		.2byte	0x1
ARM GAS  C:\Users\glenn\AppData\Local\Temp\cc3rYttq.s 			page 150


 7549 0bdf 58       		.byte	0x58
 7550 0be0 A4010000 		.4byte	.LVL331
 7551 0be4 AA010000 		.4byte	.LVL332
 7552 0be8 0300     		.2byte	0x3
 7553 0bea 78       		.byte	0x78
 7554 0beb 01       		.sleb128 1
 7555 0bec 9F       		.byte	0x9f
 7556 0bed 00000000 		.4byte	0
 7557 0bf1 00000000 		.4byte	0
 7558              	.LLST94:
 7559 0bf5 B0010000 		.4byte	.LVL333
 7560 0bf9 C0010000 		.4byte	.LVL334
 7561 0bfd 0A00     		.2byte	0xa
 7562 0bff 91       		.byte	0x91
 7563 0c00 4D       		.sleb128 -51
 7564 0c01 94       		.byte	0x94
 7565 0c02 01       		.byte	0x1
 7566 0c03 08       		.byte	0x8
 7567 0c04 FF       		.byte	0xff
 7568 0c05 1A       		.byte	0x1a
 7569 0c06 38       		.byte	0x38
 7570 0c07 24       		.byte	0x24
 7571 0c08 9F       		.byte	0x9f
 7572 0c09 C0010000 		.4byte	.LVL334
 7573 0c0d C6010000 		.4byte	.LVL336
 7574 0c11 0100     		.2byte	0x1
 7575 0c13 53       		.byte	0x53
 7576 0c14 C6010000 		.4byte	.LVL336
 7577 0c18 C8010000 		.4byte	.LVL337
 7578 0c1c 0D00     		.2byte	0xd
 7579 0c1e 91       		.byte	0x91
 7580 0c1f 4D       		.sleb128 -51
 7581 0c20 94       		.byte	0x94
 7582 0c21 01       		.byte	0x1
 7583 0c22 08       		.byte	0x8
 7584 0c23 FF       		.byte	0xff
 7585 0c24 1A       		.byte	0x1a
 7586 0c25 38       		.byte	0x38
 7587 0c26 24       		.byte	0x24
 7588 0c27 70       		.byte	0x70
 7589 0c28 00       		.sleb128 0
 7590 0c29 21       		.byte	0x21
 7591 0c2a 9F       		.byte	0x9f
 7592 0c2b D8010000 		.4byte	.LVL341
 7593 0c2f DC010000 		.4byte	.LVL343
 7594 0c33 0100     		.2byte	0x1
 7595 0c35 53       		.byte	0x53
 7596 0c36 DC010000 		.4byte	.LVL343
 7597 0c3a DE010000 		.4byte	.LVL344
 7598 0c3e 0700     		.2byte	0x7
 7599 0c40 73       		.byte	0x73
 7600 0c41 00       		.sleb128 0
 7601 0c42 0A       		.byte	0xa
 7602 0c43 00FF     		.2byte	0xff00
 7603 0c45 1A       		.byte	0x1a
 7604 0c46 9F       		.byte	0x9f
 7605 0c47 DE010000 		.4byte	.LVL344
ARM GAS  C:\Users\glenn\AppData\Local\Temp\cc3rYttq.s 			page 151


 7606 0c4b E0010000 		.4byte	.LVL345
 7607 0c4f 0800     		.2byte	0x8
 7608 0c51 73       		.byte	0x73
 7609 0c52 C000     		.sleb128 64
 7610 0c54 0A       		.byte	0xa
 7611 0c55 00FF     		.2byte	0xff00
 7612 0c57 1A       		.byte	0x1a
 7613 0c58 9F       		.byte	0x9f
 7614 0c59 E0010000 		.4byte	.LVL345
 7615 0c5d FE010000 		.4byte	.LFE71
 7616 0c61 0100     		.2byte	0x1
 7617 0c63 54       		.byte	0x54
 7618 0c64 00000000 		.4byte	0
 7619 0c68 00000000 		.4byte	0
 7620              	.LLST95:
 7621 0c6c C4010000 		.4byte	.LVL335
 7622 0c70 C6010000 		.4byte	.LVL336
 7623 0c74 0100     		.2byte	0x1
 7624 0c76 53       		.byte	0x53
 7625 0c77 C6010000 		.4byte	.LVL336
 7626 0c7b C8010000 		.4byte	.LVL337
 7627 0c7f 0D00     		.2byte	0xd
 7628 0c81 91       		.byte	0x91
 7629 0c82 4D       		.sleb128 -51
 7630 0c83 94       		.byte	0x94
 7631 0c84 01       		.byte	0x1
 7632 0c85 08       		.byte	0x8
 7633 0c86 FF       		.byte	0xff
 7634 0c87 1A       		.byte	0x1a
 7635 0c88 38       		.byte	0x38
 7636 0c89 24       		.byte	0x24
 7637 0c8a 70       		.byte	0x70
 7638 0c8b 00       		.sleb128 0
 7639 0c8c 21       		.byte	0x21
 7640 0c8d 9F       		.byte	0x9f
 7641 0c8e C8010000 		.4byte	.LVL337
 7642 0c92 D8010000 		.4byte	.LVL341
 7643 0c96 0100     		.2byte	0x1
 7644 0c98 50       		.byte	0x50
 7645 0c99 EA010000 		.4byte	.LVL346
 7646 0c9d EC010000 		.4byte	.LVL347
 7647 0ca1 0100     		.2byte	0x1
 7648 0ca3 50       		.byte	0x50
 7649 0ca4 EC010000 		.4byte	.LVL347
 7650 0ca8 EE010000 		.4byte	.LVL348
 7651 0cac 0B00     		.2byte	0xb
 7652 0cae 71       		.byte	0x71
 7653 0caf 00       		.sleb128 0
 7654 0cb0 73       		.byte	0x73
 7655 0cb1 0A       		.sleb128 10
 7656 0cb2 94       		.byte	0x94
 7657 0cb3 01       		.byte	0x1
 7658 0cb4 08       		.byte	0x8
 7659 0cb5 FF       		.byte	0xff
 7660 0cb6 1A       		.byte	0x1a
 7661 0cb7 1C       		.byte	0x1c
 7662 0cb8 9F       		.byte	0x9f
ARM GAS  C:\Users\glenn\AppData\Local\Temp\cc3rYttq.s 			page 152


 7663 0cb9 EE010000 		.4byte	.LVL348
 7664 0cbd F5010000 		.4byte	.LVL349-1
 7665 0cc1 0100     		.2byte	0x1
 7666 0cc3 50       		.byte	0x50
 7667 0cc4 F8010000 		.4byte	.LVL350
 7668 0cc8 FA010000 		.4byte	.LVL351
 7669 0ccc 0100     		.2byte	0x1
 7670 0cce 50       		.byte	0x50
 7671 0ccf FC010000 		.4byte	.LVL352
 7672 0cd3 FE010000 		.4byte	.LFE71
 7673 0cd7 0100     		.2byte	0x1
 7674 0cd9 50       		.byte	0x50
 7675 0cda 00000000 		.4byte	0
 7676 0cde 00000000 		.4byte	0
 7677              	.LLST96:
 7678 0ce2 12000000 		.4byte	.LVL262
 7679 0ce6 15000000 		.4byte	.LVL263-1
 7680 0cea 0100     		.2byte	0x1
 7681 0cec 50       		.byte	0x50
 7682 0ced 15000000 		.4byte	.LVL263-1
 7683 0cf1 C8010000 		.4byte	.LVL337
 7684 0cf5 0100     		.2byte	0x1
 7685 0cf7 54       		.byte	0x54
 7686 0cf8 C8010000 		.4byte	.LVL337
 7687 0cfc D8010000 		.4byte	.LVL341
 7688 0d00 0400     		.2byte	0x4
 7689 0d02 F3       		.byte	0xf3
 7690 0d03 01       		.uleb128 0x1
 7691 0d04 50       		.byte	0x50
 7692 0d05 9F       		.byte	0x9f
 7693 0d06 D8010000 		.4byte	.LVL341
 7694 0d0a E0010000 		.4byte	.LVL345
 7695 0d0e 0100     		.2byte	0x1
 7696 0d10 54       		.byte	0x54
 7697 0d11 E0010000 		.4byte	.LVL345
 7698 0d15 FE010000 		.4byte	.LFE71
 7699 0d19 0400     		.2byte	0x4
 7700 0d1b F3       		.byte	0xf3
 7701 0d1c 01       		.uleb128 0x1
 7702 0d1d 50       		.byte	0x50
 7703 0d1e 9F       		.byte	0x9f
 7704 0d1f 00000000 		.4byte	0
 7705 0d23 00000000 		.4byte	0
 7706              	.LLST97:
 7707 0d27 1A000000 		.4byte	.LVL264
 7708 0d2b 4C000000 		.4byte	.LVL272
 7709 0d2f 0100     		.2byte	0x1
 7710 0d31 55       		.byte	0x55
 7711 0d32 00000000 		.4byte	0
 7712 0d36 00000000 		.4byte	0
 7713              	.LLST98:
 7714 0d3a 44000000 		.4byte	.LVL271
 7715 0d3e C8010000 		.4byte	.LVL337
 7716 0d42 0100     		.2byte	0x1
 7717 0d44 54       		.byte	0x54
 7718 0d45 C8010000 		.4byte	.LVL337
 7719 0d49 D8010000 		.4byte	.LVL341
ARM GAS  C:\Users\glenn\AppData\Local\Temp\cc3rYttq.s 			page 153


 7720 0d4d 0400     		.2byte	0x4
 7721 0d4f F3       		.byte	0xf3
 7722 0d50 01       		.uleb128 0x1
 7723 0d51 50       		.byte	0x50
 7724 0d52 9F       		.byte	0x9f
 7725 0d53 D8010000 		.4byte	.LVL341
 7726 0d57 E0010000 		.4byte	.LVL345
 7727 0d5b 0100     		.2byte	0x1
 7728 0d5d 54       		.byte	0x54
 7729 0d5e E0010000 		.4byte	.LVL345
 7730 0d62 FE010000 		.4byte	.LFE71
 7731 0d66 0400     		.2byte	0x4
 7732 0d68 F3       		.byte	0xf3
 7733 0d69 01       		.uleb128 0x1
 7734 0d6a 50       		.byte	0x50
 7735 0d6b 9F       		.byte	0x9f
 7736 0d6c 00000000 		.4byte	0
 7737 0d70 00000000 		.4byte	0
 7738              	.LLST99:
 7739 0d74 90000000 		.4byte	.LVL283
 7740 0d78 A2000000 		.4byte	.LVL284
 7741 0d7c 0200     		.2byte	0x2
 7742 0d7e 30       		.byte	0x30
 7743 0d7f 9F       		.byte	0x9f
 7744 0d80 A2000000 		.4byte	.LVL284
 7745 0d84 EC000000 		.4byte	.LVL295
 7746 0d88 0800     		.2byte	0x8
 7747 0d8a 7A       		.byte	0x7a
 7748 0d8b 00       		.sleb128 0
 7749 0d8c 91       		.byte	0x91
 7750 0d8d 44       		.sleb128 -60
 7751 0d8e 94       		.byte	0x94
 7752 0d8f 01       		.byte	0x1
 7753 0d90 1C       		.byte	0x1c
 7754 0d91 9F       		.byte	0x9f
 7755 0d92 EC000000 		.4byte	.LVL295
 7756 0d96 F2000000 		.4byte	.LVL296
 7757 0d9a 0A00     		.2byte	0xa
 7758 0d9c 7A       		.byte	0x7a
 7759 0d9d 00       		.sleb128 0
 7760 0d9e 91       		.byte	0x91
 7761 0d9f 44       		.sleb128 -60
 7762 0da0 94       		.byte	0x94
 7763 0da1 01       		.byte	0x1
 7764 0da2 1C       		.byte	0x1c
 7765 0da3 23       		.byte	0x23
 7766 0da4 01       		.uleb128 0x1
 7767 0da5 9F       		.byte	0x9f
 7768 0da6 00000000 		.4byte	0
 7769 0daa 00000000 		.4byte	0
 7770              	.LLST100:
 7771 0dae 44000000 		.4byte	.LVL271
 7772 0db2 4E000000 		.4byte	.LVL273
 7773 0db6 0200     		.2byte	0x2
 7774 0db8 30       		.byte	0x30
 7775 0db9 9F       		.byte	0x9f
 7776 0dba 4E000000 		.4byte	.LVL273
ARM GAS  C:\Users\glenn\AppData\Local\Temp\cc3rYttq.s 			page 154


 7777 0dbe 80000000 		.4byte	.LVL281
 7778 0dc2 0100     		.2byte	0x1
 7779 0dc4 55       		.byte	0x55
 7780 0dc5 00000000 		.4byte	0
 7781 0dc9 00000000 		.4byte	0
 7782              	.LLST101:
 7783 0dcd 68000000 		.4byte	.LVL277
 7784 0dd1 72000000 		.4byte	.LVL278
 7785 0dd5 0500     		.2byte	0x5
 7786 0dd7 76       		.byte	0x76
 7787 0dd8 00       		.sleb128 0
 7788 0dd9 31       		.byte	0x31
 7789 0dda 1A       		.byte	0x1a
 7790 0ddb 9F       		.byte	0x9f
 7791 0ddc 00000000 		.4byte	0
 7792 0de0 00000000 		.4byte	0
 7793              	.LLST103:
 7794 0de4 68000000 		.4byte	.LVL277
 7795 0de8 C8010000 		.4byte	.LVL337
 7796 0dec 0100     		.2byte	0x1
 7797 0dee 54       		.byte	0x54
 7798 0def C8010000 		.4byte	.LVL337
 7799 0df3 D8010000 		.4byte	.LVL341
 7800 0df7 0400     		.2byte	0x4
 7801 0df9 F3       		.byte	0xf3
 7802 0dfa 01       		.uleb128 0x1
 7803 0dfb 50       		.byte	0x50
 7804 0dfc 9F       		.byte	0x9f
 7805 0dfd D8010000 		.4byte	.LVL341
 7806 0e01 E0010000 		.4byte	.LVL345
 7807 0e05 0100     		.2byte	0x1
 7808 0e07 54       		.byte	0x54
 7809 0e08 E0010000 		.4byte	.LVL345
 7810 0e0c FE010000 		.4byte	.LFE71
 7811 0e10 0400     		.2byte	0x4
 7812 0e12 F3       		.byte	0xf3
 7813 0e13 01       		.uleb128 0x1
 7814 0e14 50       		.byte	0x50
 7815 0e15 9F       		.byte	0x9f
 7816 0e16 00000000 		.4byte	0
 7817 0e1a 00000000 		.4byte	0
 7818              	.LLST104:
 7819 0e1e 68000000 		.4byte	.LVL277
 7820 0e22 A2000000 		.4byte	.LVL284
 7821 0e26 0100     		.2byte	0x1
 7822 0e28 57       		.byte	0x57
 7823 0e29 00000000 		.4byte	0
 7824 0e2d 00000000 		.4byte	0
 7825              	.LLST105:
 7826 0e31 A2000000 		.4byte	.LVL284
 7827 0e35 AA000000 		.4byte	.LVL285
 7828 0e39 0200     		.2byte	0x2
 7829 0e3b 7A       		.byte	0x7a
 7830 0e3c 00       		.sleb128 0
 7831 0e3d AA000000 		.4byte	.LVL285
 7832 0e41 0E010000 		.4byte	.LVL303
 7833 0e45 0100     		.2byte	0x1
ARM GAS  C:\Users\glenn\AppData\Local\Temp\cc3rYttq.s 			page 155


 7834 0e47 58       		.byte	0x58
 7835 0e48 00000000 		.4byte	0
 7836 0e4c 00000000 		.4byte	0
 7837              	.LLST106:
 7838 0e50 A2000000 		.4byte	.LVL284
 7839 0e54 C8010000 		.4byte	.LVL337
 7840 0e58 0100     		.2byte	0x1
 7841 0e5a 54       		.byte	0x54
 7842 0e5b C8010000 		.4byte	.LVL337
 7843 0e5f D8010000 		.4byte	.LVL341
 7844 0e63 0400     		.2byte	0x4
 7845 0e65 F3       		.byte	0xf3
 7846 0e66 01       		.uleb128 0x1
 7847 0e67 50       		.byte	0x50
 7848 0e68 9F       		.byte	0x9f
 7849 0e69 D8010000 		.4byte	.LVL341
 7850 0e6d E0010000 		.4byte	.LVL345
 7851 0e71 0100     		.2byte	0x1
 7852 0e73 54       		.byte	0x54
 7853 0e74 E0010000 		.4byte	.LVL345
 7854 0e78 FE010000 		.4byte	.LFE71
 7855 0e7c 0400     		.2byte	0x4
 7856 0e7e F3       		.byte	0xf3
 7857 0e7f 01       		.uleb128 0x1
 7858 0e80 50       		.byte	0x50
 7859 0e81 9F       		.byte	0x9f
 7860 0e82 00000000 		.4byte	0
 7861 0e86 00000000 		.4byte	0
 7862              	.LLST107:
 7863 0e8a A2000000 		.4byte	.LVL284
 7864 0e8e AA000000 		.4byte	.LVL285
 7865 0e92 0200     		.2byte	0x2
 7866 0e94 30       		.byte	0x30
 7867 0e95 9F       		.byte	0x9f
 7868 0e96 AA000000 		.4byte	.LVL285
 7869 0e9a DC000000 		.4byte	.LVL293
 7870 0e9e 0100     		.2byte	0x1
 7871 0ea0 55       		.byte	0x55
 7872 0ea1 00000000 		.4byte	0
 7873 0ea5 00000000 		.4byte	0
 7874              	.LLST108:
 7875 0ea9 C4000000 		.4byte	.LVL289
 7876 0ead 0E010000 		.4byte	.LVL303
 7877 0eb1 0500     		.2byte	0x5
 7878 0eb3 76       		.byte	0x76
 7879 0eb4 00       		.sleb128 0
 7880 0eb5 31       		.byte	0x31
 7881 0eb6 1A       		.byte	0x1a
 7882 0eb7 9F       		.byte	0x9f
 7883 0eb8 00000000 		.4byte	0
 7884 0ebc 00000000 		.4byte	0
 7885              	.LLST110:
 7886 0ec0 C4000000 		.4byte	.LVL289
 7887 0ec4 C8010000 		.4byte	.LVL337
 7888 0ec8 0100     		.2byte	0x1
 7889 0eca 54       		.byte	0x54
 7890 0ecb C8010000 		.4byte	.LVL337
ARM GAS  C:\Users\glenn\AppData\Local\Temp\cc3rYttq.s 			page 156


 7891 0ecf D8010000 		.4byte	.LVL341
 7892 0ed3 0400     		.2byte	0x4
 7893 0ed5 F3       		.byte	0xf3
 7894 0ed6 01       		.uleb128 0x1
 7895 0ed7 50       		.byte	0x50
 7896 0ed8 9F       		.byte	0x9f
 7897 0ed9 D8010000 		.4byte	.LVL341
 7898 0edd E0010000 		.4byte	.LVL345
 7899 0ee1 0100     		.2byte	0x1
 7900 0ee3 54       		.byte	0x54
 7901 0ee4 E0010000 		.4byte	.LVL345
 7902 0ee8 FE010000 		.4byte	.LFE71
 7903 0eec 0400     		.2byte	0x4
 7904 0eee F3       		.byte	0xf3
 7905 0eef 01       		.uleb128 0x1
 7906 0ef0 50       		.byte	0x50
 7907 0ef1 9F       		.byte	0x9f
 7908 0ef2 00000000 		.4byte	0
 7909 0ef6 00000000 		.4byte	0
 7910              	.LLST111:
 7911 0efa C4000000 		.4byte	.LVL289
 7912 0efe FE000000 		.4byte	.LVL299
 7913 0f02 0100     		.2byte	0x1
 7914 0f04 57       		.byte	0x57
 7915 0f05 00000000 		.4byte	0
 7916 0f09 00000000 		.4byte	0
 7917              	.LLST112:
 7918 0f0d F6000000 		.4byte	.LVL297
 7919 0f11 0E010000 		.4byte	.LVL303
 7920 0f15 0200     		.2byte	0x2
 7921 0f17 30       		.byte	0x30
 7922 0f18 9F       		.byte	0x9f
 7923 0f19 20010000 		.4byte	.LVL306
 7924 0f1d 42010000 		.4byte	.LVL311
 7925 0f21 0100     		.2byte	0x1
 7926 0f23 55       		.byte	0x55
 7927 0f24 44010000 		.4byte	.LVL312
 7928 0f28 4C010000 		.4byte	.LVL314
 7929 0f2c 0100     		.2byte	0x1
 7930 0f2e 55       		.byte	0x55
 7931 0f2f 4E010000 		.4byte	.LVL315
 7932 0f33 58010000 		.4byte	.LVL317
 7933 0f37 0100     		.2byte	0x1
 7934 0f39 55       		.byte	0x55
 7935 0f3a 00000000 		.4byte	0
 7936 0f3e 00000000 		.4byte	0
 7937              	.LLST113:
 7938 0f42 F6000000 		.4byte	.LVL297
 7939 0f46 0E010000 		.4byte	.LVL303
 7940 0f4a 0200     		.2byte	0x2
 7941 0f4c 30       		.byte	0x30
 7942 0f4d 9F       		.byte	0x9f
 7943 0f4e 36010000 		.4byte	.LVL309
 7944 0f52 4E010000 		.4byte	.LVL315
 7945 0f56 0500     		.2byte	0x5
 7946 0f58 76       		.byte	0x76
 7947 0f59 00       		.sleb128 0
ARM GAS  C:\Users\glenn\AppData\Local\Temp\cc3rYttq.s 			page 157


 7948 0f5a 31       		.byte	0x31
 7949 0f5b 1A       		.byte	0x1a
 7950 0f5c 9F       		.byte	0x9f
 7951 0f5d 00000000 		.4byte	0
 7952 0f61 00000000 		.4byte	0
 7953              	.LLST115:
 7954 0f65 F6000000 		.4byte	.LVL297
 7955 0f69 C8010000 		.4byte	.LVL337
 7956 0f6d 0100     		.2byte	0x1
 7957 0f6f 54       		.byte	0x54
 7958 0f70 C8010000 		.4byte	.LVL337
 7959 0f74 D8010000 		.4byte	.LVL341
 7960 0f78 0400     		.2byte	0x4
 7961 0f7a F3       		.byte	0xf3
 7962 0f7b 01       		.uleb128 0x1
 7963 0f7c 50       		.byte	0x50
 7964 0f7d 9F       		.byte	0x9f
 7965 0f7e D8010000 		.4byte	.LVL341
 7966 0f82 E0010000 		.4byte	.LVL345
 7967 0f86 0100     		.2byte	0x1
 7968 0f88 54       		.byte	0x54
 7969 0f89 E0010000 		.4byte	.LVL345
 7970 0f8d FE010000 		.4byte	.LFE71
 7971 0f91 0400     		.2byte	0x4
 7972 0f93 F3       		.byte	0xf3
 7973 0f94 01       		.uleb128 0x1
 7974 0f95 50       		.byte	0x50
 7975 0f96 9F       		.byte	0x9f
 7976 0f97 00000000 		.4byte	0
 7977 0f9b 00000000 		.4byte	0
 7978              	.LLST116:
 7979 0f9f FE000000 		.4byte	.LVL299
 7980 0fa3 00010000 		.4byte	.LVL300
 7981 0fa7 0100     		.2byte	0x1
 7982 0fa9 50       		.byte	0x50
 7983 0faa 00010000 		.4byte	.LVL300
 7984 0fae 0E010000 		.4byte	.LVL303
 7985 0fb2 0100     		.2byte	0x1
 7986 0fb4 57       		.byte	0x57
 7987 0fb5 36010000 		.4byte	.LVL309
 7988 0fb9 4E010000 		.4byte	.LVL315
 7989 0fbd 0100     		.2byte	0x1
 7990 0fbf 57       		.byte	0x57
 7991 0fc0 00000000 		.4byte	0
 7992 0fc4 00000000 		.4byte	0
 7993              	.LLST117:
 7994 0fc8 58010000 		.4byte	.LVL317
 7995 0fcc C8010000 		.4byte	.LVL337
 7996 0fd0 0100     		.2byte	0x1
 7997 0fd2 54       		.byte	0x54
 7998 0fd3 C8010000 		.4byte	.LVL337
 7999 0fd7 D8010000 		.4byte	.LVL341
 8000 0fdb 0400     		.2byte	0x4
 8001 0fdd F3       		.byte	0xf3
 8002 0fde 01       		.uleb128 0x1
 8003 0fdf 50       		.byte	0x50
 8004 0fe0 9F       		.byte	0x9f
ARM GAS  C:\Users\glenn\AppData\Local\Temp\cc3rYttq.s 			page 158


 8005 0fe1 D8010000 		.4byte	.LVL341
 8006 0fe5 E0010000 		.4byte	.LVL345
 8007 0fe9 0100     		.2byte	0x1
 8008 0feb 54       		.byte	0x54
 8009 0fec E0010000 		.4byte	.LVL345
 8010 0ff0 FE010000 		.4byte	.LFE71
 8011 0ff4 0400     		.2byte	0x4
 8012 0ff6 F3       		.byte	0xf3
 8013 0ff7 01       		.uleb128 0x1
 8014 0ff8 50       		.byte	0x50
 8015 0ff9 9F       		.byte	0x9f
 8016 0ffa 00000000 		.4byte	0
 8017 0ffe 00000000 		.4byte	0
 8018              	.LLST118:
 8019 1002 58010000 		.4byte	.LVL317
 8020 1006 5C010000 		.4byte	.LVL318
 8021 100a 0200     		.2byte	0x2
 8022 100c 30       		.byte	0x30
 8023 100d 9F       		.byte	0x9f
 8024 100e 5C010000 		.4byte	.LVL318
 8025 1012 96010000 		.4byte	.LVL329
 8026 1016 0100     		.2byte	0x1
 8027 1018 55       		.byte	0x55
 8028 1019 00000000 		.4byte	0
 8029 101d 00000000 		.4byte	0
 8030              	.LLST119:
 8031 1021 58010000 		.4byte	.LVL317
 8032 1025 5C010000 		.4byte	.LVL318
 8033 1029 0200     		.2byte	0x2
 8034 102b 30       		.byte	0x30
 8035 102c 9F       		.byte	0x9f
 8036 102d 5C010000 		.4byte	.LVL318
 8037 1031 CC010000 		.4byte	.LVL338
 8038 1035 0100     		.2byte	0x1
 8039 1037 56       		.byte	0x56
 8040 1038 D8010000 		.4byte	.LVL341
 8041 103c FE010000 		.4byte	.LFE71
 8042 1040 0100     		.2byte	0x1
 8043 1042 56       		.byte	0x56
 8044 1043 00000000 		.4byte	0
 8045 1047 00000000 		.4byte	0
 8046              	.LLST120:
 8047 104b 5C010000 		.4byte	.LVL318
 8048 104f C8010000 		.4byte	.LVL337
 8049 1053 0100     		.2byte	0x1
 8050 1055 54       		.byte	0x54
 8051 1056 C8010000 		.4byte	.LVL337
 8052 105a D8010000 		.4byte	.LVL341
 8053 105e 0400     		.2byte	0x4
 8054 1060 F3       		.byte	0xf3
 8055 1061 01       		.uleb128 0x1
 8056 1062 50       		.byte	0x50
 8057 1063 9F       		.byte	0x9f
 8058 1064 D8010000 		.4byte	.LVL341
 8059 1068 E0010000 		.4byte	.LVL345
 8060 106c 0100     		.2byte	0x1
 8061 106e 54       		.byte	0x54
ARM GAS  C:\Users\glenn\AppData\Local\Temp\cc3rYttq.s 			page 159


 8062 106f E0010000 		.4byte	.LVL345
 8063 1073 FE010000 		.4byte	.LFE71
 8064 1077 0400     		.2byte	0x4
 8065 1079 F3       		.byte	0xf3
 8066 107a 01       		.uleb128 0x1
 8067 107b 50       		.byte	0x50
 8068 107c 9F       		.byte	0x9f
 8069 107d 00000000 		.4byte	0
 8070 1081 00000000 		.4byte	0
 8071              	.LLST121:
 8072 1085 80010000 		.4byte	.LVL326
 8073 1089 CC010000 		.4byte	.LVL339
 8074 108d 0100     		.2byte	0x1
 8075 108f 57       		.byte	0x57
 8076 1090 D8010000 		.4byte	.LVL341
 8077 1094 FE010000 		.4byte	.LFE71
 8078 1098 0100     		.2byte	0x1
 8079 109a 57       		.byte	0x57
 8080 109b 00000000 		.4byte	0
 8081 109f 00000000 		.4byte	0
 8082              	.LLST122:
 8083 10a3 64010000 		.4byte	.LVL320
 8084 10a7 CC010000 		.4byte	.LVL340
 8085 10ab 0100     		.2byte	0x1
 8086 10ad 5A       		.byte	0x5a
 8087 10ae D8010000 		.4byte	.LVL341
 8088 10b2 FE010000 		.4byte	.LFE71
 8089 10b6 0100     		.2byte	0x1
 8090 10b8 5A       		.byte	0x5a
 8091 10b9 00000000 		.4byte	0
 8092 10bd 00000000 		.4byte	0
 8093              		.section	.debug_aranges,"",%progbits
 8094 0000 64000000 		.4byte	0x64
 8095 0004 0200     		.2byte	0x2
 8096 0006 00000000 		.4byte	.Ldebug_info0
 8097 000a 04       		.byte	0x4
 8098 000b 00       		.byte	0
 8099 000c 0000     		.2byte	0
 8100 000e 0000     		.2byte	0
 8101 0010 00000000 		.4byte	.LFB62
 8102 0014 3C000000 		.4byte	.LFE62-.LFB62
 8103 0018 00000000 		.4byte	.LFB63
 8104 001c 32000000 		.4byte	.LFE63-.LFB63
 8105 0020 00000000 		.4byte	.LFB64
 8106 0024 36000000 		.4byte	.LFE64-.LFB64
 8107 0028 00000000 		.4byte	.LFB65
 8108 002c 56000000 		.4byte	.LFE65-.LFB65
 8109 0030 00000000 		.4byte	.LFB66
 8110 0034 5C000000 		.4byte	.LFE66-.LFB66
 8111 0038 00000000 		.4byte	.LFB67
 8112 003c C4000000 		.4byte	.LFE67-.LFB67
 8113 0040 00000000 		.4byte	.LFB68
 8114 0044 48020000 		.4byte	.LFE68-.LFB68
 8115 0048 00000000 		.4byte	.LFB69
 8116 004c 14000000 		.4byte	.LFE69-.LFB69
 8117 0050 00000000 		.4byte	.LFB70
 8118 0054 5A010000 		.4byte	.LFE70-.LFB70
ARM GAS  C:\Users\glenn\AppData\Local\Temp\cc3rYttq.s 			page 160


 8119 0058 00000000 		.4byte	.LFB71
 8120 005c FE010000 		.4byte	.LFE71-.LFB71
 8121 0060 00000000 		.4byte	0
 8122 0064 00000000 		.4byte	0
 8123              		.section	.debug_ranges,"",%progbits
 8124              	.Ldebug_ranges0:
 8125 0000 12000000 		.4byte	.LBB12
 8126 0004 16000000 		.4byte	.LBE12
 8127 0008 18000000 		.4byte	.LBB17
 8128 000c 20000000 		.4byte	.LBE17
 8129 0010 22000000 		.4byte	.LBB18
 8130 0014 2A000000 		.4byte	.LBE18
 8131 0018 2C000000 		.4byte	.LBB19
 8132 001c 4A000000 		.4byte	.LBE19
 8133 0020 00000000 		.4byte	0
 8134 0024 00000000 		.4byte	0
 8135 0028 02000000 		.4byte	.LBB28
 8136 002c 04000000 		.4byte	.LBE28
 8137 0030 0C000000 		.4byte	.LBB40
 8138 0034 10000000 		.4byte	.LBE40
 8139 0038 18000000 		.4byte	.LBB41
 8140 003c 62000000 		.4byte	.LBE41
 8141 0040 00000000 		.4byte	0
 8142 0044 00000000 		.4byte	0
 8143 0048 1A000000 		.4byte	.LBB30
 8144 004c 1E000000 		.4byte	.LBE30
 8145 0050 20000000 		.4byte	.LBB35
 8146 0054 28000000 		.4byte	.LBE35
 8147 0058 2A000000 		.4byte	.LBB36
 8148 005c 32000000 		.4byte	.LBE36
 8149 0060 34000000 		.4byte	.LBB37
 8150 0064 52000000 		.4byte	.LBE37
 8151 0068 00000000 		.4byte	0
 8152 006c 00000000 		.4byte	0
 8153 0070 62000000 		.4byte	.LBB42
 8154 0074 68000000 		.4byte	.LBE42
 8155 0078 6C000000 		.4byte	.LBB53
 8156 007c B4000000 		.4byte	.LBE53
 8157 0080 00000000 		.4byte	0
 8158 0084 00000000 		.4byte	0
 8159 0088 6C000000 		.4byte	.LBB44
 8160 008c 70000000 		.4byte	.LBE44
 8161 0090 72000000 		.4byte	.LBB49
 8162 0094 7A000000 		.4byte	.LBE49
 8163 0098 7C000000 		.4byte	.LBB50
 8164 009c 84000000 		.4byte	.LBE50
 8165 00a0 86000000 		.4byte	.LBB51
 8166 00a4 A4000000 		.4byte	.LBE51
 8167 00a8 00000000 		.4byte	0
 8168 00ac 00000000 		.4byte	0
 8169 00b0 78000000 		.4byte	.LBB76
 8170 00b4 8A000000 		.4byte	.LBE76
 8171 00b8 8C000000 		.4byte	.LBB83
 8172 00bc 8E000000 		.4byte	.LBE83
 8173 00c0 90000000 		.4byte	.LBB84
 8174 00c4 A2000000 		.4byte	.LBE84
 8175 00c8 A8000000 		.4byte	.LBB85
ARM GAS  C:\Users\glenn\AppData\Local\Temp\cc3rYttq.s 			page 161


 8176 00cc AC000000 		.4byte	.LBE85
 8177 00d0 AE000000 		.4byte	.LBB86
 8178 00d4 B6000000 		.4byte	.LBE86
 8179 00d8 B8000000 		.4byte	.LBB87
 8180 00dc D0000000 		.4byte	.LBE87
 8181 00e0 00000000 		.4byte	0
 8182 00e4 00000000 		.4byte	0
 8183 00e8 08010000 		.4byte	.LBB88
 8184 00ec 26010000 		.4byte	.LBE88
 8185 00f0 28010000 		.4byte	.LBB94
 8186 00f4 2E010000 		.4byte	.LBE94
 8187 00f8 30010000 		.4byte	.LBB95
 8188 00fc 32010000 		.4byte	.LBE95
 8189 0100 34010000 		.4byte	.LBB96
 8190 0104 38010000 		.4byte	.LBE96
 8191 0108 E4010000 		.4byte	.LBB103
 8192 010c F8010000 		.4byte	.LBE103
 8193 0110 00000000 		.4byte	0
 8194 0114 00000000 		.4byte	0
 8195 0118 7E010000 		.4byte	.LBB99
 8196 011c 82010000 		.4byte	.LBE99
 8197 0120 86010000 		.4byte	.LBB102
 8198 0124 AC010000 		.4byte	.LBE102
 8199 0128 00000000 		.4byte	0
 8200 012c 00000000 		.4byte	0
 8201 0130 10000000 		.4byte	.LBB122
 8202 0134 42000000 		.4byte	.LBE122
 8203 0138 48000000 		.4byte	.LBB152
 8204 013c 4A000000 		.4byte	.LBE152
 8205 0140 00000000 		.4byte	0
 8206 0144 00000000 		.4byte	0
 8207 0148 42000000 		.4byte	.LBB125
 8208 014c 48000000 		.4byte	.LBE125
 8209 0150 4A000000 		.4byte	.LBB153
 8210 0154 EA000000 		.4byte	.LBE153
 8211 0158 00000000 		.4byte	0
 8212 015c 00000000 		.4byte	0
 8213 0160 42000000 		.4byte	.LBB127
 8214 0164 48000000 		.4byte	.LBE127
 8215 0168 4A000000 		.4byte	.LBB138
 8216 016c 94000000 		.4byte	.LBE138
 8217 0170 00000000 		.4byte	0
 8218 0174 00000000 		.4byte	0
 8219 0178 4C000000 		.4byte	.LBB129
 8220 017c 50000000 		.4byte	.LBE129
 8221 0180 52000000 		.4byte	.LBB134
 8222 0184 5A000000 		.4byte	.LBE134
 8223 0188 5C000000 		.4byte	.LBB135
 8224 018c 64000000 		.4byte	.LBE135
 8225 0190 66000000 		.4byte	.LBB136
 8226 0194 84000000 		.4byte	.LBE136
 8227 0198 00000000 		.4byte	0
 8228 019c 00000000 		.4byte	0
 8229 01a0 94000000 		.4byte	.LBB139
 8230 01a4 9A000000 		.4byte	.LBE139
 8231 01a8 9E000000 		.4byte	.LBB150
 8232 01ac E6000000 		.4byte	.LBE150
ARM GAS  C:\Users\glenn\AppData\Local\Temp\cc3rYttq.s 			page 162


 8233 01b0 00000000 		.4byte	0
 8234 01b4 00000000 		.4byte	0
 8235 01b8 9E000000 		.4byte	.LBB141
 8236 01bc A2000000 		.4byte	.LBE141
 8237 01c0 A4000000 		.4byte	.LBB146
 8238 01c4 AC000000 		.4byte	.LBE146
 8239 01c8 AE000000 		.4byte	.LBB147
 8240 01cc B6000000 		.4byte	.LBE147
 8241 01d0 B8000000 		.4byte	.LBB148
 8242 01d4 D6000000 		.4byte	.LBE148
 8243 01d8 00000000 		.4byte	0
 8244 01dc 00000000 		.4byte	0
 8245 01e0 F0000000 		.4byte	.LBB156
 8246 01e4 02010000 		.4byte	.LBE156
 8247 01e8 06010000 		.4byte	.LBB162
 8248 01ec 1A010000 		.4byte	.LBE162
 8249 01f0 20010000 		.4byte	.LBB163
 8250 01f4 24010000 		.4byte	.LBE163
 8251 01f8 26010000 		.4byte	.LBB164
 8252 01fc 2E010000 		.4byte	.LBE164
 8253 0200 30010000 		.4byte	.LBB165
 8254 0204 48010000 		.4byte	.LBE165
 8255 0208 00000000 		.4byte	0
 8256 020c 00000000 		.4byte	0
 8257 0210 12000000 		.4byte	.LBB186
 8258 0214 44000000 		.4byte	.LBE186
 8259 0218 4A000000 		.4byte	.LBB216
 8260 021c 4C000000 		.4byte	.LBE216
 8261 0220 00000000 		.4byte	0
 8262 0224 00000000 		.4byte	0
 8263 0228 44000000 		.4byte	.LBB189
 8264 022c 4A000000 		.4byte	.LBE189
 8265 0230 4C000000 		.4byte	.LBB217
 8266 0234 F6000000 		.4byte	.LBE217
 8267 0238 00000000 		.4byte	0
 8268 023c 00000000 		.4byte	0
 8269 0240 44000000 		.4byte	.LBB191
 8270 0244 4A000000 		.4byte	.LBE191
 8271 0248 4C000000 		.4byte	.LBB202
 8272 024c 9E000000 		.4byte	.LBE202
 8273 0250 00000000 		.4byte	0
 8274 0254 00000000 		.4byte	0
 8275 0258 4E000000 		.4byte	.LBB193
 8276 025c 52000000 		.4byte	.LBE193
 8277 0260 54000000 		.4byte	.LBB198
 8278 0264 5C000000 		.4byte	.LBE198
 8279 0268 5E000000 		.4byte	.LBB199
 8280 026c 66000000 		.4byte	.LBE199
 8281 0270 68000000 		.4byte	.LBB200
 8282 0274 86000000 		.4byte	.LBE200
 8283 0278 00000000 		.4byte	0
 8284 027c 00000000 		.4byte	0
 8285 0280 9E000000 		.4byte	.LBB203
 8286 0284 A6000000 		.4byte	.LBE203
 8287 0288 AA000000 		.4byte	.LBB214
 8288 028c F2000000 		.4byte	.LBE214
 8289 0290 00000000 		.4byte	0
ARM GAS  C:\Users\glenn\AppData\Local\Temp\cc3rYttq.s 			page 163


 8290 0294 00000000 		.4byte	0
 8291 0298 AA000000 		.4byte	.LBB205
 8292 029c AE000000 		.4byte	.LBE205
 8293 02a0 B0000000 		.4byte	.LBB210
 8294 02a4 B8000000 		.4byte	.LBE210
 8295 02a8 BA000000 		.4byte	.LBB211
 8296 02ac C2000000 		.4byte	.LBE211
 8297 02b0 C4000000 		.4byte	.LBB212
 8298 02b4 E2000000 		.4byte	.LBE212
 8299 02b8 00000000 		.4byte	0
 8300 02bc 00000000 		.4byte	0
 8301 02c0 F6000000 		.4byte	.LBB220
 8302 02c4 08010000 		.4byte	.LBE220
 8303 02c8 0A010000 		.4byte	.LBB227
 8304 02cc 0C010000 		.4byte	.LBE227
 8305 02d0 0E010000 		.4byte	.LBB228
 8306 02d4 20010000 		.4byte	.LBE228
 8307 02d8 26010000 		.4byte	.LBB229
 8308 02dc 2A010000 		.4byte	.LBE229
 8309 02e0 2C010000 		.4byte	.LBB230
 8310 02e4 34010000 		.4byte	.LBE230
 8311 02e8 36010000 		.4byte	.LBB231
 8312 02ec 4E010000 		.4byte	.LBE231
 8313 02f0 00000000 		.4byte	0
 8314 02f4 00000000 		.4byte	0
 8315 02f8 00000000 		.4byte	.LFB62
 8316 02fc 3C000000 		.4byte	.LFE62
 8317 0300 00000000 		.4byte	.LFB63
 8318 0304 32000000 		.4byte	.LFE63
 8319 0308 00000000 		.4byte	.LFB64
 8320 030c 36000000 		.4byte	.LFE64
 8321 0310 00000000 		.4byte	.LFB65
 8322 0314 56000000 		.4byte	.LFE65
 8323 0318 00000000 		.4byte	.LFB66
 8324 031c 5C000000 		.4byte	.LFE66
 8325 0320 00000000 		.4byte	.LFB67
 8326 0324 C4000000 		.4byte	.LFE67
 8327 0328 00000000 		.4byte	.LFB68
 8328 032c 48020000 		.4byte	.LFE68
 8329 0330 00000000 		.4byte	.LFB69
 8330 0334 14000000 		.4byte	.LFE69
 8331 0338 00000000 		.4byte	.LFB70
 8332 033c 5A010000 		.4byte	.LFE70
 8333 0340 00000000 		.4byte	.LFB71
 8334 0344 FE010000 		.4byte	.LFE71
 8335 0348 00000000 		.4byte	0
 8336 034c 00000000 		.4byte	0
 8337              		.section	.debug_line,"",%progbits
 8338              	.Ldebug_line0:
 8339 0000 5D040000 		.section	.debug_str,"MS",%progbits,1
 8339      02006500 
 8339      00000201 
 8339      FB0E0D00 
 8339      01010101 
 8340              	.LASF16:
 8341 0000 50494E5F 		.ascii	"PIN_READ\000"
 8341      52454144 
ARM GAS  C:\Users\glenn\AppData\Local\Temp\cc3rYttq.s 			page 164


 8341      00
 8342              	.LASF10:
 8343 0009 75696E74 		.ascii	"uint16\000"
 8343      313600
 8344              	.LASF41:
 8345 0010 44533138 		.ascii	"DS1820_WriteBit\000"
 8345      32305F57 
 8345      72697465 
 8345      42697400 
 8346              	.LASF61:
 8347 0020 43794578 		.ascii	"CyExitCriticalSection\000"
 8347      69744372 
 8347      69746963 
 8347      616C5365 
 8347      6374696F 
 8348              	.LASF34:
 8349 0036 44533138 		.ascii	"DS1820_Reset\000"
 8349      32305F52 
 8349      65736574 
 8349      00
 8350              	.LASF35:
 8351 0043 62507265 		.ascii	"bPresPulse\000"
 8351      7350756C 
 8351      736500
 8352              	.LASF55:
 8353 004e 474E5520 		.ascii	"GNU C 4.9.3 20150303 (release) [ARM/embedded-4_9-br"
 8353      4320342E 
 8353      392E3320 
 8353      32303135 
 8353      30333033 
 8354 0081 616E6368 		.ascii	"anch revision 221220] -mcpu=cortex-m0 -mthumb -g -O"
 8354      20726576 
 8354      6973696F 
 8354      6E203232 
 8354      31323230 
 8355 00b4 32202D66 		.ascii	"2 -ffunction-sections -finline-functions -ffat-lto-"
 8355      66756E63 
 8355      74696F6E 
 8355      2D736563 
 8355      74696F6E 
 8356 00e7 6F626A65 		.ascii	"objects\000"
 8356      63747300 
 8357              	.LASF39:
 8358 00ef 44533138 		.ascii	"DS1820_ReadByte\000"
 8358      32305F52 
 8358      65616442 
 8358      79746500 
 8359              	.LASF42:
 8360 00ff 44533138 		.ascii	"DS1820_WriteByte\000"
 8360      32305F57 
 8360      72697465 
 8360      42797465 
 8360      00
 8361              	.LASF33:
 8362 0110 44533138 		.ascii	"DS1820_FindNextDevice\000"
 8362      32305F46 
 8362      696E644E 
ARM GAS  C:\Users\glenn\AppData\Local\Temp\cc3rYttq.s 			page 165


 8362      65787444 
 8362      65766963 
 8363              	.LASF43:
 8364 0126 76616C5F 		.ascii	"val_u8\000"
 8364      753800
 8365              	.LASF47:
 8366 012d 44533138 		.ascii	"DS1820_GetTempRaw\000"
 8366      32305F47 
 8366      65745465 
 8366      6D705261 
 8366      7700
 8367              	.LASF31:
 8368 013f 6E657874 		.ascii	"next_b\000"
 8368      5F6200
 8369              	.LASF7:
 8370 0146 6C6F6E67 		.ascii	"long long unsigned int\000"
 8370      206C6F6E 
 8370      6720756E 
 8370      7369676E 
 8370      65642069 
 8371              	.LASF23:
 8372 015d 61646472 		.ascii	"addr\000"
 8372      00
 8373              	.LASF32:
 8374 0162 63726338 		.ascii	"crc8\000"
 8374      00
 8375              	.LASF28:
 8376 0167 6E446973 		.ascii	"nDiscrepancyMarker_u8\000"
 8376      63726570 
 8376      616E6379 
 8376      4D61726B 
 8376      65725F75 
 8377              	.LASF6:
 8378 017d 6C6F6E67 		.ascii	"long long int\000"
 8378      206C6F6E 
 8378      6720696E 
 8378      7400
 8379              	.LASF0:
 8380 018b 7369676E 		.ascii	"signed char\000"
 8380      65642063 
 8380      68617200 
 8381              	.LASF27:
 8382 0197 62697470 		.ascii	"bitpos_u8\000"
 8382      6F735F75 
 8382      3800
 8383              	.LASF44:
 8384 01a1 74656D70 		.ascii	"temp\000"
 8384      00
 8385              	.LASF4:
 8386 01a6 6C6F6E67 		.ascii	"long int\000"
 8386      20696E74 
 8386      00
 8387              	.LASF25:
 8388 01af 62797465 		.ascii	"byteidx_u8\000"
 8388      6964785F 
 8388      753800
 8389              	.LASF29:
ARM GAS  C:\Users\glenn\AppData\Local\Temp\cc3rYttq.s 			page 166


 8390 01ba 6269745F 		.ascii	"bit_b\000"
 8390      6200
 8391              	.LASF9:
 8392 01c0 75696E74 		.ascii	"uint8\000"
 8392      3800
 8393              	.LASF54:
 8394 01c6 43794465 		.ascii	"CyDelayUs\000"
 8394      6C617955 
 8394      7300
 8395              	.LASF13:
 8396 01d0 646F7562 		.ascii	"double\000"
 8396      6C6500
 8397              	.LASF20:
 8398 01d7 4F4E455F 		.ascii	"ONE_WIRE_IO\000"
 8398      57495245 
 8398      5F494F00 
 8399              	.LASF40:
 8400 01e3 76616C75 		.ascii	"value\000"
 8400      6500
 8401              	.LASF56:
 8402 01e9 6F6E655F 		.ascii	"one_wire\\DS18B20.c\000"
 8402      77697265 
 8402      5C445331 
 8402      38423230 
 8402      2E6300
 8403              	.LASF8:
 8404 01fc 756E7369 		.ascii	"unsigned int\000"
 8404      676E6564 
 8404      20696E74 
 8404      00
 8405              	.LASF22:
 8406 0209 4F4E455F 		.ascii	"ONE_WIRE_ADDRESS\000"
 8406      57495245 
 8406      5F414444 
 8406      52455353 
 8406      00
 8407              	.LASF5:
 8408 021a 6C6F6E67 		.ascii	"long unsigned int\000"
 8408      20756E73 
 8408      69676E65 
 8408      6420696E 
 8408      7400
 8409              	.LASF60:
 8410 022c 4379456E 		.ascii	"CyEnterCriticalSection\000"
 8410      74657243 
 8410      72697469 
 8410      63616C53 
 8410      65637469 
 8411              	.LASF50:
 8412 0243 73637270 		.ascii	"scrpad\000"
 8412      616400
 8413              	.LASF49:
 8414 024a 68696768 		.ascii	"highres_u16\000"
 8414      7265735F 
 8414      75313600 
 8415              	.LASF3:
 8416 0256 73686F72 		.ascii	"short unsigned int\000"
ARM GAS  C:\Users\glenn\AppData\Local\Temp\cc3rYttq.s 			page 167


 8416      7420756E 
 8416      7369676E 
 8416      65642069 
 8416      6E7400
 8417              	.LASF46:
 8418 0269 44533138 		.ascii	"DS1820_FindFirstDevice\000"
 8418      32305F46 
 8418      696E6446 
 8418      69727374 
 8418      44657669 
 8419              	.LASF59:
 8420 0280 44533138 		.ascii	"DS1820_StartTemp_Reading\000"
 8420      32305F53 
 8420      74617274 
 8420      54656D70 
 8420      5F526561 
 8421              	.LASF24:
 8422 0299 73746174 		.ascii	"state_u8\000"
 8422      655F7538 
 8422      00
 8423              	.LASF17:
 8424 02a2 50494E5F 		.ascii	"PIN_WRITE\000"
 8424      57524954 
 8424      4500
 8425              	.LASF58:
 8426 02ac 636F6D70 		.ascii	"compute_crc8\000"
 8426      7574655F 
 8426      63726338 
 8426      00
 8427              	.LASF15:
 8428 02b9 73697A65 		.ascii	"sizetype\000"
 8428      74797065 
 8428      00
 8429              	.LASF45:
 8430 02c2 44533138 		.ascii	"DS1820_AddrDevice\000"
 8430      32305F41 
 8430      64647244 
 8430      65766963 
 8430      6500
 8431              	.LASF21:
 8432 02d4 6E526F6D 		.ascii	"nRomAddr_au8\000"
 8432      41646472 
 8432      5F617538 
 8432      00
 8433              	.LASF12:
 8434 02e1 666C6F61 		.ascii	"float\000"
 8434      7400
 8435              	.LASF1:
 8436 02e7 756E7369 		.ascii	"unsigned char\000"
 8436      676E6564 
 8436      20636861 
 8436      7200
 8437              	.LASF36:
 8438 02f5 63726974 		.ascii	"criticalState\000"
 8438      6963616C 
 8438      53746174 
 8438      6500
ARM GAS  C:\Users\glenn\AppData\Local\Temp\cc3rYttq.s 			page 168


 8439              	.LASF2:
 8440 0303 73686F72 		.ascii	"short int\000"
 8440      7420696E 
 8440      7400
 8441              	.LASF57:
 8442 030d 433A5C55 		.ascii	"C:\\Users\\glenn\\OneDrive\\PSOC\\moisture_sensor_4"
 8442      73657273 
 8442      5C676C65 
 8442      6E6E5C4F 
 8442      6E654472 
 8443 033b 6D5C4D6F 		.ascii	"m\\Moisture_Sensor\\Moisture_Sensor.cydsn\000"
 8443      69737475 
 8443      72655F53 
 8443      656E736F 
 8443      725C4D6F 
 8444              	.LASF37:
 8445 0363 44533138 		.ascii	"DS1820_ReadBit\000"
 8445      32305F52 
 8445      65616442 
 8445      697400
 8446              	.LASF14:
 8447 0372 63686172 		.ascii	"char\000"
 8447      00
 8448              	.LASF26:
 8449 0377 6D61736B 		.ascii	"mask_u8\000"
 8449      5F753800 
 8450              	.LASF53:
 8451 037f 6372635F 		.ascii	"crc_table\000"
 8451      7461626C 
 8451      6500
 8452              	.LASF38:
 8453 0389 62426974 		.ascii	"bBit\000"
 8453      00
 8454              	.LASF18:
 8455 038e 70696E5F 		.ascii	"pin_read\000"
 8455      72656164 
 8455      00
 8456              	.LASF51:
 8457 0397 62446F6E 		.ascii	"bDoneFlag\000"
 8457      65466C61 
 8457      6700
 8458              	.LASF19:
 8459 03a1 70696E5F 		.ascii	"pin_write\000"
 8459      77726974 
 8459      6500
 8460              	.LASF52:
 8461 03ab 6E4C6173 		.ascii	"nLastDiscrepancy_u8\000"
 8461      74446973 
 8461      63726570 
 8461      616E6379 
 8461      5F753800 
 8462              	.LASF48:
 8463 03bf 74656D70 		.ascii	"temp_u16\000"
 8463      5F753136 
 8463      00
 8464              	.LASF11:
 8465 03c8 696E7431 		.ascii	"int16\000"
ARM GAS  C:\Users\glenn\AppData\Local\Temp\cc3rYttq.s 			page 169


 8465      3600
 8466              	.LASF30:
 8467 03ce 62537461 		.ascii	"bStatus\000"
 8467      74757300 
 8468              		.ident	"GCC: (GNU Tools for ARM Embedded Processors) 4.9.3 20150303 (release) [ARM/embedded-4_9-br
