ARM GAS  C:\Users\glenn\AppData\Local\Temp\ccdnI4tk.s 			page 1


   1              		.cpu cortex-m0
   2              		.fpu softvfp
   3              		.eabi_attribute 20, 1
   4              		.eabi_attribute 21, 1
   5              		.eabi_attribute 23, 3
   6              		.eabi_attribute 24, 1
   7              		.eabi_attribute 25, 1
   8              		.eabi_attribute 26, 1
   9              		.eabi_attribute 30, 6
  10              		.eabi_attribute 34, 0
  11              		.eabi_attribute 18, 4
  12              		.code	16
  13              		.file	"event_fifo.c"
  14              		.text
  15              	.Ltext0:
  16              		.cfi_sections	.debug_frame
  17              		.comm	queue_structure,76,4
  18              		.section	.text.EF_initialize,"ax",%progbits
  19              		.align	2
  20              		.global	EF_initialize
  21              		.code	16
  22              		.thumb_func
  23              		.type	EF_initialize, %function
  24              	EF_initialize:
  25              	.LFB62:
  26              		.file 1 "event_fifo\\event_fifo.c"
   1:event_fifo/event_fifo.c **** /*
   2:event_fifo/event_fifo.c **** **
   3:event_fifo/event_fifo.c **** **
   4:event_fifo/event_fifo.c **** ** File: event_fifo.c
   5:event_fifo/event_fifo.c **** **
   6:event_fifo/event_fifo.c **** **
   7:event_fifo/event_fifo.c **** **
   8:event_fifo/event_fifo.c **** **
   9:event_fifo/event_fifo.c **** */
  10:event_fifo/event_fifo.c **** 
  11:event_fifo/event_fifo.c **** #include <assert.h>
  12:event_fifo/event_fifo.c **** #include <project.h>
  13:event_fifo/event_fifo.c **** 
  14:event_fifo/event_fifo.c **** 
  15:event_fifo/event_fifo.c **** #include "event_fifo.h"
  16:event_fifo/event_fifo.c **** 
  17:event_fifo/event_fifo.c **** 
  18:event_fifo/event_fifo.c **** #define NUMBER_OF_QUEUES  1
  19:event_fifo/event_fifo.c **** // QUEUE number must be a multiple of 2
  20:event_fifo/event_fifo.c **** #define QUEUE_NUMBER 16  
  21:event_fifo/event_fifo.c **** #define QUEUE_MASK   15
  22:event_fifo/event_fifo.c **** 
  23:event_fifo/event_fifo.c **** typedef struct
  24:event_fifo/event_fifo.c **** {
  25:event_fifo/event_fifo.c ****     uint16 event;
  26:event_fifo/event_fifo.c ****     uint16 data;
  27:event_fifo/event_fifo.c ****     
  28:event_fifo/event_fifo.c **** }QUEUE_DATA;
  29:event_fifo/event_fifo.c **** 
  30:event_fifo/event_fifo.c **** typedef struct
  31:event_fifo/event_fifo.c **** {
ARM GAS  C:\Users\glenn\AppData\Local\Temp\ccdnI4tk.s 			page 2


  32:event_fifo/event_fifo.c ****     int number;
  33:event_fifo/event_fifo.c ****     int read_index;
  34:event_fifo/event_fifo.c ****     int write_index;
  35:event_fifo/event_fifo.c ****     QUEUE_DATA queue_data[ QUEUE_NUMBER ];
  36:event_fifo/event_fifo.c **** }QUEUE_STRUCTURE;
  37:event_fifo/event_fifo.c **** 
  38:event_fifo/event_fifo.c **** QUEUE_STRUCTURE queue_structure[NUMBER_OF_QUEUES];
  39:event_fifo/event_fifo.c **** 
  40:event_fifo/event_fifo.c **** void EF_initialize( void )
  41:event_fifo/event_fifo.c **** {
  27              		.loc 1 41 0
  28              		.cfi_startproc
  29 0000 80B5     		push	{r7, lr}
  30              		.cfi_def_cfa_offset 8
  31              		.cfi_offset 7, -8
  32              		.cfi_offset 14, -4
  33 0002 00AF     		add	r7, sp, #0
  34              		.cfi_def_cfa_register 7
  42:event_fifo/event_fifo.c ****     memset( queue_structure, 0, sizeof(queue_structure ));
  35              		.loc 1 42 0
  36 0004 064B     		ldr	r3, .L2
  37 0006 181C     		mov	r0, r3
  38 0008 0021     		mov	r1, #0
  39 000a 4C22     		mov	r2, #76
  40 000c FFF7FEFF 		bl	memset
  43:event_fifo/event_fifo.c ****     // add in start up event
  44:event_fifo/event_fifo.c ****     EF_enqueue_elemement( 0, EVENTS_SYSTEM_REBOOT, 0 );
  41              		.loc 1 44 0
  42 0010 0020     		mov	r0, #0
  43 0012 0021     		mov	r1, #0
  44 0014 0022     		mov	r2, #0
  45 0016 FFF7FEFF 		bl	EF_enqueue_elemement
  45:event_fifo/event_fifo.c **** }
  46              		.loc 1 45 0
  47 001a BD46     		mov	sp, r7
  48              		@ sp needed
  49 001c 80BD     		pop	{r7, pc}
  50              	.L3:
  51 001e C046     		.align	2
  52              	.L2:
  53 0020 00000000 		.word	queue_structure
  54              		.cfi_endproc
  55              	.LFE62:
  56              		.size	EF_initialize, .-EF_initialize
  57              		.section	.text.EF_number_of_queues,"ax",%progbits
  58              		.align	2
  59              		.global	EF_number_of_queues
  60              		.code	16
  61              		.thumb_func
  62              		.type	EF_number_of_queues, %function
  63              	EF_number_of_queues:
  64              	.LFB63:
  46:event_fifo/event_fifo.c **** 
  47:event_fifo/event_fifo.c **** unsigned EF_number_of_queues( void )
  48:event_fifo/event_fifo.c **** {
  65              		.loc 1 48 0
  66              		.cfi_startproc
ARM GAS  C:\Users\glenn\AppData\Local\Temp\ccdnI4tk.s 			page 3


  67 0000 80B5     		push	{r7, lr}
  68              		.cfi_def_cfa_offset 8
  69              		.cfi_offset 7, -8
  70              		.cfi_offset 14, -4
  71 0002 00AF     		add	r7, sp, #0
  72              		.cfi_def_cfa_register 7
  49:event_fifo/event_fifo.c ****     return NUMBER_OF_QUEUES;
  73              		.loc 1 49 0
  74 0004 0123     		mov	r3, #1
  50:event_fifo/event_fifo.c **** }
  75              		.loc 1 50 0
  76 0006 181C     		mov	r0, r3
  77 0008 BD46     		mov	sp, r7
  78              		@ sp needed
  79 000a 80BD     		pop	{r7, pc}
  80              		.cfi_endproc
  81              	.LFE63:
  82              		.size	EF_number_of_queues, .-EF_number_of_queues
  83              		.section	.text.EF_elements_in_queue,"ax",%progbits
  84              		.align	2
  85              		.global	EF_elements_in_queue
  86              		.code	16
  87              		.thumb_func
  88              		.type	EF_elements_in_queue, %function
  89              	EF_elements_in_queue:
  90              	.LFB64:
  51:event_fifo/event_fifo.c **** 
  52:event_fifo/event_fifo.c **** int EF_elements_in_queue( unsigned queue_id )
  53:event_fifo/event_fifo.c **** {
  91              		.loc 1 53 0
  92              		.cfi_startproc
  93 0000 80B5     		push	{r7, lr}
  94              		.cfi_def_cfa_offset 8
  95              		.cfi_offset 7, -8
  96              		.cfi_offset 14, -4
  97 0002 82B0     		sub	sp, sp, #8
  98              		.cfi_def_cfa_offset 16
  99 0004 00AF     		add	r7, sp, #0
 100              		.cfi_def_cfa_register 7
 101 0006 7860     		str	r0, [r7, #4]
  54:event_fifo/event_fifo.c ****     if( queue_id < NUMBER_OF_QUEUES )
 102              		.loc 1 54 0
 103 0008 7B68     		ldr	r3, [r7, #4]
 104 000a 002B     		cmp	r3, #0
 105 000c 05D1     		bne	.L7
  55:event_fifo/event_fifo.c ****     {
  56:event_fifo/event_fifo.c ****         return queue_structure[queue_id].number;
 106              		.loc 1 56 0
 107 000e 064B     		ldr	r3, .L9
 108 0010 7A68     		ldr	r2, [r7, #4]
 109 0012 4C21     		mov	r1, #76
 110 0014 4A43     		mul	r2, r1
 111 0016 D358     		ldr	r3, [r2, r3]
 112 0018 01E0     		b	.L8
 113              	.L7:
  57:event_fifo/event_fifo.c ****     }
  58:event_fifo/event_fifo.c ****     return -1;  
ARM GAS  C:\Users\glenn\AppData\Local\Temp\ccdnI4tk.s 			page 4


 114              		.loc 1 58 0
 115 001a 0123     		mov	r3, #1
 116 001c 5B42     		neg	r3, r3
 117              	.L8:
  59:event_fifo/event_fifo.c **** }
 118              		.loc 1 59 0
 119 001e 181C     		mov	r0, r3
 120 0020 BD46     		mov	sp, r7
 121 0022 02B0     		add	sp, sp, #8
 122              		@ sp needed
 123 0024 80BD     		pop	{r7, pc}
 124              	.L10:
 125 0026 C046     		.align	2
 126              	.L9:
 127 0028 00000000 		.word	queue_structure
 128              		.cfi_endproc
 129              	.LFE64:
 130              		.size	EF_elements_in_queue, .-EF_elements_in_queue
 131              		.section	.text.EF_enqueue_elemement,"ax",%progbits
 132              		.align	2
 133              		.global	EF_enqueue_elemement
 134              		.code	16
 135              		.thumb_func
 136              		.type	EF_enqueue_elemement, %function
 137              	EF_enqueue_elemement:
 138              	.LFB65:
  60:event_fifo/event_fifo.c ****     
  61:event_fifo/event_fifo.c **** // returns number of elements in queue -1 means bad queue_id
  62:event_fifo/event_fifo.c **** int  EF_enqueue_elemement( unsigned queue_id, uint16 event_id, uint16 event_data )
  63:event_fifo/event_fifo.c **** {
 139              		.loc 1 63 0
 140              		.cfi_startproc
 141 0000 80B5     		push	{r7, lr}
 142              		.cfi_def_cfa_offset 8
 143              		.cfi_offset 7, -8
 144              		.cfi_offset 14, -4
 145 0002 84B0     		sub	sp, sp, #16
 146              		.cfi_def_cfa_offset 24
 147 0004 00AF     		add	r7, sp, #0
 148              		.cfi_def_cfa_register 7
 149 0006 7860     		str	r0, [r7, #4]
 150 0008 081C     		mov	r0, r1
 151 000a 111C     		mov	r1, r2
 152 000c BB1C     		add	r3, r7, #2
 153 000e 021C     		add	r2, r0, #0
 154 0010 1A80     		strh	r2, [r3]
 155 0012 3B1C     		mov	r3, r7
 156 0014 0A1C     		add	r2, r1, #0
 157 0016 1A80     		strh	r2, [r3]
  64:event_fifo/event_fifo.c ****     QUEUE_STRUCTURE *queue_str;
  65:event_fifo/event_fifo.c ****     if( queue_id > NUMBER_OF_QUEUES )
 158              		.loc 1 65 0
 159 0018 7B68     		ldr	r3, [r7, #4]
 160 001a 012B     		cmp	r3, #1
 161 001c 02D9     		bls	.L12
  66:event_fifo/event_fifo.c ****     {
  67:event_fifo/event_fifo.c ****         return -1;
ARM GAS  C:\Users\glenn\AppData\Local\Temp\ccdnI4tk.s 			page 5


 162              		.loc 1 67 0
 163 001e 0123     		mov	r3, #1
 164 0020 5B42     		neg	r3, r3
 165 0022 39E0     		b	.L13
 166              	.L12:
  68:event_fifo/event_fifo.c ****     }
  69:event_fifo/event_fifo.c ****     queue_str = &queue_structure[ queue_id ];
 167              		.loc 1 69 0
 168 0024 7B68     		ldr	r3, [r7, #4]
 169 0026 4C22     		mov	r2, #76
 170 0028 5A43     		mul	r2, r3
 171 002a 1D4B     		ldr	r3, .L16
 172 002c D318     		add	r3, r2, r3
 173 002e FB60     		str	r3, [r7, #12]
  70:event_fifo/event_fifo.c **** 
  71:event_fifo/event_fifo.c ****     queue_str->queue_data[queue_str->write_index].event = event_id;
 174              		.loc 1 71 0
 175 0030 FB68     		ldr	r3, [r7, #12]
 176 0032 9B68     		ldr	r3, [r3, #8]
 177 0034 F968     		ldr	r1, [r7, #12]
 178 0036 0233     		add	r3, r3, #2
 179 0038 9B00     		lsl	r3, r3, #2
 180 003a BA1C     		add	r2, r7, #2
 181 003c CB18     		add	r3, r1, r3
 182 003e 1288     		ldrh	r2, [r2]
 183 0040 9A80     		strh	r2, [r3, #4]
  72:event_fifo/event_fifo.c ****     queue_str->queue_data[queue_str->write_index].data = event_data;
 184              		.loc 1 72 0
 185 0042 FB68     		ldr	r3, [r7, #12]
 186 0044 9B68     		ldr	r3, [r3, #8]
 187 0046 F968     		ldr	r1, [r7, #12]
 188 0048 0233     		add	r3, r3, #2
 189 004a 9B00     		lsl	r3, r3, #2
 190 004c 3A1C     		mov	r2, r7
 191 004e CB18     		add	r3, r1, r3
 192 0050 1288     		ldrh	r2, [r2]
 193 0052 DA80     		strh	r2, [r3, #6]
  73:event_fifo/event_fifo.c ****     
  74:event_fifo/event_fifo.c ****     queue_str->write_index +=1;
 194              		.loc 1 74 0
 195 0054 FB68     		ldr	r3, [r7, #12]
 196 0056 9B68     		ldr	r3, [r3, #8]
 197 0058 5A1C     		add	r2, r3, #1
 198 005a FB68     		ldr	r3, [r7, #12]
 199 005c 9A60     		str	r2, [r3, #8]
  75:event_fifo/event_fifo.c ****     queue_str->write_index &= QUEUE_MASK;
 200              		.loc 1 75 0
 201 005e FB68     		ldr	r3, [r7, #12]
 202 0060 9B68     		ldr	r3, [r3, #8]
 203 0062 0F22     		mov	r2, #15
 204 0064 1A40     		and	r2, r3
 205 0066 FB68     		ldr	r3, [r7, #12]
 206 0068 9A60     		str	r2, [r3, #8]
  76:event_fifo/event_fifo.c ****     
  77:event_fifo/event_fifo.c ****     if( queue_str->number >= QUEUE_NUMBER)
 207              		.loc 1 77 0
 208 006a FB68     		ldr	r3, [r7, #12]
ARM GAS  C:\Users\glenn\AppData\Local\Temp\ccdnI4tk.s 			page 6


 209 006c 1B68     		ldr	r3, [r3]
 210 006e 0F2B     		cmp	r3, #15
 211 0070 0BDD     		ble	.L14
  78:event_fifo/event_fifo.c ****     {
  79:event_fifo/event_fifo.c ****          
  80:event_fifo/event_fifo.c ****          queue_str->read_index +=1;
 212              		.loc 1 80 0
 213 0072 FB68     		ldr	r3, [r7, #12]
 214 0074 5B68     		ldr	r3, [r3, #4]
 215 0076 5A1C     		add	r2, r3, #1
 216 0078 FB68     		ldr	r3, [r7, #12]
 217 007a 5A60     		str	r2, [r3, #4]
  81:event_fifo/event_fifo.c ****          queue_str->read_index &= QUEUE_MASK;
 218              		.loc 1 81 0
 219 007c FB68     		ldr	r3, [r7, #12]
 220 007e 5B68     		ldr	r3, [r3, #4]
 221 0080 0F22     		mov	r2, #15
 222 0082 1A40     		and	r2, r3
 223 0084 FB68     		ldr	r3, [r7, #12]
 224 0086 5A60     		str	r2, [r3, #4]
 225 0088 04E0     		b	.L15
 226              	.L14:
  82:event_fifo/event_fifo.c ****     }
  83:event_fifo/event_fifo.c ****     else
  84:event_fifo/event_fifo.c ****     {
  85:event_fifo/event_fifo.c ****         queue_str->number += 1;
 227              		.loc 1 85 0
 228 008a FB68     		ldr	r3, [r7, #12]
 229 008c 1B68     		ldr	r3, [r3]
 230 008e 5A1C     		add	r2, r3, #1
 231 0090 FB68     		ldr	r3, [r7, #12]
 232 0092 1A60     		str	r2, [r3]
 233              	.L15:
  86:event_fifo/event_fifo.c ****     }
  87:event_fifo/event_fifo.c ****     return queue_str->number;
 234              		.loc 1 87 0
 235 0094 FB68     		ldr	r3, [r7, #12]
 236 0096 1B68     		ldr	r3, [r3]
 237              	.L13:
  88:event_fifo/event_fifo.c **** }
 238              		.loc 1 88 0
 239 0098 181C     		mov	r0, r3
 240 009a BD46     		mov	sp, r7
 241 009c 04B0     		add	sp, sp, #16
 242              		@ sp needed
 243 009e 80BD     		pop	{r7, pc}
 244              	.L17:
 245              		.align	2
 246              	.L16:
 247 00a0 00000000 		.word	queue_structure
 248              		.cfi_endproc
 249              	.LFE65:
 250              		.size	EF_enqueue_elemement, .-EF_enqueue_elemement
 251              		.section	.text.EF_dequeue_element,"ax",%progbits
 252              		.align	2
 253              		.global	EF_dequeue_element
 254              		.code	16
ARM GAS  C:\Users\glenn\AppData\Local\Temp\ccdnI4tk.s 			page 7


 255              		.thumb_func
 256              		.type	EF_dequeue_element, %function
 257              	EF_dequeue_element:
 258              	.LFB66:
  89:event_fifo/event_fifo.c ****        
  90:event_fifo/event_fifo.c **** 
  91:event_fifo/event_fifo.c **** // return number left in queue after dequeue -- return -1 if attempt was made on empty queue
  92:event_fifo/event_fifo.c **** int  EF_dequeue_element( unsigned queue_id, uint16 *event_id, uint16 *event_data )
  93:event_fifo/event_fifo.c **** {
 259              		.loc 1 93 0
 260              		.cfi_startproc
 261 0000 80B5     		push	{r7, lr}
 262              		.cfi_def_cfa_offset 8
 263              		.cfi_offset 7, -8
 264              		.cfi_offset 14, -4
 265 0002 86B0     		sub	sp, sp, #24
 266              		.cfi_def_cfa_offset 32
 267 0004 00AF     		add	r7, sp, #0
 268              		.cfi_def_cfa_register 7
 269 0006 F860     		str	r0, [r7, #12]
 270 0008 B960     		str	r1, [r7, #8]
 271 000a 7A60     		str	r2, [r7, #4]
  94:event_fifo/event_fifo.c ****     QUEUE_STRUCTURE *queue_str;
  95:event_fifo/event_fifo.c ****     if( queue_id > NUMBER_OF_QUEUES )
 272              		.loc 1 95 0
 273 000c FB68     		ldr	r3, [r7, #12]
 274 000e 012B     		cmp	r3, #1
 275 0010 02D9     		bls	.L19
  96:event_fifo/event_fifo.c ****     {
  97:event_fifo/event_fifo.c ****         return -1;
 276              		.loc 1 97 0
 277 0012 0123     		mov	r3, #1
 278 0014 5B42     		neg	r3, r3
 279 0016 30E0     		b	.L20
 280              	.L19:
  98:event_fifo/event_fifo.c ****     }
  99:event_fifo/event_fifo.c ****     
 100:event_fifo/event_fifo.c ****     queue_str = &queue_structure[ queue_id ];
 281              		.loc 1 100 0
 282 0018 FB68     		ldr	r3, [r7, #12]
 283 001a 4C22     		mov	r2, #76
 284 001c 5A43     		mul	r2, r3
 285 001e 194B     		ldr	r3, .L22
 286 0020 D318     		add	r3, r2, r3
 287 0022 7B61     		str	r3, [r7, #20]
 101:event_fifo/event_fifo.c ****     if( queue_str->number == 0 )
 288              		.loc 1 101 0
 289 0024 7B69     		ldr	r3, [r7, #20]
 290 0026 1B68     		ldr	r3, [r3]
 291 0028 002B     		cmp	r3, #0
 292 002a 02D1     		bne	.L21
 102:event_fifo/event_fifo.c ****     {
 103:event_fifo/event_fifo.c ****         return -1;
 293              		.loc 1 103 0
 294 002c 0123     		mov	r3, #1
 295 002e 5B42     		neg	r3, r3
 296 0030 23E0     		b	.L20
ARM GAS  C:\Users\glenn\AppData\Local\Temp\ccdnI4tk.s 			page 8


 297              	.L21:
 104:event_fifo/event_fifo.c ****     }
 105:event_fifo/event_fifo.c ****    
 106:event_fifo/event_fifo.c **** 
 107:event_fifo/event_fifo.c ****     *event_id   = queue_str->queue_data[queue_str->read_index].event;
 298              		.loc 1 107 0
 299 0032 7B69     		ldr	r3, [r7, #20]
 300 0034 5B68     		ldr	r3, [r3, #4]
 301 0036 7A69     		ldr	r2, [r7, #20]
 302 0038 0233     		add	r3, r3, #2
 303 003a 9B00     		lsl	r3, r3, #2
 304 003c D318     		add	r3, r2, r3
 305 003e 9A88     		ldrh	r2, [r3, #4]
 306 0040 BB68     		ldr	r3, [r7, #8]
 307 0042 1A80     		strh	r2, [r3]
 108:event_fifo/event_fifo.c ****     *event_data = queue_str->queue_data[queue_str->read_index].data;
 308              		.loc 1 108 0
 309 0044 7B69     		ldr	r3, [r7, #20]
 310 0046 5B68     		ldr	r3, [r3, #4]
 311 0048 7A69     		ldr	r2, [r7, #20]
 312 004a 0233     		add	r3, r3, #2
 313 004c 9B00     		lsl	r3, r3, #2
 314 004e D318     		add	r3, r2, r3
 315 0050 DA88     		ldrh	r2, [r3, #6]
 316 0052 7B68     		ldr	r3, [r7, #4]
 317 0054 1A80     		strh	r2, [r3]
 109:event_fifo/event_fifo.c ****     
 110:event_fifo/event_fifo.c ****     queue_str->read_index +=1;
 318              		.loc 1 110 0
 319 0056 7B69     		ldr	r3, [r7, #20]
 320 0058 5B68     		ldr	r3, [r3, #4]
 321 005a 5A1C     		add	r2, r3, #1
 322 005c 7B69     		ldr	r3, [r7, #20]
 323 005e 5A60     		str	r2, [r3, #4]
 111:event_fifo/event_fifo.c ****     queue_str->read_index &= QUEUE_MASK;
 324              		.loc 1 111 0
 325 0060 7B69     		ldr	r3, [r7, #20]
 326 0062 5B68     		ldr	r3, [r3, #4]
 327 0064 0F22     		mov	r2, #15
 328 0066 1A40     		and	r2, r3
 329 0068 7B69     		ldr	r3, [r7, #20]
 330 006a 5A60     		str	r2, [r3, #4]
 112:event_fifo/event_fifo.c ****     queue_str->number -= 1;
 331              		.loc 1 112 0
 332 006c 7B69     		ldr	r3, [r7, #20]
 333 006e 1B68     		ldr	r3, [r3]
 334 0070 5A1E     		sub	r2, r3, #1
 335 0072 7B69     		ldr	r3, [r7, #20]
 336 0074 1A60     		str	r2, [r3]
 113:event_fifo/event_fifo.c ****   
 114:event_fifo/event_fifo.c ****     return queue_str->number;
 337              		.loc 1 114 0
 338 0076 7B69     		ldr	r3, [r7, #20]
 339 0078 1B68     		ldr	r3, [r3]
 340              	.L20:
 115:event_fifo/event_fifo.c **** }
 341              		.loc 1 115 0
ARM GAS  C:\Users\glenn\AppData\Local\Temp\ccdnI4tk.s 			page 9


 342 007a 181C     		mov	r0, r3
 343 007c BD46     		mov	sp, r7
 344 007e 06B0     		add	sp, sp, #24
 345              		@ sp needed
 346 0080 80BD     		pop	{r7, pc}
 347              	.L23:
 348 0082 C046     		.align	2
 349              	.L22:
 350 0084 00000000 		.word	queue_structure
 351              		.cfi_endproc
 352              	.LFE66:
 353              		.size	EF_dequeue_element, .-EF_dequeue_element
 354              		.text
 355              	.Letext0:
 356              		.file 2 "Generated_Source\\PSoC4/cytypes.h"