ARM GAS  C:\Users\glenn\AppData\Local\Temp\cclrFd8J.s 			page 1


   1              		.cpu cortex-m0
   2              		.fpu softvfp
   3              		.eabi_attribute 20, 1
   4              		.eabi_attribute 21, 1
   5              		.eabi_attribute 23, 3
   6              		.eabi_attribute 24, 1
   7              		.eabi_attribute 25, 1
   8              		.eabi_attribute 26, 1
   9              		.eabi_attribute 30, 2
  10              		.eabi_attribute 34, 0
  11              		.eabi_attribute 18, 4
  12              		.code	16
  13              		.file	"I2C_1_I2C_MASTER.c"
  14              		.text
  15              	.Ltext0:
  16              		.cfi_sections	.debug_frame
  17              		.section	.text.I2C_1_I2CMasterWriteBuf,"ax",%progbits
  18              		.align	2
  19              		.global	I2C_1_I2CMasterWriteBuf
  20              		.code	16
  21              		.thumb_func
  22              		.type	I2C_1_I2CMasterWriteBuf, %function
  23              	I2C_1_I2CMasterWriteBuf:
  24              	.LFB1:
  25              		.file 1 "Generated_Source\\PSoC4\\I2C_1_I2C_MASTER.c"
   1:Generated_Source\PSoC4/I2C_1_I2C_MASTER.c **** /***************************************************************************//**
   2:Generated_Source\PSoC4/I2C_1_I2C_MASTER.c **** * \file I2C_1_I2C_MASTER.c
   3:Generated_Source\PSoC4/I2C_1_I2C_MASTER.c **** * \version 3.20
   4:Generated_Source\PSoC4/I2C_1_I2C_MASTER.c **** *
   5:Generated_Source\PSoC4/I2C_1_I2C_MASTER.c **** * \brief
   6:Generated_Source\PSoC4/I2C_1_I2C_MASTER.c **** *  This file provides the source code to the API for the SCB Component in
   7:Generated_Source\PSoC4/I2C_1_I2C_MASTER.c **** *  I2C Master mode.
   8:Generated_Source\PSoC4/I2C_1_I2C_MASTER.c **** *
   9:Generated_Source\PSoC4/I2C_1_I2C_MASTER.c **** * Note:
  10:Generated_Source\PSoC4/I2C_1_I2C_MASTER.c **** *
  11:Generated_Source\PSoC4/I2C_1_I2C_MASTER.c **** *******************************************************************************
  12:Generated_Source\PSoC4/I2C_1_I2C_MASTER.c **** * \copyright
  13:Generated_Source\PSoC4/I2C_1_I2C_MASTER.c **** * Copyright 2013-2016, Cypress Semiconductor Corporation.  All rights reserved.
  14:Generated_Source\PSoC4/I2C_1_I2C_MASTER.c **** * You may use this file only in accordance with the license, terms, conditions,
  15:Generated_Source\PSoC4/I2C_1_I2C_MASTER.c **** * disclaimers, and limitations in the end user license agreement accompanying
  16:Generated_Source\PSoC4/I2C_1_I2C_MASTER.c **** * the software package with which this file was provided.
  17:Generated_Source\PSoC4/I2C_1_I2C_MASTER.c **** *******************************************************************************/
  18:Generated_Source\PSoC4/I2C_1_I2C_MASTER.c **** 
  19:Generated_Source\PSoC4/I2C_1_I2C_MASTER.c **** #include "I2C_1_PVT.h"
  20:Generated_Source\PSoC4/I2C_1_I2C_MASTER.c **** #include "I2C_1_I2C_PVT.h"
  21:Generated_Source\PSoC4/I2C_1_I2C_MASTER.c **** 
  22:Generated_Source\PSoC4/I2C_1_I2C_MASTER.c **** #if(I2C_1_I2C_MASTER_CONST)
  23:Generated_Source\PSoC4/I2C_1_I2C_MASTER.c **** 
  24:Generated_Source\PSoC4/I2C_1_I2C_MASTER.c **** /***************************************
  25:Generated_Source\PSoC4/I2C_1_I2C_MASTER.c **** *      I2C Master Private Vars
  26:Generated_Source\PSoC4/I2C_1_I2C_MASTER.c **** ***************************************/
  27:Generated_Source\PSoC4/I2C_1_I2C_MASTER.c **** 
  28:Generated_Source\PSoC4/I2C_1_I2C_MASTER.c **** /* Master variables */
  29:Generated_Source\PSoC4/I2C_1_I2C_MASTER.c **** volatile uint16 I2C_1_mstrStatus;      /* Master Status byte  */
  30:Generated_Source\PSoC4/I2C_1_I2C_MASTER.c **** volatile uint8  I2C_1_mstrControl;     /* Master Control byte */
  31:Generated_Source\PSoC4/I2C_1_I2C_MASTER.c **** 
  32:Generated_Source\PSoC4/I2C_1_I2C_MASTER.c **** /* Receive buffer variables */
ARM GAS  C:\Users\glenn\AppData\Local\Temp\cclrFd8J.s 			page 2


  33:Generated_Source\PSoC4/I2C_1_I2C_MASTER.c **** volatile uint8 * I2C_1_mstrRdBufPtr;   /* Pointer to Master Read buffer */
  34:Generated_Source\PSoC4/I2C_1_I2C_MASTER.c **** volatile uint32  I2C_1_mstrRdBufSize;  /* Master Read buffer size       */
  35:Generated_Source\PSoC4/I2C_1_I2C_MASTER.c **** volatile uint32  I2C_1_mstrRdBufIndex; /* Master Read buffer Index      */
  36:Generated_Source\PSoC4/I2C_1_I2C_MASTER.c **** 
  37:Generated_Source\PSoC4/I2C_1_I2C_MASTER.c **** /* Transmit buffer variables */
  38:Generated_Source\PSoC4/I2C_1_I2C_MASTER.c **** volatile uint8 * I2C_1_mstrWrBufPtr;   /* Pointer to Master Write buffer */
  39:Generated_Source\PSoC4/I2C_1_I2C_MASTER.c **** volatile uint32  I2C_1_mstrWrBufSize;  /* Master Write buffer size       */
  40:Generated_Source\PSoC4/I2C_1_I2C_MASTER.c **** volatile uint32  I2C_1_mstrWrBufIndex; /* Master Write buffer Index      */
  41:Generated_Source\PSoC4/I2C_1_I2C_MASTER.c **** volatile uint32  I2C_1_mstrWrBufIndexTmp; /* Master Write buffer Index Tmp */
  42:Generated_Source\PSoC4/I2C_1_I2C_MASTER.c **** 
  43:Generated_Source\PSoC4/I2C_1_I2C_MASTER.c **** #if (!I2C_1_CY_SCBIP_V0 && \
  44:Generated_Source\PSoC4/I2C_1_I2C_MASTER.c ****     I2C_1_I2C_MULTI_MASTER_SLAVE_CONST && I2C_1_I2C_WAKE_ENABLE_CONST)
  45:Generated_Source\PSoC4/I2C_1_I2C_MASTER.c ****     static void I2C_1_I2CMasterDisableEcAm(void);
  46:Generated_Source\PSoC4/I2C_1_I2C_MASTER.c **** #endif /* (!I2C_1_CY_SCBIP_V0) */
  47:Generated_Source\PSoC4/I2C_1_I2C_MASTER.c **** 
  48:Generated_Source\PSoC4/I2C_1_I2C_MASTER.c **** 
  49:Generated_Source\PSoC4/I2C_1_I2C_MASTER.c **** /*******************************************************************************
  50:Generated_Source\PSoC4/I2C_1_I2C_MASTER.c **** * Function Name: I2C_1_I2CMasterWriteBuf
  51:Generated_Source\PSoC4/I2C_1_I2C_MASTER.c **** ****************************************************************************//**
  52:Generated_Source\PSoC4/I2C_1_I2C_MASTER.c **** *
  53:Generated_Source\PSoC4/I2C_1_I2C_MASTER.c **** *  Automatically writes an entire buffer of data to a slave device.
  54:Generated_Source\PSoC4/I2C_1_I2C_MASTER.c **** *  Once the data transfer is initiated by this function, further data transfer
  55:Generated_Source\PSoC4/I2C_1_I2C_MASTER.c **** *  is handled by the included ISR.
  56:Generated_Source\PSoC4/I2C_1_I2C_MASTER.c **** *  Enables the I2C interrupt and clears I2C_1_I2C_MSTAT_WR_CMPLT 
  57:Generated_Source\PSoC4/I2C_1_I2C_MASTER.c **** *  status.
  58:Generated_Source\PSoC4/I2C_1_I2C_MASTER.c **** *
  59:Generated_Source\PSoC4/I2C_1_I2C_MASTER.c **** *  \param slaveAddr: 7-bit slave address.
  60:Generated_Source\PSoC4/I2C_1_I2C_MASTER.c **** *  \param xferData: Pointer to buffer of data to be sent.
  61:Generated_Source\PSoC4/I2C_1_I2C_MASTER.c **** *  \param cnt: Size of buffer to send.
  62:Generated_Source\PSoC4/I2C_1_I2C_MASTER.c **** *  \param mode: Transfer mode defines:
  63:Generated_Source\PSoC4/I2C_1_I2C_MASTER.c **** *  (1) Whether a start or restart condition is generated at the beginning 
  64:Generated_Source\PSoC4/I2C_1_I2C_MASTER.c **** *  of the transfer, and
  65:Generated_Source\PSoC4/I2C_1_I2C_MASTER.c **** *  (2) Whether the transfer is completed or halted before the stop 
  66:Generated_Source\PSoC4/I2C_1_I2C_MASTER.c **** *  condition is generated on the bus.Transfer mode, mode constants 
  67:Generated_Source\PSoC4/I2C_1_I2C_MASTER.c **** *  may be ORed together.
  68:Generated_Source\PSoC4/I2C_1_I2C_MASTER.c **** *  - I2C_1_I2C_MODE_COMPLETE_XFER - Perform complete transfer 
  69:Generated_Source\PSoC4/I2C_1_I2C_MASTER.c **** *    from Start to Stop.
  70:Generated_Source\PSoC4/I2C_1_I2C_MASTER.c **** *  - I2C_1_I2C_MODE_REPEAT_START - Send Repeat Start instead 
  71:Generated_Source\PSoC4/I2C_1_I2C_MASTER.c **** *    of Start. A Stop is generated after transfer is completed unless 
  72:Generated_Source\PSoC4/I2C_1_I2C_MASTER.c **** *    NO_STOP is specified.
  73:Generated_Source\PSoC4/I2C_1_I2C_MASTER.c **** *  - I2C_1_I2C_MODE_NO_STOP Execute transfer without a Stop.
  74:Generated_Source\PSoC4/I2C_1_I2C_MASTER.c **** *    The following transfer expected to perform ReStart.
  75:Generated_Source\PSoC4/I2C_1_I2C_MASTER.c **** *
  76:Generated_Source\PSoC4/I2C_1_I2C_MASTER.c **** * \return
  77:Generated_Source\PSoC4/I2C_1_I2C_MASTER.c **** *  Error status.
  78:Generated_Source\PSoC4/I2C_1_I2C_MASTER.c **** *  - I2C_1_I2C_MSTR_NO_ERROR - Function complete without error. 
  79:Generated_Source\PSoC4/I2C_1_I2C_MASTER.c **** *    The master started the transfer.
  80:Generated_Source\PSoC4/I2C_1_I2C_MASTER.c **** *  - I2C_1_I2C_MSTR_BUS_BUSY - Bus is busy. Nothing was sent on
  81:Generated_Source\PSoC4/I2C_1_I2C_MASTER.c **** *    the bus. The attempt has to be retried.
  82:Generated_Source\PSoC4/I2C_1_I2C_MASTER.c **** *  - I2C_1_I2C_MSTR_NOT_READY - Master is not ready for to start
  83:Generated_Source\PSoC4/I2C_1_I2C_MASTER.c **** *    transfer. A master still has not completed previous transaction or a 
  84:Generated_Source\PSoC4/I2C_1_I2C_MASTER.c **** *    slave operation is in progress (in multi-master-slave configuration).
  85:Generated_Source\PSoC4/I2C_1_I2C_MASTER.c **** *    Nothing was sent on the bus. The attempt has to be retried.
  86:Generated_Source\PSoC4/I2C_1_I2C_MASTER.c **** *
  87:Generated_Source\PSoC4/I2C_1_I2C_MASTER.c **** * \globalvars
  88:Generated_Source\PSoC4/I2C_1_I2C_MASTER.c **** *  I2C_1_mstrStatus  - used to store current status of I2C Master.
  89:Generated_Source\PSoC4/I2C_1_I2C_MASTER.c **** *  I2C_1_state       - used to store current state of software FSM.
ARM GAS  C:\Users\glenn\AppData\Local\Temp\cclrFd8J.s 			page 3


  90:Generated_Source\PSoC4/I2C_1_I2C_MASTER.c **** *  I2C_1_mstrControl - used to control master end of transaction with
  91:Generated_Source\PSoC4/I2C_1_I2C_MASTER.c **** *  or without the Stop generation.
  92:Generated_Source\PSoC4/I2C_1_I2C_MASTER.c **** *  I2C_1_mstrWrBufPtr - used to store pointer to master write buffer.
  93:Generated_Source\PSoC4/I2C_1_I2C_MASTER.c **** *  I2C_1_mstrWrBufIndex - used to current index within master write
  94:Generated_Source\PSoC4/I2C_1_I2C_MASTER.c **** *  buffer.
  95:Generated_Source\PSoC4/I2C_1_I2C_MASTER.c **** *  I2C_1_mstrWrBufSize - used to store master write buffer size.
  96:Generated_Source\PSoC4/I2C_1_I2C_MASTER.c **** *
  97:Generated_Source\PSoC4/I2C_1_I2C_MASTER.c **** *******************************************************************************/
  98:Generated_Source\PSoC4/I2C_1_I2C_MASTER.c **** uint32 I2C_1_I2CMasterWriteBuf(uint32 slaveAddress, uint8 * wrData, uint32 cnt, uint32 mode)
  99:Generated_Source\PSoC4/I2C_1_I2C_MASTER.c **** {
  26              		.loc 1 99 0
  27              		.cfi_startproc
  28              	.LVL0:
  29 0000 F0B5     		push	{r4, r5, r6, r7, lr}
  30              		.cfi_def_cfa_offset 20
  31              		.cfi_offset 4, -20
  32              		.cfi_offset 5, -16
  33              		.cfi_offset 6, -12
  34              		.cfi_offset 7, -8
  35              		.cfi_offset 14, -4
  36 0002 4F46     		mov	r7, r9
  37 0004 4646     		mov	r6, r8
  38 0006 C0B4     		push	{r6, r7}
  39              		.cfi_def_cfa_offset 28
  40              		.cfi_offset 8, -28
  41              		.cfi_offset 9, -24
  42 0008 9146     		mov	r9, r2
  43 000a 83B0     		sub	sp, sp, #12
  44              		.cfi_def_cfa_offset 40
  45              		.loc 1 99 0
  46 000c 061C     		mov	r6, r0
  47 000e 0F1E     		sub	r7, r1, #0
  48 0010 9846     		mov	r8, r3
 100:Generated_Source\PSoC4/I2C_1_I2C_MASTER.c ****     uint32 errStatus;
 101:Generated_Source\PSoC4/I2C_1_I2C_MASTER.c **** 
 102:Generated_Source\PSoC4/I2C_1_I2C_MASTER.c ****     errStatus = I2C_1_I2C_MSTR_NOT_READY;
 103:Generated_Source\PSoC4/I2C_1_I2C_MASTER.c **** 
 104:Generated_Source\PSoC4/I2C_1_I2C_MASTER.c ****     if(NULL != wrData)  /* Check buffer pointer */
  49              		.loc 1 104 0
  50 0012 10D0     		beq	.L9
 105:Generated_Source\PSoC4/I2C_1_I2C_MASTER.c ****     {
 106:Generated_Source\PSoC4/I2C_1_I2C_MASTER.c ****         /* Check FSM state and bus before generating Start/ReStart condition */
 107:Generated_Source\PSoC4/I2C_1_I2C_MASTER.c ****         if(I2C_1_CHECK_I2C_FSM_IDLE)
  51              		.loc 1 107 0
  52 0014 2B4D     		ldr	r5, .L20
  53 0016 2B78     		ldrb	r3, [r5]
  54              	.LVL1:
  55 0018 102B     		cmp	r3, #16
  56 001a 49D0     		beq	.L17
 108:Generated_Source\PSoC4/I2C_1_I2C_MASTER.c ****         {
 109:Generated_Source\PSoC4/I2C_1_I2C_MASTER.c ****             I2C_1_DisableInt();  /* Lock from interruption */
 110:Generated_Source\PSoC4/I2C_1_I2C_MASTER.c **** 
 111:Generated_Source\PSoC4/I2C_1_I2C_MASTER.c ****             /* Check bus state */
 112:Generated_Source\PSoC4/I2C_1_I2C_MASTER.c ****             errStatus = I2C_1_CHECK_I2C_STATUS(I2C_1_I2C_STATUS_BUS_BUSY) ?
 113:Generated_Source\PSoC4/I2C_1_I2C_MASTER.c ****                             I2C_1_I2C_MSTR_BUS_BUSY : I2C_1_I2C_MSTR_NO_ERROR;
 114:Generated_Source\PSoC4/I2C_1_I2C_MASTER.c ****         }
 115:Generated_Source\PSoC4/I2C_1_I2C_MASTER.c ****         else if(I2C_1_CHECK_I2C_FSM_HALT)
ARM GAS  C:\Users\glenn\AppData\Local\Temp\cclrFd8J.s 			page 4


  57              		.loc 1 115 0
  58 001c 2B78     		ldrb	r3, [r5]
 102:Generated_Source\PSoC4/I2C_1_I2C_MASTER.c **** 
  59              		.loc 1 102 0
  60 001e 0424     		mov	r4, #4
  61              		.loc 1 115 0
  62 0020 602B     		cmp	r3, #96
  63 0022 0AD0     		beq	.L18
  64              	.LVL2:
  65              	.L6:
 116:Generated_Source\PSoC4/I2C_1_I2C_MASTER.c ****         {
 117:Generated_Source\PSoC4/I2C_1_I2C_MASTER.c ****             I2C_1_mstrStatus &= (uint16) ~I2C_1_I2C_MSTAT_XFER_HALT;
 118:Generated_Source\PSoC4/I2C_1_I2C_MASTER.c ****                               errStatus  = I2C_1_I2C_MSTR_NO_ERROR;
 119:Generated_Source\PSoC4/I2C_1_I2C_MASTER.c ****         }
 120:Generated_Source\PSoC4/I2C_1_I2C_MASTER.c ****         else
 121:Generated_Source\PSoC4/I2C_1_I2C_MASTER.c ****         {
 122:Generated_Source\PSoC4/I2C_1_I2C_MASTER.c ****             /* Unexpected FSM state: exit */
 123:Generated_Source\PSoC4/I2C_1_I2C_MASTER.c ****         }
 124:Generated_Source\PSoC4/I2C_1_I2C_MASTER.c ****     }
 125:Generated_Source\PSoC4/I2C_1_I2C_MASTER.c **** 
 126:Generated_Source\PSoC4/I2C_1_I2C_MASTER.c ****     /* Check if master is ready to start  */
 127:Generated_Source\PSoC4/I2C_1_I2C_MASTER.c ****     if(I2C_1_I2C_MSTR_NO_ERROR == errStatus) /* No error proceed */
 128:Generated_Source\PSoC4/I2C_1_I2C_MASTER.c ****     {
 129:Generated_Source\PSoC4/I2C_1_I2C_MASTER.c ****     #if (!I2C_1_CY_SCBIP_V0 && \
 130:Generated_Source\PSoC4/I2C_1_I2C_MASTER.c ****         I2C_1_I2C_MULTI_MASTER_SLAVE_CONST && I2C_1_I2C_WAKE_ENABLE_CONST)
 131:Generated_Source\PSoC4/I2C_1_I2C_MASTER.c ****             I2C_1_I2CMasterDisableEcAm();
 132:Generated_Source\PSoC4/I2C_1_I2C_MASTER.c ****     #endif /* (!I2C_1_CY_SCBIP_V0) */
 133:Generated_Source\PSoC4/I2C_1_I2C_MASTER.c **** 
 134:Generated_Source\PSoC4/I2C_1_I2C_MASTER.c ****         /* Set up write transaction */
 135:Generated_Source\PSoC4/I2C_1_I2C_MASTER.c ****         I2C_1_state = I2C_1_I2C_FSM_MSTR_WR_ADDR;
 136:Generated_Source\PSoC4/I2C_1_I2C_MASTER.c ****         I2C_1_mstrWrBufIndexTmp = 0u;
 137:Generated_Source\PSoC4/I2C_1_I2C_MASTER.c ****         I2C_1_mstrWrBufIndex    = 0u;
 138:Generated_Source\PSoC4/I2C_1_I2C_MASTER.c ****         I2C_1_mstrWrBufSize     = cnt;
 139:Generated_Source\PSoC4/I2C_1_I2C_MASTER.c ****         I2C_1_mstrWrBufPtr      = (volatile uint8 *) wrData;
 140:Generated_Source\PSoC4/I2C_1_I2C_MASTER.c ****         I2C_1_mstrControl       = (uint8) mode;
 141:Generated_Source\PSoC4/I2C_1_I2C_MASTER.c **** 
 142:Generated_Source\PSoC4/I2C_1_I2C_MASTER.c ****         slaveAddress = I2C_1_GET_I2C_8BIT_ADDRESS(slaveAddress);
 143:Generated_Source\PSoC4/I2C_1_I2C_MASTER.c **** 
 144:Generated_Source\PSoC4/I2C_1_I2C_MASTER.c ****         I2C_1_mstrStatus &= (uint16) ~I2C_1_I2C_MSTAT_WR_CMPLT;
 145:Generated_Source\PSoC4/I2C_1_I2C_MASTER.c **** 
 146:Generated_Source\PSoC4/I2C_1_I2C_MASTER.c ****         I2C_1_ClearMasterInterruptSource(I2C_1_INTR_MASTER_ALL);
 147:Generated_Source\PSoC4/I2C_1_I2C_MASTER.c ****         I2C_1_ClearTxInterruptSource(I2C_1_INTR_TX_UNDERFLOW);
 148:Generated_Source\PSoC4/I2C_1_I2C_MASTER.c **** 
 149:Generated_Source\PSoC4/I2C_1_I2C_MASTER.c ****         /* The TX and RX FIFO have to be EMPTY */
 150:Generated_Source\PSoC4/I2C_1_I2C_MASTER.c **** 
 151:Generated_Source\PSoC4/I2C_1_I2C_MASTER.c ****         /* Enable interrupt source to catch when address is sent */
 152:Generated_Source\PSoC4/I2C_1_I2C_MASTER.c ****         I2C_1_SetTxInterruptMode(I2C_1_INTR_TX_UNDERFLOW);
 153:Generated_Source\PSoC4/I2C_1_I2C_MASTER.c **** 
 154:Generated_Source\PSoC4/I2C_1_I2C_MASTER.c ****         /* Generate Start or ReStart */
 155:Generated_Source\PSoC4/I2C_1_I2C_MASTER.c ****         if(I2C_1_CHECK_I2C_MODE_RESTART(mode))
 156:Generated_Source\PSoC4/I2C_1_I2C_MASTER.c ****         {
 157:Generated_Source\PSoC4/I2C_1_I2C_MASTER.c ****             I2C_1_I2C_MASTER_GENERATE_RESTART;
 158:Generated_Source\PSoC4/I2C_1_I2C_MASTER.c ****             I2C_1_TX_FIFO_WR_REG = slaveAddress;
 159:Generated_Source\PSoC4/I2C_1_I2C_MASTER.c ****         }
 160:Generated_Source\PSoC4/I2C_1_I2C_MASTER.c ****         else
 161:Generated_Source\PSoC4/I2C_1_I2C_MASTER.c ****         {
 162:Generated_Source\PSoC4/I2C_1_I2C_MASTER.c ****             I2C_1_TX_FIFO_WR_REG = slaveAddress;
ARM GAS  C:\Users\glenn\AppData\Local\Temp\cclrFd8J.s 			page 5


 163:Generated_Source\PSoC4/I2C_1_I2C_MASTER.c ****             I2C_1_I2C_MASTER_GENERATE_START;
 164:Generated_Source\PSoC4/I2C_1_I2C_MASTER.c ****         }
 165:Generated_Source\PSoC4/I2C_1_I2C_MASTER.c ****     }
 166:Generated_Source\PSoC4/I2C_1_I2C_MASTER.c **** 
 167:Generated_Source\PSoC4/I2C_1_I2C_MASTER.c ****     I2C_1_EnableInt();   /* Release lock */
  66              		.loc 1 167 0
  67 0024 0820     		mov	r0, #8
  68 0026 FFF7FEFF 		bl	CyIntEnable
  69              	.LVL3:
 168:Generated_Source\PSoC4/I2C_1_I2C_MASTER.c **** 
 169:Generated_Source\PSoC4/I2C_1_I2C_MASTER.c ****     return(errStatus);
 170:Generated_Source\PSoC4/I2C_1_I2C_MASTER.c **** }
  70              		.loc 1 170 0
  71 002a 201C     		mov	r0, r4
  72 002c 03B0     		add	sp, sp, #12
  73              		@ sp needed
  74              	.LVL4:
  75              	.LVL5:
  76              	.LVL6:
  77              	.LVL7:
  78 002e 0CBC     		pop	{r2, r3}
  79 0030 9046     		mov	r8, r2
  80 0032 9946     		mov	r9, r3
  81 0034 F0BD     		pop	{r4, r5, r6, r7, pc}
  82              	.LVL8:
  83              	.L9:
 102:Generated_Source\PSoC4/I2C_1_I2C_MASTER.c **** 
  84              		.loc 1 102 0
  85 0036 0424     		mov	r4, #4
  86 0038 F4E7     		b	.L6
  87              	.LVL9:
  88              	.L18:
 117:Generated_Source\PSoC4/I2C_1_I2C_MASTER.c ****                               errStatus  = I2C_1_I2C_MSTR_NO_ERROR;
  89              		.loc 1 117 0
  90 003a 0821     		mov	r1, #8
  91              	.LVL10:
  92 003c 224B     		ldr	r3, .L20+4
  93 003e 1A88     		ldrh	r2, [r3]
  94              	.LVL11:
  95 0040 8A43     		bic	r2, r1
  96 0042 1A80     		strh	r2, [r3]
  97              	.LVL12:
  98              	.L4:
 135:Generated_Source\PSoC4/I2C_1_I2C_MASTER.c ****         I2C_1_mstrWrBufIndexTmp = 0u;
  99              		.loc 1 135 0
 100 0044 2822     		mov	r2, #40
 101 0046 2A70     		strb	r2, [r5]
 136:Generated_Source\PSoC4/I2C_1_I2C_MASTER.c ****         I2C_1_mstrWrBufIndex    = 0u;
 102              		.loc 1 136 0
 103 0048 0022     		mov	r2, #0
 104 004a 2049     		ldr	r1, .L20+8
 142:Generated_Source\PSoC4/I2C_1_I2C_MASTER.c **** 
 105              		.loc 1 142 0
 106 004c 7600     		lsl	r6, r6, #1
 107              	.LVL13:
 136:Generated_Source\PSoC4/I2C_1_I2C_MASTER.c ****         I2C_1_mstrWrBufIndex    = 0u;
 108              		.loc 1 136 0
ARM GAS  C:\Users\glenn\AppData\Local\Temp\cclrFd8J.s 			page 6


 109 004e 0A60     		str	r2, [r1]
 137:Generated_Source\PSoC4/I2C_1_I2C_MASTER.c ****         I2C_1_mstrWrBufSize     = cnt;
 110              		.loc 1 137 0
 111 0050 1F49     		ldr	r1, .L20+12
 112 0052 0A60     		str	r2, [r1]
 138:Generated_Source\PSoC4/I2C_1_I2C_MASTER.c ****         I2C_1_mstrWrBufPtr      = (volatile uint8 *) wrData;
 113              		.loc 1 138 0
 114 0054 4946     		mov	r1, r9
 115 0056 1F4A     		ldr	r2, .L20+16
 116 0058 1160     		str	r1, [r2]
 139:Generated_Source\PSoC4/I2C_1_I2C_MASTER.c ****         I2C_1_mstrControl       = (uint8) mode;
 117              		.loc 1 139 0
 118 005a 1F4A     		ldr	r2, .L20+20
 140:Generated_Source\PSoC4/I2C_1_I2C_MASTER.c **** 
 119              		.loc 1 140 0
 120 005c 6946     		mov	r1, sp
 139:Generated_Source\PSoC4/I2C_1_I2C_MASTER.c ****         I2C_1_mstrControl       = (uint8) mode;
 121              		.loc 1 139 0
 122 005e 1760     		str	r7, [r2]
 140:Generated_Source\PSoC4/I2C_1_I2C_MASTER.c **** 
 123              		.loc 1 140 0
 124 0060 4246     		mov	r2, r8
 125 0062 CA71     		strb	r2, [r1, #7]
 126 0064 C979     		ldrb	r1, [r1, #7]
 127 0066 1D4A     		ldr	r2, .L20+24
 128 0068 1170     		strb	r1, [r2]
 142:Generated_Source\PSoC4/I2C_1_I2C_MASTER.c **** 
 129              		.loc 1 142 0
 130 006a FF22     		mov	r2, #255
 144:Generated_Source\PSoC4/I2C_1_I2C_MASTER.c **** 
 131              		.loc 1 144 0
 132 006c 1988     		ldrh	r1, [r3]
 142:Generated_Source\PSoC4/I2C_1_I2C_MASTER.c **** 
 133              		.loc 1 142 0
 134 006e 1640     		and	r6, r2
 135              	.LVL14:
 144:Generated_Source\PSoC4/I2C_1_I2C_MASTER.c **** 
 136              		.loc 1 144 0
 137 0070 FD3A     		sub	r2, r2, #253
 138 0072 9143     		bic	r1, r2
 139 0074 1980     		strh	r1, [r3]
 146:Generated_Source\PSoC4/I2C_1_I2C_MASTER.c ****         I2C_1_ClearTxInterruptSource(I2C_1_INTR_TX_UNDERFLOW);
 140              		.loc 1 146 0
 141 0076 1A49     		ldr	r1, .L20+28
 142 0078 1A4B     		ldr	r3, .L20+32
 143 007a 1960     		str	r1, [r3]
 147:Generated_Source\PSoC4/I2C_1_I2C_MASTER.c **** 
 144              		.loc 1 147 0
 145 007c 4023     		mov	r3, #64
 146 007e 1A49     		ldr	r1, .L20+36
 147 0080 0B60     		str	r3, [r1]
 152:Generated_Source\PSoC4/I2C_1_I2C_MASTER.c **** 
 148              		.loc 1 152 0
 149 0082 1A49     		ldr	r1, .L20+40
 150 0084 0B60     		str	r3, [r1]
 155:Generated_Source\PSoC4/I2C_1_I2C_MASTER.c ****         {
 151              		.loc 1 155 0
ARM GAS  C:\Users\glenn\AppData\Local\Temp\cclrFd8J.s 			page 7


 152 0086 4346     		mov	r3, r8
 153 0088 DB07     		lsl	r3, r3, #31
 154 008a 0BD5     		bpl	.L19
 155              	.LVL15:
 156              	.LBB8:
 157              	.LBB9:
 171:Generated_Source\PSoC4/I2C_1_I2C_MASTER.c **** 
 172:Generated_Source\PSoC4/I2C_1_I2C_MASTER.c **** 
 173:Generated_Source\PSoC4/I2C_1_I2C_MASTER.c **** /*******************************************************************************
 174:Generated_Source\PSoC4/I2C_1_I2C_MASTER.c **** * Function Name: I2C_1_I2CMasterReadBuf
 175:Generated_Source\PSoC4/I2C_1_I2C_MASTER.c **** ****************************************************************************//**
 176:Generated_Source\PSoC4/I2C_1_I2C_MASTER.c **** *
 177:Generated_Source\PSoC4/I2C_1_I2C_MASTER.c **** *  Automatically reads an entire buffer of data from a slave device.
 178:Generated_Source\PSoC4/I2C_1_I2C_MASTER.c **** *  Once the data transfer is initiated by this function, further data transfer
 179:Generated_Source\PSoC4/I2C_1_I2C_MASTER.c **** *  is handled by the included ISR.
 180:Generated_Source\PSoC4/I2C_1_I2C_MASTER.c **** *  Enables the I2C interrupt and clears I2C_1_I2C_MSTAT_RD_CMPLT 
 181:Generated_Source\PSoC4/I2C_1_I2C_MASTER.c **** *  status.
 182:Generated_Source\PSoC4/I2C_1_I2C_MASTER.c **** *
 183:Generated_Source\PSoC4/I2C_1_I2C_MASTER.c **** *  \param slaveAddr: 7-bit slave address.
 184:Generated_Source\PSoC4/I2C_1_I2C_MASTER.c **** *  \param xferData: Pointer to buffer of data to be sent.
 185:Generated_Source\PSoC4/I2C_1_I2C_MASTER.c **** *  \param cnt: Size of buffer to send.
 186:Generated_Source\PSoC4/I2C_1_I2C_MASTER.c **** *  \param mode: Transfer mode defines:
 187:Generated_Source\PSoC4/I2C_1_I2C_MASTER.c **** *  (1) Whether a start or restart condition is generated at the beginning 
 188:Generated_Source\PSoC4/I2C_1_I2C_MASTER.c **** *  of the transfer, and
 189:Generated_Source\PSoC4/I2C_1_I2C_MASTER.c **** *  (2) Whether the transfer is completed or halted before the stop 
 190:Generated_Source\PSoC4/I2C_1_I2C_MASTER.c **** *  condition is generated on the bus.Transfer mode, mode constants may 
 191:Generated_Source\PSoC4/I2C_1_I2C_MASTER.c **** *  be ORed together. See I2C_1_I2CMasterWriteBuf() 
 192:Generated_Source\PSoC4/I2C_1_I2C_MASTER.c **** *  function for constants.
 193:Generated_Source\PSoC4/I2C_1_I2C_MASTER.c **** *
 194:Generated_Source\PSoC4/I2C_1_I2C_MASTER.c **** * \return
 195:Generated_Source\PSoC4/I2C_1_I2C_MASTER.c **** *  Error status.See I2C_1_I2CMasterWriteBuf() 
 196:Generated_Source\PSoC4/I2C_1_I2C_MASTER.c **** *  function for constants.
 197:Generated_Source\PSoC4/I2C_1_I2C_MASTER.c **** *
 198:Generated_Source\PSoC4/I2C_1_I2C_MASTER.c **** * \globalvars
 199:Generated_Source\PSoC4/I2C_1_I2C_MASTER.c **** *  I2C_1_mstrStatus  - used to store current status of I2C Master.
 200:Generated_Source\PSoC4/I2C_1_I2C_MASTER.c **** *  I2C_1_state       - used to store current state of software FSM.
 201:Generated_Source\PSoC4/I2C_1_I2C_MASTER.c **** *  I2C_1_mstrControl - used to control master end of transaction with
 202:Generated_Source\PSoC4/I2C_1_I2C_MASTER.c **** *  or without the Stop generation.
 203:Generated_Source\PSoC4/I2C_1_I2C_MASTER.c **** *  I2C_1_mstrRdBufPtr - used to store pointer to master read buffer.
 204:Generated_Source\PSoC4/I2C_1_I2C_MASTER.c **** *  I2C_1_mstrRdBufIndex - used to current index within master read
 205:Generated_Source\PSoC4/I2C_1_I2C_MASTER.c **** *  buffer.
 206:Generated_Source\PSoC4/I2C_1_I2C_MASTER.c **** *  I2C_1_mstrRdBufSize - used to store master read buffer size.
 207:Generated_Source\PSoC4/I2C_1_I2C_MASTER.c **** *
 208:Generated_Source\PSoC4/I2C_1_I2C_MASTER.c **** *******************************************************************************/
 209:Generated_Source\PSoC4/I2C_1_I2C_MASTER.c **** uint32 I2C_1_I2CMasterReadBuf(uint32 slaveAddress, uint8 * rdData, uint32 cnt, uint32 mode)
 210:Generated_Source\PSoC4/I2C_1_I2C_MASTER.c **** {
 211:Generated_Source\PSoC4/I2C_1_I2C_MASTER.c ****     uint32 errStatus;
 212:Generated_Source\PSoC4/I2C_1_I2C_MASTER.c **** 
 213:Generated_Source\PSoC4/I2C_1_I2C_MASTER.c ****     errStatus = I2C_1_I2C_MSTR_NOT_READY;
 214:Generated_Source\PSoC4/I2C_1_I2C_MASTER.c **** 
 215:Generated_Source\PSoC4/I2C_1_I2C_MASTER.c ****     if(NULL != rdData)
 216:Generated_Source\PSoC4/I2C_1_I2C_MASTER.c ****     {
 217:Generated_Source\PSoC4/I2C_1_I2C_MASTER.c ****         /* Check FSM state and bus before generating Start/ReStart condition */
 218:Generated_Source\PSoC4/I2C_1_I2C_MASTER.c ****         if(I2C_1_CHECK_I2C_FSM_IDLE)
 219:Generated_Source\PSoC4/I2C_1_I2C_MASTER.c ****         {
 220:Generated_Source\PSoC4/I2C_1_I2C_MASTER.c ****             I2C_1_DisableInt();  /* Lock from interruption */
 221:Generated_Source\PSoC4/I2C_1_I2C_MASTER.c **** 
ARM GAS  C:\Users\glenn\AppData\Local\Temp\cclrFd8J.s 			page 8


 222:Generated_Source\PSoC4/I2C_1_I2C_MASTER.c ****             /* Check bus state */
 223:Generated_Source\PSoC4/I2C_1_I2C_MASTER.c ****             errStatus = I2C_1_CHECK_I2C_STATUS(I2C_1_I2C_STATUS_BUS_BUSY) ?
 224:Generated_Source\PSoC4/I2C_1_I2C_MASTER.c ****                             I2C_1_I2C_MSTR_BUS_BUSY : I2C_1_I2C_MSTR_NO_ERROR;
 225:Generated_Source\PSoC4/I2C_1_I2C_MASTER.c ****         }
 226:Generated_Source\PSoC4/I2C_1_I2C_MASTER.c ****         else if(I2C_1_CHECK_I2C_FSM_HALT)
 227:Generated_Source\PSoC4/I2C_1_I2C_MASTER.c ****         {
 228:Generated_Source\PSoC4/I2C_1_I2C_MASTER.c ****             I2C_1_mstrStatus &= (uint16) ~I2C_1_I2C_MSTAT_XFER_HALT;
 229:Generated_Source\PSoC4/I2C_1_I2C_MASTER.c ****                               errStatus  =  I2C_1_I2C_MSTR_NO_ERROR;
 230:Generated_Source\PSoC4/I2C_1_I2C_MASTER.c ****         }
 231:Generated_Source\PSoC4/I2C_1_I2C_MASTER.c ****         else
 232:Generated_Source\PSoC4/I2C_1_I2C_MASTER.c ****         {
 233:Generated_Source\PSoC4/I2C_1_I2C_MASTER.c ****             /* Unexpected FSM state: exit */
 234:Generated_Source\PSoC4/I2C_1_I2C_MASTER.c ****         }
 235:Generated_Source\PSoC4/I2C_1_I2C_MASTER.c ****     }
 236:Generated_Source\PSoC4/I2C_1_I2C_MASTER.c **** 
 237:Generated_Source\PSoC4/I2C_1_I2C_MASTER.c ****     /* Check master ready to proceed */
 238:Generated_Source\PSoC4/I2C_1_I2C_MASTER.c ****     if(I2C_1_I2C_MSTR_NO_ERROR == errStatus) /* No error proceed */
 239:Generated_Source\PSoC4/I2C_1_I2C_MASTER.c ****     {
 240:Generated_Source\PSoC4/I2C_1_I2C_MASTER.c ****         #if (!I2C_1_CY_SCBIP_V0 && \
 241:Generated_Source\PSoC4/I2C_1_I2C_MASTER.c ****         I2C_1_I2C_MULTI_MASTER_SLAVE_CONST && I2C_1_I2C_WAKE_ENABLE_CONST)
 242:Generated_Source\PSoC4/I2C_1_I2C_MASTER.c ****             I2C_1_I2CMasterDisableEcAm();
 243:Generated_Source\PSoC4/I2C_1_I2C_MASTER.c ****         #endif /* (!I2C_1_CY_SCBIP_V0) */
 244:Generated_Source\PSoC4/I2C_1_I2C_MASTER.c **** 
 245:Generated_Source\PSoC4/I2C_1_I2C_MASTER.c ****         /* Set up read transaction */
 246:Generated_Source\PSoC4/I2C_1_I2C_MASTER.c ****         I2C_1_state = I2C_1_I2C_FSM_MSTR_RD_ADDR;
 247:Generated_Source\PSoC4/I2C_1_I2C_MASTER.c ****         I2C_1_mstrRdBufIndex = 0u;
 248:Generated_Source\PSoC4/I2C_1_I2C_MASTER.c ****         I2C_1_mstrRdBufSize  = cnt;
 249:Generated_Source\PSoC4/I2C_1_I2C_MASTER.c ****         I2C_1_mstrRdBufPtr   = (volatile uint8 *) rdData;
 250:Generated_Source\PSoC4/I2C_1_I2C_MASTER.c ****         I2C_1_mstrControl    = (uint8) mode;
 251:Generated_Source\PSoC4/I2C_1_I2C_MASTER.c **** 
 252:Generated_Source\PSoC4/I2C_1_I2C_MASTER.c ****         slaveAddress = (I2C_1_GET_I2C_8BIT_ADDRESS(slaveAddress) | I2C_1_I2C_READ_FLAG);
 253:Generated_Source\PSoC4/I2C_1_I2C_MASTER.c **** 
 254:Generated_Source\PSoC4/I2C_1_I2C_MASTER.c ****         I2C_1_mstrStatus &= (uint16) ~I2C_1_I2C_MSTAT_RD_CMPLT;
 255:Generated_Source\PSoC4/I2C_1_I2C_MASTER.c **** 
 256:Generated_Source\PSoC4/I2C_1_I2C_MASTER.c ****         I2C_1_ClearMasterInterruptSource(I2C_1_INTR_MASTER_ALL);
 257:Generated_Source\PSoC4/I2C_1_I2C_MASTER.c **** 
 258:Generated_Source\PSoC4/I2C_1_I2C_MASTER.c ****         /* TX and RX FIFO have to be EMPTY */
 259:Generated_Source\PSoC4/I2C_1_I2C_MASTER.c **** 
 260:Generated_Source\PSoC4/I2C_1_I2C_MASTER.c ****         /* Prepare reading */
 261:Generated_Source\PSoC4/I2C_1_I2C_MASTER.c ****         if(I2C_1_mstrRdBufSize < I2C_1_I2C_FIFO_SIZE)
 262:Generated_Source\PSoC4/I2C_1_I2C_MASTER.c ****         {
 263:Generated_Source\PSoC4/I2C_1_I2C_MASTER.c ****             /* Reading byte-by-byte */
 264:Generated_Source\PSoC4/I2C_1_I2C_MASTER.c ****             I2C_1_SetRxInterruptMode(I2C_1_INTR_RX_NOT_EMPTY);
 265:Generated_Source\PSoC4/I2C_1_I2C_MASTER.c ****         }
 266:Generated_Source\PSoC4/I2C_1_I2C_MASTER.c ****         else
 267:Generated_Source\PSoC4/I2C_1_I2C_MASTER.c ****         {
 268:Generated_Source\PSoC4/I2C_1_I2C_MASTER.c ****             /* Receive RX FIFO chunks */
 269:Generated_Source\PSoC4/I2C_1_I2C_MASTER.c ****             I2C_1_ENABLE_MASTER_AUTO_DATA_ACK;
 270:Generated_Source\PSoC4/I2C_1_I2C_MASTER.c ****             I2C_1_SetRxInterruptMode(I2C_1_INTR_RX_FULL);
 271:Generated_Source\PSoC4/I2C_1_I2C_MASTER.c ****         }
 272:Generated_Source\PSoC4/I2C_1_I2C_MASTER.c **** 
 273:Generated_Source\PSoC4/I2C_1_I2C_MASTER.c ****         /* Generate Start or ReStart */
 274:Generated_Source\PSoC4/I2C_1_I2C_MASTER.c ****         if(I2C_1_CHECK_I2C_MODE_RESTART(mode))
 275:Generated_Source\PSoC4/I2C_1_I2C_MASTER.c ****         {
 276:Generated_Source\PSoC4/I2C_1_I2C_MASTER.c ****             I2C_1_I2C_MASTER_GENERATE_RESTART;
 277:Generated_Source\PSoC4/I2C_1_I2C_MASTER.c ****             I2C_1_TX_FIFO_WR_REG = (slaveAddress);
 278:Generated_Source\PSoC4/I2C_1_I2C_MASTER.c ****         }
ARM GAS  C:\Users\glenn\AppData\Local\Temp\cclrFd8J.s 			page 9


 279:Generated_Source\PSoC4/I2C_1_I2C_MASTER.c ****         else
 280:Generated_Source\PSoC4/I2C_1_I2C_MASTER.c ****         {
 281:Generated_Source\PSoC4/I2C_1_I2C_MASTER.c ****             I2C_1_TX_FIFO_WR_REG = (slaveAddress);
 282:Generated_Source\PSoC4/I2C_1_I2C_MASTER.c ****             I2C_1_I2C_MASTER_GENERATE_START;
 283:Generated_Source\PSoC4/I2C_1_I2C_MASTER.c ****         }
 284:Generated_Source\PSoC4/I2C_1_I2C_MASTER.c ****     }
 285:Generated_Source\PSoC4/I2C_1_I2C_MASTER.c **** 
 286:Generated_Source\PSoC4/I2C_1_I2C_MASTER.c ****     I2C_1_EnableInt();   /* Release lock */
 287:Generated_Source\PSoC4/I2C_1_I2C_MASTER.c **** 
 288:Generated_Source\PSoC4/I2C_1_I2C_MASTER.c ****     return(errStatus);
 289:Generated_Source\PSoC4/I2C_1_I2C_MASTER.c **** }
 290:Generated_Source\PSoC4/I2C_1_I2C_MASTER.c **** 
 291:Generated_Source\PSoC4/I2C_1_I2C_MASTER.c **** 
 292:Generated_Source\PSoC4/I2C_1_I2C_MASTER.c **** /*******************************************************************************
 293:Generated_Source\PSoC4/I2C_1_I2C_MASTER.c **** * Function Name: I2C_1_I2CMasterSendStart
 294:Generated_Source\PSoC4/I2C_1_I2C_MASTER.c **** ****************************************************************************//**
 295:Generated_Source\PSoC4/I2C_1_I2C_MASTER.c **** *
 296:Generated_Source\PSoC4/I2C_1_I2C_MASTER.c **** *  Generates Start condition and sends slave address with read/write bit.
 297:Generated_Source\PSoC4/I2C_1_I2C_MASTER.c **** *  Disables the I2C interrupt.
 298:Generated_Source\PSoC4/I2C_1_I2C_MASTER.c **** *  This function is blocking and does not return until start condition and
 299:Generated_Source\PSoC4/I2C_1_I2C_MASTER.c **** *  address byte are sent and ACK/NACK response is received or errors occurred.
 300:Generated_Source\PSoC4/I2C_1_I2C_MASTER.c **** *
 301:Generated_Source\PSoC4/I2C_1_I2C_MASTER.c **** * \param slaveAddress: Right justified 7-bit Slave address (valid range 
 302:Generated_Source\PSoC4/I2C_1_I2C_MASTER.c **** *  8 to 120).
 303:Generated_Source\PSoC4/I2C_1_I2C_MASTER.c **** * \param bitRnW: Direction of the following transfer. 
 304:Generated_Source\PSoC4/I2C_1_I2C_MASTER.c **** *  It is defined by read/write bit within address byte.
 305:Generated_Source\PSoC4/I2C_1_I2C_MASTER.c **** *  - I2C_1_I2C_WRITE_XFER_MODE - Set write direction for the 
 306:Generated_Source\PSoC4/I2C_1_I2C_MASTER.c **** *    following transfer.
 307:Generated_Source\PSoC4/I2C_1_I2C_MASTER.c **** *  - I2C_1_I2C_READ_XFER_MODE - Set read direction for the 
 308:Generated_Source\PSoC4/I2C_1_I2C_MASTER.c **** *    following transfer.
 309:Generated_Source\PSoC4/I2C_1_I2C_MASTER.c **** *
 310:Generated_Source\PSoC4/I2C_1_I2C_MASTER.c **** * \return
 311:Generated_Source\PSoC4/I2C_1_I2C_MASTER.c **** *  Error status.
 312:Generated_Source\PSoC4/I2C_1_I2C_MASTER.c **** *   - I2C_1_I2C_MSTR_NO_ERROR - Function complete without error.
 313:Generated_Source\PSoC4/I2C_1_I2C_MASTER.c **** *   - I2C_1_I2C_MSTR_BUS_BUSY - Bus is busy. 
 314:Generated_Source\PSoC4/I2C_1_I2C_MASTER.c **** *     Nothing was sent on the bus. The attempt has to be retried.
 315:Generated_Source\PSoC4/I2C_1_I2C_MASTER.c **** *   - I2C_1_I2C_MSTR_NOT_READY - Master is not ready for to 
 316:Generated_Source\PSoC4/I2C_1_I2C_MASTER.c **** *     start transfer.
 317:Generated_Source\PSoC4/I2C_1_I2C_MASTER.c **** *     A master still has not completed previous transaction or a slave 
 318:Generated_Source\PSoC4/I2C_1_I2C_MASTER.c **** *     operation is in progress (in multi-master-slave configuration).
 319:Generated_Source\PSoC4/I2C_1_I2C_MASTER.c **** *     Nothing was sent on the bus. The attempt has to be retried.
 320:Generated_Source\PSoC4/I2C_1_I2C_MASTER.c **** *   - I2C_1_I2C_MSTR_ERR_LB_NAK - Error condition: Last byte was 
 321:Generated_Source\PSoC4/I2C_1_I2C_MASTER.c **** *     NAKed.
 322:Generated_Source\PSoC4/I2C_1_I2C_MASTER.c **** *   - I2C_1_I2C_MSTR_ERR_ARB_LOST - Error condition: Master lost 
 323:Generated_Source\PSoC4/I2C_1_I2C_MASTER.c **** *     arbitration.
 324:Generated_Source\PSoC4/I2C_1_I2C_MASTER.c **** *   - I2C_1_I2C_MSTR_ERR_BUS_ERR - Error condition: Master 
 325:Generated_Source\PSoC4/I2C_1_I2C_MASTER.c **** *     encountered a bus error. Bus error is misplaced start or stop detection.
 326:Generated_Source\PSoC4/I2C_1_I2C_MASTER.c **** *   - I2C_1_I2C_MSTR_ERR_ABORT_START - Error condition: The start 
 327:Generated_Source\PSoC4/I2C_1_I2C_MASTER.c **** *     condition generation was aborted due to beginning of Slave operation. 
 328:Generated_Source\PSoC4/I2C_1_I2C_MASTER.c **** *     This error condition is only applicable for Multi-Master-Slave mode.
 329:Generated_Source\PSoC4/I2C_1_I2C_MASTER.c **** *
 330:Generated_Source\PSoC4/I2C_1_I2C_MASTER.c **** * \globalvars
 331:Generated_Source\PSoC4/I2C_1_I2C_MASTER.c **** *  I2C_1_state - used to store current state of software FSM.
 332:Generated_Source\PSoC4/I2C_1_I2C_MASTER.c **** *
 333:Generated_Source\PSoC4/I2C_1_I2C_MASTER.c **** *******************************************************************************/
 334:Generated_Source\PSoC4/I2C_1_I2C_MASTER.c **** uint32 I2C_1_I2CMasterSendStart(uint32 slaveAddress, uint32 bitRnW)
 335:Generated_Source\PSoC4/I2C_1_I2C_MASTER.c **** {
ARM GAS  C:\Users\glenn\AppData\Local\Temp\cclrFd8J.s 			page 10


 336:Generated_Source\PSoC4/I2C_1_I2C_MASTER.c ****     uint32  resetIp;
 337:Generated_Source\PSoC4/I2C_1_I2C_MASTER.c ****     uint32 errStatus;
 338:Generated_Source\PSoC4/I2C_1_I2C_MASTER.c **** 
 339:Generated_Source\PSoC4/I2C_1_I2C_MASTER.c ****     resetIp   = 0u;
 340:Generated_Source\PSoC4/I2C_1_I2C_MASTER.c ****     errStatus = I2C_1_I2C_MSTR_NOT_READY;
 341:Generated_Source\PSoC4/I2C_1_I2C_MASTER.c **** 
 342:Generated_Source\PSoC4/I2C_1_I2C_MASTER.c ****     /* Check FSM state before generating Start condition */
 343:Generated_Source\PSoC4/I2C_1_I2C_MASTER.c ****     if(I2C_1_CHECK_I2C_FSM_IDLE)
 344:Generated_Source\PSoC4/I2C_1_I2C_MASTER.c ****     {
 345:Generated_Source\PSoC4/I2C_1_I2C_MASTER.c ****         /* If bus is free, generate Start condition */
 346:Generated_Source\PSoC4/I2C_1_I2C_MASTER.c ****         if(I2C_1_CHECK_I2C_STATUS(I2C_1_I2C_STATUS_BUS_BUSY))
 347:Generated_Source\PSoC4/I2C_1_I2C_MASTER.c ****         {
 348:Generated_Source\PSoC4/I2C_1_I2C_MASTER.c ****             errStatus = I2C_1_I2C_MSTR_BUS_BUSY;
 349:Generated_Source\PSoC4/I2C_1_I2C_MASTER.c ****         }
 350:Generated_Source\PSoC4/I2C_1_I2C_MASTER.c ****         else
 351:Generated_Source\PSoC4/I2C_1_I2C_MASTER.c ****         {
 352:Generated_Source\PSoC4/I2C_1_I2C_MASTER.c ****             I2C_1_DisableInt();  /* Lock from interruption */
 353:Generated_Source\PSoC4/I2C_1_I2C_MASTER.c **** 
 354:Generated_Source\PSoC4/I2C_1_I2C_MASTER.c ****         #if (!I2C_1_CY_SCBIP_V0 && \
 355:Generated_Source\PSoC4/I2C_1_I2C_MASTER.c ****             I2C_1_I2C_MULTI_MASTER_SLAVE_CONST && I2C_1_I2C_WAKE_ENABLE_CONST)
 356:Generated_Source\PSoC4/I2C_1_I2C_MASTER.c ****             I2C_1_I2CMasterDisableEcAm();
 357:Generated_Source\PSoC4/I2C_1_I2C_MASTER.c ****         #endif /* (!I2C_1_CY_SCBIP_V0) */
 358:Generated_Source\PSoC4/I2C_1_I2C_MASTER.c **** 
 359:Generated_Source\PSoC4/I2C_1_I2C_MASTER.c ****             slaveAddress = I2C_1_GET_I2C_8BIT_ADDRESS(slaveAddress);
 360:Generated_Source\PSoC4/I2C_1_I2C_MASTER.c **** 
 361:Generated_Source\PSoC4/I2C_1_I2C_MASTER.c ****             if(0u == bitRnW) /* Write direction */
 362:Generated_Source\PSoC4/I2C_1_I2C_MASTER.c ****             {
 363:Generated_Source\PSoC4/I2C_1_I2C_MASTER.c ****                 I2C_1_state = I2C_1_I2C_FSM_MSTR_WR_DATA;
 364:Generated_Source\PSoC4/I2C_1_I2C_MASTER.c ****             }
 365:Generated_Source\PSoC4/I2C_1_I2C_MASTER.c ****             else /* Read direction */
 366:Generated_Source\PSoC4/I2C_1_I2C_MASTER.c ****             {
 367:Generated_Source\PSoC4/I2C_1_I2C_MASTER.c ****                 I2C_1_state = I2C_1_I2C_FSM_MSTR_RD_DATA;
 368:Generated_Source\PSoC4/I2C_1_I2C_MASTER.c ****                          slaveAddress |= I2C_1_I2C_READ_FLAG;
 369:Generated_Source\PSoC4/I2C_1_I2C_MASTER.c ****             }
 370:Generated_Source\PSoC4/I2C_1_I2C_MASTER.c **** 
 371:Generated_Source\PSoC4/I2C_1_I2C_MASTER.c ****             /* TX and RX FIFO have to be EMPTY */
 372:Generated_Source\PSoC4/I2C_1_I2C_MASTER.c **** 
 373:Generated_Source\PSoC4/I2C_1_I2C_MASTER.c ****             I2C_1_TX_FIFO_WR_REG = slaveAddress; /* Put address in TX FIFO */
 374:Generated_Source\PSoC4/I2C_1_I2C_MASTER.c ****             I2C_1_ClearMasterInterruptSource(I2C_1_INTR_MASTER_ALL);
 375:Generated_Source\PSoC4/I2C_1_I2C_MASTER.c **** 
 376:Generated_Source\PSoC4/I2C_1_I2C_MASTER.c ****             I2C_1_I2C_MASTER_GENERATE_START;
 377:Generated_Source\PSoC4/I2C_1_I2C_MASTER.c **** 
 378:Generated_Source\PSoC4/I2C_1_I2C_MASTER.c **** 
 379:Generated_Source\PSoC4/I2C_1_I2C_MASTER.c ****             while(!I2C_1_CHECK_INTR_MASTER(I2C_1_INTR_MASTER_I2C_ACK      |
 380:Generated_Source\PSoC4/I2C_1_I2C_MASTER.c ****                                                       I2C_1_INTR_MASTER_I2C_NACK     |
 381:Generated_Source\PSoC4/I2C_1_I2C_MASTER.c ****                                                       I2C_1_INTR_MASTER_I2C_ARB_LOST |
 382:Generated_Source\PSoC4/I2C_1_I2C_MASTER.c ****                                                       I2C_1_INTR_MASTER_I2C_BUS_ERROR))
 383:Generated_Source\PSoC4/I2C_1_I2C_MASTER.c ****             {
 384:Generated_Source\PSoC4/I2C_1_I2C_MASTER.c ****                 /*
 385:Generated_Source\PSoC4/I2C_1_I2C_MASTER.c ****                 * Write: wait until address has been transferred
 386:Generated_Source\PSoC4/I2C_1_I2C_MASTER.c ****                 * Read : wait until address has been transferred, data byte is going to RX FIFO as 
 387:Generated_Source\PSoC4/I2C_1_I2C_MASTER.c ****                 */
 388:Generated_Source\PSoC4/I2C_1_I2C_MASTER.c ****             }
 389:Generated_Source\PSoC4/I2C_1_I2C_MASTER.c **** 
 390:Generated_Source\PSoC4/I2C_1_I2C_MASTER.c ****             /* Check the results of the address phase */
 391:Generated_Source\PSoC4/I2C_1_I2C_MASTER.c ****             if(I2C_1_CHECK_INTR_MASTER(I2C_1_INTR_MASTER_I2C_ACK))
 392:Generated_Source\PSoC4/I2C_1_I2C_MASTER.c ****             {
ARM GAS  C:\Users\glenn\AppData\Local\Temp\cclrFd8J.s 			page 11


 393:Generated_Source\PSoC4/I2C_1_I2C_MASTER.c ****                 errStatus = I2C_1_I2C_MSTR_NO_ERROR;
 394:Generated_Source\PSoC4/I2C_1_I2C_MASTER.c ****             }
 395:Generated_Source\PSoC4/I2C_1_I2C_MASTER.c ****             else if(I2C_1_CHECK_INTR_MASTER(I2C_1_INTR_MASTER_I2C_NACK))
 396:Generated_Source\PSoC4/I2C_1_I2C_MASTER.c ****             {
 397:Generated_Source\PSoC4/I2C_1_I2C_MASTER.c ****                 errStatus = I2C_1_I2C_MSTR_ERR_LB_NAK;
 398:Generated_Source\PSoC4/I2C_1_I2C_MASTER.c ****             }
 399:Generated_Source\PSoC4/I2C_1_I2C_MASTER.c ****             else if(I2C_1_CHECK_INTR_MASTER(I2C_1_INTR_MASTER_I2C_ARB_LOST))
 400:Generated_Source\PSoC4/I2C_1_I2C_MASTER.c ****             {
 401:Generated_Source\PSoC4/I2C_1_I2C_MASTER.c ****                 I2C_1_state = I2C_1_I2C_FSM_IDLE;
 402:Generated_Source\PSoC4/I2C_1_I2C_MASTER.c ****                              errStatus = I2C_1_I2C_MSTR_ERR_ARB_LOST;
 403:Generated_Source\PSoC4/I2C_1_I2C_MASTER.c ****                              resetIp   = I2C_1_I2C_RESET_ERROR;
 404:Generated_Source\PSoC4/I2C_1_I2C_MASTER.c ****             }
 405:Generated_Source\PSoC4/I2C_1_I2C_MASTER.c ****             else /* I2C_1_INTR_MASTER_I2C_BUS_ERROR set is else condition */
 406:Generated_Source\PSoC4/I2C_1_I2C_MASTER.c ****             {
 407:Generated_Source\PSoC4/I2C_1_I2C_MASTER.c ****                 I2C_1_state = I2C_1_I2C_FSM_IDLE;
 408:Generated_Source\PSoC4/I2C_1_I2C_MASTER.c ****                              errStatus = I2C_1_I2C_MSTR_ERR_BUS_ERR;
 409:Generated_Source\PSoC4/I2C_1_I2C_MASTER.c ****                              resetIp   = I2C_1_I2C_RESET_ERROR;
 410:Generated_Source\PSoC4/I2C_1_I2C_MASTER.c ****             }
 411:Generated_Source\PSoC4/I2C_1_I2C_MASTER.c **** 
 412:Generated_Source\PSoC4/I2C_1_I2C_MASTER.c ****             I2C_1_ClearMasterInterruptSource(I2C_1_INTR_MASTER_I2C_ACK      |
 413:Generated_Source\PSoC4/I2C_1_I2C_MASTER.c ****                                                         I2C_1_INTR_MASTER_I2C_NACK     |
 414:Generated_Source\PSoC4/I2C_1_I2C_MASTER.c ****                                                         I2C_1_INTR_MASTER_I2C_ARB_LOST |
 415:Generated_Source\PSoC4/I2C_1_I2C_MASTER.c ****                                                         I2C_1_INTR_MASTER_I2C_BUS_ERROR);
 416:Generated_Source\PSoC4/I2C_1_I2C_MASTER.c **** 
 417:Generated_Source\PSoC4/I2C_1_I2C_MASTER.c ****             /* Reset block in case of: LOST_ARB or BUS_ERR */
 418:Generated_Source\PSoC4/I2C_1_I2C_MASTER.c ****             if(0u != resetIp)
 419:Generated_Source\PSoC4/I2C_1_I2C_MASTER.c ****             {
 420:Generated_Source\PSoC4/I2C_1_I2C_MASTER.c ****                 I2C_1_SCB_SW_RESET;
 421:Generated_Source\PSoC4/I2C_1_I2C_MASTER.c ****             }
 422:Generated_Source\PSoC4/I2C_1_I2C_MASTER.c ****         }
 423:Generated_Source\PSoC4/I2C_1_I2C_MASTER.c ****     }
 424:Generated_Source\PSoC4/I2C_1_I2C_MASTER.c **** 
 425:Generated_Source\PSoC4/I2C_1_I2C_MASTER.c ****     return(errStatus);
 426:Generated_Source\PSoC4/I2C_1_I2C_MASTER.c **** }
 427:Generated_Source\PSoC4/I2C_1_I2C_MASTER.c **** 
 428:Generated_Source\PSoC4/I2C_1_I2C_MASTER.c **** 
 429:Generated_Source\PSoC4/I2C_1_I2C_MASTER.c **** /*******************************************************************************
 430:Generated_Source\PSoC4/I2C_1_I2C_MASTER.c **** * Function Name: I2C_1_I2CMasterSendRestart
 431:Generated_Source\PSoC4/I2C_1_I2C_MASTER.c **** ****************************************************************************//**
 432:Generated_Source\PSoC4/I2C_1_I2C_MASTER.c **** *
 433:Generated_Source\PSoC4/I2C_1_I2C_MASTER.c **** *  Generates Restart condition and sends slave address with read/write bit.
 434:Generated_Source\PSoC4/I2C_1_I2C_MASTER.c **** *  This function is blocking and does not return until start condition and
 435:Generated_Source\PSoC4/I2C_1_I2C_MASTER.c **** *  address are sent and ACK/NACK response is received or errors occurred.
 436:Generated_Source\PSoC4/I2C_1_I2C_MASTER.c **** *
 437:Generated_Source\PSoC4/I2C_1_I2C_MASTER.c **** * \param slaveAddress: Right justified 7-bit Slave address (valid range 
 438:Generated_Source\PSoC4/I2C_1_I2C_MASTER.c **** *   8 to 120).
 439:Generated_Source\PSoC4/I2C_1_I2C_MASTER.c **** * \param bitRnW: Direction of the following transfer. It is defined by 
 440:Generated_Source\PSoC4/I2C_1_I2C_MASTER.c **** *  read/write bit within address byte. 
 441:Generated_Source\PSoC4/I2C_1_I2C_MASTER.c **** *  See I2C_1_I2CMasterSendStart() function for constants.
 442:Generated_Source\PSoC4/I2C_1_I2C_MASTER.c **** *
 443:Generated_Source\PSoC4/I2C_1_I2C_MASTER.c **** * \return
 444:Generated_Source\PSoC4/I2C_1_I2C_MASTER.c **** *  Error status. 
 445:Generated_Source\PSoC4/I2C_1_I2C_MASTER.c **** *  See I2C_1_I2CMasterSendStart() function for constants.
 446:Generated_Source\PSoC4/I2C_1_I2C_MASTER.c **** *
 447:Generated_Source\PSoC4/I2C_1_I2C_MASTER.c **** * \sideeffect
 448:Generated_Source\PSoC4/I2C_1_I2C_MASTER.c **** *  A valid Start or ReStart condition must be generated before calling 
 449:Generated_Source\PSoC4/I2C_1_I2C_MASTER.c **** *  this function. This function does nothing if Start or ReStart conditions 
ARM GAS  C:\Users\glenn\AppData\Local\Temp\cclrFd8J.s 			page 12


 450:Generated_Source\PSoC4/I2C_1_I2C_MASTER.c **** *  failed before this function was called.
 451:Generated_Source\PSoC4/I2C_1_I2C_MASTER.c **** *  For read transaction, at least one byte has to be read before ReStart 
 452:Generated_Source\PSoC4/I2C_1_I2C_MASTER.c **** *  generation.
 453:Generated_Source\PSoC4/I2C_1_I2C_MASTER.c **** *
 454:Generated_Source\PSoC4/I2C_1_I2C_MASTER.c **** * \globalvars
 455:Generated_Source\PSoC4/I2C_1_I2C_MASTER.c **** *  I2C_1_state - used to store current state of software FSM.
 456:Generated_Source\PSoC4/I2C_1_I2C_MASTER.c **** *
 457:Generated_Source\PSoC4/I2C_1_I2C_MASTER.c **** *******************************************************************************/
 458:Generated_Source\PSoC4/I2C_1_I2C_MASTER.c **** uint32 I2C_1_I2CMasterSendRestart(uint32 slaveAddress, uint32 bitRnW)
 459:Generated_Source\PSoC4/I2C_1_I2C_MASTER.c **** {
 460:Generated_Source\PSoC4/I2C_1_I2C_MASTER.c ****     uint32 resetIp;
 461:Generated_Source\PSoC4/I2C_1_I2C_MASTER.c ****     uint32 errStatus;
 462:Generated_Source\PSoC4/I2C_1_I2C_MASTER.c **** 
 463:Generated_Source\PSoC4/I2C_1_I2C_MASTER.c ****     resetIp   = 0u;
 464:Generated_Source\PSoC4/I2C_1_I2C_MASTER.c ****     errStatus = I2C_1_I2C_MSTR_NOT_READY;
 465:Generated_Source\PSoC4/I2C_1_I2C_MASTER.c **** 
 466:Generated_Source\PSoC4/I2C_1_I2C_MASTER.c ****     /* Check FSM state before generating ReStart condition */
 467:Generated_Source\PSoC4/I2C_1_I2C_MASTER.c ****     if(I2C_1_CHECK_I2C_MASTER_ACTIVE)
 468:Generated_Source\PSoC4/I2C_1_I2C_MASTER.c ****     {
 469:Generated_Source\PSoC4/I2C_1_I2C_MASTER.c ****         slaveAddress = I2C_1_GET_I2C_8BIT_ADDRESS(slaveAddress);
 470:Generated_Source\PSoC4/I2C_1_I2C_MASTER.c **** 
 471:Generated_Source\PSoC4/I2C_1_I2C_MASTER.c ****         if(0u == bitRnW) /* Write direction */
 472:Generated_Source\PSoC4/I2C_1_I2C_MASTER.c ****         {
 473:Generated_Source\PSoC4/I2C_1_I2C_MASTER.c ****             I2C_1_state = I2C_1_I2C_FSM_MSTR_WR_DATA;
 474:Generated_Source\PSoC4/I2C_1_I2C_MASTER.c ****         }
 475:Generated_Source\PSoC4/I2C_1_I2C_MASTER.c ****         else  /* Read direction */
 476:Generated_Source\PSoC4/I2C_1_I2C_MASTER.c ****         {
 477:Generated_Source\PSoC4/I2C_1_I2C_MASTER.c ****             I2C_1_state  = I2C_1_I2C_FSM_MSTR_RD_DATA;
 478:Generated_Source\PSoC4/I2C_1_I2C_MASTER.c ****                       slaveAddress |= I2C_1_I2C_READ_FLAG;
 479:Generated_Source\PSoC4/I2C_1_I2C_MASTER.c ****         }
 480:Generated_Source\PSoC4/I2C_1_I2C_MASTER.c **** 
 481:Generated_Source\PSoC4/I2C_1_I2C_MASTER.c ****         /* TX and RX FIFO have to be EMPTY */
 482:Generated_Source\PSoC4/I2C_1_I2C_MASTER.c **** 
 483:Generated_Source\PSoC4/I2C_1_I2C_MASTER.c ****         /* Clean-up interrupt status */
 484:Generated_Source\PSoC4/I2C_1_I2C_MASTER.c ****         I2C_1_ClearMasterInterruptSource(I2C_1_INTR_MASTER_ALL);
 485:Generated_Source\PSoC4/I2C_1_I2C_MASTER.c **** 
 486:Generated_Source\PSoC4/I2C_1_I2C_MASTER.c ****         /* A proper ReStart sequence is: generate ReStart, then put an address byte in the TX FIFO.
 487:Generated_Source\PSoC4/I2C_1_I2C_MASTER.c ****         * Otherwise the master treats the address in the TX FIFO as a data byte if a previous trans
 488:Generated_Source\PSoC4/I2C_1_I2C_MASTER.c ****         * The write transfer continues instead of ReStart.
 489:Generated_Source\PSoC4/I2C_1_I2C_MASTER.c ****         */
 490:Generated_Source\PSoC4/I2C_1_I2C_MASTER.c ****         I2C_1_I2C_MASTER_GENERATE_RESTART;
 491:Generated_Source\PSoC4/I2C_1_I2C_MASTER.c **** 
 492:Generated_Source\PSoC4/I2C_1_I2C_MASTER.c ****         while(I2C_1_CHECK_I2C_MASTER_CMD(I2C_1_I2C_MASTER_CMD_M_START))
 493:Generated_Source\PSoC4/I2C_1_I2C_MASTER.c ****         {
 494:Generated_Source\PSoC4/I2C_1_I2C_MASTER.c ****             /* Wait until ReStart has been generated */
 495:Generated_Source\PSoC4/I2C_1_I2C_MASTER.c ****         }
 496:Generated_Source\PSoC4/I2C_1_I2C_MASTER.c **** 
 497:Generated_Source\PSoC4/I2C_1_I2C_MASTER.c ****         /* Put address into TX FIFO */
 498:Generated_Source\PSoC4/I2C_1_I2C_MASTER.c ****         I2C_1_TX_FIFO_WR_REG = slaveAddress;
 499:Generated_Source\PSoC4/I2C_1_I2C_MASTER.c **** 
 500:Generated_Source\PSoC4/I2C_1_I2C_MASTER.c ****         /* Wait for address to be transferred */
 501:Generated_Source\PSoC4/I2C_1_I2C_MASTER.c ****         while(!I2C_1_CHECK_INTR_MASTER(I2C_1_INTR_MASTER_I2C_ACK      |
 502:Generated_Source\PSoC4/I2C_1_I2C_MASTER.c ****                                                   I2C_1_INTR_MASTER_I2C_NACK     |
 503:Generated_Source\PSoC4/I2C_1_I2C_MASTER.c ****                                                   I2C_1_INTR_MASTER_I2C_ARB_LOST |
 504:Generated_Source\PSoC4/I2C_1_I2C_MASTER.c ****                                                   I2C_1_INTR_MASTER_I2C_BUS_ERROR))
 505:Generated_Source\PSoC4/I2C_1_I2C_MASTER.c ****         {
 506:Generated_Source\PSoC4/I2C_1_I2C_MASTER.c ****             /* Wait until address has been transferred */
ARM GAS  C:\Users\glenn\AppData\Local\Temp\cclrFd8J.s 			page 13


 507:Generated_Source\PSoC4/I2C_1_I2C_MASTER.c ****         }
 508:Generated_Source\PSoC4/I2C_1_I2C_MASTER.c **** 
 509:Generated_Source\PSoC4/I2C_1_I2C_MASTER.c ****         /* Check results of address phase */
 510:Generated_Source\PSoC4/I2C_1_I2C_MASTER.c ****         if(I2C_1_CHECK_INTR_MASTER(I2C_1_INTR_MASTER_I2C_ACK))
 511:Generated_Source\PSoC4/I2C_1_I2C_MASTER.c ****         {
 512:Generated_Source\PSoC4/I2C_1_I2C_MASTER.c ****             errStatus = I2C_1_I2C_MSTR_NO_ERROR;
 513:Generated_Source\PSoC4/I2C_1_I2C_MASTER.c ****         }
 514:Generated_Source\PSoC4/I2C_1_I2C_MASTER.c ****         else if(I2C_1_CHECK_INTR_MASTER(I2C_1_INTR_MASTER_I2C_NACK))
 515:Generated_Source\PSoC4/I2C_1_I2C_MASTER.c ****         {
 516:Generated_Source\PSoC4/I2C_1_I2C_MASTER.c ****              errStatus = I2C_1_I2C_MSTR_ERR_LB_NAK;
 517:Generated_Source\PSoC4/I2C_1_I2C_MASTER.c ****         }
 518:Generated_Source\PSoC4/I2C_1_I2C_MASTER.c ****         else if(I2C_1_CHECK_INTR_MASTER(I2C_1_INTR_MASTER_I2C_ARB_LOST))
 519:Generated_Source\PSoC4/I2C_1_I2C_MASTER.c ****         {
 520:Generated_Source\PSoC4/I2C_1_I2C_MASTER.c ****             I2C_1_state = I2C_1_I2C_FSM_IDLE;
 521:Generated_Source\PSoC4/I2C_1_I2C_MASTER.c ****                          errStatus = I2C_1_I2C_MSTR_ERR_ARB_LOST;
 522:Generated_Source\PSoC4/I2C_1_I2C_MASTER.c ****                          resetIp   = I2C_1_I2C_RESET_ERROR;
 523:Generated_Source\PSoC4/I2C_1_I2C_MASTER.c ****         }
 524:Generated_Source\PSoC4/I2C_1_I2C_MASTER.c ****         else /* I2C_1_INTR_MASTER_I2C_BUS_ERROR set is else condition */
 525:Generated_Source\PSoC4/I2C_1_I2C_MASTER.c ****         {
 526:Generated_Source\PSoC4/I2C_1_I2C_MASTER.c ****             I2C_1_state = I2C_1_I2C_FSM_IDLE;
 527:Generated_Source\PSoC4/I2C_1_I2C_MASTER.c ****                          errStatus = I2C_1_I2C_MSTR_ERR_BUS_ERR;
 528:Generated_Source\PSoC4/I2C_1_I2C_MASTER.c ****                          resetIp   = I2C_1_I2C_RESET_ERROR;
 529:Generated_Source\PSoC4/I2C_1_I2C_MASTER.c ****         }
 530:Generated_Source\PSoC4/I2C_1_I2C_MASTER.c **** 
 531:Generated_Source\PSoC4/I2C_1_I2C_MASTER.c ****         I2C_1_ClearMasterInterruptSource(I2C_1_INTR_MASTER_I2C_ACK      |
 532:Generated_Source\PSoC4/I2C_1_I2C_MASTER.c ****                                                     I2C_1_INTR_MASTER_I2C_NACK     |
 533:Generated_Source\PSoC4/I2C_1_I2C_MASTER.c ****                                                     I2C_1_INTR_MASTER_I2C_ARB_LOST |
 534:Generated_Source\PSoC4/I2C_1_I2C_MASTER.c ****                                                     I2C_1_INTR_MASTER_I2C_BUS_ERROR);
 535:Generated_Source\PSoC4/I2C_1_I2C_MASTER.c **** 
 536:Generated_Source\PSoC4/I2C_1_I2C_MASTER.c ****         /* Reset block in case of: LOST_ARB or BUS_ERR */
 537:Generated_Source\PSoC4/I2C_1_I2C_MASTER.c ****         if(0u != resetIp)
 538:Generated_Source\PSoC4/I2C_1_I2C_MASTER.c ****         {
 539:Generated_Source\PSoC4/I2C_1_I2C_MASTER.c ****             I2C_1_SCB_SW_RESET;
 540:Generated_Source\PSoC4/I2C_1_I2C_MASTER.c ****         }
 541:Generated_Source\PSoC4/I2C_1_I2C_MASTER.c ****     }
 542:Generated_Source\PSoC4/I2C_1_I2C_MASTER.c **** 
 543:Generated_Source\PSoC4/I2C_1_I2C_MASTER.c ****     return(errStatus);
 544:Generated_Source\PSoC4/I2C_1_I2C_MASTER.c **** }
 545:Generated_Source\PSoC4/I2C_1_I2C_MASTER.c **** 
 546:Generated_Source\PSoC4/I2C_1_I2C_MASTER.c **** 
 547:Generated_Source\PSoC4/I2C_1_I2C_MASTER.c **** /*******************************************************************************
 548:Generated_Source\PSoC4/I2C_1_I2C_MASTER.c **** * Function Name: I2C_1_I2CMasterSendStop
 549:Generated_Source\PSoC4/I2C_1_I2C_MASTER.c **** ****************************************************************************//**
 550:Generated_Source\PSoC4/I2C_1_I2C_MASTER.c **** *
 551:Generated_Source\PSoC4/I2C_1_I2C_MASTER.c **** *  Generates Stop condition on the bus. 
 552:Generated_Source\PSoC4/I2C_1_I2C_MASTER.c **** *  The NAK is generated before Stop in case of a read transaction.
 553:Generated_Source\PSoC4/I2C_1_I2C_MASTER.c **** *  At least one byte has to be read if a Start or ReStart condition with read 
 554:Generated_Source\PSoC4/I2C_1_I2C_MASTER.c **** *  direction was generated before.
 555:Generated_Source\PSoC4/I2C_1_I2C_MASTER.c **** *  This function is blocking and does not return until a Stop condition is 
 556:Generated_Source\PSoC4/I2C_1_I2C_MASTER.c **** *  generated or error occurred.
 557:Generated_Source\PSoC4/I2C_1_I2C_MASTER.c **** *
 558:Generated_Source\PSoC4/I2C_1_I2C_MASTER.c **** * \return
 559:Generated_Source\PSoC4/I2C_1_I2C_MASTER.c **** *  Error status.
 560:Generated_Source\PSoC4/I2C_1_I2C_MASTER.c **** *  See I2C_1_I2CMasterSendStart() function for constants.
 561:Generated_Source\PSoC4/I2C_1_I2C_MASTER.c **** *
 562:Generated_Source\PSoC4/I2C_1_I2C_MASTER.c **** * \sideeffect
 563:Generated_Source\PSoC4/I2C_1_I2C_MASTER.c **** *  A valid Start or ReStart condition must be generated before calling 
ARM GAS  C:\Users\glenn\AppData\Local\Temp\cclrFd8J.s 			page 14


 564:Generated_Source\PSoC4/I2C_1_I2C_MASTER.c **** *  this function. This function does nothing if Start or ReStart conditions 
 565:Generated_Source\PSoC4/I2C_1_I2C_MASTER.c **** *  failed before this function was called.
 566:Generated_Source\PSoC4/I2C_1_I2C_MASTER.c **** *  For read transaction, at least one byte has to be read before ReStart 
 567:Generated_Source\PSoC4/I2C_1_I2C_MASTER.c **** *  generation.
 568:Generated_Source\PSoC4/I2C_1_I2C_MASTER.c **** *
 569:Generated_Source\PSoC4/I2C_1_I2C_MASTER.c **** * \globalvars
 570:Generated_Source\PSoC4/I2C_1_I2C_MASTER.c **** *  I2C_1_state - used to store current state of software FSM.
 571:Generated_Source\PSoC4/I2C_1_I2C_MASTER.c **** *
 572:Generated_Source\PSoC4/I2C_1_I2C_MASTER.c **** *******************************************************************************/
 573:Generated_Source\PSoC4/I2C_1_I2C_MASTER.c **** uint32 I2C_1_I2CMasterSendStop(void)
 574:Generated_Source\PSoC4/I2C_1_I2C_MASTER.c **** {
 575:Generated_Source\PSoC4/I2C_1_I2C_MASTER.c ****     uint32 resetIp;
 576:Generated_Source\PSoC4/I2C_1_I2C_MASTER.c ****     uint32 errStatus;
 577:Generated_Source\PSoC4/I2C_1_I2C_MASTER.c **** 
 578:Generated_Source\PSoC4/I2C_1_I2C_MASTER.c ****     resetIp   = 0u;
 579:Generated_Source\PSoC4/I2C_1_I2C_MASTER.c ****     errStatus = I2C_1_I2C_MSTR_NOT_READY;
 580:Generated_Source\PSoC4/I2C_1_I2C_MASTER.c **** 
 581:Generated_Source\PSoC4/I2C_1_I2C_MASTER.c ****     /* Check FSM state before generating Stop condition */
 582:Generated_Source\PSoC4/I2C_1_I2C_MASTER.c ****     if(I2C_1_CHECK_I2C_MASTER_ACTIVE)
 583:Generated_Source\PSoC4/I2C_1_I2C_MASTER.c ****     {
 584:Generated_Source\PSoC4/I2C_1_I2C_MASTER.c ****         /*
 585:Generated_Source\PSoC4/I2C_1_I2C_MASTER.c ****         * Write direction: generates Stop
 586:Generated_Source\PSoC4/I2C_1_I2C_MASTER.c ****         * Read  direction: generates NACK and Stop
 587:Generated_Source\PSoC4/I2C_1_I2C_MASTER.c ****         */
 588:Generated_Source\PSoC4/I2C_1_I2C_MASTER.c ****         I2C_1_I2C_MASTER_GENERATE_STOP;
 589:Generated_Source\PSoC4/I2C_1_I2C_MASTER.c **** 
 590:Generated_Source\PSoC4/I2C_1_I2C_MASTER.c ****         while(!I2C_1_CHECK_INTR_MASTER(I2C_1_INTR_MASTER_I2C_STOP     |
 591:Generated_Source\PSoC4/I2C_1_I2C_MASTER.c ****                                                   I2C_1_INTR_MASTER_I2C_ARB_LOST |
 592:Generated_Source\PSoC4/I2C_1_I2C_MASTER.c ****                                                   I2C_1_INTR_MASTER_I2C_BUS_ERROR))
 593:Generated_Source\PSoC4/I2C_1_I2C_MASTER.c ****         {
 594:Generated_Source\PSoC4/I2C_1_I2C_MASTER.c ****             /* Wait until Stop has been generated */
 595:Generated_Source\PSoC4/I2C_1_I2C_MASTER.c ****         }
 596:Generated_Source\PSoC4/I2C_1_I2C_MASTER.c **** 
 597:Generated_Source\PSoC4/I2C_1_I2C_MASTER.c ****         /* Check Stop generation */
 598:Generated_Source\PSoC4/I2C_1_I2C_MASTER.c ****         if(I2C_1_CHECK_INTR_MASTER(I2C_1_INTR_MASTER_I2C_STOP))
 599:Generated_Source\PSoC4/I2C_1_I2C_MASTER.c ****         {
 600:Generated_Source\PSoC4/I2C_1_I2C_MASTER.c ****             errStatus = I2C_1_I2C_MSTR_NO_ERROR;
 601:Generated_Source\PSoC4/I2C_1_I2C_MASTER.c ****         }
 602:Generated_Source\PSoC4/I2C_1_I2C_MASTER.c ****         else if(I2C_1_CHECK_INTR_MASTER(I2C_1_INTR_MASTER_I2C_ARB_LOST))
 603:Generated_Source\PSoC4/I2C_1_I2C_MASTER.c ****         {
 604:Generated_Source\PSoC4/I2C_1_I2C_MASTER.c ****             errStatus = I2C_1_I2C_MSTR_ERR_ARB_LOST;
 605:Generated_Source\PSoC4/I2C_1_I2C_MASTER.c ****             resetIp   = I2C_1_I2C_RESET_ERROR;
 606:Generated_Source\PSoC4/I2C_1_I2C_MASTER.c ****         }
 607:Generated_Source\PSoC4/I2C_1_I2C_MASTER.c ****         else /* I2C_1_INTR_MASTER_I2C_BUS_ERROR is set */
 608:Generated_Source\PSoC4/I2C_1_I2C_MASTER.c ****         {
 609:Generated_Source\PSoC4/I2C_1_I2C_MASTER.c ****             errStatus = I2C_1_I2C_MSTR_ERR_BUS_ERR;
 610:Generated_Source\PSoC4/I2C_1_I2C_MASTER.c ****             resetIp   = I2C_1_I2C_RESET_ERROR;
 611:Generated_Source\PSoC4/I2C_1_I2C_MASTER.c ****         }
 612:Generated_Source\PSoC4/I2C_1_I2C_MASTER.c **** 
 613:Generated_Source\PSoC4/I2C_1_I2C_MASTER.c ****         I2C_1_ClearMasterInterruptSource(I2C_1_INTR_MASTER_I2C_STOP     |
 614:Generated_Source\PSoC4/I2C_1_I2C_MASTER.c ****                                                     I2C_1_INTR_MASTER_I2C_ARB_LOST |
 615:Generated_Source\PSoC4/I2C_1_I2C_MASTER.c ****                                                     I2C_1_INTR_MASTER_I2C_BUS_ERROR);
 616:Generated_Source\PSoC4/I2C_1_I2C_MASTER.c **** 
 617:Generated_Source\PSoC4/I2C_1_I2C_MASTER.c ****         I2C_1_state = I2C_1_I2C_FSM_IDLE;
 618:Generated_Source\PSoC4/I2C_1_I2C_MASTER.c **** 
 619:Generated_Source\PSoC4/I2C_1_I2C_MASTER.c ****         /* Reset block in case of: LOST_ARB or BUS_ERR */
 620:Generated_Source\PSoC4/I2C_1_I2C_MASTER.c ****         if(0u != resetIp)
ARM GAS  C:\Users\glenn\AppData\Local\Temp\cclrFd8J.s 			page 15


 621:Generated_Source\PSoC4/I2C_1_I2C_MASTER.c ****         {
 622:Generated_Source\PSoC4/I2C_1_I2C_MASTER.c ****             I2C_1_SCB_SW_RESET;
 623:Generated_Source\PSoC4/I2C_1_I2C_MASTER.c ****         }
 624:Generated_Source\PSoC4/I2C_1_I2C_MASTER.c ****     }
 625:Generated_Source\PSoC4/I2C_1_I2C_MASTER.c **** 
 626:Generated_Source\PSoC4/I2C_1_I2C_MASTER.c ****     return(errStatus);
 627:Generated_Source\PSoC4/I2C_1_I2C_MASTER.c **** }
 628:Generated_Source\PSoC4/I2C_1_I2C_MASTER.c **** 
 629:Generated_Source\PSoC4/I2C_1_I2C_MASTER.c **** 
 630:Generated_Source\PSoC4/I2C_1_I2C_MASTER.c **** /*******************************************************************************
 631:Generated_Source\PSoC4/I2C_1_I2C_MASTER.c **** * Function Name: I2C_1_I2CMasterWriteByte
 632:Generated_Source\PSoC4/I2C_1_I2C_MASTER.c **** ****************************************************************************//**
 633:Generated_Source\PSoC4/I2C_1_I2C_MASTER.c **** *
 634:Generated_Source\PSoC4/I2C_1_I2C_MASTER.c **** *  Sends one byte to a slave.
 635:Generated_Source\PSoC4/I2C_1_I2C_MASTER.c **** *  This function is blocking and does not return until byte is transmitted
 636:Generated_Source\PSoC4/I2C_1_I2C_MASTER.c **** *  or error occurred.
 637:Generated_Source\PSoC4/I2C_1_I2C_MASTER.c **** *
 638:Generated_Source\PSoC4/I2C_1_I2C_MASTER.c **** * \param data: The data byte to send to the slave.
 639:Generated_Source\PSoC4/I2C_1_I2C_MASTER.c **** *
 640:Generated_Source\PSoC4/I2C_1_I2C_MASTER.c **** * \return
 641:Generated_Source\PSoC4/I2C_1_I2C_MASTER.c **** *  Error status.
 642:Generated_Source\PSoC4/I2C_1_I2C_MASTER.c **** *  See I2C_1_I2CMasterSendStart() function for constants.
 643:Generated_Source\PSoC4/I2C_1_I2C_MASTER.c **** *
 644:Generated_Source\PSoC4/I2C_1_I2C_MASTER.c **** * \sideeffect
 645:Generated_Source\PSoC4/I2C_1_I2C_MASTER.c **** *  A valid Start or ReStart condition must be generated before calling
 646:Generated_Source\PSoC4/I2C_1_I2C_MASTER.c **** *  this function. This function does nothing if Start or ReStart condition
 647:Generated_Source\PSoC4/I2C_1_I2C_MASTER.c **** *  failed before this function was called.
 648:Generated_Source\PSoC4/I2C_1_I2C_MASTER.c **** *
 649:Generated_Source\PSoC4/I2C_1_I2C_MASTER.c **** * \globalvars
 650:Generated_Source\PSoC4/I2C_1_I2C_MASTER.c **** *  I2C_1_state - used to store current state of software FSM.
 651:Generated_Source\PSoC4/I2C_1_I2C_MASTER.c **** *
 652:Generated_Source\PSoC4/I2C_1_I2C_MASTER.c **** *******************************************************************************/
 653:Generated_Source\PSoC4/I2C_1_I2C_MASTER.c **** uint32 I2C_1_I2CMasterWriteByte(uint32 theByte)
 654:Generated_Source\PSoC4/I2C_1_I2C_MASTER.c **** {
 655:Generated_Source\PSoC4/I2C_1_I2C_MASTER.c ****     uint32 resetIp;
 656:Generated_Source\PSoC4/I2C_1_I2C_MASTER.c ****     uint32 errStatus;
 657:Generated_Source\PSoC4/I2C_1_I2C_MASTER.c **** 
 658:Generated_Source\PSoC4/I2C_1_I2C_MASTER.c ****     resetIp   = 0u;
 659:Generated_Source\PSoC4/I2C_1_I2C_MASTER.c ****     errStatus = I2C_1_I2C_MSTR_NOT_READY;
 660:Generated_Source\PSoC4/I2C_1_I2C_MASTER.c **** 
 661:Generated_Source\PSoC4/I2C_1_I2C_MASTER.c ****     /* Check FSM state before write byte */
 662:Generated_Source\PSoC4/I2C_1_I2C_MASTER.c ****     if(I2C_1_CHECK_I2C_MASTER_ACTIVE)
 663:Generated_Source\PSoC4/I2C_1_I2C_MASTER.c ****     {
 664:Generated_Source\PSoC4/I2C_1_I2C_MASTER.c ****         I2C_1_TX_FIFO_WR_REG = theByte;
 665:Generated_Source\PSoC4/I2C_1_I2C_MASTER.c **** 
 666:Generated_Source\PSoC4/I2C_1_I2C_MASTER.c ****         while(!I2C_1_CHECK_INTR_MASTER(I2C_1_INTR_MASTER_I2C_ACK      |
 667:Generated_Source\PSoC4/I2C_1_I2C_MASTER.c ****                                                   I2C_1_INTR_MASTER_I2C_NACK     |
 668:Generated_Source\PSoC4/I2C_1_I2C_MASTER.c ****                                                   I2C_1_INTR_MASTER_I2C_ARB_LOST |
 669:Generated_Source\PSoC4/I2C_1_I2C_MASTER.c ****                                                   I2C_1_INTR_MASTER_I2C_BUS_ERROR))
 670:Generated_Source\PSoC4/I2C_1_I2C_MASTER.c ****         {
 671:Generated_Source\PSoC4/I2C_1_I2C_MASTER.c ****             /* Wait until byte has been transferred */
 672:Generated_Source\PSoC4/I2C_1_I2C_MASTER.c ****         }
 673:Generated_Source\PSoC4/I2C_1_I2C_MASTER.c **** 
 674:Generated_Source\PSoC4/I2C_1_I2C_MASTER.c ****         /* Check results after byte was sent */
 675:Generated_Source\PSoC4/I2C_1_I2C_MASTER.c ****         if(I2C_1_CHECK_INTR_MASTER(I2C_1_INTR_MASTER_I2C_ACK))
 676:Generated_Source\PSoC4/I2C_1_I2C_MASTER.c ****         {
 677:Generated_Source\PSoC4/I2C_1_I2C_MASTER.c ****             I2C_1_state = I2C_1_I2C_FSM_MSTR_HALT;
ARM GAS  C:\Users\glenn\AppData\Local\Temp\cclrFd8J.s 			page 16


 678:Generated_Source\PSoC4/I2C_1_I2C_MASTER.c ****                          errStatus = I2C_1_I2C_MSTR_NO_ERROR;
 679:Generated_Source\PSoC4/I2C_1_I2C_MASTER.c ****         }
 680:Generated_Source\PSoC4/I2C_1_I2C_MASTER.c ****         else if(I2C_1_CHECK_INTR_MASTER(I2C_1_INTR_MASTER_I2C_NACK))
 681:Generated_Source\PSoC4/I2C_1_I2C_MASTER.c ****         {
 682:Generated_Source\PSoC4/I2C_1_I2C_MASTER.c ****             I2C_1_state = I2C_1_I2C_FSM_MSTR_HALT;
 683:Generated_Source\PSoC4/I2C_1_I2C_MASTER.c ****                          errStatus = I2C_1_I2C_MSTR_ERR_LB_NAK;
 684:Generated_Source\PSoC4/I2C_1_I2C_MASTER.c ****         }
 685:Generated_Source\PSoC4/I2C_1_I2C_MASTER.c ****         else if(I2C_1_CHECK_INTR_MASTER(I2C_1_INTR_MASTER_I2C_ARB_LOST))
 686:Generated_Source\PSoC4/I2C_1_I2C_MASTER.c ****         {
 687:Generated_Source\PSoC4/I2C_1_I2C_MASTER.c ****             I2C_1_state = I2C_1_I2C_FSM_IDLE;
 688:Generated_Source\PSoC4/I2C_1_I2C_MASTER.c ****                          errStatus = I2C_1_I2C_MSTR_ERR_ARB_LOST;
 689:Generated_Source\PSoC4/I2C_1_I2C_MASTER.c ****                          resetIp   = I2C_1_I2C_RESET_ERROR;
 690:Generated_Source\PSoC4/I2C_1_I2C_MASTER.c ****         }
 691:Generated_Source\PSoC4/I2C_1_I2C_MASTER.c ****         else /* I2C_1_INTR_MASTER_I2C_BUS_ERROR set is */
 692:Generated_Source\PSoC4/I2C_1_I2C_MASTER.c ****         {
 693:Generated_Source\PSoC4/I2C_1_I2C_MASTER.c ****             I2C_1_state = I2C_1_I2C_FSM_IDLE;
 694:Generated_Source\PSoC4/I2C_1_I2C_MASTER.c ****                          errStatus = I2C_1_I2C_MSTR_ERR_BUS_ERR;
 695:Generated_Source\PSoC4/I2C_1_I2C_MASTER.c ****                          resetIp   = I2C_1_I2C_RESET_ERROR;
 696:Generated_Source\PSoC4/I2C_1_I2C_MASTER.c ****         }
 697:Generated_Source\PSoC4/I2C_1_I2C_MASTER.c **** 
 698:Generated_Source\PSoC4/I2C_1_I2C_MASTER.c ****         I2C_1_ClearMasterInterruptSource(I2C_1_INTR_MASTER_I2C_ACK      |
 699:Generated_Source\PSoC4/I2C_1_I2C_MASTER.c ****                                                     I2C_1_INTR_MASTER_I2C_NACK     |
 700:Generated_Source\PSoC4/I2C_1_I2C_MASTER.c ****                                                     I2C_1_INTR_MASTER_I2C_ARB_LOST |
 701:Generated_Source\PSoC4/I2C_1_I2C_MASTER.c ****                                                     I2C_1_INTR_MASTER_I2C_BUS_ERROR);
 702:Generated_Source\PSoC4/I2C_1_I2C_MASTER.c **** 
 703:Generated_Source\PSoC4/I2C_1_I2C_MASTER.c ****         /* Reset block in case of: LOST_ARB or BUS_ERR */
 704:Generated_Source\PSoC4/I2C_1_I2C_MASTER.c ****         if(0u != resetIp)
 705:Generated_Source\PSoC4/I2C_1_I2C_MASTER.c ****         {
 706:Generated_Source\PSoC4/I2C_1_I2C_MASTER.c ****             I2C_1_SCB_SW_RESET;
 707:Generated_Source\PSoC4/I2C_1_I2C_MASTER.c ****         }
 708:Generated_Source\PSoC4/I2C_1_I2C_MASTER.c ****     }
 709:Generated_Source\PSoC4/I2C_1_I2C_MASTER.c **** 
 710:Generated_Source\PSoC4/I2C_1_I2C_MASTER.c ****     return(errStatus);
 711:Generated_Source\PSoC4/I2C_1_I2C_MASTER.c **** }
 712:Generated_Source\PSoC4/I2C_1_I2C_MASTER.c **** 
 713:Generated_Source\PSoC4/I2C_1_I2C_MASTER.c **** 
 714:Generated_Source\PSoC4/I2C_1_I2C_MASTER.c **** /*******************************************************************************
 715:Generated_Source\PSoC4/I2C_1_I2C_MASTER.c **** * Function Name: I2C_1_I2CMasterReadByte
 716:Generated_Source\PSoC4/I2C_1_I2C_MASTER.c **** ****************************************************************************//**
 717:Generated_Source\PSoC4/I2C_1_I2C_MASTER.c **** *
 718:Generated_Source\PSoC4/I2C_1_I2C_MASTER.c **** *  Reads one byte from a slave and generates ACK or prepares to generate NAK. 
 719:Generated_Source\PSoC4/I2C_1_I2C_MASTER.c **** *  The NAK will be generated before Stop or ReStart condition by 
 720:Generated_Source\PSoC4/I2C_1_I2C_MASTER.c **** *  I2C_1_I2CMasterSendStop() or 
 721:Generated_Source\PSoC4/I2C_1_I2C_MASTER.c **** *  I2C_1_I2CMasterSendRestart() function appropriately.
 722:Generated_Source\PSoC4/I2C_1_I2C_MASTER.c **** *  This function is blocking. It does not return until a byte is received or 
 723:Generated_Source\PSoC4/I2C_1_I2C_MASTER.c **** *  an error occurs.
 724:Generated_Source\PSoC4/I2C_1_I2C_MASTER.c **** *
 725:Generated_Source\PSoC4/I2C_1_I2C_MASTER.c **** * \param ackNack: Response to received byte.
 726:Generated_Source\PSoC4/I2C_1_I2C_MASTER.c **** *  - I2C_1_I2C_ACK_DATA - Generates ACK. 
 727:Generated_Source\PSoC4/I2C_1_I2C_MASTER.c **** *     The master notifies slave that transfer continues.
 728:Generated_Source\PSoC4/I2C_1_I2C_MASTER.c **** *  - I2C_1_I2C_NAK_DATA - Prepares to generate NAK.
 729:Generated_Source\PSoC4/I2C_1_I2C_MASTER.c **** *     The master will notify slave that transfer is completed.
 730:Generated_Source\PSoC4/I2C_1_I2C_MASTER.c **** *
 731:Generated_Source\PSoC4/I2C_1_I2C_MASTER.c **** * \return
 732:Generated_Source\PSoC4/I2C_1_I2C_MASTER.c **** *  Byte read from the slave. In case of error the MSB of returned data 
 733:Generated_Source\PSoC4/I2C_1_I2C_MASTER.c **** *  is set to 1.
 734:Generated_Source\PSoC4/I2C_1_I2C_MASTER.c **** *
ARM GAS  C:\Users\glenn\AppData\Local\Temp\cclrFd8J.s 			page 17


 735:Generated_Source\PSoC4/I2C_1_I2C_MASTER.c **** * \sideeffect
 736:Generated_Source\PSoC4/I2C_1_I2C_MASTER.c **** *  A valid Start or ReStart condition must be generated before calling
 737:Generated_Source\PSoC4/I2C_1_I2C_MASTER.c **** *  this function. This function does nothing if Start or ReStart condition
 738:Generated_Source\PSoC4/I2C_1_I2C_MASTER.c **** *  failed before this function was called.
 739:Generated_Source\PSoC4/I2C_1_I2C_MASTER.c **** *
 740:Generated_Source\PSoC4/I2C_1_I2C_MASTER.c **** * \globalvars
 741:Generated_Source\PSoC4/I2C_1_I2C_MASTER.c **** *  I2C_1_state - used to store current state of software FSM.
 742:Generated_Source\PSoC4/I2C_1_I2C_MASTER.c **** *
 743:Generated_Source\PSoC4/I2C_1_I2C_MASTER.c **** *******************************************************************************/
 744:Generated_Source\PSoC4/I2C_1_I2C_MASTER.c **** uint32 I2C_1_I2CMasterReadByte(uint32 ackNack)
 745:Generated_Source\PSoC4/I2C_1_I2C_MASTER.c **** {
 746:Generated_Source\PSoC4/I2C_1_I2C_MASTER.c ****     uint32 theByte;
 747:Generated_Source\PSoC4/I2C_1_I2C_MASTER.c **** 
 748:Generated_Source\PSoC4/I2C_1_I2C_MASTER.c ****     /* Return invalid byte in case BUS_ERR happen during receiving */
 749:Generated_Source\PSoC4/I2C_1_I2C_MASTER.c ****     theByte = I2C_1_I2C_INVALID_BYTE;
 750:Generated_Source\PSoC4/I2C_1_I2C_MASTER.c **** 
 751:Generated_Source\PSoC4/I2C_1_I2C_MASTER.c ****     /* Check FSM state before read byte */
 752:Generated_Source\PSoC4/I2C_1_I2C_MASTER.c ****     if(I2C_1_CHECK_I2C_MASTER_ACTIVE)
 753:Generated_Source\PSoC4/I2C_1_I2C_MASTER.c ****     {
 754:Generated_Source\PSoC4/I2C_1_I2C_MASTER.c ****         while((!I2C_1_CHECK_INTR_RX(I2C_1_INTR_RX_NOT_EMPTY)) &&
 755:Generated_Source\PSoC4/I2C_1_I2C_MASTER.c ****               (!I2C_1_CHECK_INTR_MASTER(I2C_1_INTR_MASTER_I2C_ARB_LOST |
 756:Generated_Source\PSoC4/I2C_1_I2C_MASTER.c ****                                                   I2C_1_INTR_MASTER_I2C_BUS_ERROR)))
 757:Generated_Source\PSoC4/I2C_1_I2C_MASTER.c ****         {
 758:Generated_Source\PSoC4/I2C_1_I2C_MASTER.c ****             /* Wait until byte has been received */
 759:Generated_Source\PSoC4/I2C_1_I2C_MASTER.c ****         }
 760:Generated_Source\PSoC4/I2C_1_I2C_MASTER.c **** 
 761:Generated_Source\PSoC4/I2C_1_I2C_MASTER.c ****         /* Check the results after the byte was sent */
 762:Generated_Source\PSoC4/I2C_1_I2C_MASTER.c ****         if(I2C_1_CHECK_INTR_RX(I2C_1_INTR_RX_NOT_EMPTY))
 763:Generated_Source\PSoC4/I2C_1_I2C_MASTER.c ****         {
 764:Generated_Source\PSoC4/I2C_1_I2C_MASTER.c ****             theByte = I2C_1_RX_FIFO_RD_REG;
 765:Generated_Source\PSoC4/I2C_1_I2C_MASTER.c **** 
 766:Generated_Source\PSoC4/I2C_1_I2C_MASTER.c ****             I2C_1_ClearRxInterruptSource(I2C_1_INTR_RX_NOT_EMPTY);
 767:Generated_Source\PSoC4/I2C_1_I2C_MASTER.c **** 
 768:Generated_Source\PSoC4/I2C_1_I2C_MASTER.c ****             if(0u == ackNack)
 769:Generated_Source\PSoC4/I2C_1_I2C_MASTER.c ****             {
 770:Generated_Source\PSoC4/I2C_1_I2C_MASTER.c ****                 I2C_1_I2C_MASTER_GENERATE_ACK;
 771:Generated_Source\PSoC4/I2C_1_I2C_MASTER.c ****             }
 772:Generated_Source\PSoC4/I2C_1_I2C_MASTER.c ****             else
 773:Generated_Source\PSoC4/I2C_1_I2C_MASTER.c ****             {
 774:Generated_Source\PSoC4/I2C_1_I2C_MASTER.c ****                 /* NACK is generated by Stop or ReStart command */
 775:Generated_Source\PSoC4/I2C_1_I2C_MASTER.c ****                 I2C_1_state = I2C_1_I2C_FSM_MSTR_HALT;
 776:Generated_Source\PSoC4/I2C_1_I2C_MASTER.c ****             }
 777:Generated_Source\PSoC4/I2C_1_I2C_MASTER.c ****         }
 778:Generated_Source\PSoC4/I2C_1_I2C_MASTER.c ****         else
 779:Generated_Source\PSoC4/I2C_1_I2C_MASTER.c ****         {
 780:Generated_Source\PSoC4/I2C_1_I2C_MASTER.c ****             I2C_1_ClearMasterInterruptSource(I2C_1_INTR_MASTER_ALL);
 781:Generated_Source\PSoC4/I2C_1_I2C_MASTER.c **** 
 782:Generated_Source\PSoC4/I2C_1_I2C_MASTER.c ****             /* Reset block in case of: LOST_ARB or BUS_ERR */
 783:Generated_Source\PSoC4/I2C_1_I2C_MASTER.c ****             I2C_1_SCB_SW_RESET;
 784:Generated_Source\PSoC4/I2C_1_I2C_MASTER.c ****         }
 785:Generated_Source\PSoC4/I2C_1_I2C_MASTER.c ****     }
 786:Generated_Source\PSoC4/I2C_1_I2C_MASTER.c **** 
 787:Generated_Source\PSoC4/I2C_1_I2C_MASTER.c ****     return(theByte);
 788:Generated_Source\PSoC4/I2C_1_I2C_MASTER.c **** }
 789:Generated_Source\PSoC4/I2C_1_I2C_MASTER.c **** 
 790:Generated_Source\PSoC4/I2C_1_I2C_MASTER.c **** 
 791:Generated_Source\PSoC4/I2C_1_I2C_MASTER.c **** /*******************************************************************************
ARM GAS  C:\Users\glenn\AppData\Local\Temp\cclrFd8J.s 			page 18


 792:Generated_Source\PSoC4/I2C_1_I2C_MASTER.c **** * Function Name: I2C_1_I2CMasterGetReadBufSize
 793:Generated_Source\PSoC4/I2C_1_I2C_MASTER.c **** ****************************************************************************//**
 794:Generated_Source\PSoC4/I2C_1_I2C_MASTER.c **** *
 795:Generated_Source\PSoC4/I2C_1_I2C_MASTER.c **** *  Returns the number of bytes that has been transferred with an
 796:Generated_Source\PSoC4/I2C_1_I2C_MASTER.c **** *  I2C_1_I2CMasterReadBuf() function.
 797:Generated_Source\PSoC4/I2C_1_I2C_MASTER.c **** *
 798:Generated_Source\PSoC4/I2C_1_I2C_MASTER.c **** * \return
 799:Generated_Source\PSoC4/I2C_1_I2C_MASTER.c **** *  Byte count of transfer. If the transfer is not yet complete, it returns
 800:Generated_Source\PSoC4/I2C_1_I2C_MASTER.c **** *  the byte count transferred so far.
 801:Generated_Source\PSoC4/I2C_1_I2C_MASTER.c **** *
 802:Generated_Source\PSoC4/I2C_1_I2C_MASTER.c **** * \sideeffect
 803:Generated_Source\PSoC4/I2C_1_I2C_MASTER.c **** *  This function returns not valid value if 
 804:Generated_Source\PSoC4/I2C_1_I2C_MASTER.c **** *  I2C_1_I2C_MSTAT_ERR_ARB_LOST or
 805:Generated_Source\PSoC4/I2C_1_I2C_MASTER.c **** *  I2C_1_I2C_MSTAT_ERR_BUS_ERROR occurred while read transfer.
 806:Generated_Source\PSoC4/I2C_1_I2C_MASTER.c **** *
 807:Generated_Source\PSoC4/I2C_1_I2C_MASTER.c **** * \globalvars
 808:Generated_Source\PSoC4/I2C_1_I2C_MASTER.c **** *  I2C_1_mstrRdBufIndex - used to current index within master read
 809:Generated_Source\PSoC4/I2C_1_I2C_MASTER.c **** *  buffer.
 810:Generated_Source\PSoC4/I2C_1_I2C_MASTER.c **** *
 811:Generated_Source\PSoC4/I2C_1_I2C_MASTER.c **** *******************************************************************************/
 812:Generated_Source\PSoC4/I2C_1_I2C_MASTER.c **** uint32 I2C_1_I2CMasterGetReadBufSize(void)
 813:Generated_Source\PSoC4/I2C_1_I2C_MASTER.c **** {
 814:Generated_Source\PSoC4/I2C_1_I2C_MASTER.c ****     return(I2C_1_mstrRdBufIndex);
 815:Generated_Source\PSoC4/I2C_1_I2C_MASTER.c **** }
 816:Generated_Source\PSoC4/I2C_1_I2C_MASTER.c **** 
 817:Generated_Source\PSoC4/I2C_1_I2C_MASTER.c **** 
 818:Generated_Source\PSoC4/I2C_1_I2C_MASTER.c **** /*******************************************************************************
 819:Generated_Source\PSoC4/I2C_1_I2C_MASTER.c **** * Function Name: I2C_1_I2CMasterGetWriteBufSize
 820:Generated_Source\PSoC4/I2C_1_I2C_MASTER.c **** ****************************************************************************//**
 821:Generated_Source\PSoC4/I2C_1_I2C_MASTER.c **** *
 822:Generated_Source\PSoC4/I2C_1_I2C_MASTER.c **** *  Returns the number of bytes that have been transferred with an
 823:Generated_Source\PSoC4/I2C_1_I2C_MASTER.c **** *  SCB_I2CMasterWriteBuf() function.
 824:Generated_Source\PSoC4/I2C_1_I2C_MASTER.c **** *
 825:Generated_Source\PSoC4/I2C_1_I2C_MASTER.c **** * \return
 826:Generated_Source\PSoC4/I2C_1_I2C_MASTER.c **** *   Byte count of transfer. If the transfer is not yet complete, it returns
 827:Generated_Source\PSoC4/I2C_1_I2C_MASTER.c **** *   zero unit transfer completion.
 828:Generated_Source\PSoC4/I2C_1_I2C_MASTER.c **** *
 829:Generated_Source\PSoC4/I2C_1_I2C_MASTER.c **** * \sideeffect
 830:Generated_Source\PSoC4/I2C_1_I2C_MASTER.c **** *   This function returns not valid value if 
 831:Generated_Source\PSoC4/I2C_1_I2C_MASTER.c **** *   I2C_1_I2C_MSTAT_ERR_ARB_LOST or 
 832:Generated_Source\PSoC4/I2C_1_I2C_MASTER.c **** *   I2C_1_I2C_MSTAT_ERR_BUS_ERROR occurred while read transfer.
 833:Generated_Source\PSoC4/I2C_1_I2C_MASTER.c **** *
 834:Generated_Source\PSoC4/I2C_1_I2C_MASTER.c **** * \globalvars
 835:Generated_Source\PSoC4/I2C_1_I2C_MASTER.c **** *  I2C_1_mstrWrBufIndex - used to current index within master write
 836:Generated_Source\PSoC4/I2C_1_I2C_MASTER.c **** *  buffer.
 837:Generated_Source\PSoC4/I2C_1_I2C_MASTER.c **** *
 838:Generated_Source\PSoC4/I2C_1_I2C_MASTER.c **** *******************************************************************************/
 839:Generated_Source\PSoC4/I2C_1_I2C_MASTER.c **** uint32 I2C_1_I2CMasterGetWriteBufSize(void)
 840:Generated_Source\PSoC4/I2C_1_I2C_MASTER.c **** {
 841:Generated_Source\PSoC4/I2C_1_I2C_MASTER.c ****     return(I2C_1_mstrWrBufIndex);
 842:Generated_Source\PSoC4/I2C_1_I2C_MASTER.c **** }
 843:Generated_Source\PSoC4/I2C_1_I2C_MASTER.c **** 
 844:Generated_Source\PSoC4/I2C_1_I2C_MASTER.c **** 
 845:Generated_Source\PSoC4/I2C_1_I2C_MASTER.c **** /*******************************************************************************
 846:Generated_Source\PSoC4/I2C_1_I2C_MASTER.c **** * Function Name: I2C_1_I2CMasterClearReadBuf
 847:Generated_Source\PSoC4/I2C_1_I2C_MASTER.c **** ****************************************************************************//**
 848:Generated_Source\PSoC4/I2C_1_I2C_MASTER.c **** *
ARM GAS  C:\Users\glenn\AppData\Local\Temp\cclrFd8J.s 			page 19


 849:Generated_Source\PSoC4/I2C_1_I2C_MASTER.c **** *  Resets the read buffer pointer back to the first byte in the buffer.
 850:Generated_Source\PSoC4/I2C_1_I2C_MASTER.c **** *
 851:Generated_Source\PSoC4/I2C_1_I2C_MASTER.c **** * \globalvars
 852:Generated_Source\PSoC4/I2C_1_I2C_MASTER.c **** *  I2C_1_mstrRdBufIndex - used to current index within master read
 853:Generated_Source\PSoC4/I2C_1_I2C_MASTER.c **** *   buffer.
 854:Generated_Source\PSoC4/I2C_1_I2C_MASTER.c **** *  I2C_1_mstrStatus - used to store current status of I2C Master.
 855:Generated_Source\PSoC4/I2C_1_I2C_MASTER.c **** *
 856:Generated_Source\PSoC4/I2C_1_I2C_MASTER.c **** *******************************************************************************/
 857:Generated_Source\PSoC4/I2C_1_I2C_MASTER.c **** void I2C_1_I2CMasterClearReadBuf(void)
 858:Generated_Source\PSoC4/I2C_1_I2C_MASTER.c **** {
 859:Generated_Source\PSoC4/I2C_1_I2C_MASTER.c ****     I2C_1_DisableInt();  /* Lock from interruption */
 860:Generated_Source\PSoC4/I2C_1_I2C_MASTER.c **** 
 861:Generated_Source\PSoC4/I2C_1_I2C_MASTER.c ****     I2C_1_mstrRdBufIndex = 0u;
 862:Generated_Source\PSoC4/I2C_1_I2C_MASTER.c ****     I2C_1_mstrStatus    &= (uint16) ~I2C_1_I2C_MSTAT_RD_CMPLT;
 863:Generated_Source\PSoC4/I2C_1_I2C_MASTER.c **** 
 864:Generated_Source\PSoC4/I2C_1_I2C_MASTER.c ****     I2C_1_EnableInt();   /* Release lock */
 865:Generated_Source\PSoC4/I2C_1_I2C_MASTER.c **** }
 866:Generated_Source\PSoC4/I2C_1_I2C_MASTER.c **** 
 867:Generated_Source\PSoC4/I2C_1_I2C_MASTER.c **** 
 868:Generated_Source\PSoC4/I2C_1_I2C_MASTER.c **** /*******************************************************************************
 869:Generated_Source\PSoC4/I2C_1_I2C_MASTER.c **** * Function Name: I2C_1_I2CMasterClearWriteBuf
 870:Generated_Source\PSoC4/I2C_1_I2C_MASTER.c **** ****************************************************************************//**
 871:Generated_Source\PSoC4/I2C_1_I2C_MASTER.c **** *
 872:Generated_Source\PSoC4/I2C_1_I2C_MASTER.c **** *  Resets the write buffer pointer back to the first byte in the buffer.
 873:Generated_Source\PSoC4/I2C_1_I2C_MASTER.c **** *
 874:Generated_Source\PSoC4/I2C_1_I2C_MASTER.c **** * \globalvars
 875:Generated_Source\PSoC4/I2C_1_I2C_MASTER.c **** *  I2C_1_mstrRdBufIndex - used to current index within master read
 876:Generated_Source\PSoC4/I2C_1_I2C_MASTER.c **** *   buffer.
 877:Generated_Source\PSoC4/I2C_1_I2C_MASTER.c **** *  I2C_1_mstrStatus - used to store current status of I2C Master.
 878:Generated_Source\PSoC4/I2C_1_I2C_MASTER.c **** *
 879:Generated_Source\PSoC4/I2C_1_I2C_MASTER.c **** *******************************************************************************/
 880:Generated_Source\PSoC4/I2C_1_I2C_MASTER.c **** void I2C_1_I2CMasterClearWriteBuf(void)
 881:Generated_Source\PSoC4/I2C_1_I2C_MASTER.c **** {
 882:Generated_Source\PSoC4/I2C_1_I2C_MASTER.c ****     I2C_1_DisableInt();  /* Lock from interruption */
 883:Generated_Source\PSoC4/I2C_1_I2C_MASTER.c **** 
 884:Generated_Source\PSoC4/I2C_1_I2C_MASTER.c ****     I2C_1_mstrWrBufIndex = 0u;
 885:Generated_Source\PSoC4/I2C_1_I2C_MASTER.c ****     I2C_1_mstrStatus    &= (uint16) ~I2C_1_I2C_MSTAT_WR_CMPLT;
 886:Generated_Source\PSoC4/I2C_1_I2C_MASTER.c **** 
 887:Generated_Source\PSoC4/I2C_1_I2C_MASTER.c ****     I2C_1_EnableInt();   /* Release lock */
 888:Generated_Source\PSoC4/I2C_1_I2C_MASTER.c **** }
 889:Generated_Source\PSoC4/I2C_1_I2C_MASTER.c **** 
 890:Generated_Source\PSoC4/I2C_1_I2C_MASTER.c **** 
 891:Generated_Source\PSoC4/I2C_1_I2C_MASTER.c **** /*******************************************************************************
 892:Generated_Source\PSoC4/I2C_1_I2C_MASTER.c **** * Function Name: I2C_1_I2CMasterStatus
 893:Generated_Source\PSoC4/I2C_1_I2C_MASTER.c **** ****************************************************************************//**
 894:Generated_Source\PSoC4/I2C_1_I2C_MASTER.c **** *
 895:Generated_Source\PSoC4/I2C_1_I2C_MASTER.c **** *  Returns the master's communication status.
 896:Generated_Source\PSoC4/I2C_1_I2C_MASTER.c **** *
 897:Generated_Source\PSoC4/I2C_1_I2C_MASTER.c **** * \return
 898:Generated_Source\PSoC4/I2C_1_I2C_MASTER.c **** *  Current status of I2C master. This status incorporates status constants. 
 899:Generated_Source\PSoC4/I2C_1_I2C_MASTER.c **** *  Each constant is a bit field value. The value returned may have multiple 
 900:Generated_Source\PSoC4/I2C_1_I2C_MASTER.c **** *  bits set to indicate the status of the read or write transfer.
 901:Generated_Source\PSoC4/I2C_1_I2C_MASTER.c **** *  - I2C_1_I2C_MSTAT_RD_CMPLT - Read transfer complete.
 902:Generated_Source\PSoC4/I2C_1_I2C_MASTER.c **** *    The error condition status bits must be checked to ensure that 
 903:Generated_Source\PSoC4/I2C_1_I2C_MASTER.c **** *    read transfer was completed successfully.
 904:Generated_Source\PSoC4/I2C_1_I2C_MASTER.c **** *  - I2C_1_I2C_MSTAT_WR_CMPLT - Write transfer complete.
 905:Generated_Source\PSoC4/I2C_1_I2C_MASTER.c **** *    The error condition status bits must be checked to ensure that write 
ARM GAS  C:\Users\glenn\AppData\Local\Temp\cclrFd8J.s 			page 20


 906:Generated_Source\PSoC4/I2C_1_I2C_MASTER.c **** *    transfer was completed successfully.
 907:Generated_Source\PSoC4/I2C_1_I2C_MASTER.c **** *  - I2C_1_I2C_MSTAT_XFER_INP - Transfer in progress.
 908:Generated_Source\PSoC4/I2C_1_I2C_MASTER.c **** *  - I2C_1_I2C_MSTAT_XFER_HALT - Transfer has been halted. 
 909:Generated_Source\PSoC4/I2C_1_I2C_MASTER.c **** *    The I2C bus is waiting for ReStart or Stop condition generation.
 910:Generated_Source\PSoC4/I2C_1_I2C_MASTER.c **** *  - I2C_1_I2C_MSTAT_ERR_SHORT_XFER - Error condition: Write 
 911:Generated_Source\PSoC4/I2C_1_I2C_MASTER.c **** *    transfer completed before all bytes were transferred. The slave NAKed 
 912:Generated_Source\PSoC4/I2C_1_I2C_MASTER.c **** *    the byte which was expected to be ACKed.
 913:Generated_Source\PSoC4/I2C_1_I2C_MASTER.c **** *  - I2C_1_I2C_MSTAT_ERR_ADDR_NAK - Error condition: Slave did 
 914:Generated_Source\PSoC4/I2C_1_I2C_MASTER.c **** *    not acknowledge address.
 915:Generated_Source\PSoC4/I2C_1_I2C_MASTER.c **** *  - I2C_1_I2C_MSTAT_ERR_ARB_LOST - Error condition: Master lost 
 916:Generated_Source\PSoC4/I2C_1_I2C_MASTER.c **** *    arbitration during communications with slave.
 917:Generated_Source\PSoC4/I2C_1_I2C_MASTER.c **** *  - I2C_1_I2C_MSTAT_ERR_BUS_ERROR - Error condition: bus error 
 918:Generated_Source\PSoC4/I2C_1_I2C_MASTER.c **** *    occurred during master transfer due to misplaced Start or Stop 
 919:Generated_Source\PSoC4/I2C_1_I2C_MASTER.c **** *    condition on the bus.
 920:Generated_Source\PSoC4/I2C_1_I2C_MASTER.c **** *  - I2C_1_I2C_MSTAT_ERR_ABORT_XFER - Error condition: Slave was 
 921:Generated_Source\PSoC4/I2C_1_I2C_MASTER.c **** *    addressed by another master while master performed the start condition 
 922:Generated_Source\PSoC4/I2C_1_I2C_MASTER.c **** *    generation. As a result, master has automatically switched to slave 
 923:Generated_Source\PSoC4/I2C_1_I2C_MASTER.c **** *    mode and is responding. The master transaction has not taken place
 924:Generated_Source\PSoC4/I2C_1_I2C_MASTER.c **** *    This error condition only applicable for Multi-Master-Slave mode.
 925:Generated_Source\PSoC4/I2C_1_I2C_MASTER.c **** *  - I2C_1_I2C_MSTAT_ERR_XFER - Error condition: This is the 
 926:Generated_Source\PSoC4/I2C_1_I2C_MASTER.c **** *    ORed value of all error conditions provided above.
 927:Generated_Source\PSoC4/I2C_1_I2C_MASTER.c **** *
 928:Generated_Source\PSoC4/I2C_1_I2C_MASTER.c **** * \globalvars
 929:Generated_Source\PSoC4/I2C_1_I2C_MASTER.c **** *  I2C_1_mstrStatus - used to store current status of I2C Master.
 930:Generated_Source\PSoC4/I2C_1_I2C_MASTER.c **** *
 931:Generated_Source\PSoC4/I2C_1_I2C_MASTER.c **** *******************************************************************************/
 932:Generated_Source\PSoC4/I2C_1_I2C_MASTER.c **** uint32 I2C_1_I2CMasterStatus(void)
 933:Generated_Source\PSoC4/I2C_1_I2C_MASTER.c **** {
 934:Generated_Source\PSoC4/I2C_1_I2C_MASTER.c ****     uint32 status;
 935:Generated_Source\PSoC4/I2C_1_I2C_MASTER.c **** 
 936:Generated_Source\PSoC4/I2C_1_I2C_MASTER.c ****     I2C_1_DisableInt();  /* Lock from interruption */
 937:Generated_Source\PSoC4/I2C_1_I2C_MASTER.c **** 
 938:Generated_Source\PSoC4/I2C_1_I2C_MASTER.c ****     status = (uint32) I2C_1_mstrStatus;
 939:Generated_Source\PSoC4/I2C_1_I2C_MASTER.c **** 
 940:Generated_Source\PSoC4/I2C_1_I2C_MASTER.c ****     if (I2C_1_CHECK_I2C_MASTER_ACTIVE)
 941:Generated_Source\PSoC4/I2C_1_I2C_MASTER.c ****     {
 942:Generated_Source\PSoC4/I2C_1_I2C_MASTER.c ****         /* Add status of master pending transaction: MSTAT_XFER_INP */
 943:Generated_Source\PSoC4/I2C_1_I2C_MASTER.c ****         status |= (uint32) I2C_1_I2C_MSTAT_XFER_INP;
 944:Generated_Source\PSoC4/I2C_1_I2C_MASTER.c ****     }
 945:Generated_Source\PSoC4/I2C_1_I2C_MASTER.c **** 
 946:Generated_Source\PSoC4/I2C_1_I2C_MASTER.c ****     I2C_1_EnableInt();   /* Release lock */
 947:Generated_Source\PSoC4/I2C_1_I2C_MASTER.c **** 
 948:Generated_Source\PSoC4/I2C_1_I2C_MASTER.c ****     return(status);
 949:Generated_Source\PSoC4/I2C_1_I2C_MASTER.c **** }
 950:Generated_Source\PSoC4/I2C_1_I2C_MASTER.c **** 
 951:Generated_Source\PSoC4/I2C_1_I2C_MASTER.c **** 
 952:Generated_Source\PSoC4/I2C_1_I2C_MASTER.c **** /*******************************************************************************
 953:Generated_Source\PSoC4/I2C_1_I2C_MASTER.c **** * Function Name: I2C_1_I2CMasterClearStatus
 954:Generated_Source\PSoC4/I2C_1_I2C_MASTER.c **** ****************************************************************************//**
 955:Generated_Source\PSoC4/I2C_1_I2C_MASTER.c **** *
 956:Generated_Source\PSoC4/I2C_1_I2C_MASTER.c **** *  Clears all status flags and returns the master status.
 957:Generated_Source\PSoC4/I2C_1_I2C_MASTER.c **** *
 958:Generated_Source\PSoC4/I2C_1_I2C_MASTER.c **** * \return
 959:Generated_Source\PSoC4/I2C_1_I2C_MASTER.c **** *  Current status of master. See the I2C_1_I2CMasterStatus() 
 960:Generated_Source\PSoC4/I2C_1_I2C_MASTER.c **** *  function for constants.
 961:Generated_Source\PSoC4/I2C_1_I2C_MASTER.c **** *
 962:Generated_Source\PSoC4/I2C_1_I2C_MASTER.c **** * \globalvars
ARM GAS  C:\Users\glenn\AppData\Local\Temp\cclrFd8J.s 			page 21


 963:Generated_Source\PSoC4/I2C_1_I2C_MASTER.c **** *  I2C_1_mstrStatus - used to store current status of I2C Master.
 964:Generated_Source\PSoC4/I2C_1_I2C_MASTER.c **** *
 965:Generated_Source\PSoC4/I2C_1_I2C_MASTER.c **** *******************************************************************************/
 966:Generated_Source\PSoC4/I2C_1_I2C_MASTER.c **** uint32 I2C_1_I2CMasterClearStatus(void)
 967:Generated_Source\PSoC4/I2C_1_I2C_MASTER.c **** {
 968:Generated_Source\PSoC4/I2C_1_I2C_MASTER.c ****     uint32 status;
 969:Generated_Source\PSoC4/I2C_1_I2C_MASTER.c **** 
 970:Generated_Source\PSoC4/I2C_1_I2C_MASTER.c ****     I2C_1_DisableInt();  /* Lock from interruption */
 971:Generated_Source\PSoC4/I2C_1_I2C_MASTER.c **** 
 972:Generated_Source\PSoC4/I2C_1_I2C_MASTER.c ****     /* Read and clear master status */
 973:Generated_Source\PSoC4/I2C_1_I2C_MASTER.c ****     status = (uint32) I2C_1_mstrStatus;
 974:Generated_Source\PSoC4/I2C_1_I2C_MASTER.c ****     I2C_1_mstrStatus = I2C_1_I2C_MSTAT_CLEAR;
 975:Generated_Source\PSoC4/I2C_1_I2C_MASTER.c **** 
 976:Generated_Source\PSoC4/I2C_1_I2C_MASTER.c ****     I2C_1_EnableInt();   /* Release lock */
 977:Generated_Source\PSoC4/I2C_1_I2C_MASTER.c **** 
 978:Generated_Source\PSoC4/I2C_1_I2C_MASTER.c ****     return(status);
 979:Generated_Source\PSoC4/I2C_1_I2C_MASTER.c **** }
 980:Generated_Source\PSoC4/I2C_1_I2C_MASTER.c **** 
 981:Generated_Source\PSoC4/I2C_1_I2C_MASTER.c **** 
 982:Generated_Source\PSoC4/I2C_1_I2C_MASTER.c **** /*******************************************************************************
 983:Generated_Source\PSoC4/I2C_1_I2C_MASTER.c **** * Function Name: I2C_1_I2CReStartGeneration
 984:Generated_Source\PSoC4/I2C_1_I2C_MASTER.c **** ****************************************************************************//**
 985:Generated_Source\PSoC4/I2C_1_I2C_MASTER.c **** *
 986:Generated_Source\PSoC4/I2C_1_I2C_MASTER.c **** *  Generates a ReStart condition:
 987:Generated_Source\PSoC4/I2C_1_I2C_MASTER.c **** *  - SCB IP V1 and later: Generates ReStart using the scb IP functionality
 988:Generated_Source\PSoC4/I2C_1_I2C_MASTER.c **** *    Sets the I2C_MASTER_CMD_M_START and I2C_MASTER_CMD_M_NACK (if the previous
 989:Generated_Source\PSoC4/I2C_1_I2C_MASTER.c **** *    transaction was read) bits in the SCB.I2C_MASTER_CMD register.
 990:Generated_Source\PSoC4/I2C_1_I2C_MASTER.c **** *    This combination forces the master to generate ReStart.
 991:Generated_Source\PSoC4/I2C_1_I2C_MASTER.c **** *
 992:Generated_Source\PSoC4/I2C_1_I2C_MASTER.c **** *  - SCB IP V0: Generates Restart using the GPIO and scb IP functionality.
 993:Generated_Source\PSoC4/I2C_1_I2C_MASTER.c **** *    After the master completes write or read, the SCL is stretched.
 994:Generated_Source\PSoC4/I2C_1_I2C_MASTER.c **** *    The master waits until SDA line is released by the slave. Then the GPIO
 995:Generated_Source\PSoC4/I2C_1_I2C_MASTER.c **** *    function is enabled and the scb IP disabled as it already does not drive
 996:Generated_Source\PSoC4/I2C_1_I2C_MASTER.c **** *    the bus. In case of the previous transfer was read, the NACK is generated
 997:Generated_Source\PSoC4/I2C_1_I2C_MASTER.c **** *    by the GPIO. The delay of tLOW is added to manage the hold time.
 998:Generated_Source\PSoC4/I2C_1_I2C_MASTER.c **** *    Set I2C_M_CMD.START and enable the scb IP. The ReStart generation
 999:Generated_Source\PSoC4/I2C_1_I2C_MASTER.c **** *    is started after the I2C function is enabled for the SCL.
1000:Generated_Source\PSoC4/I2C_1_I2C_MASTER.c **** *    Note1: the scb IP due re-enable generates Start but on the I2C bus it
1001:Generated_Source\PSoC4/I2C_1_I2C_MASTER.c **** *           appears as ReStart.
1002:Generated_Source\PSoC4/I2C_1_I2C_MASTER.c **** *    Note2: the I2C_M_CMD.START is queued if scb IP is disabled.
1003:Generated_Source\PSoC4/I2C_1_I2C_MASTER.c **** *    Note3: the I2C_STATUS_M_READ is cleared is address was NACKed before.
1004:Generated_Source\PSoC4/I2C_1_I2C_MASTER.c **** *
1005:Generated_Source\PSoC4/I2C_1_I2C_MASTER.c **** * \sideeffect
1006:Generated_Source\PSoC4/I2C_1_I2C_MASTER.c **** *  SCB IP V0: The NACK generation by the GPIO may cause a greater SCL period
1007:Generated_Source\PSoC4/I2C_1_I2C_MASTER.c **** *             than expected for the selected master data rate.
1008:Generated_Source\PSoC4/I2C_1_I2C_MASTER.c **** *
1009:Generated_Source\PSoC4/I2C_1_I2C_MASTER.c **** *******************************************************************************/
1010:Generated_Source\PSoC4/I2C_1_I2C_MASTER.c **** void I2C_1_I2CReStartGeneration(void)
1011:Generated_Source\PSoC4/I2C_1_I2C_MASTER.c **** {
1012:Generated_Source\PSoC4/I2C_1_I2C_MASTER.c **** #if(I2C_1_CY_SCBIP_V0)
1013:Generated_Source\PSoC4/I2C_1_I2C_MASTER.c ****     /* Generates Restart use GPIO and scb IP functionality. Ticket ID#143715,
1014:Generated_Source\PSoC4/I2C_1_I2C_MASTER.c ****     * ID#145238 and ID#173656.
1015:Generated_Source\PSoC4/I2C_1_I2C_MASTER.c ****     */
1016:Generated_Source\PSoC4/I2C_1_I2C_MASTER.c ****     uint32 status = I2C_1_I2C_STATUS_REG;
1017:Generated_Source\PSoC4/I2C_1_I2C_MASTER.c **** 
1018:Generated_Source\PSoC4/I2C_1_I2C_MASTER.c ****     while(I2C_1_WAIT_SDA_SET_HIGH)
1019:Generated_Source\PSoC4/I2C_1_I2C_MASTER.c ****     {
ARM GAS  C:\Users\glenn\AppData\Local\Temp\cclrFd8J.s 			page 22


1020:Generated_Source\PSoC4/I2C_1_I2C_MASTER.c ****         /* Wait when slave release SDA line: SCL tHIGH is complete */
1021:Generated_Source\PSoC4/I2C_1_I2C_MASTER.c ****     }
1022:Generated_Source\PSoC4/I2C_1_I2C_MASTER.c **** 
1023:Generated_Source\PSoC4/I2C_1_I2C_MASTER.c ****     /* Prepare DR register to drive SCL line */
1024:Generated_Source\PSoC4/I2C_1_I2C_MASTER.c ****     I2C_1_SET_I2C_SCL_DR(I2C_1_I2C_SCL_LOW);
1025:Generated_Source\PSoC4/I2C_1_I2C_MASTER.c **** 
1026:Generated_Source\PSoC4/I2C_1_I2C_MASTER.c ****     /* Switch HSIOM to GPIO: SCL goes low */
1027:Generated_Source\PSoC4/I2C_1_I2C_MASTER.c ****     I2C_1_SET_I2C_SCL_HSIOM_SEL(I2C_1_HSIOM_GPIO_SEL);
1028:Generated_Source\PSoC4/I2C_1_I2C_MASTER.c **** 
1029:Generated_Source\PSoC4/I2C_1_I2C_MASTER.c ****     /* Disable SCB block */
1030:Generated_Source\PSoC4/I2C_1_I2C_MASTER.c ****     I2C_1_CTRL_REG &= (uint32) ~I2C_1_CTRL_ENABLED;
1031:Generated_Source\PSoC4/I2C_1_I2C_MASTER.c **** 
1032:Generated_Source\PSoC4/I2C_1_I2C_MASTER.c ****     if(0u != (status & I2C_1_I2C_STATUS_M_READ))
1033:Generated_Source\PSoC4/I2C_1_I2C_MASTER.c ****     {
1034:Generated_Source\PSoC4/I2C_1_I2C_MASTER.c ****         /* Generate NACK use GPIO functionality */
1035:Generated_Source\PSoC4/I2C_1_I2C_MASTER.c ****         I2C_1_SET_I2C_SCL_DR(I2C_1_I2C_SCL_LOW);
1036:Generated_Source\PSoC4/I2C_1_I2C_MASTER.c ****         CyDelayUs(I2C_1_I2C_TLOW_TIME); /* Count tLOW */
1037:Generated_Source\PSoC4/I2C_1_I2C_MASTER.c **** 
1038:Generated_Source\PSoC4/I2C_1_I2C_MASTER.c ****         I2C_1_SET_I2C_SCL_DR(I2C_1_I2C_SCL_HIGH);
1039:Generated_Source\PSoC4/I2C_1_I2C_MASTER.c ****         while(I2C_1_WAIT_SCL_SET_HIGH)
1040:Generated_Source\PSoC4/I2C_1_I2C_MASTER.c ****         {
1041:Generated_Source\PSoC4/I2C_1_I2C_MASTER.c ****             /* Wait until slave releases SCL in case if it stretches */
1042:Generated_Source\PSoC4/I2C_1_I2C_MASTER.c ****         }
1043:Generated_Source\PSoC4/I2C_1_I2C_MASTER.c ****         CyDelayUs(I2C_1_I2C_THIGH_TIME); /* Count tHIGH */
1044:Generated_Source\PSoC4/I2C_1_I2C_MASTER.c ****     }
1045:Generated_Source\PSoC4/I2C_1_I2C_MASTER.c **** 
1046:Generated_Source\PSoC4/I2C_1_I2C_MASTER.c ****     /* Count tLOW as hold time for write and read */
1047:Generated_Source\PSoC4/I2C_1_I2C_MASTER.c ****     I2C_1_SET_I2C_SCL_DR(I2C_1_I2C_SCL_LOW);
1048:Generated_Source\PSoC4/I2C_1_I2C_MASTER.c ****     CyDelayUs(I2C_1_I2C_TLOW_TIME); /* Count tLOW */
1049:Generated_Source\PSoC4/I2C_1_I2C_MASTER.c **** 
1050:Generated_Source\PSoC4/I2C_1_I2C_MASTER.c ****     /* Set command for Start generation: it will appear */
1051:Generated_Source\PSoC4/I2C_1_I2C_MASTER.c ****     I2C_1_I2C_MASTER_CMD_REG = I2C_1_I2C_MASTER_CMD_M_START;
1052:Generated_Source\PSoC4/I2C_1_I2C_MASTER.c **** 
1053:Generated_Source\PSoC4/I2C_1_I2C_MASTER.c ****     /* Enable SCB block */
1054:Generated_Source\PSoC4/I2C_1_I2C_MASTER.c ****     I2C_1_CTRL_REG |= (uint32) I2C_1_CTRL_ENABLED;
1055:Generated_Source\PSoC4/I2C_1_I2C_MASTER.c **** 
1056:Generated_Source\PSoC4/I2C_1_I2C_MASTER.c ****     /* Switch HSIOM to I2C: */
1057:Generated_Source\PSoC4/I2C_1_I2C_MASTER.c ****     I2C_1_SET_I2C_SCL_HSIOM_SEL(I2C_1_HSIOM_I2C_SEL);
1058:Generated_Source\PSoC4/I2C_1_I2C_MASTER.c **** 
1059:Generated_Source\PSoC4/I2C_1_I2C_MASTER.c ****     /* Revert SCL DR register */
1060:Generated_Source\PSoC4/I2C_1_I2C_MASTER.c ****     I2C_1_SET_I2C_SCL_DR(I2C_1_I2C_SCL_HIGH);
1061:Generated_Source\PSoC4/I2C_1_I2C_MASTER.c **** #else
1062:Generated_Source\PSoC4/I2C_1_I2C_MASTER.c ****     uint32 cmd;
1063:Generated_Source\PSoC4/I2C_1_I2C_MASTER.c **** 
1064:Generated_Source\PSoC4/I2C_1_I2C_MASTER.c ****     /* Generates ReStart use scb IP functionality */
1065:Generated_Source\PSoC4/I2C_1_I2C_MASTER.c ****     cmd  = I2C_1_I2C_MASTER_CMD_M_START;
1066:Generated_Source\PSoC4/I2C_1_I2C_MASTER.c ****     cmd |= I2C_1_CHECK_I2C_STATUS(I2C_1_I2C_STATUS_M_READ) ?
 158              		.loc 1 1066 0
 159 008c 184B     		ldr	r3, .L20+44
 160 008e 1A68     		ldr	r2, [r3]
1067:Generated_Source\PSoC4/I2C_1_I2C_MASTER.c ****                 (I2C_1_I2C_MASTER_CMD_M_NACK) : (0u);
 161              		.loc 1 1067 0
 162 0090 0923     		mov	r3, #9
 163 0092 9206     		lsl	r2, r2, #26
 164 0094 00D4     		bmi	.L5
 165 0096 083B     		sub	r3, r3, #8
 166              	.L5:
ARM GAS  C:\Users\glenn\AppData\Local\Temp\cclrFd8J.s 			page 23


 167              	.LVL16:
1068:Generated_Source\PSoC4/I2C_1_I2C_MASTER.c **** 
1069:Generated_Source\PSoC4/I2C_1_I2C_MASTER.c ****     I2C_1_I2C_MASTER_CMD_REG = cmd;
 168              		.loc 1 1069 0
 169 0098 164A     		ldr	r2, .L20+48
 170              	.LBE9:
 171              	.LBE8:
 172 009a 0024     		mov	r4, #0
 173              	.LBB11:
 174              	.LBB10:
 175 009c 1360     		str	r3, [r2]
 176              	.LBE10:
 177              	.LBE11:
 158:Generated_Source\PSoC4/I2C_1_I2C_MASTER.c ****         }
 178              		.loc 1 158 0
 179 009e 164B     		ldr	r3, .L20+52
 180              	.LVL17:
 181 00a0 1E60     		str	r6, [r3]
 182              	.LVL18:
 183 00a2 BFE7     		b	.L6
 184              	.L19:
 162:Generated_Source\PSoC4/I2C_1_I2C_MASTER.c ****             I2C_1_I2C_MASTER_GENERATE_START;
 185              		.loc 1 162 0
 186 00a4 144B     		ldr	r3, .L20+52
 163:Generated_Source\PSoC4/I2C_1_I2C_MASTER.c ****         }
 187              		.loc 1 163 0
 188 00a6 0024     		mov	r4, #0
 162:Generated_Source\PSoC4/I2C_1_I2C_MASTER.c ****             I2C_1_I2C_MASTER_GENERATE_START;
 189              		.loc 1 162 0
 190 00a8 1E60     		str	r6, [r3]
 163:Generated_Source\PSoC4/I2C_1_I2C_MASTER.c ****         }
 191              		.loc 1 163 0
 192 00aa 124B     		ldr	r3, .L20+48
 193 00ac 1A60     		str	r2, [r3]
 194 00ae B9E7     		b	.L6
 195              	.LVL19:
 196              	.L17:
 109:Generated_Source\PSoC4/I2C_1_I2C_MASTER.c **** 
 197              		.loc 1 109 0
 198 00b0 0820     		mov	r0, #8
 199              	.LVL20:
 200 00b2 FFF7FEFF 		bl	CyIntDisable
 201              	.LVL21:
 112:Generated_Source\PSoC4/I2C_1_I2C_MASTER.c ****                             I2C_1_I2C_MSTR_BUS_BUSY : I2C_1_I2C_MSTR_NO_ERROR;
 202              		.loc 1 112 0
 203 00b6 0E4B     		ldr	r3, .L20+44
 204 00b8 0824     		mov	r4, #8
 205 00ba 1B68     		ldr	r3, [r3]
 206 00bc DB07     		lsl	r3, r3, #31
 207 00be B1D4     		bmi	.L6
 208 00c0 014B     		ldr	r3, .L20+4
 209 00c2 BFE7     		b	.L4
 210              	.L21:
 211              		.align	2
 212              	.L20:
 213 00c4 00000000 		.word	I2C_1_state
 214 00c8 00000000 		.word	I2C_1_mstrStatus
ARM GAS  C:\Users\glenn\AppData\Local\Temp\cclrFd8J.s 			page 24


 215 00cc 00000000 		.word	I2C_1_mstrWrBufIndexTmp
 216 00d0 00000000 		.word	I2C_1_mstrWrBufIndex
 217 00d4 00000000 		.word	I2C_1_mstrWrBufSize
 218 00d8 00000000 		.word	I2C_1_mstrWrBufPtr
 219 00dc 00000000 		.word	I2C_1_mstrControl
 220 00e0 17030000 		.word	791
 221 00e4 000F2440 		.word	1076104960
 222 00e8 800F2440 		.word	1076105088
 223 00ec 880F2440 		.word	1076105096
 224 00f0 64002440 		.word	1076101220
 225 00f4 68002440 		.word	1076101224
 226 00f8 40022440 		.word	1076101696
 227              		.cfi_endproc
 228              	.LFE1:
 229              		.size	I2C_1_I2CMasterWriteBuf, .-I2C_1_I2CMasterWriteBuf
 230              		.section	.text.I2C_1_I2CMasterReadBuf,"ax",%progbits
 231              		.align	2
 232              		.global	I2C_1_I2CMasterReadBuf
 233              		.code	16
 234              		.thumb_func
 235              		.type	I2C_1_I2CMasterReadBuf, %function
 236              	I2C_1_I2CMasterReadBuf:
 237              	.LFB2:
 210:Generated_Source\PSoC4/I2C_1_I2C_MASTER.c ****     uint32 errStatus;
 238              		.loc 1 210 0
 239              		.cfi_startproc
 240              	.LVL22:
 241 0000 F0B5     		push	{r4, r5, r6, r7, lr}
 242              		.cfi_def_cfa_offset 20
 243              		.cfi_offset 4, -20
 244              		.cfi_offset 5, -16
 245              		.cfi_offset 6, -12
 246              		.cfi_offset 7, -8
 247              		.cfi_offset 14, -4
 248 0002 4F46     		mov	r7, r9
 249 0004 4646     		mov	r6, r8
 250 0006 C0B4     		push	{r6, r7}
 251              		.cfi_def_cfa_offset 28
 252              		.cfi_offset 8, -28
 253              		.cfi_offset 9, -24
 254 0008 051C     		mov	r5, r0
 255 000a 83B0     		sub	sp, sp, #12
 256              		.cfi_def_cfa_offset 40
 210:Generated_Source\PSoC4/I2C_1_I2C_MASTER.c ****     uint32 errStatus;
 257              		.loc 1 210 0
 258 000c 0F1E     		sub	r7, r1, #0
 259 000e 9146     		mov	r9, r2
 260 0010 9846     		mov	r8, r3
 215:Generated_Source\PSoC4/I2C_1_I2C_MASTER.c ****     {
 261              		.loc 1 215 0
 262 0012 10D0     		beq	.L32
 218:Generated_Source\PSoC4/I2C_1_I2C_MASTER.c ****         {
 263              		.loc 1 218 0
 264 0014 314E     		ldr	r6, .L42
 265 0016 3378     		ldrb	r3, [r6]
 266              	.LVL23:
 267 0018 102B     		cmp	r3, #16
ARM GAS  C:\Users\glenn\AppData\Local\Temp\cclrFd8J.s 			page 25


 268 001a 54D0     		beq	.L39
 226:Generated_Source\PSoC4/I2C_1_I2C_MASTER.c ****         {
 269              		.loc 1 226 0
 270 001c 3378     		ldrb	r3, [r6]
 213:Generated_Source\PSoC4/I2C_1_I2C_MASTER.c **** 
 271              		.loc 1 213 0
 272 001e 0424     		mov	r4, #4
 226:Generated_Source\PSoC4/I2C_1_I2C_MASTER.c ****         {
 273              		.loc 1 226 0
 274 0020 602B     		cmp	r3, #96
 275 0022 0AD0     		beq	.L40
 276              	.LVL24:
 277              	.L29:
 286:Generated_Source\PSoC4/I2C_1_I2C_MASTER.c **** 
 278              		.loc 1 286 0
 279 0024 0820     		mov	r0, #8
 280 0026 FFF7FEFF 		bl	CyIntEnable
 281              	.LVL25:
 289:Generated_Source\PSoC4/I2C_1_I2C_MASTER.c **** 
 282              		.loc 1 289 0
 283 002a 201C     		mov	r0, r4
 284 002c 03B0     		add	sp, sp, #12
 285              		@ sp needed
 286              	.LVL26:
 287              	.LVL27:
 288              	.LVL28:
 289              	.LVL29:
 290 002e 0CBC     		pop	{r2, r3}
 291 0030 9046     		mov	r8, r2
 292 0032 9946     		mov	r9, r3
 293 0034 F0BD     		pop	{r4, r5, r6, r7, pc}
 294              	.LVL30:
 295              	.L32:
 213:Generated_Source\PSoC4/I2C_1_I2C_MASTER.c **** 
 296              		.loc 1 213 0
 297 0036 0424     		mov	r4, #4
 298 0038 F4E7     		b	.L29
 299              	.LVL31:
 300              	.L40:
 228:Generated_Source\PSoC4/I2C_1_I2C_MASTER.c ****                               errStatus  =  I2C_1_I2C_MSTR_NO_ERROR;
 301              		.loc 1 228 0
 302 003a 0821     		mov	r1, #8
 303              	.LVL32:
 304 003c 284B     		ldr	r3, .L42+4
 305 003e 1A88     		ldrh	r2, [r3]
 306              	.LVL33:
 307 0040 8A43     		bic	r2, r1
 308 0042 1A80     		strh	r2, [r3]
 309              	.LVL34:
 310              	.L25:
 246:Generated_Source\PSoC4/I2C_1_I2C_MASTER.c ****         I2C_1_mstrRdBufIndex = 0u;
 311              		.loc 1 246 0
 312 0044 2922     		mov	r2, #41
 247:Generated_Source\PSoC4/I2C_1_I2C_MASTER.c ****         I2C_1_mstrRdBufSize  = cnt;
 313              		.loc 1 247 0
 314 0046 0021     		mov	r1, #0
 246:Generated_Source\PSoC4/I2C_1_I2C_MASTER.c ****         I2C_1_mstrRdBufIndex = 0u;
ARM GAS  C:\Users\glenn\AppData\Local\Temp\cclrFd8J.s 			page 26


 315              		.loc 1 246 0
 316 0048 3270     		strb	r2, [r6]
 247:Generated_Source\PSoC4/I2C_1_I2C_MASTER.c ****         I2C_1_mstrRdBufSize  = cnt;
 317              		.loc 1 247 0
 318 004a 264A     		ldr	r2, .L42+8
 250:Generated_Source\PSoC4/I2C_1_I2C_MASTER.c **** 
 319              		.loc 1 250 0
 320 004c 6846     		mov	r0, sp
 247:Generated_Source\PSoC4/I2C_1_I2C_MASTER.c ****         I2C_1_mstrRdBufSize  = cnt;
 321              		.loc 1 247 0
 322 004e 1160     		str	r1, [r2]
 248:Generated_Source\PSoC4/I2C_1_I2C_MASTER.c ****         I2C_1_mstrRdBufPtr   = (volatile uint8 *) rdData;
 323              		.loc 1 248 0
 324 0050 4A46     		mov	r2, r9
 325 0052 2549     		ldr	r1, .L42+12
 252:Generated_Source\PSoC4/I2C_1_I2C_MASTER.c **** 
 326              		.loc 1 252 0
 327 0054 6D00     		lsl	r5, r5, #1
 328              	.LVL35:
 248:Generated_Source\PSoC4/I2C_1_I2C_MASTER.c ****         I2C_1_mstrRdBufPtr   = (volatile uint8 *) rdData;
 329              		.loc 1 248 0
 330 0056 0A60     		str	r2, [r1]
 249:Generated_Source\PSoC4/I2C_1_I2C_MASTER.c ****         I2C_1_mstrControl    = (uint8) mode;
 331              		.loc 1 249 0
 332 0058 244A     		ldr	r2, .L42+16
 333 005a 1760     		str	r7, [r2]
 250:Generated_Source\PSoC4/I2C_1_I2C_MASTER.c **** 
 334              		.loc 1 250 0
 335 005c 4246     		mov	r2, r8
 336 005e C271     		strb	r2, [r0, #7]
 337 0060 C279     		ldrb	r2, [r0, #7]
 338 0062 2348     		ldr	r0, .L42+20
 339 0064 0270     		strb	r2, [r0]
 252:Generated_Source\PSoC4/I2C_1_I2C_MASTER.c **** 
 340              		.loc 1 252 0
 341 0066 FF22     		mov	r2, #255
 342 0068 0120     		mov	r0, #1
 343 006a 1540     		and	r5, r2
 254:Generated_Source\PSoC4/I2C_1_I2C_MASTER.c **** 
 344              		.loc 1 254 0
 345 006c 1A88     		ldrh	r2, [r3]
 252:Generated_Source\PSoC4/I2C_1_I2C_MASTER.c **** 
 346              		.loc 1 252 0
 347 006e 0543     		orr	r5, r0
 348              	.LVL36:
 254:Generated_Source\PSoC4/I2C_1_I2C_MASTER.c **** 
 349              		.loc 1 254 0
 350 0070 8243     		bic	r2, r0
 351 0072 1A80     		strh	r2, [r3]
 256:Generated_Source\PSoC4/I2C_1_I2C_MASTER.c **** 
 352              		.loc 1 256 0
 353 0074 1F4B     		ldr	r3, .L42+24
 354 0076 204A     		ldr	r2, .L42+28
 355 0078 1A60     		str	r2, [r3]
 261:Generated_Source\PSoC4/I2C_1_I2C_MASTER.c ****         {
 356              		.loc 1 261 0
 357 007a 0B68     		ldr	r3, [r1]
ARM GAS  C:\Users\glenn\AppData\Local\Temp\cclrFd8J.s 			page 27


 358 007c 072B     		cmp	r3, #7
 359 007e 18D8     		bhi	.L41
 264:Generated_Source\PSoC4/I2C_1_I2C_MASTER.c ****         }
 360              		.loc 1 264 0
 361 0080 0422     		mov	r2, #4
 362 0082 1E4B     		ldr	r3, .L42+32
 363 0084 1A60     		str	r2, [r3]
 364              	.L26:
 274:Generated_Source\PSoC4/I2C_1_I2C_MASTER.c ****         {
 365              		.loc 1 274 0
 366 0086 4346     		mov	r3, r8
 367 0088 DB07     		lsl	r3, r3, #31
 368 008a 0BD5     		bpl	.L27
 369              	.LVL37:
 370              	.LBB12:
 371              	.LBB13:
1066:Generated_Source\PSoC4/I2C_1_I2C_MASTER.c ****                 (I2C_1_I2C_MASTER_CMD_M_NACK) : (0u);
 372              		.loc 1 1066 0
 373 008c 1C4B     		ldr	r3, .L42+36
 374 008e 1A68     		ldr	r2, [r3]
1067:Generated_Source\PSoC4/I2C_1_I2C_MASTER.c **** 
 375              		.loc 1 1067 0
 376 0090 0923     		mov	r3, #9
 377 0092 9206     		lsl	r2, r2, #26
 378 0094 00D4     		bmi	.L28
 379 0096 083B     		sub	r3, r3, #8
 380              	.L28:
 381              	.LVL38:
 382              		.loc 1 1069 0
 383 0098 1A4A     		ldr	r2, .L42+40
 384              	.LBE13:
 385              	.LBE12:
 386 009a 0024     		mov	r4, #0
 387              	.LBB15:
 388              	.LBB14:
 389 009c 1360     		str	r3, [r2]
 390              	.LBE14:
 391              	.LBE15:
 277:Generated_Source\PSoC4/I2C_1_I2C_MASTER.c ****         }
 392              		.loc 1 277 0
 393 009e 1A4B     		ldr	r3, .L42+44
 394              	.LVL39:
 395 00a0 1D60     		str	r5, [r3]
 396              	.LVL40:
 397 00a2 BFE7     		b	.L29
 398              	.L27:
 282:Generated_Source\PSoC4/I2C_1_I2C_MASTER.c ****         }
 399              		.loc 1 282 0
 400 00a4 0222     		mov	r2, #2
 281:Generated_Source\PSoC4/I2C_1_I2C_MASTER.c ****             I2C_1_I2C_MASTER_GENERATE_START;
 401              		.loc 1 281 0
 402 00a6 184B     		ldr	r3, .L42+44
 282:Generated_Source\PSoC4/I2C_1_I2C_MASTER.c ****         }
 403              		.loc 1 282 0
 404 00a8 0024     		mov	r4, #0
 281:Generated_Source\PSoC4/I2C_1_I2C_MASTER.c ****             I2C_1_I2C_MASTER_GENERATE_START;
 405              		.loc 1 281 0
ARM GAS  C:\Users\glenn\AppData\Local\Temp\cclrFd8J.s 			page 28


 406 00aa 1D60     		str	r5, [r3]
 282:Generated_Source\PSoC4/I2C_1_I2C_MASTER.c ****         }
 407              		.loc 1 282 0
 408 00ac 154B     		ldr	r3, .L42+40
 409 00ae 1A60     		str	r2, [r3]
 410 00b0 B8E7     		b	.L29
 411              	.L41:
 269:Generated_Source\PSoC4/I2C_1_I2C_MASTER.c ****             I2C_1_SetRxInterruptMode(I2C_1_INTR_RX_FULL);
 412              		.loc 1 269 0
 413 00b2 8021     		mov	r1, #128
 414 00b4 154A     		ldr	r2, .L42+48
 415 00b6 4900     		lsl	r1, r1, #1
 416 00b8 1368     		ldr	r3, [r2]
 417 00ba 0B43     		orr	r3, r1
 418 00bc 1360     		str	r3, [r2]
 270:Generated_Source\PSoC4/I2C_1_I2C_MASTER.c ****         }
 419              		.loc 1 270 0
 420 00be 0822     		mov	r2, #8
 421 00c0 0E4B     		ldr	r3, .L42+32
 422 00c2 1A60     		str	r2, [r3]
 423 00c4 DFE7     		b	.L26
 424              	.LVL41:
 425              	.L39:
 220:Generated_Source\PSoC4/I2C_1_I2C_MASTER.c **** 
 426              		.loc 1 220 0
 427 00c6 0820     		mov	r0, #8
 428              	.LVL42:
 429 00c8 FFF7FEFF 		bl	CyIntDisable
 430              	.LVL43:
 223:Generated_Source\PSoC4/I2C_1_I2C_MASTER.c ****                             I2C_1_I2C_MSTR_BUS_BUSY : I2C_1_I2C_MSTR_NO_ERROR;
 431              		.loc 1 223 0
 432 00cc 0C4B     		ldr	r3, .L42+36
 433 00ce 0824     		mov	r4, #8
 434 00d0 1B68     		ldr	r3, [r3]
 435 00d2 DB07     		lsl	r3, r3, #31
 436 00d4 A6D4     		bmi	.L29
 437 00d6 024B     		ldr	r3, .L42+4
 438 00d8 B4E7     		b	.L25
 439              	.L43:
 440 00da C046     		.align	2
 441              	.L42:
 442 00dc 00000000 		.word	I2C_1_state
 443 00e0 00000000 		.word	I2C_1_mstrStatus
 444 00e4 00000000 		.word	I2C_1_mstrRdBufIndex
 445 00e8 00000000 		.word	I2C_1_mstrRdBufSize
 446 00ec 00000000 		.word	I2C_1_mstrRdBufPtr
 447 00f0 00000000 		.word	I2C_1_mstrControl
 448 00f4 000F2440 		.word	1076104960
 449 00f8 17030000 		.word	791
 450 00fc C80F2440 		.word	1076105160
 451 0100 64002440 		.word	1076101220
 452 0104 68002440 		.word	1076101224
 453 0108 40022440 		.word	1076101696
 454 010c 60002440 		.word	1076101216
 455              		.cfi_endproc
 456              	.LFE2:
 457              		.size	I2C_1_I2CMasterReadBuf, .-I2C_1_I2CMasterReadBuf
ARM GAS  C:\Users\glenn\AppData\Local\Temp\cclrFd8J.s 			page 29


 458              		.section	.text.I2C_1_I2CMasterSendStart,"ax",%progbits
 459              		.align	2
 460              		.global	I2C_1_I2CMasterSendStart
 461              		.code	16
 462              		.thumb_func
 463              		.type	I2C_1_I2CMasterSendStart, %function
 464              	I2C_1_I2CMasterSendStart:
 465              	.LFB3:
 335:Generated_Source\PSoC4/I2C_1_I2C_MASTER.c ****     uint32  resetIp;
 466              		.loc 1 335 0
 467              		.cfi_startproc
 468              	.LVL44:
 469 0000 F8B5     		push	{r3, r4, r5, r6, r7, lr}
 470              		.cfi_def_cfa_offset 24
 471              		.cfi_offset 3, -24
 472              		.cfi_offset 4, -20
 473              		.cfi_offset 5, -16
 474              		.cfi_offset 6, -12
 475              		.cfi_offset 7, -8
 476              		.cfi_offset 14, -4
 343:Generated_Source\PSoC4/I2C_1_I2C_MASTER.c ****     {
 477              		.loc 1 343 0
 478 0002 294C     		ldr	r4, .L60
 340:Generated_Source\PSoC4/I2C_1_I2C_MASTER.c **** 
 479              		.loc 1 340 0
 480 0004 0423     		mov	r3, #4
 343:Generated_Source\PSoC4/I2C_1_I2C_MASTER.c ****     {
 481              		.loc 1 343 0
 482 0006 2278     		ldrb	r2, [r4]
 483 0008 102A     		cmp	r2, #16
 484 000a 01D0     		beq	.L59
 485              	.LVL45:
 486              	.L57:
 426:Generated_Source\PSoC4/I2C_1_I2C_MASTER.c **** 
 487              		.loc 1 426 0
 488 000c 181C     		mov	r0, r3
 489              		@ sp needed
 490 000e F8BD     		pop	{r3, r4, r5, r6, r7, pc}
 491              	.LVL46:
 492              	.L59:
 346:Generated_Source\PSoC4/I2C_1_I2C_MASTER.c ****         {
 493              		.loc 1 346 0
 494 0010 0126     		mov	r6, #1
 495 0012 264B     		ldr	r3, .L60+4
 496 0014 1A68     		ldr	r2, [r3]
 348:Generated_Source\PSoC4/I2C_1_I2C_MASTER.c ****         }
 497              		.loc 1 348 0
 498 0016 0823     		mov	r3, #8
 346:Generated_Source\PSoC4/I2C_1_I2C_MASTER.c ****         {
 499              		.loc 1 346 0
 500 0018 1642     		tst	r6, r2
 501 001a F7D1     		bne	.L57
 502 001c 051C     		mov	r5, r0
 352:Generated_Source\PSoC4/I2C_1_I2C_MASTER.c **** 
 503              		.loc 1 352 0
 504 001e 0820     		mov	r0, #8
 505              	.LVL47:
ARM GAS  C:\Users\glenn\AppData\Local\Temp\cclrFd8J.s 			page 30


 506 0020 0F1C     		mov	r7, r1
 507 0022 FFF7FEFF 		bl	CyIntDisable
 508              	.LVL48:
 359:Generated_Source\PSoC4/I2C_1_I2C_MASTER.c **** 
 509              		.loc 1 359 0
 510 0026 FF23     		mov	r3, #255
 511 0028 6800     		lsl	r0, r5, #1
 512 002a 1840     		and	r0, r3
 513              	.LVL49:
 361:Generated_Source\PSoC4/I2C_1_I2C_MASTER.c ****             {
 514              		.loc 1 361 0
 515 002c 002F     		cmp	r7, #0
 516 002e 2AD1     		bne	.L46
 363:Generated_Source\PSoC4/I2C_1_I2C_MASTER.c ****             }
 517              		.loc 1 363 0
 518 0030 DB3B     		sub	r3, r3, #219
 519 0032 2370     		strb	r3, [r4]
 520              	.L47:
 373:Generated_Source\PSoC4/I2C_1_I2C_MASTER.c ****             I2C_1_ClearMasterInterruptSource(I2C_1_INTR_MASTER_ALL);
 521              		.loc 1 373 0
 522 0034 1E4B     		ldr	r3, .L60+8
 376:Generated_Source\PSoC4/I2C_1_I2C_MASTER.c **** 
 523              		.loc 1 376 0
 524 0036 0221     		mov	r1, #2
 373:Generated_Source\PSoC4/I2C_1_I2C_MASTER.c ****             I2C_1_ClearMasterInterruptSource(I2C_1_INTR_MASTER_ALL);
 525              		.loc 1 373 0
 526 0038 1860     		str	r0, [r3]
 379:Generated_Source\PSoC4/I2C_1_I2C_MASTER.c ****                                                       I2C_1_INTR_MASTER_I2C_NACK     |
 527              		.loc 1 379 0
 528 003a 0820     		mov	r0, #8
 529              	.LVL50:
 374:Generated_Source\PSoC4/I2C_1_I2C_MASTER.c **** 
 530              		.loc 1 374 0
 531 003c 1D4B     		ldr	r3, .L60+12
 532              	.LVL51:
 533 003e 1E4A     		ldr	r2, .L60+16
 379:Generated_Source\PSoC4/I2C_1_I2C_MASTER.c ****                                                       I2C_1_INTR_MASTER_I2C_NACK     |
 534              		.loc 1 379 0
 535 0040 FF30     		add	r0, r0, #255
 374:Generated_Source\PSoC4/I2C_1_I2C_MASTER.c **** 
 536              		.loc 1 374 0
 537 0042 1360     		str	r3, [r2]
 538              	.LVL52:
 376:Generated_Source\PSoC4/I2C_1_I2C_MASTER.c **** 
 539              		.loc 1 376 0
 540 0044 1D4B     		ldr	r3, .L60+20
 541 0046 1960     		str	r1, [r3]
 542              	.L48:
 379:Generated_Source\PSoC4/I2C_1_I2C_MASTER.c ****                                                       I2C_1_INTR_MASTER_I2C_NACK     |
 543              		.loc 1 379 0 discriminator 1
 544 0048 1368     		ldr	r3, [r2]
 545 004a 1B49     		ldr	r1, .L60+16
 546 004c 0342     		tst	r3, r0
 547 004e FBD0     		beq	.L48
 391:Generated_Source\PSoC4/I2C_1_I2C_MASTER.c ****             {
 548              		.loc 1 391 0
 549 0050 0B68     		ldr	r3, [r1]
ARM GAS  C:\Users\glenn\AppData\Local\Temp\cclrFd8J.s 			page 31


 550 0052 5B07     		lsl	r3, r3, #29
 551 0054 1BD4     		bmi	.L54
 395:Generated_Source\PSoC4/I2C_1_I2C_MASTER.c ****             {
 552              		.loc 1 395 0
 553 0056 0B68     		ldr	r3, [r1]
 554 0058 9B07     		lsl	r3, r3, #30
 555 005a 1ED4     		bmi	.L55
 399:Generated_Source\PSoC4/I2C_1_I2C_MASTER.c ****             {
 556              		.loc 1 399 0
 557 005c 0B68     		ldr	r3, [r1]
 558 005e DB07     		lsl	r3, r3, #31
 559 0060 1DD5     		bpl	.L50
 401:Generated_Source\PSoC4/I2C_1_I2C_MASTER.c ****                              errStatus = I2C_1_I2C_MSTR_ERR_ARB_LOST;
 560              		.loc 1 401 0
 561 0062 1023     		mov	r3, #16
 562 0064 2370     		strb	r3, [r4]
 563              	.LVL53:
 402:Generated_Source\PSoC4/I2C_1_I2C_MASTER.c ****                              resetIp   = I2C_1_I2C_RESET_ERROR;
 564              		.loc 1 402 0
 565 0066 0F3B     		sub	r3, r3, #15
 566              	.LVL54:
 567              	.L51:
 412:Generated_Source\PSoC4/I2C_1_I2C_MASTER.c ****                                                         I2C_1_INTR_MASTER_I2C_NACK     |
 568              		.loc 1 412 0
 569 0068 0821     		mov	r1, #8
 420:Generated_Source\PSoC4/I2C_1_I2C_MASTER.c ****             }
 570              		.loc 1 420 0
 571 006a 8020     		mov	r0, #128
 412:Generated_Source\PSoC4/I2C_1_I2C_MASTER.c ****                                                         I2C_1_INTR_MASTER_I2C_NACK     |
 572              		.loc 1 412 0
 573 006c 124A     		ldr	r2, .L60+16
 574 006e FF31     		add	r1, r1, #255
 575 0070 1160     		str	r1, [r2]
 420:Generated_Source\PSoC4/I2C_1_I2C_MASTER.c ****             }
 576              		.loc 1 420 0
 577 0072 1349     		ldr	r1, .L60+24
 578 0074 0006     		lsl	r0, r0, #24
 579 0076 0A68     		ldr	r2, [r1]
 580 0078 5200     		lsl	r2, r2, #1
 581 007a 5208     		lsr	r2, r2, #1
 582 007c 0A60     		str	r2, [r1]
 583 007e 0A68     		ldr	r2, [r1]
 584 0080 0243     		orr	r2, r0
 585 0082 0A60     		str	r2, [r1]
 586 0084 C2E7     		b	.L57
 587              	.LVL55:
 588              	.L46:
 367:Generated_Source\PSoC4/I2C_1_I2C_MASTER.c ****                          slaveAddress |= I2C_1_I2C_READ_FLAG;
 589              		.loc 1 367 0
 590 0086 2523     		mov	r3, #37
 368:Generated_Source\PSoC4/I2C_1_I2C_MASTER.c ****             }
 591              		.loc 1 368 0
 592 0088 3043     		orr	r0, r6
 593              	.LVL56:
 367:Generated_Source\PSoC4/I2C_1_I2C_MASTER.c ****                          slaveAddress |= I2C_1_I2C_READ_FLAG;
 594              		.loc 1 367 0
 595 008a 2370     		strb	r3, [r4]
ARM GAS  C:\Users\glenn\AppData\Local\Temp\cclrFd8J.s 			page 32


 596 008c D2E7     		b	.L47
 597              	.LVL57:
 598              	.L54:
 393:Generated_Source\PSoC4/I2C_1_I2C_MASTER.c ****             }
 599              		.loc 1 393 0
 600 008e 0023     		mov	r3, #0
 601              	.L49:
 602              	.LVL58:
 412:Generated_Source\PSoC4/I2C_1_I2C_MASTER.c ****                                                         I2C_1_INTR_MASTER_I2C_NACK     |
 603              		.loc 1 412 0
 604 0090 0821     		mov	r1, #8
 605 0092 094A     		ldr	r2, .L60+16
 606 0094 FF31     		add	r1, r1, #255
 607 0096 1160     		str	r1, [r2]
 608 0098 B8E7     		b	.L57
 609              	.LVL59:
 610              	.L55:
 397:Generated_Source\PSoC4/I2C_1_I2C_MASTER.c ****             }
 611              		.loc 1 397 0
 612 009a 0223     		mov	r3, #2
 613 009c F8E7     		b	.L49
 614              	.L50:
 407:Generated_Source\PSoC4/I2C_1_I2C_MASTER.c ****                              errStatus = I2C_1_I2C_MSTR_ERR_BUS_ERR;
 615              		.loc 1 407 0
 616 009e 1023     		mov	r3, #16
 617 00a0 2370     		strb	r3, [r4]
 618              	.LVL60:
 408:Generated_Source\PSoC4/I2C_1_I2C_MASTER.c ****                              resetIp   = I2C_1_I2C_RESET_ERROR;
 619              		.loc 1 408 0
 620 00a2 F033     		add	r3, r3, #240
 621 00a4 E0E7     		b	.L51
 622              	.L61:
 623 00a6 C046     		.align	2
 624              	.L60:
 625 00a8 00000000 		.word	I2C_1_state
 626 00ac 64002440 		.word	1076101220
 627 00b0 40022440 		.word	1076101696
 628 00b4 17030000 		.word	791
 629 00b8 000F2440 		.word	1076104960
 630 00bc 68002440 		.word	1076101224
 631 00c0 00002440 		.word	1076101120
 632              		.cfi_endproc
 633              	.LFE3:
 634              		.size	I2C_1_I2CMasterSendStart, .-I2C_1_I2CMasterSendStart
 635              		.section	.text.I2C_1_I2CMasterSendRestart,"ax",%progbits
 636              		.align	2
 637              		.global	I2C_1_I2CMasterSendRestart
 638              		.code	16
 639              		.thumb_func
 640              		.type	I2C_1_I2CMasterSendRestart, %function
 641              	I2C_1_I2CMasterSendRestart:
 642              	.LFB4:
 459:Generated_Source\PSoC4/I2C_1_I2C_MASTER.c ****     uint32 resetIp;
 643              		.loc 1 459 0
 644              		.cfi_startproc
 645              	.LVL61:
 646 0000 10B5     		push	{r4, lr}
ARM GAS  C:\Users\glenn\AppData\Local\Temp\cclrFd8J.s 			page 33


 647              		.cfi_def_cfa_offset 8
 648              		.cfi_offset 4, -8
 649              		.cfi_offset 14, -4
 467:Generated_Source\PSoC4/I2C_1_I2C_MASTER.c ****     {
 650              		.loc 1 467 0
 651 0002 294C     		ldr	r4, .L84
 464:Generated_Source\PSoC4/I2C_1_I2C_MASTER.c **** 
 652              		.loc 1 464 0
 653 0004 0423     		mov	r3, #4
 467:Generated_Source\PSoC4/I2C_1_I2C_MASTER.c ****     {
 654              		.loc 1 467 0
 655 0006 2278     		ldrb	r2, [r4]
 656 0008 9206     		lsl	r2, r2, #26
 657 000a 01D4     		bmi	.L81
 658              	.LVL62:
 659              	.L77:
 544:Generated_Source\PSoC4/I2C_1_I2C_MASTER.c **** 
 660              		.loc 1 544 0
 661 000c 181C     		mov	r0, r3
 662              		@ sp needed
 663 000e 10BD     		pop	{r4, pc}
 664              	.LVL63:
 665              	.L81:
 469:Generated_Source\PSoC4/I2C_1_I2C_MASTER.c **** 
 666              		.loc 1 469 0
 667 0010 4000     		lsl	r0, r0, #1
 668              	.LVL64:
 669 0012 FB33     		add	r3, r3, #251
 670 0014 1840     		and	r0, r3
 671              	.LVL65:
 471:Generated_Source\PSoC4/I2C_1_I2C_MASTER.c ****         {
 672              		.loc 1 471 0
 673 0016 0029     		cmp	r1, #0
 674 0018 36D0     		beq	.L82
 477:Generated_Source\PSoC4/I2C_1_I2C_MASTER.c ****                       slaveAddress |= I2C_1_I2C_READ_FLAG;
 675              		.loc 1 477 0
 676 001a 2523     		mov	r3, #37
 677 001c 2370     		strb	r3, [r4]
 478:Generated_Source\PSoC4/I2C_1_I2C_MASTER.c ****         }
 678              		.loc 1 478 0
 679 001e 243B     		sub	r3, r3, #36
 680 0020 1843     		orr	r0, r3
 681              	.LVL66:
 682              	.L65:
 484:Generated_Source\PSoC4/I2C_1_I2C_MASTER.c **** 
 683              		.loc 1 484 0
 684 0022 224A     		ldr	r2, .L84+4
 685 0024 224B     		ldr	r3, .L84+8
 686 0026 1A60     		str	r2, [r3]
 687              	.LVL67:
 688              	.LBB16:
 689              	.LBB17:
1066:Generated_Source\PSoC4/I2C_1_I2C_MASTER.c ****                 (I2C_1_I2C_MASTER_CMD_M_NACK) : (0u);
 690              		.loc 1 1066 0
 691 0028 224B     		ldr	r3, .L84+12
 692 002a 1A68     		ldr	r2, [r3]
1067:Generated_Source\PSoC4/I2C_1_I2C_MASTER.c **** 
ARM GAS  C:\Users\glenn\AppData\Local\Temp\cclrFd8J.s 			page 34


 693              		.loc 1 1067 0
 694 002c 0923     		mov	r3, #9
 695 002e 9206     		lsl	r2, r2, #26
 696 0030 00D4     		bmi	.L66
 697 0032 083B     		sub	r3, r3, #8
 698              	.L66:
 699              	.LVL68:
 700              	.LBE17:
 701              	.LBE16:
 492:Generated_Source\PSoC4/I2C_1_I2C_MASTER.c ****         {
 702              		.loc 1 492 0
 703 0034 0121     		mov	r1, #1
 704              	.LVL69:
 705              	.LBB19:
 706              	.LBB18:
 707              		.loc 1 1069 0
 708 0036 204A     		ldr	r2, .L84+16
 709 0038 1360     		str	r3, [r2]
 710              	.LVL70:
 711              	.L67:
 712              	.LBE18:
 713              	.LBE19:
 492:Generated_Source\PSoC4/I2C_1_I2C_MASTER.c ****         {
 714              		.loc 1 492 0 discriminator 1
 715 003a 1368     		ldr	r3, [r2]
 716 003c 1942     		tst	r1, r3
 717 003e FCD1     		bne	.L67
 501:Generated_Source\PSoC4/I2C_1_I2C_MASTER.c ****                                                   I2C_1_INTR_MASTER_I2C_NACK     |
 718              		.loc 1 501 0
 719 0040 0821     		mov	r1, #8
 498:Generated_Source\PSoC4/I2C_1_I2C_MASTER.c **** 
 720              		.loc 1 498 0
 721 0042 1E4B     		ldr	r3, .L84+20
 501:Generated_Source\PSoC4/I2C_1_I2C_MASTER.c ****                                                   I2C_1_INTR_MASTER_I2C_NACK     |
 722              		.loc 1 501 0
 723 0044 FF31     		add	r1, r1, #255
 498:Generated_Source\PSoC4/I2C_1_I2C_MASTER.c **** 
 724              		.loc 1 498 0
 725 0046 1860     		str	r0, [r3]
 726              	.LVL71:
 501:Generated_Source\PSoC4/I2C_1_I2C_MASTER.c ****                                                   I2C_1_INTR_MASTER_I2C_NACK     |
 727              		.loc 1 501 0
 728 0048 1948     		ldr	r0, .L84+8
 729              	.LVL72:
 730              	.L68:
 501:Generated_Source\PSoC4/I2C_1_I2C_MASTER.c ****                                                   I2C_1_INTR_MASTER_I2C_NACK     |
 731              		.loc 1 501 0 is_stmt 0 discriminator 1
 732 004a 0368     		ldr	r3, [r0]
 733 004c 184A     		ldr	r2, .L84+8
 734 004e 0B42     		tst	r3, r1
 735 0050 FBD0     		beq	.L68
 510:Generated_Source\PSoC4/I2C_1_I2C_MASTER.c ****         {
 736              		.loc 1 510 0 is_stmt 1
 737 0052 1368     		ldr	r3, [r2]
 738 0054 5B07     		lsl	r3, r3, #29
 739 0056 1AD4     		bmi	.L74
 514:Generated_Source\PSoC4/I2C_1_I2C_MASTER.c ****         {
ARM GAS  C:\Users\glenn\AppData\Local\Temp\cclrFd8J.s 			page 35


 740              		.loc 1 514 0
 741 0058 1368     		ldr	r3, [r2]
 742 005a 9B07     		lsl	r3, r3, #30
 743 005c 1DD4     		bmi	.L75
 518:Generated_Source\PSoC4/I2C_1_I2C_MASTER.c ****         {
 744              		.loc 1 518 0
 745 005e 1368     		ldr	r3, [r2]
 746 0060 DB07     		lsl	r3, r3, #31
 747 0062 1CD4     		bmi	.L83
 526:Generated_Source\PSoC4/I2C_1_I2C_MASTER.c ****                          errStatus = I2C_1_I2C_MSTR_ERR_BUS_ERR;
 748              		.loc 1 526 0
 749 0064 1023     		mov	r3, #16
 750 0066 2370     		strb	r3, [r4]
 751              	.LVL73:
 527:Generated_Source\PSoC4/I2C_1_I2C_MASTER.c ****                          resetIp   = I2C_1_I2C_RESET_ERROR;
 752              		.loc 1 527 0
 753 0068 F033     		add	r3, r3, #240
 754              	.LVL74:
 755              	.L71:
 531:Generated_Source\PSoC4/I2C_1_I2C_MASTER.c ****                                                     I2C_1_INTR_MASTER_I2C_NACK     |
 756              		.loc 1 531 0
 757 006a 0821     		mov	r1, #8
 539:Generated_Source\PSoC4/I2C_1_I2C_MASTER.c ****         }
 758              		.loc 1 539 0
 759 006c 8020     		mov	r0, #128
 531:Generated_Source\PSoC4/I2C_1_I2C_MASTER.c ****                                                     I2C_1_INTR_MASTER_I2C_NACK     |
 760              		.loc 1 531 0
 761 006e 104A     		ldr	r2, .L84+8
 762 0070 FF31     		add	r1, r1, #255
 763 0072 1160     		str	r1, [r2]
 539:Generated_Source\PSoC4/I2C_1_I2C_MASTER.c ****         }
 764              		.loc 1 539 0
 765 0074 1249     		ldr	r1, .L84+24
 766 0076 0006     		lsl	r0, r0, #24
 767 0078 0A68     		ldr	r2, [r1]
 768 007a 5200     		lsl	r2, r2, #1
 769 007c 5208     		lsr	r2, r2, #1
 770 007e 0A60     		str	r2, [r1]
 771 0080 0A68     		ldr	r2, [r1]
 772 0082 0243     		orr	r2, r0
 773 0084 0A60     		str	r2, [r1]
 774 0086 C1E7     		b	.L77
 775              	.LVL75:
 776              	.L82:
 473:Generated_Source\PSoC4/I2C_1_I2C_MASTER.c ****         }
 777              		.loc 1 473 0
 778 0088 DB3B     		sub	r3, r3, #219
 779 008a 2370     		strb	r3, [r4]
 780 008c C9E7     		b	.L65
 781              	.LVL76:
 782              	.L74:
 512:Generated_Source\PSoC4/I2C_1_I2C_MASTER.c ****         }
 783              		.loc 1 512 0
 784 008e 0023     		mov	r3, #0
 785              	.L69:
 786              	.LVL77:
 531:Generated_Source\PSoC4/I2C_1_I2C_MASTER.c ****                                                     I2C_1_INTR_MASTER_I2C_NACK     |
ARM GAS  C:\Users\glenn\AppData\Local\Temp\cclrFd8J.s 			page 36


 787              		.loc 1 531 0
 788 0090 0821     		mov	r1, #8
 789 0092 074A     		ldr	r2, .L84+8
 790 0094 FF31     		add	r1, r1, #255
 791 0096 1160     		str	r1, [r2]
 792              	.LVL78:
 793 0098 B8E7     		b	.L77
 794              	.LVL79:
 795              	.L75:
 516:Generated_Source\PSoC4/I2C_1_I2C_MASTER.c ****         }
 796              		.loc 1 516 0
 797 009a 0223     		mov	r3, #2
 798 009c F8E7     		b	.L69
 799              	.L83:
 520:Generated_Source\PSoC4/I2C_1_I2C_MASTER.c ****                          errStatus = I2C_1_I2C_MSTR_ERR_ARB_LOST;
 800              		.loc 1 520 0
 801 009e 1023     		mov	r3, #16
 802 00a0 2370     		strb	r3, [r4]
 803              	.LVL80:
 521:Generated_Source\PSoC4/I2C_1_I2C_MASTER.c ****                          resetIp   = I2C_1_I2C_RESET_ERROR;
 804              		.loc 1 521 0
 805 00a2 0F3B     		sub	r3, r3, #15
 806 00a4 E1E7     		b	.L71
 807              	.L85:
 808 00a6 C046     		.align	2
 809              	.L84:
 810 00a8 00000000 		.word	I2C_1_state
 811 00ac 17030000 		.word	791
 812 00b0 000F2440 		.word	1076104960
 813 00b4 64002440 		.word	1076101220
 814 00b8 68002440 		.word	1076101224
 815 00bc 40022440 		.word	1076101696
 816 00c0 00002440 		.word	1076101120
 817              		.cfi_endproc
 818              	.LFE4:
 819              		.size	I2C_1_I2CMasterSendRestart, .-I2C_1_I2CMasterSendRestart
 820              		.section	.text.I2C_1_I2CMasterSendStop,"ax",%progbits
 821              		.align	2
 822              		.global	I2C_1_I2CMasterSendStop
 823              		.code	16
 824              		.thumb_func
 825              		.type	I2C_1_I2CMasterSendStop, %function
 826              	I2C_1_I2CMasterSendStop:
 827              	.LFB5:
 574:Generated_Source\PSoC4/I2C_1_I2C_MASTER.c ****     uint32 resetIp;
 828              		.loc 1 574 0
 829              		.cfi_startproc
 830              	.LVL81:
 582:Generated_Source\PSoC4/I2C_1_I2C_MASTER.c ****     {
 831              		.loc 1 582 0
 832 0000 2023     		mov	r3, #32
 574:Generated_Source\PSoC4/I2C_1_I2C_MASTER.c ****     uint32 resetIp;
 833              		.loc 1 574 0
 834 0002 10B5     		push	{r4, lr}
 835              		.cfi_def_cfa_offset 8
 836              		.cfi_offset 4, -8
 837              		.cfi_offset 14, -4
ARM GAS  C:\Users\glenn\AppData\Local\Temp\cclrFd8J.s 			page 37


 582:Generated_Source\PSoC4/I2C_1_I2C_MASTER.c ****     {
 838              		.loc 1 582 0
 839 0004 1A4C     		ldr	r4, .L101
 579:Generated_Source\PSoC4/I2C_1_I2C_MASTER.c **** 
 840              		.loc 1 579 0
 841 0006 0420     		mov	r0, #4
 582:Generated_Source\PSoC4/I2C_1_I2C_MASTER.c ****     {
 842              		.loc 1 582 0
 843 0008 2278     		ldrb	r2, [r4]
 844 000a 1342     		tst	r3, r2
 845 000c 00D1     		bne	.L99
 846              	.LVL82:
 847              	.L96:
 627:Generated_Source\PSoC4/I2C_1_I2C_MASTER.c **** 
 848              		.loc 1 627 0
 849              		@ sp needed
 850 000e 10BD     		pop	{r4, pc}
 851              	.LVL83:
 852              	.L99:
 588:Generated_Source\PSoC4/I2C_1_I2C_MASTER.c **** 
 853              		.loc 1 588 0
 854 0010 184A     		ldr	r2, .L101+4
 855 0012 1168     		ldr	r1, [r2]
 856 0014 1822     		mov	r2, #24
 857 0016 0B42     		tst	r3, r1
 858 0018 28D0     		beq	.L100
 859              	.L88:
 590:Generated_Source\PSoC4/I2C_1_I2C_MASTER.c ****                                                   I2C_1_INTR_MASTER_I2C_ARB_LOST |
 860              		.loc 1 590 0 discriminator 4
 861 001a 1221     		mov	r1, #18
 588:Generated_Source\PSoC4/I2C_1_I2C_MASTER.c **** 
 862              		.loc 1 588 0 discriminator 4
 863 001c 164B     		ldr	r3, .L101+8
 590:Generated_Source\PSoC4/I2C_1_I2C_MASTER.c ****                                                   I2C_1_INTR_MASTER_I2C_ARB_LOST |
 864              		.loc 1 590 0 discriminator 4
 865 001e 1748     		ldr	r0, .L101+12
 588:Generated_Source\PSoC4/I2C_1_I2C_MASTER.c **** 
 866              		.loc 1 588 0 discriminator 4
 867 0020 1A60     		str	r2, [r3]
 590:Generated_Source\PSoC4/I2C_1_I2C_MASTER.c ****                                                   I2C_1_INTR_MASTER_I2C_ARB_LOST |
 868              		.loc 1 590 0 discriminator 4
 869 0022 FF31     		add	r1, r1, #255
 870              	.L89:
 590:Generated_Source\PSoC4/I2C_1_I2C_MASTER.c ****                                                   I2C_1_INTR_MASTER_I2C_ARB_LOST |
 871              		.loc 1 590 0 is_stmt 0 discriminator 1
 872 0024 0368     		ldr	r3, [r0]
 873 0026 154A     		ldr	r2, .L101+12
 874 0028 0B42     		tst	r3, r1
 875 002a FBD0     		beq	.L89
 598:Generated_Source\PSoC4/I2C_1_I2C_MASTER.c ****         {
 876              		.loc 1 598 0 is_stmt 1
 877 002c 1023     		mov	r3, #16
 878 002e 1168     		ldr	r1, [r2]
 879 0030 0B42     		tst	r3, r1
 880 0032 15D1     		bne	.L90
 602:Generated_Source\PSoC4/I2C_1_I2C_MASTER.c ****         {
 881              		.loc 1 602 0
ARM GAS  C:\Users\glenn\AppData\Local\Temp\cclrFd8J.s 			page 38


 882 0034 1368     		ldr	r3, [r2]
 604:Generated_Source\PSoC4/I2C_1_I2C_MASTER.c ****             resetIp   = I2C_1_I2C_RESET_ERROR;
 883              		.loc 1 604 0
 884 0036 0120     		mov	r0, #1
 602:Generated_Source\PSoC4/I2C_1_I2C_MASTER.c ****         {
 885              		.loc 1 602 0
 886 0038 DB07     		lsl	r3, r3, #31
 887 003a 00D4     		bmi	.L91
 609:Generated_Source\PSoC4/I2C_1_I2C_MASTER.c ****             resetIp   = I2C_1_I2C_RESET_ERROR;
 888              		.loc 1 609 0
 889 003c FF30     		add	r0, r0, #255
 890              	.L91:
 891              	.LVL84:
 613:Generated_Source\PSoC4/I2C_1_I2C_MASTER.c ****                                                     I2C_1_INTR_MASTER_I2C_ARB_LOST |
 892              		.loc 1 613 0
 893 003e 1222     		mov	r2, #18
 894 0040 0E4B     		ldr	r3, .L101+12
 895 0042 FF32     		add	r2, r2, #255
 896 0044 1A60     		str	r2, [r3]
 617:Generated_Source\PSoC4/I2C_1_I2C_MASTER.c **** 
 897              		.loc 1 617 0
 898 0046 1023     		mov	r3, #16
 622:Generated_Source\PSoC4/I2C_1_I2C_MASTER.c ****         }
 899              		.loc 1 622 0
 900 0048 8021     		mov	r1, #128
 901 004a 0D4A     		ldr	r2, .L101+16
 617:Generated_Source\PSoC4/I2C_1_I2C_MASTER.c **** 
 902              		.loc 1 617 0
 903 004c 2370     		strb	r3, [r4]
 622:Generated_Source\PSoC4/I2C_1_I2C_MASTER.c ****         }
 904              		.loc 1 622 0
 905 004e 1368     		ldr	r3, [r2]
 906 0050 0906     		lsl	r1, r1, #24
 907 0052 5B00     		lsl	r3, r3, #1
 908 0054 5B08     		lsr	r3, r3, #1
 909 0056 1360     		str	r3, [r2]
 910 0058 1368     		ldr	r3, [r2]
 911 005a 0B43     		orr	r3, r1
 912 005c 1360     		str	r3, [r2]
 913 005e D6E7     		b	.L96
 914              	.LVL85:
 915              	.L90:
 613:Generated_Source\PSoC4/I2C_1_I2C_MASTER.c ****                                                     I2C_1_INTR_MASTER_I2C_ARB_LOST |
 916              		.loc 1 613 0
 917 0060 1221     		mov	r1, #18
 918 0062 FF31     		add	r1, r1, #255
 919 0064 1160     		str	r1, [r2]
 600:Generated_Source\PSoC4/I2C_1_I2C_MASTER.c ****         }
 920              		.loc 1 600 0
 921 0066 0020     		mov	r0, #0
 922              	.LVL86:
 617:Generated_Source\PSoC4/I2C_1_I2C_MASTER.c **** 
 923              		.loc 1 617 0
 924 0068 2370     		strb	r3, [r4]
 925 006a D0E7     		b	.L96
 926              	.LVL87:
 927              	.L100:
ARM GAS  C:\Users\glenn\AppData\Local\Temp\cclrFd8J.s 			page 39


 588:Generated_Source\PSoC4/I2C_1_I2C_MASTER.c **** 
 928              		.loc 1 588 0
 929 006c 083A     		sub	r2, r2, #8
 930 006e D4E7     		b	.L88
 931              	.L102:
 932              		.align	2
 933              	.L101:
 934 0070 00000000 		.word	I2C_1_state
 935 0074 64002440 		.word	1076101220
 936 0078 68002440 		.word	1076101224
 937 007c 000F2440 		.word	1076104960
 938 0080 00002440 		.word	1076101120
 939              		.cfi_endproc
 940              	.LFE5:
 941              		.size	I2C_1_I2CMasterSendStop, .-I2C_1_I2CMasterSendStop
 942              		.section	.text.I2C_1_I2CMasterWriteByte,"ax",%progbits
 943              		.align	2
 944              		.global	I2C_1_I2CMasterWriteByte
 945              		.code	16
 946              		.thumb_func
 947              		.type	I2C_1_I2CMasterWriteByte, %function
 948              	I2C_1_I2CMasterWriteByte:
 949              	.LFB6:
 654:Generated_Source\PSoC4/I2C_1_I2C_MASTER.c ****     uint32 resetIp;
 950              		.loc 1 654 0
 951              		.cfi_startproc
 952              	.LVL88:
 953 0000 10B5     		push	{r4, lr}
 954              		.cfi_def_cfa_offset 8
 955              		.cfi_offset 4, -8
 956              		.cfi_offset 14, -4
 662:Generated_Source\PSoC4/I2C_1_I2C_MASTER.c ****     {
 957              		.loc 1 662 0
 958 0002 1D4C     		ldr	r4, .L119
 659:Generated_Source\PSoC4/I2C_1_I2C_MASTER.c **** 
 959              		.loc 1 659 0
 960 0004 0423     		mov	r3, #4
 662:Generated_Source\PSoC4/I2C_1_I2C_MASTER.c ****     {
 961              		.loc 1 662 0
 962 0006 2278     		ldrb	r2, [r4]
 963 0008 9206     		lsl	r2, r2, #26
 964 000a 01D4     		bmi	.L116
 965              	.LVL89:
 966              	.L113:
 711:Generated_Source\PSoC4/I2C_1_I2C_MASTER.c **** 
 967              		.loc 1 711 0
 968 000c 181C     		mov	r0, r3
 969              		@ sp needed
 970 000e 10BD     		pop	{r4, pc}
 971              	.LVL90:
 972              	.L116:
 666:Generated_Source\PSoC4/I2C_1_I2C_MASTER.c ****                                                   I2C_1_INTR_MASTER_I2C_NACK     |
 973              		.loc 1 666 0
 974 0010 0821     		mov	r1, #8
 664:Generated_Source\PSoC4/I2C_1_I2C_MASTER.c **** 
 975              		.loc 1 664 0
 976 0012 1A4B     		ldr	r3, .L119+4
ARM GAS  C:\Users\glenn\AppData\Local\Temp\cclrFd8J.s 			page 40


 666:Generated_Source\PSoC4/I2C_1_I2C_MASTER.c ****                                                   I2C_1_INTR_MASTER_I2C_NACK     |
 977              		.loc 1 666 0
 978 0014 FF31     		add	r1, r1, #255
 664:Generated_Source\PSoC4/I2C_1_I2C_MASTER.c **** 
 979              		.loc 1 664 0
 980 0016 1860     		str	r0, [r3]
 666:Generated_Source\PSoC4/I2C_1_I2C_MASTER.c ****                                                   I2C_1_INTR_MASTER_I2C_NACK     |
 981              		.loc 1 666 0
 982 0018 1948     		ldr	r0, .L119+8
 983              	.LVL91:
 984              	.L105:
 666:Generated_Source\PSoC4/I2C_1_I2C_MASTER.c ****                                                   I2C_1_INTR_MASTER_I2C_NACK     |
 985              		.loc 1 666 0 is_stmt 0 discriminator 1
 986 001a 0368     		ldr	r3, [r0]
 987 001c 184A     		ldr	r2, .L119+8
 988 001e 0B42     		tst	r3, r1
 989 0020 FBD0     		beq	.L105
 675:Generated_Source\PSoC4/I2C_1_I2C_MASTER.c ****         {
 990              		.loc 1 675 0 is_stmt 1
 991 0022 1368     		ldr	r3, [r2]
 992 0024 5B07     		lsl	r3, r3, #29
 993 0026 0AD4     		bmi	.L117
 680:Generated_Source\PSoC4/I2C_1_I2C_MASTER.c ****         {
 994              		.loc 1 680 0
 995 0028 1368     		ldr	r3, [r2]
 996 002a 9B07     		lsl	r3, r3, #30
 997 002c 0BD5     		bpl	.L108
 682:Generated_Source\PSoC4/I2C_1_I2C_MASTER.c ****                          errStatus = I2C_1_I2C_MSTR_ERR_LB_NAK;
 998              		.loc 1 682 0
 999 002e 6023     		mov	r3, #96
 1000 0030 2370     		strb	r3, [r4]
 1001              	.LVL92:
 683:Generated_Source\PSoC4/I2C_1_I2C_MASTER.c ****         }
 1002              		.loc 1 683 0
 1003 0032 5E3B     		sub	r3, r3, #94
 1004              	.LVL93:
 1005              	.L107:
 698:Generated_Source\PSoC4/I2C_1_I2C_MASTER.c ****                                                     I2C_1_INTR_MASTER_I2C_NACK     |
 1006              		.loc 1 698 0
 1007 0034 0821     		mov	r1, #8
 1008 0036 124A     		ldr	r2, .L119+8
 1009 0038 FF31     		add	r1, r1, #255
 1010 003a 1160     		str	r1, [r2]
 1011 003c E6E7     		b	.L113
 1012              	.LVL94:
 1013              	.L117:
 677:Generated_Source\PSoC4/I2C_1_I2C_MASTER.c ****                          errStatus = I2C_1_I2C_MSTR_NO_ERROR;
 1014              		.loc 1 677 0
 1015 003e 6023     		mov	r3, #96
 1016 0040 2370     		strb	r3, [r4]
 1017              	.LVL95:
 678:Generated_Source\PSoC4/I2C_1_I2C_MASTER.c ****         }
 1018              		.loc 1 678 0
 1019 0042 0023     		mov	r3, #0
 1020 0044 F6E7     		b	.L107
 1021              	.LVL96:
 1022              	.L108:
ARM GAS  C:\Users\glenn\AppData\Local\Temp\cclrFd8J.s 			page 41


 685:Generated_Source\PSoC4/I2C_1_I2C_MASTER.c ****         {
 1023              		.loc 1 685 0
 1024 0046 1368     		ldr	r3, [r2]
 1025 0048 DB07     		lsl	r3, r3, #31
 1026 004a 11D4     		bmi	.L118
 693:Generated_Source\PSoC4/I2C_1_I2C_MASTER.c ****                          errStatus = I2C_1_I2C_MSTR_ERR_BUS_ERR;
 1027              		.loc 1 693 0
 1028 004c 1023     		mov	r3, #16
 1029 004e 2370     		strb	r3, [r4]
 1030              	.LVL97:
 694:Generated_Source\PSoC4/I2C_1_I2C_MASTER.c ****                          resetIp   = I2C_1_I2C_RESET_ERROR;
 1031              		.loc 1 694 0
 1032 0050 F033     		add	r3, r3, #240
 1033              	.LVL98:
 1034              	.L110:
 698:Generated_Source\PSoC4/I2C_1_I2C_MASTER.c ****                                                     I2C_1_INTR_MASTER_I2C_NACK     |
 1035              		.loc 1 698 0
 1036 0052 0821     		mov	r1, #8
 706:Generated_Source\PSoC4/I2C_1_I2C_MASTER.c ****         }
 1037              		.loc 1 706 0
 1038 0054 8020     		mov	r0, #128
 698:Generated_Source\PSoC4/I2C_1_I2C_MASTER.c ****                                                     I2C_1_INTR_MASTER_I2C_NACK     |
 1039              		.loc 1 698 0
 1040 0056 0A4A     		ldr	r2, .L119+8
 1041 0058 FF31     		add	r1, r1, #255
 1042 005a 1160     		str	r1, [r2]
 706:Generated_Source\PSoC4/I2C_1_I2C_MASTER.c ****         }
 1043              		.loc 1 706 0
 1044 005c 0949     		ldr	r1, .L119+12
 1045 005e 0006     		lsl	r0, r0, #24
 1046 0060 0A68     		ldr	r2, [r1]
 1047 0062 5200     		lsl	r2, r2, #1
 1048 0064 5208     		lsr	r2, r2, #1
 1049 0066 0A60     		str	r2, [r1]
 1050 0068 0A68     		ldr	r2, [r1]
 1051 006a 0243     		orr	r2, r0
 1052 006c 0A60     		str	r2, [r1]
 1053 006e CDE7     		b	.L113
 1054              	.LVL99:
 1055              	.L118:
 687:Generated_Source\PSoC4/I2C_1_I2C_MASTER.c ****                          errStatus = I2C_1_I2C_MSTR_ERR_ARB_LOST;
 1056              		.loc 1 687 0
 1057 0070 1023     		mov	r3, #16
 1058 0072 2370     		strb	r3, [r4]
 1059              	.LVL100:
 688:Generated_Source\PSoC4/I2C_1_I2C_MASTER.c ****                          resetIp   = I2C_1_I2C_RESET_ERROR;
 1060              		.loc 1 688 0
 1061 0074 0F3B     		sub	r3, r3, #15
 1062 0076 ECE7     		b	.L110
 1063              	.L120:
 1064              		.align	2
 1065              	.L119:
 1066 0078 00000000 		.word	I2C_1_state
 1067 007c 40022440 		.word	1076101696
 1068 0080 000F2440 		.word	1076104960
 1069 0084 00002440 		.word	1076101120
 1070              		.cfi_endproc
ARM GAS  C:\Users\glenn\AppData\Local\Temp\cclrFd8J.s 			page 42


 1071              	.LFE6:
 1072              		.size	I2C_1_I2CMasterWriteByte, .-I2C_1_I2CMasterWriteByte
 1073              		.section	.text.I2C_1_I2CMasterReadByte,"ax",%progbits
 1074              		.align	2
 1075              		.global	I2C_1_I2CMasterReadByte
 1076              		.code	16
 1077              		.thumb_func
 1078              		.type	I2C_1_I2CMasterReadByte, %function
 1079              	I2C_1_I2CMasterReadByte:
 1080              	.LFB7:
 745:Generated_Source\PSoC4/I2C_1_I2C_MASTER.c ****     uint32 theByte;
 1081              		.loc 1 745 0
 1082              		.cfi_startproc
 1083              	.LVL101:
 1084 0000 70B5     		push	{r4, r5, r6, lr}
 1085              		.cfi_def_cfa_offset 16
 1086              		.cfi_offset 4, -16
 1087              		.cfi_offset 5, -12
 1088              		.cfi_offset 6, -8
 1089              		.cfi_offset 14, -4
 752:Generated_Source\PSoC4/I2C_1_I2C_MASTER.c ****     {
 1090              		.loc 1 752 0
 1091 0002 1A4E     		ldr	r6, .L134
 1092 0004 3378     		ldrb	r3, [r6]
 1093 0006 9B06     		lsl	r3, r3, #26
 1094 0008 03D4     		bmi	.L131
 749:Generated_Source\PSoC4/I2C_1_I2C_MASTER.c **** 
 1095              		.loc 1 749 0
 1096 000a 0123     		mov	r3, #1
 1097 000c 5B42     		neg	r3, r3
 1098              	.LVL102:
 1099              	.L122:
 788:Generated_Source\PSoC4/I2C_1_I2C_MASTER.c **** 
 1100              		.loc 1 788 0
 1101 000e 181C     		mov	r0, r3
 1102              	.LVL103:
 1103              		@ sp needed
 1104 0010 70BD     		pop	{r4, r5, r6, pc}
 1105              	.LVL104:
 1106              	.L131:
 755:Generated_Source\PSoC4/I2C_1_I2C_MASTER.c ****                                                   I2C_1_INTR_MASTER_I2C_BUS_ERROR)))
 1107              		.loc 1 755 0 discriminator 2
 1108 0012 0224     		mov	r4, #2
 754:Generated_Source\PSoC4/I2C_1_I2C_MASTER.c ****               (!I2C_1_CHECK_INTR_MASTER(I2C_1_INTR_MASTER_I2C_ARB_LOST |
 1109              		.loc 1 754 0 discriminator 2
 1110 0014 1649     		ldr	r1, .L134+4
 1111 0016 0422     		mov	r2, #4
 755:Generated_Source\PSoC4/I2C_1_I2C_MASTER.c ****                                                   I2C_1_INTR_MASTER_I2C_BUS_ERROR)))
 1112              		.loc 1 755 0 discriminator 2
 1113 0018 164D     		ldr	r5, .L134+8
 1114 001a FF34     		add	r4, r4, #255
 1115 001c 02E0     		b	.L129
 1116              	.L132:
 755:Generated_Source\PSoC4/I2C_1_I2C_MASTER.c ****                                                   I2C_1_INTR_MASTER_I2C_BUS_ERROR)))
 1117              		.loc 1 755 0 is_stmt 0 discriminator 1
 1118 001e 2B68     		ldr	r3, [r5]
 754:Generated_Source\PSoC4/I2C_1_I2C_MASTER.c ****               (!I2C_1_CHECK_INTR_MASTER(I2C_1_INTR_MASTER_I2C_ARB_LOST |
ARM GAS  C:\Users\glenn\AppData\Local\Temp\cclrFd8J.s 			page 43


 1119              		.loc 1 754 0 is_stmt 1 discriminator 1
 1120 0020 2342     		tst	r3, r4
 1121 0022 02D1     		bne	.L123
 1122              	.L129:
 754:Generated_Source\PSoC4/I2C_1_I2C_MASTER.c ****               (!I2C_1_CHECK_INTR_MASTER(I2C_1_INTR_MASTER_I2C_ARB_LOST |
 1123              		.loc 1 754 0 is_stmt 0 discriminator 2
 1124 0024 0B68     		ldr	r3, [r1]
 1125 0026 1A42     		tst	r2, r3
 1126 0028 F9D0     		beq	.L132
 1127              	.L123:
 762:Generated_Source\PSoC4/I2C_1_I2C_MASTER.c ****         {
 1128              		.loc 1 762 0 is_stmt 1
 1129 002a 0422     		mov	r2, #4
 1130 002c 1049     		ldr	r1, .L134+4
 1131 002e 0B68     		ldr	r3, [r1]
 1132 0030 1A42     		tst	r2, r3
 1133 0032 0FD1     		bne	.L133
 783:Generated_Source\PSoC4/I2C_1_I2C_MASTER.c ****         }
 1134              		.loc 1 783 0
 1135 0034 8021     		mov	r1, #128
 780:Generated_Source\PSoC4/I2C_1_I2C_MASTER.c **** 
 1136              		.loc 1 780 0
 1137 0036 104A     		ldr	r2, .L134+12
 1138 0038 0E4B     		ldr	r3, .L134+8
 783:Generated_Source\PSoC4/I2C_1_I2C_MASTER.c ****         }
 1139              		.loc 1 783 0
 1140 003a 0906     		lsl	r1, r1, #24
 780:Generated_Source\PSoC4/I2C_1_I2C_MASTER.c **** 
 1141              		.loc 1 780 0
 1142 003c 1A60     		str	r2, [r3]
 783:Generated_Source\PSoC4/I2C_1_I2C_MASTER.c ****         }
 1143              		.loc 1 783 0
 1144 003e 0F4A     		ldr	r2, .L134+16
 1145 0040 1368     		ldr	r3, [r2]
 1146 0042 5B00     		lsl	r3, r3, #1
 1147 0044 5B08     		lsr	r3, r3, #1
 1148 0046 1360     		str	r3, [r2]
 1149 0048 1368     		ldr	r3, [r2]
 1150 004a 0B43     		orr	r3, r1
 1151 004c 1360     		str	r3, [r2]
 749:Generated_Source\PSoC4/I2C_1_I2C_MASTER.c **** 
 1152              		.loc 1 749 0
 1153 004e 0123     		mov	r3, #1
 1154 0050 5B42     		neg	r3, r3
 1155 0052 DCE7     		b	.L122
 1156              	.L133:
 764:Generated_Source\PSoC4/I2C_1_I2C_MASTER.c **** 
 1157              		.loc 1 764 0
 1158 0054 0A4B     		ldr	r3, .L134+20
 1159 0056 1B68     		ldr	r3, [r3]
 1160              	.LVL105:
 766:Generated_Source\PSoC4/I2C_1_I2C_MASTER.c **** 
 1161              		.loc 1 766 0
 1162 0058 0A60     		str	r2, [r1]
 768:Generated_Source\PSoC4/I2C_1_I2C_MASTER.c ****             {
 1163              		.loc 1 768 0
 1164 005a 0028     		cmp	r0, #0
ARM GAS  C:\Users\glenn\AppData\Local\Temp\cclrFd8J.s 			page 44


 1165 005c 02D1     		bne	.L126
 770:Generated_Source\PSoC4/I2C_1_I2C_MASTER.c ****             }
 1166              		.loc 1 770 0
 1167 005e 0949     		ldr	r1, .L134+24
 1168 0060 0A60     		str	r2, [r1]
 1169 0062 D4E7     		b	.L122
 1170              	.L126:
 775:Generated_Source\PSoC4/I2C_1_I2C_MASTER.c ****             }
 1171              		.loc 1 775 0
 1172 0064 6022     		mov	r2, #96
 1173 0066 3270     		strb	r2, [r6]
 1174 0068 D1E7     		b	.L122
 1175              	.L135:
 1176 006a C046     		.align	2
 1177              	.L134:
 1178 006c 00000000 		.word	I2C_1_state
 1179 0070 C00F2440 		.word	1076105152
 1180 0074 000F2440 		.word	1076104960
 1181 0078 17030000 		.word	791
 1182 007c 00002440 		.word	1076101120
 1183 0080 40032440 		.word	1076101952
 1184 0084 68002440 		.word	1076101224
 1185              		.cfi_endproc
 1186              	.LFE7:
 1187              		.size	I2C_1_I2CMasterReadByte, .-I2C_1_I2CMasterReadByte
 1188              		.section	.text.I2C_1_I2CMasterGetReadBufSize,"ax",%progbits
 1189              		.align	2
 1190              		.global	I2C_1_I2CMasterGetReadBufSize
 1191              		.code	16
 1192              		.thumb_func
 1193              		.type	I2C_1_I2CMasterGetReadBufSize, %function
 1194              	I2C_1_I2CMasterGetReadBufSize:
 1195              	.LFB8:
 813:Generated_Source\PSoC4/I2C_1_I2C_MASTER.c ****     return(I2C_1_mstrRdBufIndex);
 1196              		.loc 1 813 0
 1197              		.cfi_startproc
 814:Generated_Source\PSoC4/I2C_1_I2C_MASTER.c **** }
 1198              		.loc 1 814 0
 1199 0000 014B     		ldr	r3, .L137
 815:Generated_Source\PSoC4/I2C_1_I2C_MASTER.c **** 
 1200              		.loc 1 815 0
 1201              		@ sp needed
 814:Generated_Source\PSoC4/I2C_1_I2C_MASTER.c **** }
 1202              		.loc 1 814 0
 1203 0002 1868     		ldr	r0, [r3]
 815:Generated_Source\PSoC4/I2C_1_I2C_MASTER.c **** 
 1204              		.loc 1 815 0
 1205 0004 7047     		bx	lr
 1206              	.L138:
 1207 0006 C046     		.align	2
 1208              	.L137:
 1209 0008 00000000 		.word	I2C_1_mstrRdBufIndex
 1210              		.cfi_endproc
 1211              	.LFE8:
 1212              		.size	I2C_1_I2CMasterGetReadBufSize, .-I2C_1_I2CMasterGetReadBufSize
 1213              		.section	.text.I2C_1_I2CMasterGetWriteBufSize,"ax",%progbits
 1214              		.align	2
ARM GAS  C:\Users\glenn\AppData\Local\Temp\cclrFd8J.s 			page 45


 1215              		.global	I2C_1_I2CMasterGetWriteBufSize
 1216              		.code	16
 1217              		.thumb_func
 1218              		.type	I2C_1_I2CMasterGetWriteBufSize, %function
 1219              	I2C_1_I2CMasterGetWriteBufSize:
 1220              	.LFB9:
 840:Generated_Source\PSoC4/I2C_1_I2C_MASTER.c ****     return(I2C_1_mstrWrBufIndex);
 1221              		.loc 1 840 0
 1222              		.cfi_startproc
 841:Generated_Source\PSoC4/I2C_1_I2C_MASTER.c **** }
 1223              		.loc 1 841 0
 1224 0000 014B     		ldr	r3, .L140
 842:Generated_Source\PSoC4/I2C_1_I2C_MASTER.c **** 
 1225              		.loc 1 842 0
 1226              		@ sp needed
 841:Generated_Source\PSoC4/I2C_1_I2C_MASTER.c **** }
 1227              		.loc 1 841 0
 1228 0002 1868     		ldr	r0, [r3]
 842:Generated_Source\PSoC4/I2C_1_I2C_MASTER.c **** 
 1229              		.loc 1 842 0
 1230 0004 7047     		bx	lr
 1231              	.L141:
 1232 0006 C046     		.align	2
 1233              	.L140:
 1234 0008 00000000 		.word	I2C_1_mstrWrBufIndex
 1235              		.cfi_endproc
 1236              	.LFE9:
 1237              		.size	I2C_1_I2CMasterGetWriteBufSize, .-I2C_1_I2CMasterGetWriteBufSize
 1238              		.section	.text.I2C_1_I2CMasterClearReadBuf,"ax",%progbits
 1239              		.align	2
 1240              		.global	I2C_1_I2CMasterClearReadBuf
 1241              		.code	16
 1242              		.thumb_func
 1243              		.type	I2C_1_I2CMasterClearReadBuf, %function
 1244              	I2C_1_I2CMasterClearReadBuf:
 1245              	.LFB10:
 858:Generated_Source\PSoC4/I2C_1_I2C_MASTER.c ****     I2C_1_DisableInt();  /* Lock from interruption */
 1246              		.loc 1 858 0
 1247              		.cfi_startproc
 1248 0000 08B5     		push	{r3, lr}
 1249              		.cfi_def_cfa_offset 8
 1250              		.cfi_offset 3, -8
 1251              		.cfi_offset 14, -4
 859:Generated_Source\PSoC4/I2C_1_I2C_MASTER.c **** 
 1252              		.loc 1 859 0
 1253 0002 0820     		mov	r0, #8
 1254 0004 FFF7FEFF 		bl	CyIntDisable
 1255              	.LVL106:
 861:Generated_Source\PSoC4/I2C_1_I2C_MASTER.c ****     I2C_1_mstrStatus    &= (uint16) ~I2C_1_I2C_MSTAT_RD_CMPLT;
 1256              		.loc 1 861 0
 1257 0008 0022     		mov	r2, #0
 862:Generated_Source\PSoC4/I2C_1_I2C_MASTER.c **** 
 1258              		.loc 1 862 0
 1259 000a 0121     		mov	r1, #1
 861:Generated_Source\PSoC4/I2C_1_I2C_MASTER.c ****     I2C_1_mstrStatus    &= (uint16) ~I2C_1_I2C_MSTAT_RD_CMPLT;
 1260              		.loc 1 861 0
 1261 000c 044B     		ldr	r3, .L143
ARM GAS  C:\Users\glenn\AppData\Local\Temp\cclrFd8J.s 			page 46


 864:Generated_Source\PSoC4/I2C_1_I2C_MASTER.c **** }
 1262              		.loc 1 864 0
 1263 000e 0820     		mov	r0, #8
 861:Generated_Source\PSoC4/I2C_1_I2C_MASTER.c ****     I2C_1_mstrStatus    &= (uint16) ~I2C_1_I2C_MSTAT_RD_CMPLT;
 1264              		.loc 1 861 0
 1265 0010 1A60     		str	r2, [r3]
 862:Generated_Source\PSoC4/I2C_1_I2C_MASTER.c **** 
 1266              		.loc 1 862 0
 1267 0012 044A     		ldr	r2, .L143+4
 865:Generated_Source\PSoC4/I2C_1_I2C_MASTER.c **** 
 1268              		.loc 1 865 0
 1269              		@ sp needed
 862:Generated_Source\PSoC4/I2C_1_I2C_MASTER.c **** 
 1270              		.loc 1 862 0
 1271 0014 1388     		ldrh	r3, [r2]
 1272 0016 8B43     		bic	r3, r1
 1273 0018 1380     		strh	r3, [r2]
 864:Generated_Source\PSoC4/I2C_1_I2C_MASTER.c **** }
 1274              		.loc 1 864 0
 1275 001a FFF7FEFF 		bl	CyIntEnable
 1276              	.LVL107:
 865:Generated_Source\PSoC4/I2C_1_I2C_MASTER.c **** 
 1277              		.loc 1 865 0
 1278 001e 08BD     		pop	{r3, pc}
 1279              	.L144:
 1280              		.align	2
 1281              	.L143:
 1282 0020 00000000 		.word	I2C_1_mstrRdBufIndex
 1283 0024 00000000 		.word	I2C_1_mstrStatus
 1284              		.cfi_endproc
 1285              	.LFE10:
 1286              		.size	I2C_1_I2CMasterClearReadBuf, .-I2C_1_I2CMasterClearReadBuf
 1287              		.section	.text.I2C_1_I2CMasterClearWriteBuf,"ax",%progbits
 1288              		.align	2
 1289              		.global	I2C_1_I2CMasterClearWriteBuf
 1290              		.code	16
 1291              		.thumb_func
 1292              		.type	I2C_1_I2CMasterClearWriteBuf, %function
 1293              	I2C_1_I2CMasterClearWriteBuf:
 1294              	.LFB11:
 881:Generated_Source\PSoC4/I2C_1_I2C_MASTER.c ****     I2C_1_DisableInt();  /* Lock from interruption */
 1295              		.loc 1 881 0
 1296              		.cfi_startproc
 1297 0000 08B5     		push	{r3, lr}
 1298              		.cfi_def_cfa_offset 8
 1299              		.cfi_offset 3, -8
 1300              		.cfi_offset 14, -4
 882:Generated_Source\PSoC4/I2C_1_I2C_MASTER.c **** 
 1301              		.loc 1 882 0
 1302 0002 0820     		mov	r0, #8
 1303 0004 FFF7FEFF 		bl	CyIntDisable
 1304              	.LVL108:
 884:Generated_Source\PSoC4/I2C_1_I2C_MASTER.c ****     I2C_1_mstrStatus    &= (uint16) ~I2C_1_I2C_MSTAT_WR_CMPLT;
 1305              		.loc 1 884 0
 1306 0008 0022     		mov	r2, #0
 885:Generated_Source\PSoC4/I2C_1_I2C_MASTER.c **** 
 1307              		.loc 1 885 0
ARM GAS  C:\Users\glenn\AppData\Local\Temp\cclrFd8J.s 			page 47


 1308 000a 0221     		mov	r1, #2
 884:Generated_Source\PSoC4/I2C_1_I2C_MASTER.c ****     I2C_1_mstrStatus    &= (uint16) ~I2C_1_I2C_MSTAT_WR_CMPLT;
 1309              		.loc 1 884 0
 1310 000c 044B     		ldr	r3, .L146
 887:Generated_Source\PSoC4/I2C_1_I2C_MASTER.c **** }
 1311              		.loc 1 887 0
 1312 000e 0820     		mov	r0, #8
 884:Generated_Source\PSoC4/I2C_1_I2C_MASTER.c ****     I2C_1_mstrStatus    &= (uint16) ~I2C_1_I2C_MSTAT_WR_CMPLT;
 1313              		.loc 1 884 0
 1314 0010 1A60     		str	r2, [r3]
 885:Generated_Source\PSoC4/I2C_1_I2C_MASTER.c **** 
 1315              		.loc 1 885 0
 1316 0012 044A     		ldr	r2, .L146+4
 888:Generated_Source\PSoC4/I2C_1_I2C_MASTER.c **** 
 1317              		.loc 1 888 0
 1318              		@ sp needed
 885:Generated_Source\PSoC4/I2C_1_I2C_MASTER.c **** 
 1319              		.loc 1 885 0
 1320 0014 1388     		ldrh	r3, [r2]
 1321 0016 8B43     		bic	r3, r1
 1322 0018 1380     		strh	r3, [r2]
 887:Generated_Source\PSoC4/I2C_1_I2C_MASTER.c **** }
 1323              		.loc 1 887 0
 1324 001a FFF7FEFF 		bl	CyIntEnable
 1325              	.LVL109:
 888:Generated_Source\PSoC4/I2C_1_I2C_MASTER.c **** 
 1326              		.loc 1 888 0
 1327 001e 08BD     		pop	{r3, pc}
 1328              	.L147:
 1329              		.align	2
 1330              	.L146:
 1331 0020 00000000 		.word	I2C_1_mstrWrBufIndex
 1332 0024 00000000 		.word	I2C_1_mstrStatus
 1333              		.cfi_endproc
 1334              	.LFE11:
 1335              		.size	I2C_1_I2CMasterClearWriteBuf, .-I2C_1_I2CMasterClearWriteBuf
 1336              		.section	.text.I2C_1_I2CMasterStatus,"ax",%progbits
 1337              		.align	2
 1338              		.global	I2C_1_I2CMasterStatus
 1339              		.code	16
 1340              		.thumb_func
 1341              		.type	I2C_1_I2CMasterStatus, %function
 1342              	I2C_1_I2CMasterStatus:
 1343              	.LFB12:
 933:Generated_Source\PSoC4/I2C_1_I2C_MASTER.c ****     uint32 status;
 1344              		.loc 1 933 0
 1345              		.cfi_startproc
 1346 0000 10B5     		push	{r4, lr}
 1347              		.cfi_def_cfa_offset 8
 1348              		.cfi_offset 4, -8
 1349              		.cfi_offset 14, -4
 936:Generated_Source\PSoC4/I2C_1_I2C_MASTER.c **** 
 1350              		.loc 1 936 0
 1351 0002 0820     		mov	r0, #8
 1352 0004 FFF7FEFF 		bl	CyIntDisable
 1353              	.LVL110:
 938:Generated_Source\PSoC4/I2C_1_I2C_MASTER.c **** 
ARM GAS  C:\Users\glenn\AppData\Local\Temp\cclrFd8J.s 			page 48


 1354              		.loc 1 938 0
 1355 0008 074B     		ldr	r3, .L151
 1356 000a 1888     		ldrh	r0, [r3]
 940:Generated_Source\PSoC4/I2C_1_I2C_MASTER.c ****     {
 1357              		.loc 1 940 0
 1358 000c 074B     		ldr	r3, .L151+4
 938:Generated_Source\PSoC4/I2C_1_I2C_MASTER.c **** 
 1359              		.loc 1 938 0
 1360 000e 80B2     		uxth	r0, r0
 1361              	.LVL111:
 940:Generated_Source\PSoC4/I2C_1_I2C_MASTER.c ****     {
 1362              		.loc 1 940 0
 1363 0010 1B78     		ldrb	r3, [r3]
 938:Generated_Source\PSoC4/I2C_1_I2C_MASTER.c **** 
 1364              		.loc 1 938 0
 1365 0012 041C     		mov	r4, r0
 940:Generated_Source\PSoC4/I2C_1_I2C_MASTER.c ****     {
 1366              		.loc 1 940 0
 1367 0014 9B06     		lsl	r3, r3, #26
 1368 0016 01D5     		bpl	.L150
 943:Generated_Source\PSoC4/I2C_1_I2C_MASTER.c ****     }
 1369              		.loc 1 943 0
 1370 0018 0424     		mov	r4, #4
 1371 001a 0443     		orr	r4, r0
 1372              	.LVL112:
 1373              	.L150:
 946:Generated_Source\PSoC4/I2C_1_I2C_MASTER.c **** 
 1374              		.loc 1 946 0
 1375 001c 0820     		mov	r0, #8
 1376 001e FFF7FEFF 		bl	CyIntEnable
 1377              	.LVL113:
 949:Generated_Source\PSoC4/I2C_1_I2C_MASTER.c **** 
 1378              		.loc 1 949 0
 1379              		@ sp needed
 1380 0022 201C     		mov	r0, r4
 1381              	.LVL114:
 1382 0024 10BD     		pop	{r4, pc}
 1383              	.L152:
 1384 0026 C046     		.align	2
 1385              	.L151:
 1386 0028 00000000 		.word	I2C_1_mstrStatus
 1387 002c 00000000 		.word	I2C_1_state
 1388              		.cfi_endproc
 1389              	.LFE12:
 1390              		.size	I2C_1_I2CMasterStatus, .-I2C_1_I2CMasterStatus
 1391              		.section	.text.I2C_1_I2CMasterClearStatus,"ax",%progbits
 1392              		.align	2
 1393              		.global	I2C_1_I2CMasterClearStatus
 1394              		.code	16
 1395              		.thumb_func
 1396              		.type	I2C_1_I2CMasterClearStatus, %function
 1397              	I2C_1_I2CMasterClearStatus:
 1398              	.LFB13:
 967:Generated_Source\PSoC4/I2C_1_I2C_MASTER.c ****     uint32 status;
 1399              		.loc 1 967 0
 1400              		.cfi_startproc
 1401 0000 10B5     		push	{r4, lr}
ARM GAS  C:\Users\glenn\AppData\Local\Temp\cclrFd8J.s 			page 49


 1402              		.cfi_def_cfa_offset 8
 1403              		.cfi_offset 4, -8
 1404              		.cfi_offset 14, -4
 970:Generated_Source\PSoC4/I2C_1_I2C_MASTER.c **** 
 1405              		.loc 1 970 0
 1406 0002 0820     		mov	r0, #8
 1407 0004 FFF7FEFF 		bl	CyIntDisable
 1408              	.LVL115:
 974:Generated_Source\PSoC4/I2C_1_I2C_MASTER.c **** 
 1409              		.loc 1 974 0
 1410 0008 0022     		mov	r2, #0
 973:Generated_Source\PSoC4/I2C_1_I2C_MASTER.c ****     I2C_1_mstrStatus = I2C_1_I2C_MSTAT_CLEAR;
 1411              		.loc 1 973 0
 1412 000a 044B     		ldr	r3, .L154
 976:Generated_Source\PSoC4/I2C_1_I2C_MASTER.c **** 
 1413              		.loc 1 976 0
 1414 000c 0820     		mov	r0, #8
 973:Generated_Source\PSoC4/I2C_1_I2C_MASTER.c ****     I2C_1_mstrStatus = I2C_1_I2C_MSTAT_CLEAR;
 1415              		.loc 1 973 0
 1416 000e 1C88     		ldrh	r4, [r3]
 979:Generated_Source\PSoC4/I2C_1_I2C_MASTER.c **** 
 1417              		.loc 1 979 0
 1418              		@ sp needed
 973:Generated_Source\PSoC4/I2C_1_I2C_MASTER.c ****     I2C_1_mstrStatus = I2C_1_I2C_MSTAT_CLEAR;
 1419              		.loc 1 973 0
 1420 0010 A4B2     		uxth	r4, r4
 1421              	.LVL116:
 974:Generated_Source\PSoC4/I2C_1_I2C_MASTER.c **** 
 1422              		.loc 1 974 0
 1423 0012 1A80     		strh	r2, [r3]
 976:Generated_Source\PSoC4/I2C_1_I2C_MASTER.c **** 
 1424              		.loc 1 976 0
 1425 0014 FFF7FEFF 		bl	CyIntEnable
 1426              	.LVL117:
 979:Generated_Source\PSoC4/I2C_1_I2C_MASTER.c **** 
 1427              		.loc 1 979 0
 1428 0018 201C     		mov	r0, r4
 1429              	.LVL118:
 1430 001a 10BD     		pop	{r4, pc}
 1431              	.L155:
 1432              		.align	2
 1433              	.L154:
 1434 001c 00000000 		.word	I2C_1_mstrStatus
 1435              		.cfi_endproc
 1436              	.LFE13:
 1437              		.size	I2C_1_I2CMasterClearStatus, .-I2C_1_I2CMasterClearStatus
 1438              		.section	.text.I2C_1_I2CReStartGeneration,"ax",%progbits
 1439              		.align	2
 1440              		.global	I2C_1_I2CReStartGeneration
 1441              		.code	16
 1442              		.thumb_func
 1443              		.type	I2C_1_I2CReStartGeneration, %function
 1444              	I2C_1_I2CReStartGeneration:
 1445              	.LFB14:
1011:Generated_Source\PSoC4/I2C_1_I2C_MASTER.c **** #if(I2C_1_CY_SCBIP_V0)
 1446              		.loc 1 1011 0
 1447              		.cfi_startproc
ARM GAS  C:\Users\glenn\AppData\Local\Temp\cclrFd8J.s 			page 50


 1448              	.LVL119:
1066:Generated_Source\PSoC4/I2C_1_I2C_MASTER.c ****                 (I2C_1_I2C_MASTER_CMD_M_NACK) : (0u);
 1449              		.loc 1 1066 0
 1450 0000 044B     		ldr	r3, .L159
 1451 0002 1A68     		ldr	r2, [r3]
 1452 0004 0923     		mov	r3, #9
1067:Generated_Source\PSoC4/I2C_1_I2C_MASTER.c **** 
 1453              		.loc 1 1067 0
 1454 0006 9206     		lsl	r2, r2, #26
 1455 0008 00D4     		bmi	.L157
 1456 000a 083B     		sub	r3, r3, #8
 1457              	.L157:
 1458              	.LVL120:
 1459              		.loc 1 1069 0 discriminator 4
 1460 000c 024A     		ldr	r2, .L159+4
1070:Generated_Source\PSoC4/I2C_1_I2C_MASTER.c **** #endif /* (I2C_1_CY_SCBIP_V1) */
1071:Generated_Source\PSoC4/I2C_1_I2C_MASTER.c **** }
 1461              		.loc 1 1071 0 discriminator 4
 1462              		@ sp needed
1069:Generated_Source\PSoC4/I2C_1_I2C_MASTER.c **** #endif /* (I2C_1_CY_SCBIP_V1) */
 1463              		.loc 1 1069 0 discriminator 4
 1464 000e 1360     		str	r3, [r2]
 1465              		.loc 1 1071 0 discriminator 4
 1466 0010 7047     		bx	lr
 1467              	.L160:
 1468 0012 C046     		.align	2
 1469              	.L159:
 1470 0014 64002440 		.word	1076101220
 1471 0018 68002440 		.word	1076101224
 1472              		.cfi_endproc
 1473              	.LFE14:
 1474              		.size	I2C_1_I2CReStartGeneration, .-I2C_1_I2CReStartGeneration
 1475              		.comm	I2C_1_mstrWrBufIndexTmp,4,4
 1476              		.comm	I2C_1_mstrWrBufIndex,4,4
 1477              		.comm	I2C_1_mstrWrBufSize,4,4
 1478              		.comm	I2C_1_mstrWrBufPtr,4,4
 1479              		.comm	I2C_1_mstrRdBufIndex,4,4
 1480              		.comm	I2C_1_mstrRdBufSize,4,4
 1481              		.comm	I2C_1_mstrRdBufPtr,4,4
 1482              		.comm	I2C_1_mstrControl,1,1
 1483              		.comm	I2C_1_mstrStatus,2,2
 1484              		.text
 1485              	.Letext0:
 1486              		.file 2 "Generated_Source\\PSoC4/cytypes.h"
 1487              		.file 3 "Generated_Source\\PSoC4\\I2C_1_I2C_PVT.h"
 1488              		.file 4 "Generated_Source\\PSoC4/CyLib.h"
 1489              		.section	.debug_info,"",%progbits
 1490              	.Ldebug_info0:
 1491 0000 FB050000 		.4byte	0x5fb
 1492 0004 0400     		.2byte	0x4
 1493 0006 00000000 		.4byte	.Ldebug_abbrev0
 1494 000a 04       		.byte	0x4
 1495 000b 01       		.uleb128 0x1
 1496 000c C8000000 		.4byte	.LASF52
 1497 0010 01       		.byte	0x1
 1498 0011 E0020000 		.4byte	.LASF53
 1499 0015 C4030000 		.4byte	.LASF54
ARM GAS  C:\Users\glenn\AppData\Local\Temp\cclrFd8J.s 			page 51


 1500 0019 48000000 		.4byte	.Ldebug_ranges0+0x48
 1501 001d 00000000 		.4byte	0
 1502 0021 00000000 		.4byte	.Ldebug_line0
 1503 0025 02       		.uleb128 0x2
 1504 0026 01       		.byte	0x1
 1505 0027 06       		.byte	0x6
 1506 0028 1A040000 		.4byte	.LASF0
 1507 002c 02       		.uleb128 0x2
 1508 002d 01       		.byte	0x1
 1509 002e 08       		.byte	0x8
 1510 002f 69010000 		.4byte	.LASF1
 1511 0033 02       		.uleb128 0x2
 1512 0034 02       		.byte	0x2
 1513 0035 05       		.byte	0x5
 1514 0036 94030000 		.4byte	.LASF2
 1515 003a 02       		.uleb128 0x2
 1516 003b 02       		.byte	0x2
 1517 003c 07       		.byte	0x7
 1518 003d 66000000 		.4byte	.LASF3
 1519 0041 02       		.uleb128 0x2
 1520 0042 04       		.byte	0x4
 1521 0043 05       		.byte	0x5
 1522 0044 BB030000 		.4byte	.LASF4
 1523 0048 02       		.uleb128 0x2
 1524 0049 04       		.byte	0x4
 1525 004a 07       		.byte	0x7
 1526 004b 90010000 		.4byte	.LASF5
 1527 004f 02       		.uleb128 0x2
 1528 0050 08       		.byte	0x8
 1529 0051 05       		.byte	0x5
 1530 0052 2B030000 		.4byte	.LASF6
 1531 0056 02       		.uleb128 0x2
 1532 0057 08       		.byte	0x8
 1533 0058 07       		.byte	0x7
 1534 0059 8A020000 		.4byte	.LASF7
 1535 005d 03       		.uleb128 0x3
 1536 005e 04       		.byte	0x4
 1537 005f 05       		.byte	0x5
 1538 0060 696E7400 		.ascii	"int\000"
 1539 0064 02       		.uleb128 0x2
 1540 0065 04       		.byte	0x4
 1541 0066 07       		.byte	0x7
 1542 0067 76020000 		.4byte	.LASF8
 1543 006b 04       		.uleb128 0x4
 1544 006c BD010000 		.4byte	.LASF9
 1545 0070 02       		.byte	0x2
 1546 0071 B901     		.2byte	0x1b9
 1547 0073 2C000000 		.4byte	0x2c
 1548 0077 04       		.uleb128 0x4
 1549 0078 3F020000 		.4byte	.LASF10
 1550 007c 02       		.byte	0x2
 1551 007d BA01     		.2byte	0x1ba
 1552 007f 3A000000 		.4byte	0x3a
 1553 0083 04       		.uleb128 0x4
 1554 0084 63020000 		.4byte	.LASF11
 1555 0088 02       		.byte	0x2
 1556 0089 BB01     		.2byte	0x1bb
ARM GAS  C:\Users\glenn\AppData\Local\Temp\cclrFd8J.s 			page 52


 1557 008b 48000000 		.4byte	0x48
 1558 008f 02       		.uleb128 0x2
 1559 0090 04       		.byte	0x4
 1560 0091 04       		.byte	0x4
 1561 0092 C2000000 		.4byte	.LASF12
 1562 0096 02       		.uleb128 0x2
 1563 0097 08       		.byte	0x8
 1564 0098 04       		.byte	0x4
 1565 0099 D5010000 		.4byte	.LASF13
 1566 009d 02       		.uleb128 0x2
 1567 009e 01       		.byte	0x1
 1568 009f 08       		.byte	0x8
 1569 00a0 51030000 		.4byte	.LASF14
 1570 00a4 05       		.uleb128 0x5
 1571 00a5 6B000000 		.4byte	0x6b
 1572 00a9 05       		.uleb128 0x5
 1573 00aa 77000000 		.4byte	0x77
 1574 00ae 04       		.uleb128 0x4
 1575 00af 00000000 		.4byte	.LASF15
 1576 00b3 02       		.byte	0x2
 1577 00b4 6502     		.2byte	0x265
 1578 00b6 BA000000 		.4byte	0xba
 1579 00ba 05       		.uleb128 0x5
 1580 00bb 83000000 		.4byte	0x83
 1581 00bf 02       		.uleb128 0x2
 1582 00c0 04       		.byte	0x4
 1583 00c1 07       		.byte	0x7
 1584 00c2 22030000 		.4byte	.LASF16
 1585 00c6 06       		.uleb128 0x6
 1586 00c7 00020000 		.4byte	.LASF50
 1587 00cb 01       		.byte	0x1
 1588 00cc F203     		.2byte	0x3f2
 1589 00ce 01       		.byte	0x1
 1590 00cf E0000000 		.4byte	0xe0
 1591 00d3 07       		.uleb128 0x7
 1592 00d4 636D6400 		.ascii	"cmd\000"
 1593 00d8 01       		.byte	0x1
 1594 00d9 2604     		.2byte	0x426
 1595 00db 83000000 		.4byte	0x83
 1596 00df 00       		.byte	0
 1597 00e0 08       		.uleb128 0x8
 1598 00e1 58040000 		.4byte	.LASF20
 1599 00e5 01       		.byte	0x1
 1600 00e6 62       		.byte	0x62
 1601 00e7 83000000 		.4byte	0x83
 1602 00eb 00000000 		.4byte	.LFB1
 1603 00ef FC000000 		.4byte	.LFE1-.LFB1
 1604 00f3 01       		.uleb128 0x1
 1605 00f4 9C       		.byte	0x9c
 1606 00f5 8A010000 		.4byte	0x18a
 1607 00f9 09       		.uleb128 0x9
 1608 00fa BF020000 		.4byte	.LASF17
 1609 00fe 01       		.byte	0x1
 1610 00ff 62       		.byte	0x62
 1611 0100 83000000 		.4byte	0x83
 1612 0104 00000000 		.4byte	.LLST0
 1613 0108 09       		.uleb128 0x9
ARM GAS  C:\Users\glenn\AppData\Local\Temp\cclrFd8J.s 			page 53


 1614 0109 83020000 		.4byte	.LASF18
 1615 010d 01       		.byte	0x1
 1616 010e 62       		.byte	0x62
 1617 010f 8A010000 		.4byte	0x18a
 1618 0113 63000000 		.4byte	.LLST1
 1619 0117 0A       		.uleb128 0xa
 1620 0118 636E7400 		.ascii	"cnt\000"
 1621 011c 01       		.byte	0x1
 1622 011d 62       		.byte	0x62
 1623 011e 83000000 		.4byte	0x83
 1624 0122 BB000000 		.4byte	.LLST2
 1625 0126 09       		.uleb128 0x9
 1626 0127 BA020000 		.4byte	.LASF19
 1627 012b 01       		.byte	0x1
 1628 012c 62       		.byte	0x62
 1629 012d 83000000 		.4byte	0x83
 1630 0131 13010000 		.4byte	.LLST3
 1631 0135 0B       		.uleb128 0xb
 1632 0136 CB010000 		.4byte	.LASF23
 1633 013a 01       		.byte	0x1
 1634 013b 64       		.byte	0x64
 1635 013c 83000000 		.4byte	0x83
 1636 0140 55010000 		.4byte	.LLST4
 1637 0144 0C       		.uleb128 0xc
 1638 0145 C6000000 		.4byte	0xc6
 1639 0149 8C000000 		.4byte	.LBB8
 1640 014d 00000000 		.4byte	.Ldebug_ranges0+0
 1641 0151 01       		.byte	0x1
 1642 0152 9D       		.byte	0x9d
 1643 0153 67010000 		.4byte	0x167
 1644 0157 0D       		.uleb128 0xd
 1645 0158 00000000 		.4byte	.Ldebug_ranges0+0
 1646 015c 0E       		.uleb128 0xe
 1647 015d D3000000 		.4byte	0xd3
 1648 0161 8D010000 		.4byte	.LLST5
 1649 0165 00       		.byte	0
 1650 0166 00       		.byte	0
 1651 0167 0F       		.uleb128 0xf
 1652 0168 2A000000 		.4byte	.LVL3
 1653 016c E0050000 		.4byte	0x5e0
 1654 0170 7A010000 		.4byte	0x17a
 1655 0174 10       		.uleb128 0x10
 1656 0175 01       		.uleb128 0x1
 1657 0176 50       		.byte	0x50
 1658 0177 01       		.uleb128 0x1
 1659 0178 38       		.byte	0x38
 1660 0179 00       		.byte	0
 1661 017a 11       		.uleb128 0x11
 1662 017b B6000000 		.4byte	.LVL21
 1663 017f F1050000 		.4byte	0x5f1
 1664 0183 10       		.uleb128 0x10
 1665 0184 01       		.uleb128 0x1
 1666 0185 50       		.byte	0x50
 1667 0186 01       		.uleb128 0x1
 1668 0187 38       		.byte	0x38
 1669 0188 00       		.byte	0
 1670 0189 00       		.byte	0
ARM GAS  C:\Users\glenn\AppData\Local\Temp\cclrFd8J.s 			page 54


 1671 018a 12       		.uleb128 0x12
 1672 018b 04       		.byte	0x4
 1673 018c 6B000000 		.4byte	0x6b
 1674 0190 08       		.uleb128 0x8
 1675 0191 41040000 		.4byte	.LASF21
 1676 0195 01       		.byte	0x1
 1677 0196 D1       		.byte	0xd1
 1678 0197 83000000 		.4byte	0x83
 1679 019b 00000000 		.4byte	.LFB2
 1680 019f 10010000 		.4byte	.LFE2-.LFB2
 1681 01a3 01       		.uleb128 0x1
 1682 01a4 9C       		.byte	0x9c
 1683 01a5 3B020000 		.4byte	0x23b
 1684 01a9 09       		.uleb128 0x9
 1685 01aa BF020000 		.4byte	.LASF17
 1686 01ae 01       		.byte	0x1
 1687 01af D1       		.byte	0xd1
 1688 01b0 83000000 		.4byte	0x83
 1689 01b4 B8010000 		.4byte	.LLST6
 1690 01b8 09       		.uleb128 0x9
 1691 01b9 5C020000 		.4byte	.LASF22
 1692 01bd 01       		.byte	0x1
 1693 01be D1       		.byte	0xd1
 1694 01bf 8A010000 		.4byte	0x18a
 1695 01c3 1B020000 		.4byte	.LLST7
 1696 01c7 0A       		.uleb128 0xa
 1697 01c8 636E7400 		.ascii	"cnt\000"
 1698 01cc 01       		.byte	0x1
 1699 01cd D1       		.byte	0xd1
 1700 01ce 83000000 		.4byte	0x83
 1701 01d2 73020000 		.4byte	.LLST8
 1702 01d6 09       		.uleb128 0x9
 1703 01d7 BA020000 		.4byte	.LASF19
 1704 01db 01       		.byte	0x1
 1705 01dc D1       		.byte	0xd1
 1706 01dd 83000000 		.4byte	0x83
 1707 01e1 CB020000 		.4byte	.LLST9
 1708 01e5 0B       		.uleb128 0xb
 1709 01e6 CB010000 		.4byte	.LASF23
 1710 01ea 01       		.byte	0x1
 1711 01eb D3       		.byte	0xd3
 1712 01ec 83000000 		.4byte	0x83
 1713 01f0 0D030000 		.4byte	.LLST10
 1714 01f4 13       		.uleb128 0x13
 1715 01f5 C6000000 		.4byte	0xc6
 1716 01f9 8C000000 		.4byte	.LBB12
 1717 01fd 18000000 		.4byte	.Ldebug_ranges0+0x18
 1718 0201 01       		.byte	0x1
 1719 0202 1401     		.2byte	0x114
 1720 0204 18020000 		.4byte	0x218
 1721 0208 0D       		.uleb128 0xd
 1722 0209 18000000 		.4byte	.Ldebug_ranges0+0x18
 1723 020d 0E       		.uleb128 0xe
 1724 020e D3000000 		.4byte	0xd3
 1725 0212 45030000 		.4byte	.LLST11
 1726 0216 00       		.byte	0
 1727 0217 00       		.byte	0
ARM GAS  C:\Users\glenn\AppData\Local\Temp\cclrFd8J.s 			page 55


 1728 0218 0F       		.uleb128 0xf
 1729 0219 2A000000 		.4byte	.LVL25
 1730 021d E0050000 		.4byte	0x5e0
 1731 0221 2B020000 		.4byte	0x22b
 1732 0225 10       		.uleb128 0x10
 1733 0226 01       		.uleb128 0x1
 1734 0227 50       		.byte	0x50
 1735 0228 01       		.uleb128 0x1
 1736 0229 38       		.byte	0x38
 1737 022a 00       		.byte	0
 1738 022b 11       		.uleb128 0x11
 1739 022c CC000000 		.4byte	.LVL43
 1740 0230 F1050000 		.4byte	0x5f1
 1741 0234 10       		.uleb128 0x10
 1742 0235 01       		.uleb128 0x1
 1743 0236 50       		.byte	0x50
 1744 0237 01       		.uleb128 0x1
 1745 0238 38       		.byte	0x38
 1746 0239 00       		.byte	0
 1747 023a 00       		.byte	0
 1748 023b 14       		.uleb128 0x14
 1749 023c A1020000 		.4byte	.LASF24
 1750 0240 01       		.byte	0x1
 1751 0241 4E01     		.2byte	0x14e
 1752 0243 83000000 		.4byte	0x83
 1753 0247 00000000 		.4byte	.LFB3
 1754 024b C4000000 		.4byte	.LFE3-.LFB3
 1755 024f 01       		.uleb128 0x1
 1756 0250 9C       		.byte	0x9c
 1757 0251 A5020000 		.4byte	0x2a5
 1758 0255 15       		.uleb128 0x15
 1759 0256 BF020000 		.4byte	.LASF17
 1760 025a 01       		.byte	0x1
 1761 025b 4E01     		.2byte	0x14e
 1762 025d 83000000 		.4byte	0x83
 1763 0261 70030000 		.4byte	.LLST12
 1764 0265 15       		.uleb128 0x15
 1765 0266 F9010000 		.4byte	.LASF25
 1766 026a 01       		.byte	0x1
 1767 026b 4E01     		.2byte	0x14e
 1768 026d 83000000 		.4byte	0x83
 1769 0271 CA030000 		.4byte	.LLST13
 1770 0275 16       		.uleb128 0x16
 1771 0276 9E000000 		.4byte	.LASF26
 1772 027a 01       		.byte	0x1
 1773 027b 5001     		.2byte	0x150
 1774 027d 83000000 		.4byte	0x83
 1775 0281 01040000 		.4byte	.LLST14
 1776 0285 16       		.uleb128 0x16
 1777 0286 CB010000 		.4byte	.LASF23
 1778 028a 01       		.byte	0x1
 1779 028b 5101     		.2byte	0x151
 1780 028d 83000000 		.4byte	0x83
 1781 0291 45040000 		.4byte	.LLST15
 1782 0295 11       		.uleb128 0x11
 1783 0296 26000000 		.4byte	.LVL48
 1784 029a F1050000 		.4byte	0x5f1
ARM GAS  C:\Users\glenn\AppData\Local\Temp\cclrFd8J.s 			page 56


 1785 029e 10       		.uleb128 0x10
 1786 029f 01       		.uleb128 0x1
 1787 02a0 50       		.byte	0x50
 1788 02a1 01       		.uleb128 0x1
 1789 02a2 38       		.byte	0x38
 1790 02a3 00       		.byte	0
 1791 02a4 00       		.byte	0
 1792 02a5 14       		.uleb128 0x14
 1793 02a6 26040000 		.4byte	.LASF27
 1794 02aa 01       		.byte	0x1
 1795 02ab CA01     		.2byte	0x1ca
 1796 02ad 83000000 		.4byte	0x83
 1797 02b1 00000000 		.4byte	.LFB4
 1798 02b5 C4000000 		.4byte	.LFE4-.LFB4
 1799 02b9 01       		.uleb128 0x1
 1800 02ba 9C       		.byte	0x9c
 1801 02bb 20030000 		.4byte	0x320
 1802 02bf 15       		.uleb128 0x15
 1803 02c0 BF020000 		.4byte	.LASF17
 1804 02c4 01       		.byte	0x1
 1805 02c5 CA01     		.2byte	0x1ca
 1806 02c7 83000000 		.4byte	0x83
 1807 02cb AD040000 		.4byte	.LLST16
 1808 02cf 15       		.uleb128 0x15
 1809 02d0 F9010000 		.4byte	.LASF25
 1810 02d4 01       		.byte	0x1
 1811 02d5 CA01     		.2byte	0x1ca
 1812 02d7 83000000 		.4byte	0x83
 1813 02db 1C050000 		.4byte	.LLST17
 1814 02df 16       		.uleb128 0x16
 1815 02e0 9E000000 		.4byte	.LASF26
 1816 02e4 01       		.byte	0x1
 1817 02e5 CC01     		.2byte	0x1cc
 1818 02e7 83000000 		.4byte	0x83
 1819 02eb 6F050000 		.4byte	.LLST18
 1820 02ef 16       		.uleb128 0x16
 1821 02f0 CB010000 		.4byte	.LASF23
 1822 02f4 01       		.byte	0x1
 1823 02f5 CD01     		.2byte	0x1cd
 1824 02f7 83000000 		.4byte	0x83
 1825 02fb B3050000 		.4byte	.LLST19
 1826 02ff 17       		.uleb128 0x17
 1827 0300 C6000000 		.4byte	0xc6
 1828 0304 28000000 		.4byte	.LBB16
 1829 0308 30000000 		.4byte	.Ldebug_ranges0+0x30
 1830 030c 01       		.byte	0x1
 1831 030d EA01     		.2byte	0x1ea
 1832 030f 0D       		.uleb128 0xd
 1833 0310 30000000 		.4byte	.Ldebug_ranges0+0x30
 1834 0314 0E       		.uleb128 0xe
 1835 0315 D3000000 		.4byte	0xd3
 1836 0319 1B060000 		.4byte	.LLST20
 1837 031d 00       		.byte	0
 1838 031e 00       		.byte	0
 1839 031f 00       		.byte	0
 1840 0320 14       		.uleb128 0x14
 1841 0321 39030000 		.4byte	.LASF28
ARM GAS  C:\Users\glenn\AppData\Local\Temp\cclrFd8J.s 			page 57


 1842 0325 01       		.byte	0x1
 1843 0326 3D02     		.2byte	0x23d
 1844 0328 83000000 		.4byte	0x83
 1845 032c 00000000 		.4byte	.LFB5
 1846 0330 84000000 		.4byte	.LFE5-.LFB5
 1847 0334 01       		.uleb128 0x1
 1848 0335 9C       		.byte	0x9c
 1849 0336 5B030000 		.4byte	0x35b
 1850 033a 16       		.uleb128 0x16
 1851 033b 9E000000 		.4byte	.LASF26
 1852 033f 01       		.byte	0x1
 1853 0340 3F02     		.2byte	0x23f
 1854 0342 83000000 		.4byte	0x83
 1855 0346 46060000 		.4byte	.LLST21
 1856 034a 16       		.uleb128 0x16
 1857 034b CB010000 		.4byte	.LASF23
 1858 034f 01       		.byte	0x1
 1859 0350 4002     		.2byte	0x240
 1860 0352 83000000 		.4byte	0x83
 1861 0356 7E060000 		.4byte	.LLST22
 1862 035a 00       		.byte	0
 1863 035b 14       		.uleb128 0x14
 1864 035c 77010000 		.4byte	.LASF29
 1865 0360 01       		.byte	0x1
 1866 0361 8D02     		.2byte	0x28d
 1867 0363 83000000 		.4byte	0x83
 1868 0367 00000000 		.4byte	.LFB6
 1869 036b 88000000 		.4byte	.LFE6-.LFB6
 1870 036f 01       		.uleb128 0x1
 1871 0370 9C       		.byte	0x9c
 1872 0371 A6030000 		.4byte	0x3a6
 1873 0375 15       		.uleb128 0x15
 1874 0376 9E030000 		.4byte	.LASF30
 1875 037a 01       		.byte	0x1
 1876 037b 8D02     		.2byte	0x28d
 1877 037d 83000000 		.4byte	0x83
 1878 0381 CC060000 		.4byte	.LLST23
 1879 0385 16       		.uleb128 0x16
 1880 0386 9E000000 		.4byte	.LASF26
 1881 038a 01       		.byte	0x1
 1882 038b 8F02     		.2byte	0x28f
 1883 038d 83000000 		.4byte	0x83
 1884 0391 6C070000 		.4byte	.LLST24
 1885 0395 16       		.uleb128 0x16
 1886 0396 CB010000 		.4byte	.LASF23
 1887 039a 01       		.byte	0x1
 1888 039b 9002     		.2byte	0x290
 1889 039d 83000000 		.4byte	0x83
 1890 03a1 B0070000 		.4byte	.LLST25
 1891 03a5 00       		.byte	0
 1892 03a6 14       		.uleb128 0x14
 1893 03a7 0A030000 		.4byte	.LASF31
 1894 03ab 01       		.byte	0x1
 1895 03ac E802     		.2byte	0x2e8
 1896 03ae 83000000 		.4byte	0x83
 1897 03b2 00000000 		.4byte	.LFB7
 1898 03b6 88000000 		.4byte	.LFE7-.LFB7
ARM GAS  C:\Users\glenn\AppData\Local\Temp\cclrFd8J.s 			page 58


 1899 03ba 01       		.uleb128 0x1
 1900 03bb 9C       		.byte	0x9c
 1901 03bc E1030000 		.4byte	0x3e1
 1902 03c0 15       		.uleb128 0x15
 1903 03c1 C3010000 		.4byte	.LASF32
 1904 03c5 01       		.byte	0x1
 1905 03c6 E802     		.2byte	0x2e8
 1906 03c8 83000000 		.4byte	0x83
 1907 03cc 3C080000 		.4byte	.LLST26
 1908 03d0 16       		.uleb128 0x16
 1909 03d1 9E030000 		.4byte	.LASF30
 1910 03d5 01       		.byte	0x1
 1911 03d6 EA02     		.2byte	0x2ea
 1912 03d8 83000000 		.4byte	0x83
 1913 03dc 68080000 		.4byte	.LLST27
 1914 03e0 00       		.byte	0
 1915 03e1 18       		.uleb128 0x18
 1916 03e2 76030000 		.4byte	.LASF33
 1917 03e6 01       		.byte	0x1
 1918 03e7 2C03     		.2byte	0x32c
 1919 03e9 83000000 		.4byte	0x83
 1920 03ed 00000000 		.4byte	.LFB8
 1921 03f1 0C000000 		.4byte	.LFE8-.LFB8
 1922 03f5 01       		.uleb128 0x1
 1923 03f6 9C       		.byte	0x9c
 1924 03f7 18       		.uleb128 0x18
 1925 03f8 06000000 		.4byte	.LASF34
 1926 03fc 01       		.byte	0x1
 1927 03fd 4703     		.2byte	0x347
 1928 03ff 83000000 		.4byte	0x83
 1929 0403 00000000 		.4byte	.LFB9
 1930 0407 0C000000 		.4byte	.LFE9-.LFB9
 1931 040b 01       		.uleb128 0x1
 1932 040c 9C       		.byte	0x9c
 1933 040d 19       		.uleb128 0x19
 1934 040e A6000000 		.4byte	.LASF35
 1935 0412 01       		.byte	0x1
 1936 0413 5903     		.2byte	0x359
 1937 0415 00000000 		.4byte	.LFB10
 1938 0419 28000000 		.4byte	.LFE10-.LFB10
 1939 041d 01       		.uleb128 0x1
 1940 041e 9C       		.byte	0x9c
 1941 041f 46040000 		.4byte	0x446
 1942 0423 0F       		.uleb128 0xf
 1943 0424 08000000 		.4byte	.LVL106
 1944 0428 F1050000 		.4byte	0x5f1
 1945 042c 36040000 		.4byte	0x436
 1946 0430 10       		.uleb128 0x10
 1947 0431 01       		.uleb128 0x1
 1948 0432 50       		.byte	0x50
 1949 0433 01       		.uleb128 0x1
 1950 0434 38       		.byte	0x38
 1951 0435 00       		.byte	0
 1952 0436 11       		.uleb128 0x11
 1953 0437 1E000000 		.4byte	.LVL107
 1954 043b E0050000 		.4byte	0x5e0
 1955 043f 10       		.uleb128 0x10
ARM GAS  C:\Users\glenn\AppData\Local\Temp\cclrFd8J.s 			page 59


 1956 0440 01       		.uleb128 0x1
 1957 0441 50       		.byte	0x50
 1958 0442 01       		.uleb128 0x1
 1959 0443 38       		.byte	0x38
 1960 0444 00       		.byte	0
 1961 0445 00       		.byte	0
 1962 0446 19       		.uleb128 0x19
 1963 0447 DC010000 		.4byte	.LASF36
 1964 044b 01       		.byte	0x1
 1965 044c 7003     		.2byte	0x370
 1966 044e 00000000 		.4byte	.LFB11
 1967 0452 28000000 		.4byte	.LFE11-.LFB11
 1968 0456 01       		.uleb128 0x1
 1969 0457 9C       		.byte	0x9c
 1970 0458 7F040000 		.4byte	0x47f
 1971 045c 0F       		.uleb128 0xf
 1972 045d 08000000 		.4byte	.LVL108
 1973 0461 F1050000 		.4byte	0x5f1
 1974 0465 6F040000 		.4byte	0x46f
 1975 0469 10       		.uleb128 0x10
 1976 046a 01       		.uleb128 0x1
 1977 046b 50       		.byte	0x50
 1978 046c 01       		.uleb128 0x1
 1979 046d 38       		.byte	0x38
 1980 046e 00       		.byte	0
 1981 046f 11       		.uleb128 0x11
 1982 0470 1E000000 		.4byte	.LVL109
 1983 0474 E0050000 		.4byte	0x5e0
 1984 0478 10       		.uleb128 0x10
 1985 0479 01       		.uleb128 0x1
 1986 047a 50       		.byte	0x50
 1987 047b 01       		.uleb128 0x1
 1988 047c 38       		.byte	0x38
 1989 047d 00       		.byte	0
 1990 047e 00       		.byte	0
 1991 047f 14       		.uleb128 0x14
 1992 0480 46020000 		.4byte	.LASF37
 1993 0484 01       		.byte	0x1
 1994 0485 A403     		.2byte	0x3a4
 1995 0487 83000000 		.4byte	0x83
 1996 048b 00000000 		.4byte	.LFB12
 1997 048f 30000000 		.4byte	.LFE12-.LFB12
 1998 0493 01       		.uleb128 0x1
 1999 0494 9C       		.byte	0x9c
 2000 0495 CC040000 		.4byte	0x4cc
 2001 0499 16       		.uleb128 0x16
 2002 049a 25000000 		.4byte	.LASF38
 2003 049e 01       		.byte	0x1
 2004 049f A603     		.2byte	0x3a6
 2005 04a1 83000000 		.4byte	0x83
 2006 04a5 A0080000 		.4byte	.LLST28
 2007 04a9 0F       		.uleb128 0xf
 2008 04aa 08000000 		.4byte	.LVL110
 2009 04ae F1050000 		.4byte	0x5f1
 2010 04b2 BC040000 		.4byte	0x4bc
 2011 04b6 10       		.uleb128 0x10
 2012 04b7 01       		.uleb128 0x1
ARM GAS  C:\Users\glenn\AppData\Local\Temp\cclrFd8J.s 			page 60


 2013 04b8 50       		.byte	0x50
 2014 04b9 01       		.uleb128 0x1
 2015 04ba 38       		.byte	0x38
 2016 04bb 00       		.byte	0
 2017 04bc 11       		.uleb128 0x11
 2018 04bd 22000000 		.4byte	.LVL113
 2019 04c1 E0050000 		.4byte	0x5e0
 2020 04c5 10       		.uleb128 0x10
 2021 04c6 01       		.uleb128 0x1
 2022 04c7 50       		.byte	0x50
 2023 04c8 01       		.uleb128 0x1
 2024 04c9 38       		.byte	0x38
 2025 04ca 00       		.byte	0
 2026 04cb 00       		.byte	0
 2027 04cc 14       		.uleb128 0x14
 2028 04cd A2010000 		.4byte	.LASF39
 2029 04d1 01       		.byte	0x1
 2030 04d2 C603     		.2byte	0x3c6
 2031 04d4 83000000 		.4byte	0x83
 2032 04d8 00000000 		.4byte	.LFB13
 2033 04dc 20000000 		.4byte	.LFE13-.LFB13
 2034 04e0 01       		.uleb128 0x1
 2035 04e1 9C       		.byte	0x9c
 2036 04e2 19050000 		.4byte	0x519
 2037 04e6 16       		.uleb128 0x16
 2038 04e7 25000000 		.4byte	.LASF38
 2039 04eb 01       		.byte	0x1
 2040 04ec C803     		.2byte	0x3c8
 2041 04ee 83000000 		.4byte	0x83
 2042 04f2 CF080000 		.4byte	.LLST29
 2043 04f6 0F       		.uleb128 0xf
 2044 04f7 08000000 		.4byte	.LVL115
 2045 04fb F1050000 		.4byte	0x5f1
 2046 04ff 09050000 		.4byte	0x509
 2047 0503 10       		.uleb128 0x10
 2048 0504 01       		.uleb128 0x1
 2049 0505 50       		.byte	0x50
 2050 0506 01       		.uleb128 0x1
 2051 0507 38       		.byte	0x38
 2052 0508 00       		.byte	0
 2053 0509 11       		.uleb128 0x11
 2054 050a 18000000 		.4byte	.LVL117
 2055 050e E0050000 		.4byte	0x5e0
 2056 0512 10       		.uleb128 0x10
 2057 0513 01       		.uleb128 0x1
 2058 0514 50       		.byte	0x50
 2059 0515 01       		.uleb128 0x1
 2060 0516 38       		.byte	0x38
 2061 0517 00       		.byte	0
 2062 0518 00       		.byte	0
 2063 0519 1A       		.uleb128 0x1a
 2064 051a C6000000 		.4byte	0xc6
 2065 051e 00000000 		.4byte	.LFB14
 2066 0522 1C000000 		.4byte	.LFE14-.LFB14
 2067 0526 01       		.uleb128 0x1
 2068 0527 9C       		.byte	0x9c
 2069 0528 36050000 		.4byte	0x536
ARM GAS  C:\Users\glenn\AppData\Local\Temp\cclrFd8J.s 			page 61


 2070 052c 0E       		.uleb128 0xe
 2071 052d D3000000 		.4byte	0xd3
 2072 0531 F9080000 		.4byte	.LLST30
 2073 0535 00       		.byte	0
 2074 0536 1B       		.uleb128 0x1b
 2075 0537 6A020000 		.4byte	.LASF40
 2076 053b 03       		.byte	0x3
 2077 053c 1E       		.byte	0x1e
 2078 053d A4000000 		.4byte	0xa4
 2079 0541 1C       		.uleb128 0x1c
 2080 0542 8D000000 		.4byte	.LASF41
 2081 0546 01       		.byte	0x1
 2082 0547 1D       		.byte	0x1d
 2083 0548 A9000000 		.4byte	0xa9
 2084 054c 05       		.uleb128 0x5
 2085 054d 03       		.byte	0x3
 2086 054e 00000000 		.4byte	I2C_1_mstrStatus
 2087 0552 1C       		.uleb128 0x1c
 2088 0553 41000000 		.4byte	.LASF42
 2089 0557 01       		.byte	0x1
 2090 0558 1E       		.byte	0x1e
 2091 0559 A4000000 		.4byte	0xa4
 2092 055d 05       		.uleb128 0x5
 2093 055e 03       		.byte	0x3
 2094 055f 00000000 		.4byte	I2C_1_mstrControl
 2095 0563 1C       		.uleb128 0x1c
 2096 0564 56030000 		.4byte	.LASF43
 2097 0568 01       		.byte	0x1
 2098 0569 21       		.byte	0x21
 2099 056a 74050000 		.4byte	0x574
 2100 056e 05       		.uleb128 0x5
 2101 056f 03       		.byte	0x3
 2102 0570 00000000 		.4byte	I2C_1_mstrRdBufPtr
 2103 0574 12       		.uleb128 0x12
 2104 0575 04       		.byte	0x4
 2105 0576 A4000000 		.4byte	0xa4
 2106 057a 1C       		.uleb128 0x1c
 2107 057b CC020000 		.4byte	.LASF44
 2108 057f 01       		.byte	0x1
 2109 0580 22       		.byte	0x22
 2110 0581 BA000000 		.4byte	0xba
 2111 0585 05       		.uleb128 0x5
 2112 0586 03       		.byte	0x3
 2113 0587 00000000 		.4byte	I2C_1_mstrRdBufSize
 2114 058b 1C       		.uleb128 0x1c
 2115 058c 2C000000 		.4byte	.LASF45
 2116 0590 01       		.byte	0x1
 2117 0591 23       		.byte	0x23
 2118 0592 BA000000 		.4byte	0xba
 2119 0596 05       		.uleb128 0x5
 2120 0597 03       		.byte	0x3
 2121 0598 00000000 		.4byte	I2C_1_mstrRdBufIndex
 2122 059c 1C       		.uleb128 0x1c
 2123 059d 53000000 		.4byte	.LASF46
 2124 05a1 01       		.byte	0x1
 2125 05a2 26       		.byte	0x26
 2126 05a3 74050000 		.4byte	0x574
ARM GAS  C:\Users\glenn\AppData\Local\Temp\cclrFd8J.s 			page 62


 2127 05a7 05       		.uleb128 0x5
 2128 05a8 03       		.byte	0x3
 2129 05a9 00000000 		.4byte	I2C_1_mstrWrBufPtr
 2130 05ad 1C       		.uleb128 0x1c
 2131 05ae 79000000 		.4byte	.LASF47
 2132 05b2 01       		.byte	0x1
 2133 05b3 27       		.byte	0x27
 2134 05b4 BA000000 		.4byte	0xba
 2135 05b8 05       		.uleb128 0x5
 2136 05b9 03       		.byte	0x3
 2137 05ba 00000000 		.4byte	I2C_1_mstrWrBufSize
 2138 05be 1C       		.uleb128 0x1c
 2139 05bf A6030000 		.4byte	.LASF48
 2140 05c3 01       		.byte	0x1
 2141 05c4 28       		.byte	0x28
 2142 05c5 BA000000 		.4byte	0xba
 2143 05c9 05       		.uleb128 0x5
 2144 05ca 03       		.byte	0x3
 2145 05cb 00000000 		.4byte	I2C_1_mstrWrBufIndex
 2146 05cf 1C       		.uleb128 0x1c
 2147 05d0 27020000 		.4byte	.LASF49
 2148 05d4 01       		.byte	0x1
 2149 05d5 29       		.byte	0x29
 2150 05d6 BA000000 		.4byte	0xba
 2151 05da 05       		.uleb128 0x5
 2152 05db 03       		.byte	0x3
 2153 05dc 00000000 		.4byte	I2C_1_mstrWrBufIndexTmp
 2154 05e0 1D       		.uleb128 0x1d
 2155 05e1 1B020000 		.4byte	.LASF51
 2156 05e5 04       		.byte	0x4
 2157 05e6 C3       		.byte	0xc3
 2158 05e7 F1050000 		.4byte	0x5f1
 2159 05eb 1E       		.uleb128 0x1e
 2160 05ec 6B000000 		.4byte	0x6b
 2161 05f0 00       		.byte	0
 2162 05f1 1F       		.uleb128 0x1f
 2163 05f2 69030000 		.4byte	.LASF55
 2164 05f6 04       		.byte	0x4
 2165 05f7 C5       		.byte	0xc5
 2166 05f8 1E       		.uleb128 0x1e
 2167 05f9 6B000000 		.4byte	0x6b
 2168 05fd 00       		.byte	0
 2169 05fe 00       		.byte	0
 2170              		.section	.debug_abbrev,"",%progbits
 2171              	.Ldebug_abbrev0:
 2172 0000 01       		.uleb128 0x1
 2173 0001 11       		.uleb128 0x11
 2174 0002 01       		.byte	0x1
 2175 0003 25       		.uleb128 0x25
 2176 0004 0E       		.uleb128 0xe
 2177 0005 13       		.uleb128 0x13
 2178 0006 0B       		.uleb128 0xb
 2179 0007 03       		.uleb128 0x3
 2180 0008 0E       		.uleb128 0xe
 2181 0009 1B       		.uleb128 0x1b
 2182 000a 0E       		.uleb128 0xe
 2183 000b 55       		.uleb128 0x55
ARM GAS  C:\Users\glenn\AppData\Local\Temp\cclrFd8J.s 			page 63


 2184 000c 17       		.uleb128 0x17
 2185 000d 11       		.uleb128 0x11
 2186 000e 01       		.uleb128 0x1
 2187 000f 10       		.uleb128 0x10
 2188 0010 17       		.uleb128 0x17
 2189 0011 00       		.byte	0
 2190 0012 00       		.byte	0
 2191 0013 02       		.uleb128 0x2
 2192 0014 24       		.uleb128 0x24
 2193 0015 00       		.byte	0
 2194 0016 0B       		.uleb128 0xb
 2195 0017 0B       		.uleb128 0xb
 2196 0018 3E       		.uleb128 0x3e
 2197 0019 0B       		.uleb128 0xb
 2198 001a 03       		.uleb128 0x3
 2199 001b 0E       		.uleb128 0xe
 2200 001c 00       		.byte	0
 2201 001d 00       		.byte	0
 2202 001e 03       		.uleb128 0x3
 2203 001f 24       		.uleb128 0x24
 2204 0020 00       		.byte	0
 2205 0021 0B       		.uleb128 0xb
 2206 0022 0B       		.uleb128 0xb
 2207 0023 3E       		.uleb128 0x3e
 2208 0024 0B       		.uleb128 0xb
 2209 0025 03       		.uleb128 0x3
 2210 0026 08       		.uleb128 0x8
 2211 0027 00       		.byte	0
 2212 0028 00       		.byte	0
 2213 0029 04       		.uleb128 0x4
 2214 002a 16       		.uleb128 0x16
 2215 002b 00       		.byte	0
 2216 002c 03       		.uleb128 0x3
 2217 002d 0E       		.uleb128 0xe
 2218 002e 3A       		.uleb128 0x3a
 2219 002f 0B       		.uleb128 0xb
 2220 0030 3B       		.uleb128 0x3b
 2221 0031 05       		.uleb128 0x5
 2222 0032 49       		.uleb128 0x49
 2223 0033 13       		.uleb128 0x13
 2224 0034 00       		.byte	0
 2225 0035 00       		.byte	0
 2226 0036 05       		.uleb128 0x5
 2227 0037 35       		.uleb128 0x35
 2228 0038 00       		.byte	0
 2229 0039 49       		.uleb128 0x49
 2230 003a 13       		.uleb128 0x13
 2231 003b 00       		.byte	0
 2232 003c 00       		.byte	0
 2233 003d 06       		.uleb128 0x6
 2234 003e 2E       		.uleb128 0x2e
 2235 003f 01       		.byte	0x1
 2236 0040 3F       		.uleb128 0x3f
 2237 0041 19       		.uleb128 0x19
 2238 0042 03       		.uleb128 0x3
 2239 0043 0E       		.uleb128 0xe
 2240 0044 3A       		.uleb128 0x3a
ARM GAS  C:\Users\glenn\AppData\Local\Temp\cclrFd8J.s 			page 64


 2241 0045 0B       		.uleb128 0xb
 2242 0046 3B       		.uleb128 0x3b
 2243 0047 05       		.uleb128 0x5
 2244 0048 27       		.uleb128 0x27
 2245 0049 19       		.uleb128 0x19
 2246 004a 20       		.uleb128 0x20
 2247 004b 0B       		.uleb128 0xb
 2248 004c 01       		.uleb128 0x1
 2249 004d 13       		.uleb128 0x13
 2250 004e 00       		.byte	0
 2251 004f 00       		.byte	0
 2252 0050 07       		.uleb128 0x7
 2253 0051 34       		.uleb128 0x34
 2254 0052 00       		.byte	0
 2255 0053 03       		.uleb128 0x3
 2256 0054 08       		.uleb128 0x8
 2257 0055 3A       		.uleb128 0x3a
 2258 0056 0B       		.uleb128 0xb
 2259 0057 3B       		.uleb128 0x3b
 2260 0058 05       		.uleb128 0x5
 2261 0059 49       		.uleb128 0x49
 2262 005a 13       		.uleb128 0x13
 2263 005b 00       		.byte	0
 2264 005c 00       		.byte	0
 2265 005d 08       		.uleb128 0x8
 2266 005e 2E       		.uleb128 0x2e
 2267 005f 01       		.byte	0x1
 2268 0060 3F       		.uleb128 0x3f
 2269 0061 19       		.uleb128 0x19
 2270 0062 03       		.uleb128 0x3
 2271 0063 0E       		.uleb128 0xe
 2272 0064 3A       		.uleb128 0x3a
 2273 0065 0B       		.uleb128 0xb
 2274 0066 3B       		.uleb128 0x3b
 2275 0067 0B       		.uleb128 0xb
 2276 0068 27       		.uleb128 0x27
 2277 0069 19       		.uleb128 0x19
 2278 006a 49       		.uleb128 0x49
 2279 006b 13       		.uleb128 0x13
 2280 006c 11       		.uleb128 0x11
 2281 006d 01       		.uleb128 0x1
 2282 006e 12       		.uleb128 0x12
 2283 006f 06       		.uleb128 0x6
 2284 0070 40       		.uleb128 0x40
 2285 0071 18       		.uleb128 0x18
 2286 0072 9742     		.uleb128 0x2117
 2287 0074 19       		.uleb128 0x19
 2288 0075 01       		.uleb128 0x1
 2289 0076 13       		.uleb128 0x13
 2290 0077 00       		.byte	0
 2291 0078 00       		.byte	0
 2292 0079 09       		.uleb128 0x9
 2293 007a 05       		.uleb128 0x5
 2294 007b 00       		.byte	0
 2295 007c 03       		.uleb128 0x3
 2296 007d 0E       		.uleb128 0xe
 2297 007e 3A       		.uleb128 0x3a
ARM GAS  C:\Users\glenn\AppData\Local\Temp\cclrFd8J.s 			page 65


 2298 007f 0B       		.uleb128 0xb
 2299 0080 3B       		.uleb128 0x3b
 2300 0081 0B       		.uleb128 0xb
 2301 0082 49       		.uleb128 0x49
 2302 0083 13       		.uleb128 0x13
 2303 0084 02       		.uleb128 0x2
 2304 0085 17       		.uleb128 0x17
 2305 0086 00       		.byte	0
 2306 0087 00       		.byte	0
 2307 0088 0A       		.uleb128 0xa
 2308 0089 05       		.uleb128 0x5
 2309 008a 00       		.byte	0
 2310 008b 03       		.uleb128 0x3
 2311 008c 08       		.uleb128 0x8
 2312 008d 3A       		.uleb128 0x3a
 2313 008e 0B       		.uleb128 0xb
 2314 008f 3B       		.uleb128 0x3b
 2315 0090 0B       		.uleb128 0xb
 2316 0091 49       		.uleb128 0x49
 2317 0092 13       		.uleb128 0x13
 2318 0093 02       		.uleb128 0x2
 2319 0094 17       		.uleb128 0x17
 2320 0095 00       		.byte	0
 2321 0096 00       		.byte	0
 2322 0097 0B       		.uleb128 0xb
 2323 0098 34       		.uleb128 0x34
 2324 0099 00       		.byte	0
 2325 009a 03       		.uleb128 0x3
 2326 009b 0E       		.uleb128 0xe
 2327 009c 3A       		.uleb128 0x3a
 2328 009d 0B       		.uleb128 0xb
 2329 009e 3B       		.uleb128 0x3b
 2330 009f 0B       		.uleb128 0xb
 2331 00a0 49       		.uleb128 0x49
 2332 00a1 13       		.uleb128 0x13
 2333 00a2 02       		.uleb128 0x2
 2334 00a3 17       		.uleb128 0x17
 2335 00a4 00       		.byte	0
 2336 00a5 00       		.byte	0
 2337 00a6 0C       		.uleb128 0xc
 2338 00a7 1D       		.uleb128 0x1d
 2339 00a8 01       		.byte	0x1
 2340 00a9 31       		.uleb128 0x31
 2341 00aa 13       		.uleb128 0x13
 2342 00ab 52       		.uleb128 0x52
 2343 00ac 01       		.uleb128 0x1
 2344 00ad 55       		.uleb128 0x55
 2345 00ae 17       		.uleb128 0x17
 2346 00af 58       		.uleb128 0x58
 2347 00b0 0B       		.uleb128 0xb
 2348 00b1 59       		.uleb128 0x59
 2349 00b2 0B       		.uleb128 0xb
 2350 00b3 01       		.uleb128 0x1
 2351 00b4 13       		.uleb128 0x13
 2352 00b5 00       		.byte	0
 2353 00b6 00       		.byte	0
 2354 00b7 0D       		.uleb128 0xd
ARM GAS  C:\Users\glenn\AppData\Local\Temp\cclrFd8J.s 			page 66


 2355 00b8 0B       		.uleb128 0xb
 2356 00b9 01       		.byte	0x1
 2357 00ba 55       		.uleb128 0x55
 2358 00bb 17       		.uleb128 0x17
 2359 00bc 00       		.byte	0
 2360 00bd 00       		.byte	0
 2361 00be 0E       		.uleb128 0xe
 2362 00bf 34       		.uleb128 0x34
 2363 00c0 00       		.byte	0
 2364 00c1 31       		.uleb128 0x31
 2365 00c2 13       		.uleb128 0x13
 2366 00c3 02       		.uleb128 0x2
 2367 00c4 17       		.uleb128 0x17
 2368 00c5 00       		.byte	0
 2369 00c6 00       		.byte	0
 2370 00c7 0F       		.uleb128 0xf
 2371 00c8 898201   		.uleb128 0x4109
 2372 00cb 01       		.byte	0x1
 2373 00cc 11       		.uleb128 0x11
 2374 00cd 01       		.uleb128 0x1
 2375 00ce 31       		.uleb128 0x31
 2376 00cf 13       		.uleb128 0x13
 2377 00d0 01       		.uleb128 0x1
 2378 00d1 13       		.uleb128 0x13
 2379 00d2 00       		.byte	0
 2380 00d3 00       		.byte	0
 2381 00d4 10       		.uleb128 0x10
 2382 00d5 8A8201   		.uleb128 0x410a
 2383 00d8 00       		.byte	0
 2384 00d9 02       		.uleb128 0x2
 2385 00da 18       		.uleb128 0x18
 2386 00db 9142     		.uleb128 0x2111
 2387 00dd 18       		.uleb128 0x18
 2388 00de 00       		.byte	0
 2389 00df 00       		.byte	0
 2390 00e0 11       		.uleb128 0x11
 2391 00e1 898201   		.uleb128 0x4109
 2392 00e4 01       		.byte	0x1
 2393 00e5 11       		.uleb128 0x11
 2394 00e6 01       		.uleb128 0x1
 2395 00e7 31       		.uleb128 0x31
 2396 00e8 13       		.uleb128 0x13
 2397 00e9 00       		.byte	0
 2398 00ea 00       		.byte	0
 2399 00eb 12       		.uleb128 0x12
 2400 00ec 0F       		.uleb128 0xf
 2401 00ed 00       		.byte	0
 2402 00ee 0B       		.uleb128 0xb
 2403 00ef 0B       		.uleb128 0xb
 2404 00f0 49       		.uleb128 0x49
 2405 00f1 13       		.uleb128 0x13
 2406 00f2 00       		.byte	0
 2407 00f3 00       		.byte	0
 2408 00f4 13       		.uleb128 0x13
 2409 00f5 1D       		.uleb128 0x1d
 2410 00f6 01       		.byte	0x1
 2411 00f7 31       		.uleb128 0x31
ARM GAS  C:\Users\glenn\AppData\Local\Temp\cclrFd8J.s 			page 67


 2412 00f8 13       		.uleb128 0x13
 2413 00f9 52       		.uleb128 0x52
 2414 00fa 01       		.uleb128 0x1
 2415 00fb 55       		.uleb128 0x55
 2416 00fc 17       		.uleb128 0x17
 2417 00fd 58       		.uleb128 0x58
 2418 00fe 0B       		.uleb128 0xb
 2419 00ff 59       		.uleb128 0x59
 2420 0100 05       		.uleb128 0x5
 2421 0101 01       		.uleb128 0x1
 2422 0102 13       		.uleb128 0x13
 2423 0103 00       		.byte	0
 2424 0104 00       		.byte	0
 2425 0105 14       		.uleb128 0x14
 2426 0106 2E       		.uleb128 0x2e
 2427 0107 01       		.byte	0x1
 2428 0108 3F       		.uleb128 0x3f
 2429 0109 19       		.uleb128 0x19
 2430 010a 03       		.uleb128 0x3
 2431 010b 0E       		.uleb128 0xe
 2432 010c 3A       		.uleb128 0x3a
 2433 010d 0B       		.uleb128 0xb
 2434 010e 3B       		.uleb128 0x3b
 2435 010f 05       		.uleb128 0x5
 2436 0110 27       		.uleb128 0x27
 2437 0111 19       		.uleb128 0x19
 2438 0112 49       		.uleb128 0x49
 2439 0113 13       		.uleb128 0x13
 2440 0114 11       		.uleb128 0x11
 2441 0115 01       		.uleb128 0x1
 2442 0116 12       		.uleb128 0x12
 2443 0117 06       		.uleb128 0x6
 2444 0118 40       		.uleb128 0x40
 2445 0119 18       		.uleb128 0x18
 2446 011a 9742     		.uleb128 0x2117
 2447 011c 19       		.uleb128 0x19
 2448 011d 01       		.uleb128 0x1
 2449 011e 13       		.uleb128 0x13
 2450 011f 00       		.byte	0
 2451 0120 00       		.byte	0
 2452 0121 15       		.uleb128 0x15
 2453 0122 05       		.uleb128 0x5
 2454 0123 00       		.byte	0
 2455 0124 03       		.uleb128 0x3
 2456 0125 0E       		.uleb128 0xe
 2457 0126 3A       		.uleb128 0x3a
 2458 0127 0B       		.uleb128 0xb
 2459 0128 3B       		.uleb128 0x3b
 2460 0129 05       		.uleb128 0x5
 2461 012a 49       		.uleb128 0x49
 2462 012b 13       		.uleb128 0x13
 2463 012c 02       		.uleb128 0x2
 2464 012d 17       		.uleb128 0x17
 2465 012e 00       		.byte	0
 2466 012f 00       		.byte	0
 2467 0130 16       		.uleb128 0x16
 2468 0131 34       		.uleb128 0x34
ARM GAS  C:\Users\glenn\AppData\Local\Temp\cclrFd8J.s 			page 68


 2469 0132 00       		.byte	0
 2470 0133 03       		.uleb128 0x3
 2471 0134 0E       		.uleb128 0xe
 2472 0135 3A       		.uleb128 0x3a
 2473 0136 0B       		.uleb128 0xb
 2474 0137 3B       		.uleb128 0x3b
 2475 0138 05       		.uleb128 0x5
 2476 0139 49       		.uleb128 0x49
 2477 013a 13       		.uleb128 0x13
 2478 013b 02       		.uleb128 0x2
 2479 013c 17       		.uleb128 0x17
 2480 013d 00       		.byte	0
 2481 013e 00       		.byte	0
 2482 013f 17       		.uleb128 0x17
 2483 0140 1D       		.uleb128 0x1d
 2484 0141 01       		.byte	0x1
 2485 0142 31       		.uleb128 0x31
 2486 0143 13       		.uleb128 0x13
 2487 0144 52       		.uleb128 0x52
 2488 0145 01       		.uleb128 0x1
 2489 0146 55       		.uleb128 0x55
 2490 0147 17       		.uleb128 0x17
 2491 0148 58       		.uleb128 0x58
 2492 0149 0B       		.uleb128 0xb
 2493 014a 59       		.uleb128 0x59
 2494 014b 05       		.uleb128 0x5
 2495 014c 00       		.byte	0
 2496 014d 00       		.byte	0
 2497 014e 18       		.uleb128 0x18
 2498 014f 2E       		.uleb128 0x2e
 2499 0150 00       		.byte	0
 2500 0151 3F       		.uleb128 0x3f
 2501 0152 19       		.uleb128 0x19
 2502 0153 03       		.uleb128 0x3
 2503 0154 0E       		.uleb128 0xe
 2504 0155 3A       		.uleb128 0x3a
 2505 0156 0B       		.uleb128 0xb
 2506 0157 3B       		.uleb128 0x3b
 2507 0158 05       		.uleb128 0x5
 2508 0159 27       		.uleb128 0x27
 2509 015a 19       		.uleb128 0x19
 2510 015b 49       		.uleb128 0x49
 2511 015c 13       		.uleb128 0x13
 2512 015d 11       		.uleb128 0x11
 2513 015e 01       		.uleb128 0x1
 2514 015f 12       		.uleb128 0x12
 2515 0160 06       		.uleb128 0x6
 2516 0161 40       		.uleb128 0x40
 2517 0162 18       		.uleb128 0x18
 2518 0163 9742     		.uleb128 0x2117
 2519 0165 19       		.uleb128 0x19
 2520 0166 00       		.byte	0
 2521 0167 00       		.byte	0
 2522 0168 19       		.uleb128 0x19
 2523 0169 2E       		.uleb128 0x2e
 2524 016a 01       		.byte	0x1
 2525 016b 3F       		.uleb128 0x3f
ARM GAS  C:\Users\glenn\AppData\Local\Temp\cclrFd8J.s 			page 69


 2526 016c 19       		.uleb128 0x19
 2527 016d 03       		.uleb128 0x3
 2528 016e 0E       		.uleb128 0xe
 2529 016f 3A       		.uleb128 0x3a
 2530 0170 0B       		.uleb128 0xb
 2531 0171 3B       		.uleb128 0x3b
 2532 0172 05       		.uleb128 0x5
 2533 0173 27       		.uleb128 0x27
 2534 0174 19       		.uleb128 0x19
 2535 0175 11       		.uleb128 0x11
 2536 0176 01       		.uleb128 0x1
 2537 0177 12       		.uleb128 0x12
 2538 0178 06       		.uleb128 0x6
 2539 0179 40       		.uleb128 0x40
 2540 017a 18       		.uleb128 0x18
 2541 017b 9742     		.uleb128 0x2117
 2542 017d 19       		.uleb128 0x19
 2543 017e 01       		.uleb128 0x1
 2544 017f 13       		.uleb128 0x13
 2545 0180 00       		.byte	0
 2546 0181 00       		.byte	0
 2547 0182 1A       		.uleb128 0x1a
 2548 0183 2E       		.uleb128 0x2e
 2549 0184 01       		.byte	0x1
 2550 0185 31       		.uleb128 0x31
 2551 0186 13       		.uleb128 0x13
 2552 0187 11       		.uleb128 0x11
 2553 0188 01       		.uleb128 0x1
 2554 0189 12       		.uleb128 0x12
 2555 018a 06       		.uleb128 0x6
 2556 018b 40       		.uleb128 0x40
 2557 018c 18       		.uleb128 0x18
 2558 018d 9742     		.uleb128 0x2117
 2559 018f 19       		.uleb128 0x19
 2560 0190 01       		.uleb128 0x1
 2561 0191 13       		.uleb128 0x13
 2562 0192 00       		.byte	0
 2563 0193 00       		.byte	0
 2564 0194 1B       		.uleb128 0x1b
 2565 0195 34       		.uleb128 0x34
 2566 0196 00       		.byte	0
 2567 0197 03       		.uleb128 0x3
 2568 0198 0E       		.uleb128 0xe
 2569 0199 3A       		.uleb128 0x3a
 2570 019a 0B       		.uleb128 0xb
 2571 019b 3B       		.uleb128 0x3b
 2572 019c 0B       		.uleb128 0xb
 2573 019d 49       		.uleb128 0x49
 2574 019e 13       		.uleb128 0x13
 2575 019f 3F       		.uleb128 0x3f
 2576 01a0 19       		.uleb128 0x19
 2577 01a1 3C       		.uleb128 0x3c
 2578 01a2 19       		.uleb128 0x19
 2579 01a3 00       		.byte	0
 2580 01a4 00       		.byte	0
 2581 01a5 1C       		.uleb128 0x1c
 2582 01a6 34       		.uleb128 0x34
ARM GAS  C:\Users\glenn\AppData\Local\Temp\cclrFd8J.s 			page 70


 2583 01a7 00       		.byte	0
 2584 01a8 03       		.uleb128 0x3
 2585 01a9 0E       		.uleb128 0xe
 2586 01aa 3A       		.uleb128 0x3a
 2587 01ab 0B       		.uleb128 0xb
 2588 01ac 3B       		.uleb128 0x3b
 2589 01ad 0B       		.uleb128 0xb
 2590 01ae 49       		.uleb128 0x49
 2591 01af 13       		.uleb128 0x13
 2592 01b0 3F       		.uleb128 0x3f
 2593 01b1 19       		.uleb128 0x19
 2594 01b2 02       		.uleb128 0x2
 2595 01b3 18       		.uleb128 0x18
 2596 01b4 00       		.byte	0
 2597 01b5 00       		.byte	0
 2598 01b6 1D       		.uleb128 0x1d
 2599 01b7 2E       		.uleb128 0x2e
 2600 01b8 01       		.byte	0x1
 2601 01b9 3F       		.uleb128 0x3f
 2602 01ba 19       		.uleb128 0x19
 2603 01bb 03       		.uleb128 0x3
 2604 01bc 0E       		.uleb128 0xe
 2605 01bd 3A       		.uleb128 0x3a
 2606 01be 0B       		.uleb128 0xb
 2607 01bf 3B       		.uleb128 0x3b
 2608 01c0 0B       		.uleb128 0xb
 2609 01c1 27       		.uleb128 0x27
 2610 01c2 19       		.uleb128 0x19
 2611 01c3 3C       		.uleb128 0x3c
 2612 01c4 19       		.uleb128 0x19
 2613 01c5 01       		.uleb128 0x1
 2614 01c6 13       		.uleb128 0x13
 2615 01c7 00       		.byte	0
 2616 01c8 00       		.byte	0
 2617 01c9 1E       		.uleb128 0x1e
 2618 01ca 05       		.uleb128 0x5
 2619 01cb 00       		.byte	0
 2620 01cc 49       		.uleb128 0x49
 2621 01cd 13       		.uleb128 0x13
 2622 01ce 00       		.byte	0
 2623 01cf 00       		.byte	0
 2624 01d0 1F       		.uleb128 0x1f
 2625 01d1 2E       		.uleb128 0x2e
 2626 01d2 01       		.byte	0x1
 2627 01d3 3F       		.uleb128 0x3f
 2628 01d4 19       		.uleb128 0x19
 2629 01d5 03       		.uleb128 0x3
 2630 01d6 0E       		.uleb128 0xe
 2631 01d7 3A       		.uleb128 0x3a
 2632 01d8 0B       		.uleb128 0xb
 2633 01d9 3B       		.uleb128 0x3b
 2634 01da 0B       		.uleb128 0xb
 2635 01db 27       		.uleb128 0x27
 2636 01dc 19       		.uleb128 0x19
 2637 01dd 3C       		.uleb128 0x3c
 2638 01de 19       		.uleb128 0x19
 2639 01df 00       		.byte	0
ARM GAS  C:\Users\glenn\AppData\Local\Temp\cclrFd8J.s 			page 71


 2640 01e0 00       		.byte	0
 2641 01e1 00       		.byte	0
 2642              		.section	.debug_loc,"",%progbits
 2643              	.Ldebug_loc0:
 2644              	.LLST0:
 2645 0000 00000000 		.4byte	.LVL0
 2646 0004 24000000 		.4byte	.LVL2
 2647 0008 0100     		.2byte	0x1
 2648 000a 50       		.byte	0x50
 2649 000b 24000000 		.4byte	.LVL2
 2650 000f 2E000000 		.4byte	.LVL4
 2651 0013 0100     		.2byte	0x1
 2652 0015 56       		.byte	0x56
 2653 0016 36000000 		.4byte	.LVL8
 2654 001a 44000000 		.4byte	.LVL12
 2655 001e 0100     		.2byte	0x1
 2656 0020 50       		.byte	0x50
 2657 0021 44000000 		.4byte	.LVL12
 2658 0025 4E000000 		.4byte	.LVL13
 2659 0029 0100     		.2byte	0x1
 2660 002b 56       		.byte	0x56
 2661 002c 4E000000 		.4byte	.LVL13
 2662 0030 70000000 		.4byte	.LVL14
 2663 0034 0400     		.2byte	0x4
 2664 0036 F3       		.byte	0xf3
 2665 0037 01       		.uleb128 0x1
 2666 0038 50       		.byte	0x50
 2667 0039 9F       		.byte	0x9f
 2668 003a 70000000 		.4byte	.LVL14
 2669 003e B0000000 		.4byte	.LVL19
 2670 0042 0100     		.2byte	0x1
 2671 0044 56       		.byte	0x56
 2672 0045 B0000000 		.4byte	.LVL19
 2673 0049 B2000000 		.4byte	.LVL20
 2674 004d 0100     		.2byte	0x1
 2675 004f 50       		.byte	0x50
 2676 0050 B2000000 		.4byte	.LVL20
 2677 0054 FC000000 		.4byte	.LFE1
 2678 0058 0100     		.2byte	0x1
 2679 005a 56       		.byte	0x56
 2680 005b 00000000 		.4byte	0
 2681 005f 00000000 		.4byte	0
 2682              	.LLST1:
 2683 0063 00000000 		.4byte	.LVL0
 2684 0067 24000000 		.4byte	.LVL2
 2685 006b 0100     		.2byte	0x1
 2686 006d 51       		.byte	0x51
 2687 006e 24000000 		.4byte	.LVL2
 2688 0072 2E000000 		.4byte	.LVL5
 2689 0076 0100     		.2byte	0x1
 2690 0078 57       		.byte	0x57
 2691 0079 2E000000 		.4byte	.LVL5
 2692 007d 36000000 		.4byte	.LVL8
 2693 0081 0400     		.2byte	0x4
 2694 0083 F3       		.byte	0xf3
 2695 0084 01       		.uleb128 0x1
 2696 0085 51       		.byte	0x51
ARM GAS  C:\Users\glenn\AppData\Local\Temp\cclrFd8J.s 			page 72


 2697 0086 9F       		.byte	0x9f
 2698 0087 36000000 		.4byte	.LVL8
 2699 008b 3C000000 		.4byte	.LVL10
 2700 008f 0100     		.2byte	0x1
 2701 0091 51       		.byte	0x51
 2702 0092 3C000000 		.4byte	.LVL10
 2703 0096 B0000000 		.4byte	.LVL19
 2704 009a 0100     		.2byte	0x1
 2705 009c 57       		.byte	0x57
 2706 009d B0000000 		.4byte	.LVL19
 2707 00a1 B5000000 		.4byte	.LVL21-1
 2708 00a5 0100     		.2byte	0x1
 2709 00a7 51       		.byte	0x51
 2710 00a8 B5000000 		.4byte	.LVL21-1
 2711 00ac FC000000 		.4byte	.LFE1
 2712 00b0 0100     		.2byte	0x1
 2713 00b2 57       		.byte	0x57
 2714 00b3 00000000 		.4byte	0
 2715 00b7 00000000 		.4byte	0
 2716              	.LLST2:
 2717 00bb 00000000 		.4byte	.LVL0
 2718 00bf 24000000 		.4byte	.LVL2
 2719 00c3 0100     		.2byte	0x1
 2720 00c5 52       		.byte	0x52
 2721 00c6 24000000 		.4byte	.LVL2
 2722 00ca 2E000000 		.4byte	.LVL7
 2723 00ce 0100     		.2byte	0x1
 2724 00d0 59       		.byte	0x59
 2725 00d1 2E000000 		.4byte	.LVL7
 2726 00d5 36000000 		.4byte	.LVL8
 2727 00d9 0400     		.2byte	0x4
 2728 00db F3       		.byte	0xf3
 2729 00dc 01       		.uleb128 0x1
 2730 00dd 52       		.byte	0x52
 2731 00de 9F       		.byte	0x9f
 2732 00df 36000000 		.4byte	.LVL8
 2733 00e3 40000000 		.4byte	.LVL11
 2734 00e7 0100     		.2byte	0x1
 2735 00e9 52       		.byte	0x52
 2736 00ea 40000000 		.4byte	.LVL11
 2737 00ee B0000000 		.4byte	.LVL19
 2738 00f2 0100     		.2byte	0x1
 2739 00f4 59       		.byte	0x59
 2740 00f5 B0000000 		.4byte	.LVL19
 2741 00f9 B5000000 		.4byte	.LVL21-1
 2742 00fd 0100     		.2byte	0x1
 2743 00ff 52       		.byte	0x52
 2744 0100 B5000000 		.4byte	.LVL21-1
 2745 0104 FC000000 		.4byte	.LFE1
 2746 0108 0100     		.2byte	0x1
 2747 010a 59       		.byte	0x59
 2748 010b 00000000 		.4byte	0
 2749 010f 00000000 		.4byte	0
 2750              	.LLST3:
 2751 0113 00000000 		.4byte	.LVL0
 2752 0117 18000000 		.4byte	.LVL1
 2753 011b 0100     		.2byte	0x1
ARM GAS  C:\Users\glenn\AppData\Local\Temp\cclrFd8J.s 			page 73


 2754 011d 53       		.byte	0x53
 2755 011e 18000000 		.4byte	.LVL1
 2756 0122 2E000000 		.4byte	.LVL6
 2757 0126 0100     		.2byte	0x1
 2758 0128 58       		.byte	0x58
 2759 0129 2E000000 		.4byte	.LVL6
 2760 012d 36000000 		.4byte	.LVL8
 2761 0131 0400     		.2byte	0x4
 2762 0133 F3       		.byte	0xf3
 2763 0134 01       		.uleb128 0x1
 2764 0135 53       		.byte	0x53
 2765 0136 9F       		.byte	0x9f
 2766 0137 36000000 		.4byte	.LVL8
 2767 013b 3A000000 		.4byte	.LVL9
 2768 013f 0100     		.2byte	0x1
 2769 0141 53       		.byte	0x53
 2770 0142 3A000000 		.4byte	.LVL9
 2771 0146 FC000000 		.4byte	.LFE1
 2772 014a 0100     		.2byte	0x1
 2773 014c 58       		.byte	0x58
 2774 014d 00000000 		.4byte	0
 2775 0151 00000000 		.4byte	0
 2776              	.LLST4:
 2777 0155 00000000 		.4byte	.LVL0
 2778 0159 24000000 		.4byte	.LVL2
 2779 015d 0200     		.2byte	0x2
 2780 015f 34       		.byte	0x34
 2781 0160 9F       		.byte	0x9f
 2782 0161 36000000 		.4byte	.LVL8
 2783 0165 44000000 		.4byte	.LVL12
 2784 0169 0200     		.2byte	0x2
 2785 016b 34       		.byte	0x34
 2786 016c 9F       		.byte	0x9f
 2787 016d 44000000 		.4byte	.LVL12
 2788 0171 B0000000 		.4byte	.LVL19
 2789 0175 0200     		.2byte	0x2
 2790 0177 30       		.byte	0x30
 2791 0178 9F       		.byte	0x9f
 2792 0179 B0000000 		.4byte	.LVL19
 2793 017d FC000000 		.4byte	.LFE1
 2794 0181 0200     		.2byte	0x2
 2795 0183 34       		.byte	0x34
 2796 0184 9F       		.byte	0x9f
 2797 0185 00000000 		.4byte	0
 2798 0189 00000000 		.4byte	0
 2799              	.LLST5:
 2800 018d 8C000000 		.4byte	.LVL15
 2801 0191 98000000 		.4byte	.LVL16
 2802 0195 0200     		.2byte	0x2
 2803 0197 31       		.byte	0x31
 2804 0198 9F       		.byte	0x9f
 2805 0199 98000000 		.4byte	.LVL16
 2806 019d A0000000 		.4byte	.LVL17
 2807 01a1 0100     		.2byte	0x1
 2808 01a3 53       		.byte	0x53
 2809 01a4 A0000000 		.4byte	.LVL17
 2810 01a8 A2000000 		.4byte	.LVL18
ARM GAS  C:\Users\glenn\AppData\Local\Temp\cclrFd8J.s 			page 74


 2811 01ac 0200     		.2byte	0x2
 2812 01ae 72       		.byte	0x72
 2813 01af 00       		.sleb128 0
 2814 01b0 00000000 		.4byte	0
 2815 01b4 00000000 		.4byte	0
 2816              	.LLST6:
 2817 01b8 00000000 		.4byte	.LVL22
 2818 01bc 24000000 		.4byte	.LVL24
 2819 01c0 0100     		.2byte	0x1
 2820 01c2 50       		.byte	0x50
 2821 01c3 24000000 		.4byte	.LVL24
 2822 01c7 2E000000 		.4byte	.LVL26
 2823 01cb 0100     		.2byte	0x1
 2824 01cd 55       		.byte	0x55
 2825 01ce 36000000 		.4byte	.LVL30
 2826 01d2 44000000 		.4byte	.LVL34
 2827 01d6 0100     		.2byte	0x1
 2828 01d8 50       		.byte	0x50
 2829 01d9 44000000 		.4byte	.LVL34
 2830 01dd 56000000 		.4byte	.LVL35
 2831 01e1 0100     		.2byte	0x1
 2832 01e3 55       		.byte	0x55
 2833 01e4 56000000 		.4byte	.LVL35
 2834 01e8 70000000 		.4byte	.LVL36
 2835 01ec 0400     		.2byte	0x4
 2836 01ee F3       		.byte	0xf3
 2837 01ef 01       		.uleb128 0x1
 2838 01f0 50       		.byte	0x50
 2839 01f1 9F       		.byte	0x9f
 2840 01f2 70000000 		.4byte	.LVL36
 2841 01f6 C6000000 		.4byte	.LVL41
 2842 01fa 0100     		.2byte	0x1
 2843 01fc 55       		.byte	0x55
 2844 01fd C6000000 		.4byte	.LVL41
 2845 0201 C8000000 		.4byte	.LVL42
 2846 0205 0100     		.2byte	0x1
 2847 0207 50       		.byte	0x50
 2848 0208 C8000000 		.4byte	.LVL42
 2849 020c 10010000 		.4byte	.LFE2
 2850 0210 0100     		.2byte	0x1
 2851 0212 55       		.byte	0x55
 2852 0213 00000000 		.4byte	0
 2853 0217 00000000 		.4byte	0
 2854              	.LLST7:
 2855 021b 00000000 		.4byte	.LVL22
 2856 021f 24000000 		.4byte	.LVL24
 2857 0223 0100     		.2byte	0x1
 2858 0225 51       		.byte	0x51
 2859 0226 24000000 		.4byte	.LVL24
 2860 022a 2E000000 		.4byte	.LVL27
 2861 022e 0100     		.2byte	0x1
 2862 0230 57       		.byte	0x57
 2863 0231 2E000000 		.4byte	.LVL27
 2864 0235 36000000 		.4byte	.LVL30
 2865 0239 0400     		.2byte	0x4
 2866 023b F3       		.byte	0xf3
 2867 023c 01       		.uleb128 0x1
ARM GAS  C:\Users\glenn\AppData\Local\Temp\cclrFd8J.s 			page 75


 2868 023d 51       		.byte	0x51
 2869 023e 9F       		.byte	0x9f
 2870 023f 36000000 		.4byte	.LVL30
 2871 0243 3C000000 		.4byte	.LVL32
 2872 0247 0100     		.2byte	0x1
 2873 0249 51       		.byte	0x51
 2874 024a 3C000000 		.4byte	.LVL32
 2875 024e C6000000 		.4byte	.LVL41
 2876 0252 0100     		.2byte	0x1
 2877 0254 57       		.byte	0x57
 2878 0255 C6000000 		.4byte	.LVL41
 2879 0259 CB000000 		.4byte	.LVL43-1
 2880 025d 0100     		.2byte	0x1
 2881 025f 51       		.byte	0x51
 2882 0260 CB000000 		.4byte	.LVL43-1
 2883 0264 10010000 		.4byte	.LFE2
 2884 0268 0100     		.2byte	0x1
 2885 026a 57       		.byte	0x57
 2886 026b 00000000 		.4byte	0
 2887 026f 00000000 		.4byte	0
 2888              	.LLST8:
 2889 0273 00000000 		.4byte	.LVL22
 2890 0277 24000000 		.4byte	.LVL24
 2891 027b 0100     		.2byte	0x1
 2892 027d 52       		.byte	0x52
 2893 027e 24000000 		.4byte	.LVL24
 2894 0282 2E000000 		.4byte	.LVL29
 2895 0286 0100     		.2byte	0x1
 2896 0288 59       		.byte	0x59
 2897 0289 2E000000 		.4byte	.LVL29
 2898 028d 36000000 		.4byte	.LVL30
 2899 0291 0400     		.2byte	0x4
 2900 0293 F3       		.byte	0xf3
 2901 0294 01       		.uleb128 0x1
 2902 0295 52       		.byte	0x52
 2903 0296 9F       		.byte	0x9f
 2904 0297 36000000 		.4byte	.LVL30
 2905 029b 40000000 		.4byte	.LVL33
 2906 029f 0100     		.2byte	0x1
 2907 02a1 52       		.byte	0x52
 2908 02a2 40000000 		.4byte	.LVL33
 2909 02a6 C6000000 		.4byte	.LVL41
 2910 02aa 0100     		.2byte	0x1
 2911 02ac 59       		.byte	0x59
 2912 02ad C6000000 		.4byte	.LVL41
 2913 02b1 CB000000 		.4byte	.LVL43-1
 2914 02b5 0100     		.2byte	0x1
 2915 02b7 52       		.byte	0x52
 2916 02b8 CB000000 		.4byte	.LVL43-1
 2917 02bc 10010000 		.4byte	.LFE2
 2918 02c0 0100     		.2byte	0x1
 2919 02c2 59       		.byte	0x59
 2920 02c3 00000000 		.4byte	0
 2921 02c7 00000000 		.4byte	0
 2922              	.LLST9:
 2923 02cb 00000000 		.4byte	.LVL22
 2924 02cf 18000000 		.4byte	.LVL23
ARM GAS  C:\Users\glenn\AppData\Local\Temp\cclrFd8J.s 			page 76


 2925 02d3 0100     		.2byte	0x1
 2926 02d5 53       		.byte	0x53
 2927 02d6 18000000 		.4byte	.LVL23
 2928 02da 2E000000 		.4byte	.LVL28
 2929 02de 0100     		.2byte	0x1
 2930 02e0 58       		.byte	0x58
 2931 02e1 2E000000 		.4byte	.LVL28
 2932 02e5 36000000 		.4byte	.LVL30
 2933 02e9 0400     		.2byte	0x4
 2934 02eb F3       		.byte	0xf3
 2935 02ec 01       		.uleb128 0x1
 2936 02ed 53       		.byte	0x53
 2937 02ee 9F       		.byte	0x9f
 2938 02ef 36000000 		.4byte	.LVL30
 2939 02f3 3A000000 		.4byte	.LVL31
 2940 02f7 0100     		.2byte	0x1
 2941 02f9 53       		.byte	0x53
 2942 02fa 3A000000 		.4byte	.LVL31
 2943 02fe 10010000 		.4byte	.LFE2
 2944 0302 0100     		.2byte	0x1
 2945 0304 58       		.byte	0x58
 2946 0305 00000000 		.4byte	0
 2947 0309 00000000 		.4byte	0
 2948              	.LLST10:
 2949 030d 00000000 		.4byte	.LVL22
 2950 0311 24000000 		.4byte	.LVL24
 2951 0315 0200     		.2byte	0x2
 2952 0317 34       		.byte	0x34
 2953 0318 9F       		.byte	0x9f
 2954 0319 36000000 		.4byte	.LVL30
 2955 031d 44000000 		.4byte	.LVL34
 2956 0321 0200     		.2byte	0x2
 2957 0323 34       		.byte	0x34
 2958 0324 9F       		.byte	0x9f
 2959 0325 44000000 		.4byte	.LVL34
 2960 0329 C6000000 		.4byte	.LVL41
 2961 032d 0200     		.2byte	0x2
 2962 032f 30       		.byte	0x30
 2963 0330 9F       		.byte	0x9f
 2964 0331 C6000000 		.4byte	.LVL41
 2965 0335 10010000 		.4byte	.LFE2
 2966 0339 0200     		.2byte	0x2
 2967 033b 34       		.byte	0x34
 2968 033c 9F       		.byte	0x9f
 2969 033d 00000000 		.4byte	0
 2970 0341 00000000 		.4byte	0
 2971              	.LLST11:
 2972 0345 8C000000 		.4byte	.LVL37
 2973 0349 98000000 		.4byte	.LVL38
 2974 034d 0200     		.2byte	0x2
 2975 034f 31       		.byte	0x31
 2976 0350 9F       		.byte	0x9f
 2977 0351 98000000 		.4byte	.LVL38
 2978 0355 A0000000 		.4byte	.LVL39
 2979 0359 0100     		.2byte	0x1
 2980 035b 53       		.byte	0x53
 2981 035c A0000000 		.4byte	.LVL39
ARM GAS  C:\Users\glenn\AppData\Local\Temp\cclrFd8J.s 			page 77


 2982 0360 A2000000 		.4byte	.LVL40
 2983 0364 0200     		.2byte	0x2
 2984 0366 72       		.byte	0x72
 2985 0367 00       		.sleb128 0
 2986 0368 00000000 		.4byte	0
 2987 036c 00000000 		.4byte	0
 2988              	.LLST12:
 2989 0370 00000000 		.4byte	.LVL44
 2990 0374 0C000000 		.4byte	.LVL45
 2991 0378 0100     		.2byte	0x1
 2992 037a 50       		.byte	0x50
 2993 037b 10000000 		.4byte	.LVL46
 2994 037f 20000000 		.4byte	.LVL47
 2995 0383 0100     		.2byte	0x1
 2996 0385 50       		.byte	0x50
 2997 0386 20000000 		.4byte	.LVL47
 2998 038a 2C000000 		.4byte	.LVL49
 2999 038e 0100     		.2byte	0x1
 3000 0390 55       		.byte	0x55
 3001 0391 2C000000 		.4byte	.LVL49
 3002 0395 3C000000 		.4byte	.LVL50
 3003 0399 0100     		.2byte	0x1
 3004 039b 50       		.byte	0x50
 3005 039c 3C000000 		.4byte	.LVL50
 3006 03a0 3E000000 		.4byte	.LVL51
 3007 03a4 0200     		.2byte	0x2
 3008 03a6 73       		.byte	0x73
 3009 03a7 00       		.sleb128 0
 3010 03a8 3E000000 		.4byte	.LVL51
 3011 03ac 44000000 		.4byte	.LVL52
 3012 03b0 0500     		.2byte	0x5
 3013 03b2 0C       		.byte	0xc
 3014 03b3 40022440 		.4byte	0x40240240
 3015 03b7 86000000 		.4byte	.LVL55
 3016 03bb 8E000000 		.4byte	.LVL57
 3017 03bf 0100     		.2byte	0x1
 3018 03c1 50       		.byte	0x50
 3019 03c2 00000000 		.4byte	0
 3020 03c6 00000000 		.4byte	0
 3021              	.LLST13:
 3022 03ca 00000000 		.4byte	.LVL44
 3023 03ce 0C000000 		.4byte	.LVL45
 3024 03d2 0100     		.2byte	0x1
 3025 03d4 51       		.byte	0x51
 3026 03d5 0C000000 		.4byte	.LVL45
 3027 03d9 10000000 		.4byte	.LVL46
 3028 03dd 0400     		.2byte	0x4
 3029 03df F3       		.byte	0xf3
 3030 03e0 01       		.uleb128 0x1
 3031 03e1 51       		.byte	0x51
 3032 03e2 9F       		.byte	0x9f
 3033 03e3 10000000 		.4byte	.LVL46
 3034 03e7 25000000 		.4byte	.LVL48-1
 3035 03eb 0100     		.2byte	0x1
 3036 03ed 51       		.byte	0x51
 3037 03ee 25000000 		.4byte	.LVL48-1
 3038 03f2 C4000000 		.4byte	.LFE3
ARM GAS  C:\Users\glenn\AppData\Local\Temp\cclrFd8J.s 			page 78


 3039 03f6 0100     		.2byte	0x1
 3040 03f8 57       		.byte	0x57
 3041 03f9 00000000 		.4byte	0
 3042 03fd 00000000 		.4byte	0
 3043              	.LLST14:
 3044 0401 00000000 		.4byte	.LVL44
 3045 0405 0C000000 		.4byte	.LVL45
 3046 0409 0200     		.2byte	0x2
 3047 040b 30       		.byte	0x30
 3048 040c 9F       		.byte	0x9f
 3049 040d 10000000 		.4byte	.LVL46
 3050 0411 66000000 		.4byte	.LVL53
 3051 0415 0200     		.2byte	0x2
 3052 0417 30       		.byte	0x30
 3053 0418 9F       		.byte	0x9f
 3054 0419 66000000 		.4byte	.LVL53
 3055 041d 86000000 		.4byte	.LVL55
 3056 0421 0200     		.2byte	0x2
 3057 0423 31       		.byte	0x31
 3058 0424 9F       		.byte	0x9f
 3059 0425 86000000 		.4byte	.LVL55
 3060 0429 A2000000 		.4byte	.LVL60
 3061 042d 0200     		.2byte	0x2
 3062 042f 30       		.byte	0x30
 3063 0430 9F       		.byte	0x9f
 3064 0431 A2000000 		.4byte	.LVL60
 3065 0435 C4000000 		.4byte	.LFE3
 3066 0439 0200     		.2byte	0x2
 3067 043b 31       		.byte	0x31
 3068 043c 9F       		.byte	0x9f
 3069 043d 00000000 		.4byte	0
 3070 0441 00000000 		.4byte	0
 3071              	.LLST15:
 3072 0445 00000000 		.4byte	.LVL44
 3073 0449 0C000000 		.4byte	.LVL45
 3074 044d 0200     		.2byte	0x2
 3075 044f 34       		.byte	0x34
 3076 0450 9F       		.byte	0x9f
 3077 0451 10000000 		.4byte	.LVL46
 3078 0455 66000000 		.4byte	.LVL53
 3079 0459 0200     		.2byte	0x2
 3080 045b 34       		.byte	0x34
 3081 045c 9F       		.byte	0x9f
 3082 045d 66000000 		.4byte	.LVL53
 3083 0461 68000000 		.4byte	.LVL54
 3084 0465 0200     		.2byte	0x2
 3085 0467 31       		.byte	0x31
 3086 0468 9F       		.byte	0x9f
 3087 0469 68000000 		.4byte	.LVL54
 3088 046d 86000000 		.4byte	.LVL55
 3089 0471 0100     		.2byte	0x1
 3090 0473 53       		.byte	0x53
 3091 0474 86000000 		.4byte	.LVL55
 3092 0478 90000000 		.4byte	.LVL58
 3093 047c 0200     		.2byte	0x2
 3094 047e 34       		.byte	0x34
 3095 047f 9F       		.byte	0x9f
ARM GAS  C:\Users\glenn\AppData\Local\Temp\cclrFd8J.s 			page 79


 3096 0480 90000000 		.4byte	.LVL58
 3097 0484 9A000000 		.4byte	.LVL59
 3098 0488 0100     		.2byte	0x1
 3099 048a 53       		.byte	0x53
 3100 048b 9A000000 		.4byte	.LVL59
 3101 048f A2000000 		.4byte	.LVL60
 3102 0493 0200     		.2byte	0x2
 3103 0495 34       		.byte	0x34
 3104 0496 9F       		.byte	0x9f
 3105 0497 A2000000 		.4byte	.LVL60
 3106 049b C4000000 		.4byte	.LFE3
 3107 049f 0400     		.2byte	0x4
 3108 04a1 0A       		.byte	0xa
 3109 04a2 0001     		.2byte	0x100
 3110 04a4 9F       		.byte	0x9f
 3111 04a5 00000000 		.4byte	0
 3112 04a9 00000000 		.4byte	0
 3113              	.LLST16:
 3114 04ad 00000000 		.4byte	.LVL61
 3115 04b1 0C000000 		.4byte	.LVL62
 3116 04b5 0100     		.2byte	0x1
 3117 04b7 50       		.byte	0x50
 3118 04b8 10000000 		.4byte	.LVL63
 3119 04bc 12000000 		.4byte	.LVL64
 3120 04c0 0100     		.2byte	0x1
 3121 04c2 50       		.byte	0x50
 3122 04c3 12000000 		.4byte	.LVL64
 3123 04c7 16000000 		.4byte	.LVL65
 3124 04cb 0400     		.2byte	0x4
 3125 04cd F3       		.byte	0xf3
 3126 04ce 01       		.uleb128 0x1
 3127 04cf 50       		.byte	0x50
 3128 04d0 9F       		.byte	0x9f
 3129 04d1 16000000 		.4byte	.LVL65
 3130 04d5 4A000000 		.4byte	.LVL72
 3131 04d9 0100     		.2byte	0x1
 3132 04db 50       		.byte	0x50
 3133 04dc 4A000000 		.4byte	.LVL72
 3134 04e0 68000000 		.4byte	.LVL73
 3135 04e4 0500     		.2byte	0x5
 3136 04e6 0C       		.byte	0xc
 3137 04e7 40022440 		.4byte	0x40240240
 3138 04eb 88000000 		.4byte	.LVL75
 3139 04ef 8E000000 		.4byte	.LVL76
 3140 04f3 0100     		.2byte	0x1
 3141 04f5 50       		.byte	0x50
 3142 04f6 8E000000 		.4byte	.LVL76
 3143 04fa 98000000 		.4byte	.LVL78
 3144 04fe 0500     		.2byte	0x5
 3145 0500 0C       		.byte	0xc
 3146 0501 40022440 		.4byte	0x40240240
 3147 0505 9A000000 		.4byte	.LVL79
 3148 0509 A2000000 		.4byte	.LVL80
 3149 050d 0500     		.2byte	0x5
 3150 050f 0C       		.byte	0xc
 3151 0510 40022440 		.4byte	0x40240240
 3152 0514 00000000 		.4byte	0
ARM GAS  C:\Users\glenn\AppData\Local\Temp\cclrFd8J.s 			page 80


 3153 0518 00000000 		.4byte	0
 3154              	.LLST17:
 3155 051c 00000000 		.4byte	.LVL61
 3156 0520 0C000000 		.4byte	.LVL62
 3157 0524 0100     		.2byte	0x1
 3158 0526 51       		.byte	0x51
 3159 0527 0C000000 		.4byte	.LVL62
 3160 052b 10000000 		.4byte	.LVL63
 3161 052f 0400     		.2byte	0x4
 3162 0531 F3       		.byte	0xf3
 3163 0532 01       		.uleb128 0x1
 3164 0533 51       		.byte	0x51
 3165 0534 9F       		.byte	0x9f
 3166 0535 10000000 		.4byte	.LVL63
 3167 0539 36000000 		.4byte	.LVL69
 3168 053d 0100     		.2byte	0x1
 3169 053f 51       		.byte	0x51
 3170 0540 36000000 		.4byte	.LVL69
 3171 0544 88000000 		.4byte	.LVL75
 3172 0548 0400     		.2byte	0x4
 3173 054a F3       		.byte	0xf3
 3174 054b 01       		.uleb128 0x1
 3175 054c 51       		.byte	0x51
 3176 054d 9F       		.byte	0x9f
 3177 054e 88000000 		.4byte	.LVL75
 3178 0552 8E000000 		.4byte	.LVL76
 3179 0556 0100     		.2byte	0x1
 3180 0558 51       		.byte	0x51
 3181 0559 8E000000 		.4byte	.LVL76
 3182 055d C4000000 		.4byte	.LFE4
 3183 0561 0400     		.2byte	0x4
 3184 0563 F3       		.byte	0xf3
 3185 0564 01       		.uleb128 0x1
 3186 0565 51       		.byte	0x51
 3187 0566 9F       		.byte	0x9f
 3188 0567 00000000 		.4byte	0
 3189 056b 00000000 		.4byte	0
 3190              	.LLST18:
 3191 056f 00000000 		.4byte	.LVL61
 3192 0573 0C000000 		.4byte	.LVL62
 3193 0577 0200     		.2byte	0x2
 3194 0579 30       		.byte	0x30
 3195 057a 9F       		.byte	0x9f
 3196 057b 10000000 		.4byte	.LVL63
 3197 057f 68000000 		.4byte	.LVL73
 3198 0583 0200     		.2byte	0x2
 3199 0585 30       		.byte	0x30
 3200 0586 9F       		.byte	0x9f
 3201 0587 68000000 		.4byte	.LVL73
 3202 058b 88000000 		.4byte	.LVL75
 3203 058f 0200     		.2byte	0x2
 3204 0591 31       		.byte	0x31
 3205 0592 9F       		.byte	0x9f
 3206 0593 88000000 		.4byte	.LVL75
 3207 0597 A2000000 		.4byte	.LVL80
 3208 059b 0200     		.2byte	0x2
 3209 059d 30       		.byte	0x30
ARM GAS  C:\Users\glenn\AppData\Local\Temp\cclrFd8J.s 			page 81


 3210 059e 9F       		.byte	0x9f
 3211 059f A2000000 		.4byte	.LVL80
 3212 05a3 C4000000 		.4byte	.LFE4
 3213 05a7 0200     		.2byte	0x2
 3214 05a9 31       		.byte	0x31
 3215 05aa 9F       		.byte	0x9f
 3216 05ab 00000000 		.4byte	0
 3217 05af 00000000 		.4byte	0
 3218              	.LLST19:
 3219 05b3 00000000 		.4byte	.LVL61
 3220 05b7 0C000000 		.4byte	.LVL62
 3221 05bb 0200     		.2byte	0x2
 3222 05bd 34       		.byte	0x34
 3223 05be 9F       		.byte	0x9f
 3224 05bf 10000000 		.4byte	.LVL63
 3225 05c3 68000000 		.4byte	.LVL73
 3226 05c7 0200     		.2byte	0x2
 3227 05c9 34       		.byte	0x34
 3228 05ca 9F       		.byte	0x9f
 3229 05cb 68000000 		.4byte	.LVL73
 3230 05cf 6A000000 		.4byte	.LVL74
 3231 05d3 0400     		.2byte	0x4
 3232 05d5 0A       		.byte	0xa
 3233 05d6 0001     		.2byte	0x100
 3234 05d8 9F       		.byte	0x9f
 3235 05d9 6A000000 		.4byte	.LVL74
 3236 05dd 88000000 		.4byte	.LVL75
 3237 05e1 0100     		.2byte	0x1
 3238 05e3 53       		.byte	0x53
 3239 05e4 88000000 		.4byte	.LVL75
 3240 05e8 90000000 		.4byte	.LVL77
 3241 05ec 0200     		.2byte	0x2
 3242 05ee 34       		.byte	0x34
 3243 05ef 9F       		.byte	0x9f
 3244 05f0 90000000 		.4byte	.LVL77
 3245 05f4 9A000000 		.4byte	.LVL79
 3246 05f8 0100     		.2byte	0x1
 3247 05fa 53       		.byte	0x53
 3248 05fb 9A000000 		.4byte	.LVL79
 3249 05ff A2000000 		.4byte	.LVL80
 3250 0603 0200     		.2byte	0x2
 3251 0605 34       		.byte	0x34
 3252 0606 9F       		.byte	0x9f
 3253 0607 A2000000 		.4byte	.LVL80
 3254 060b C4000000 		.4byte	.LFE4
 3255 060f 0200     		.2byte	0x2
 3256 0611 31       		.byte	0x31
 3257 0612 9F       		.byte	0x9f
 3258 0613 00000000 		.4byte	0
 3259 0617 00000000 		.4byte	0
 3260              	.LLST20:
 3261 061b 28000000 		.4byte	.LVL67
 3262 061f 34000000 		.4byte	.LVL68
 3263 0623 0200     		.2byte	0x2
 3264 0625 31       		.byte	0x31
 3265 0626 9F       		.byte	0x9f
 3266 0627 34000000 		.4byte	.LVL68
ARM GAS  C:\Users\glenn\AppData\Local\Temp\cclrFd8J.s 			page 82


 3267 062b 3A000000 		.4byte	.LVL70
 3268 062f 0100     		.2byte	0x1
 3269 0631 53       		.byte	0x53
 3270 0632 3A000000 		.4byte	.LVL70
 3271 0636 48000000 		.4byte	.LVL71
 3272 063a 0200     		.2byte	0x2
 3273 063c 72       		.byte	0x72
 3274 063d 00       		.sleb128 0
 3275 063e 00000000 		.4byte	0
 3276 0642 00000000 		.4byte	0
 3277              	.LLST21:
 3278 0646 00000000 		.4byte	.LVL81
 3279 064a 0E000000 		.4byte	.LVL82
 3280 064e 0200     		.2byte	0x2
 3281 0650 30       		.byte	0x30
 3282 0651 9F       		.byte	0x9f
 3283 0652 10000000 		.4byte	.LVL83
 3284 0656 3E000000 		.4byte	.LVL84
 3285 065a 0200     		.2byte	0x2
 3286 065c 30       		.byte	0x30
 3287 065d 9F       		.byte	0x9f
 3288 065e 3E000000 		.4byte	.LVL84
 3289 0662 60000000 		.4byte	.LVL85
 3290 0666 0200     		.2byte	0x2
 3291 0668 31       		.byte	0x31
 3292 0669 9F       		.byte	0x9f
 3293 066a 60000000 		.4byte	.LVL85
 3294 066e 84000000 		.4byte	.LFE5
 3295 0672 0200     		.2byte	0x2
 3296 0674 30       		.byte	0x30
 3297 0675 9F       		.byte	0x9f
 3298 0676 00000000 		.4byte	0
 3299 067a 00000000 		.4byte	0
 3300              	.LLST22:
 3301 067e 00000000 		.4byte	.LVL81
 3302 0682 0E000000 		.4byte	.LVL82
 3303 0686 0200     		.2byte	0x2
 3304 0688 34       		.byte	0x34
 3305 0689 9F       		.byte	0x9f
 3306 068a 10000000 		.4byte	.LVL83
 3307 068e 3E000000 		.4byte	.LVL84
 3308 0692 0200     		.2byte	0x2
 3309 0694 34       		.byte	0x34
 3310 0695 9F       		.byte	0x9f
 3311 0696 3E000000 		.4byte	.LVL84
 3312 069a 60000000 		.4byte	.LVL85
 3313 069e 0100     		.2byte	0x1
 3314 06a0 50       		.byte	0x50
 3315 06a1 60000000 		.4byte	.LVL85
 3316 06a5 68000000 		.4byte	.LVL86
 3317 06a9 0200     		.2byte	0x2
 3318 06ab 30       		.byte	0x30
 3319 06ac 9F       		.byte	0x9f
 3320 06ad 68000000 		.4byte	.LVL86
 3321 06b1 6C000000 		.4byte	.LVL87
 3322 06b5 0100     		.2byte	0x1
 3323 06b7 50       		.byte	0x50
ARM GAS  C:\Users\glenn\AppData\Local\Temp\cclrFd8J.s 			page 83


 3324 06b8 6C000000 		.4byte	.LVL87
 3325 06bc 84000000 		.4byte	.LFE5
 3326 06c0 0200     		.2byte	0x2
 3327 06c2 34       		.byte	0x34
 3328 06c3 9F       		.byte	0x9f
 3329 06c4 00000000 		.4byte	0
 3330 06c8 00000000 		.4byte	0
 3331              	.LLST23:
 3332 06cc 00000000 		.4byte	.LVL88
 3333 06d0 0C000000 		.4byte	.LVL89
 3334 06d4 0100     		.2byte	0x1
 3335 06d6 50       		.byte	0x50
 3336 06d7 0C000000 		.4byte	.LVL89
 3337 06db 10000000 		.4byte	.LVL90
 3338 06df 0400     		.2byte	0x4
 3339 06e1 F3       		.byte	0xf3
 3340 06e2 01       		.uleb128 0x1
 3341 06e3 50       		.byte	0x50
 3342 06e4 9F       		.byte	0x9f
 3343 06e5 10000000 		.4byte	.LVL90
 3344 06e9 1A000000 		.4byte	.LVL91
 3345 06ed 0100     		.2byte	0x1
 3346 06ef 50       		.byte	0x50
 3347 06f0 1A000000 		.4byte	.LVL91
 3348 06f4 32000000 		.4byte	.LVL92
 3349 06f8 0500     		.2byte	0x5
 3350 06fa 0C       		.byte	0xc
 3351 06fb 40022440 		.4byte	0x40240240
 3352 06ff 32000000 		.4byte	.LVL92
 3353 0703 3E000000 		.4byte	.LVL94
 3354 0707 0400     		.2byte	0x4
 3355 0709 F3       		.byte	0xf3
 3356 070a 01       		.uleb128 0x1
 3357 070b 50       		.byte	0x50
 3358 070c 9F       		.byte	0x9f
 3359 070d 3E000000 		.4byte	.LVL94
 3360 0711 42000000 		.4byte	.LVL95
 3361 0715 0500     		.2byte	0x5
 3362 0717 0C       		.byte	0xc
 3363 0718 40022440 		.4byte	0x40240240
 3364 071c 42000000 		.4byte	.LVL95
 3365 0720 46000000 		.4byte	.LVL96
 3366 0724 0400     		.2byte	0x4
 3367 0726 F3       		.byte	0xf3
 3368 0727 01       		.uleb128 0x1
 3369 0728 50       		.byte	0x50
 3370 0729 9F       		.byte	0x9f
 3371 072a 46000000 		.4byte	.LVL96
 3372 072e 50000000 		.4byte	.LVL97
 3373 0732 0500     		.2byte	0x5
 3374 0734 0C       		.byte	0xc
 3375 0735 40022440 		.4byte	0x40240240
 3376 0739 50000000 		.4byte	.LVL97
 3377 073d 70000000 		.4byte	.LVL99
 3378 0741 0400     		.2byte	0x4
 3379 0743 F3       		.byte	0xf3
 3380 0744 01       		.uleb128 0x1
ARM GAS  C:\Users\glenn\AppData\Local\Temp\cclrFd8J.s 			page 84


 3381 0745 50       		.byte	0x50
 3382 0746 9F       		.byte	0x9f
 3383 0747 70000000 		.4byte	.LVL99
 3384 074b 74000000 		.4byte	.LVL100
 3385 074f 0500     		.2byte	0x5
 3386 0751 0C       		.byte	0xc
 3387 0752 40022440 		.4byte	0x40240240
 3388 0756 74000000 		.4byte	.LVL100
 3389 075a 88000000 		.4byte	.LFE6
 3390 075e 0400     		.2byte	0x4
 3391 0760 F3       		.byte	0xf3
 3392 0761 01       		.uleb128 0x1
 3393 0762 50       		.byte	0x50
 3394 0763 9F       		.byte	0x9f
 3395 0764 00000000 		.4byte	0
 3396 0768 00000000 		.4byte	0
 3397              	.LLST24:
 3398 076c 00000000 		.4byte	.LVL88
 3399 0770 0C000000 		.4byte	.LVL89
 3400 0774 0200     		.2byte	0x2
 3401 0776 30       		.byte	0x30
 3402 0777 9F       		.byte	0x9f
 3403 0778 10000000 		.4byte	.LVL90
 3404 077c 50000000 		.4byte	.LVL97
 3405 0780 0200     		.2byte	0x2
 3406 0782 30       		.byte	0x30
 3407 0783 9F       		.byte	0x9f
 3408 0784 50000000 		.4byte	.LVL97
 3409 0788 70000000 		.4byte	.LVL99
 3410 078c 0200     		.2byte	0x2
 3411 078e 31       		.byte	0x31
 3412 078f 9F       		.byte	0x9f
 3413 0790 70000000 		.4byte	.LVL99
 3414 0794 74000000 		.4byte	.LVL100
 3415 0798 0200     		.2byte	0x2
 3416 079a 30       		.byte	0x30
 3417 079b 9F       		.byte	0x9f
 3418 079c 74000000 		.4byte	.LVL100
 3419 07a0 88000000 		.4byte	.LFE6
 3420 07a4 0200     		.2byte	0x2
 3421 07a6 31       		.byte	0x31
 3422 07a7 9F       		.byte	0x9f
 3423 07a8 00000000 		.4byte	0
 3424 07ac 00000000 		.4byte	0
 3425              	.LLST25:
 3426 07b0 00000000 		.4byte	.LVL88
 3427 07b4 0C000000 		.4byte	.LVL89
 3428 07b8 0200     		.2byte	0x2
 3429 07ba 34       		.byte	0x34
 3430 07bb 9F       		.byte	0x9f
 3431 07bc 10000000 		.4byte	.LVL90
 3432 07c0 32000000 		.4byte	.LVL92
 3433 07c4 0200     		.2byte	0x2
 3434 07c6 34       		.byte	0x34
 3435 07c7 9F       		.byte	0x9f
 3436 07c8 32000000 		.4byte	.LVL92
 3437 07cc 34000000 		.4byte	.LVL93
ARM GAS  C:\Users\glenn\AppData\Local\Temp\cclrFd8J.s 			page 85


 3438 07d0 0200     		.2byte	0x2
 3439 07d2 32       		.byte	0x32
 3440 07d3 9F       		.byte	0x9f
 3441 07d4 34000000 		.4byte	.LVL93
 3442 07d8 3E000000 		.4byte	.LVL94
 3443 07dc 0100     		.2byte	0x1
 3444 07de 53       		.byte	0x53
 3445 07df 3E000000 		.4byte	.LVL94
 3446 07e3 42000000 		.4byte	.LVL95
 3447 07e7 0200     		.2byte	0x2
 3448 07e9 34       		.byte	0x34
 3449 07ea 9F       		.byte	0x9f
 3450 07eb 42000000 		.4byte	.LVL95
 3451 07ef 46000000 		.4byte	.LVL96
 3452 07f3 0200     		.2byte	0x2
 3453 07f5 30       		.byte	0x30
 3454 07f6 9F       		.byte	0x9f
 3455 07f7 46000000 		.4byte	.LVL96
 3456 07fb 50000000 		.4byte	.LVL97
 3457 07ff 0200     		.2byte	0x2
 3458 0801 34       		.byte	0x34
 3459 0802 9F       		.byte	0x9f
 3460 0803 50000000 		.4byte	.LVL97
 3461 0807 52000000 		.4byte	.LVL98
 3462 080b 0400     		.2byte	0x4
 3463 080d 0A       		.byte	0xa
 3464 080e 0001     		.2byte	0x100
 3465 0810 9F       		.byte	0x9f
 3466 0811 52000000 		.4byte	.LVL98
 3467 0815 70000000 		.4byte	.LVL99
 3468 0819 0100     		.2byte	0x1
 3469 081b 53       		.byte	0x53
 3470 081c 70000000 		.4byte	.LVL99
 3471 0820 74000000 		.4byte	.LVL100
 3472 0824 0200     		.2byte	0x2
 3473 0826 34       		.byte	0x34
 3474 0827 9F       		.byte	0x9f
 3475 0828 74000000 		.4byte	.LVL100
 3476 082c 88000000 		.4byte	.LFE6
 3477 0830 0200     		.2byte	0x2
 3478 0832 31       		.byte	0x31
 3479 0833 9F       		.byte	0x9f
 3480 0834 00000000 		.4byte	0
 3481 0838 00000000 		.4byte	0
 3482              	.LLST26:
 3483 083c 00000000 		.4byte	.LVL101
 3484 0840 10000000 		.4byte	.LVL103
 3485 0844 0100     		.2byte	0x1
 3486 0846 50       		.byte	0x50
 3487 0847 10000000 		.4byte	.LVL103
 3488 084b 12000000 		.4byte	.LVL104
 3489 084f 0400     		.2byte	0x4
 3490 0851 F3       		.byte	0xf3
 3491 0852 01       		.uleb128 0x1
 3492 0853 50       		.byte	0x50
 3493 0854 9F       		.byte	0x9f
 3494 0855 12000000 		.4byte	.LVL104
ARM GAS  C:\Users\glenn\AppData\Local\Temp\cclrFd8J.s 			page 86


 3495 0859 88000000 		.4byte	.LFE7
 3496 085d 0100     		.2byte	0x1
 3497 085f 50       		.byte	0x50
 3498 0860 00000000 		.4byte	0
 3499 0864 00000000 		.4byte	0
 3500              	.LLST27:
 3501 0868 00000000 		.4byte	.LVL101
 3502 086c 0E000000 		.4byte	.LVL102
 3503 0870 0300     		.2byte	0x3
 3504 0872 09       		.byte	0x9
 3505 0873 FF       		.byte	0xff
 3506 0874 9F       		.byte	0x9f
 3507 0875 0E000000 		.4byte	.LVL102
 3508 0879 12000000 		.4byte	.LVL104
 3509 087d 0100     		.2byte	0x1
 3510 087f 53       		.byte	0x53
 3511 0880 12000000 		.4byte	.LVL104
 3512 0884 58000000 		.4byte	.LVL105
 3513 0888 0300     		.2byte	0x3
 3514 088a 09       		.byte	0x9
 3515 088b FF       		.byte	0xff
 3516 088c 9F       		.byte	0x9f
 3517 088d 58000000 		.4byte	.LVL105
 3518 0891 88000000 		.4byte	.LFE7
 3519 0895 0100     		.2byte	0x1
 3520 0897 53       		.byte	0x53
 3521 0898 00000000 		.4byte	0
 3522 089c 00000000 		.4byte	0
 3523              	.LLST28:
 3524 08a0 10000000 		.4byte	.LVL111
 3525 08a4 1C000000 		.4byte	.LVL112
 3526 08a8 0700     		.2byte	0x7
 3527 08aa 70       		.byte	0x70
 3528 08ab 00       		.sleb128 0
 3529 08ac 0A       		.byte	0xa
 3530 08ad FFFF     		.2byte	0xffff
 3531 08af 1A       		.byte	0x1a
 3532 08b0 9F       		.byte	0x9f
 3533 08b1 1C000000 		.4byte	.LVL112
 3534 08b5 24000000 		.4byte	.LVL114
 3535 08b9 0100     		.2byte	0x1
 3536 08bb 54       		.byte	0x54
 3537 08bc 24000000 		.4byte	.LVL114
 3538 08c0 30000000 		.4byte	.LFE12
 3539 08c4 0100     		.2byte	0x1
 3540 08c6 50       		.byte	0x50
 3541 08c7 00000000 		.4byte	0
 3542 08cb 00000000 		.4byte	0
 3543              	.LLST29:
 3544 08cf 12000000 		.4byte	.LVL116
 3545 08d3 1A000000 		.4byte	.LVL118
 3546 08d7 0700     		.2byte	0x7
 3547 08d9 74       		.byte	0x74
 3548 08da 00       		.sleb128 0
 3549 08db 0A       		.byte	0xa
 3550 08dc FFFF     		.2byte	0xffff
 3551 08de 1A       		.byte	0x1a
ARM GAS  C:\Users\glenn\AppData\Local\Temp\cclrFd8J.s 			page 87


 3552 08df 9F       		.byte	0x9f
 3553 08e0 1A000000 		.4byte	.LVL118
 3554 08e4 20000000 		.4byte	.LFE13
 3555 08e8 0700     		.2byte	0x7
 3556 08ea 70       		.byte	0x70
 3557 08eb 00       		.sleb128 0
 3558 08ec 0A       		.byte	0xa
 3559 08ed FFFF     		.2byte	0xffff
 3560 08ef 1A       		.byte	0x1a
 3561 08f0 9F       		.byte	0x9f
 3562 08f1 00000000 		.4byte	0
 3563 08f5 00000000 		.4byte	0
 3564              	.LLST30:
 3565 08f9 00000000 		.4byte	.LVL119
 3566 08fd 0C000000 		.4byte	.LVL120
 3567 0901 0200     		.2byte	0x2
 3568 0903 31       		.byte	0x31
 3569 0904 9F       		.byte	0x9f
 3570 0905 0C000000 		.4byte	.LVL120
 3571 0909 1C000000 		.4byte	.LFE14
 3572 090d 0100     		.2byte	0x1
 3573 090f 53       		.byte	0x53
 3574 0910 00000000 		.4byte	0
 3575 0914 00000000 		.4byte	0
 3576              		.section	.debug_aranges,"",%progbits
 3577 0000 84000000 		.4byte	0x84
 3578 0004 0200     		.2byte	0x2
 3579 0006 00000000 		.4byte	.Ldebug_info0
 3580 000a 04       		.byte	0x4
 3581 000b 00       		.byte	0
 3582 000c 0000     		.2byte	0
 3583 000e 0000     		.2byte	0
 3584 0010 00000000 		.4byte	.LFB1
 3585 0014 FC000000 		.4byte	.LFE1-.LFB1
 3586 0018 00000000 		.4byte	.LFB2
 3587 001c 10010000 		.4byte	.LFE2-.LFB2
 3588 0020 00000000 		.4byte	.LFB3
 3589 0024 C4000000 		.4byte	.LFE3-.LFB3
 3590 0028 00000000 		.4byte	.LFB4
 3591 002c C4000000 		.4byte	.LFE4-.LFB4
 3592 0030 00000000 		.4byte	.LFB5
 3593 0034 84000000 		.4byte	.LFE5-.LFB5
 3594 0038 00000000 		.4byte	.LFB6
 3595 003c 88000000 		.4byte	.LFE6-.LFB6
 3596 0040 00000000 		.4byte	.LFB7
 3597 0044 88000000 		.4byte	.LFE7-.LFB7
 3598 0048 00000000 		.4byte	.LFB8
 3599 004c 0C000000 		.4byte	.LFE8-.LFB8
 3600 0050 00000000 		.4byte	.LFB9
 3601 0054 0C000000 		.4byte	.LFE9-.LFB9
 3602 0058 00000000 		.4byte	.LFB10
 3603 005c 28000000 		.4byte	.LFE10-.LFB10
 3604 0060 00000000 		.4byte	.LFB11
 3605 0064 28000000 		.4byte	.LFE11-.LFB11
 3606 0068 00000000 		.4byte	.LFB12
 3607 006c 30000000 		.4byte	.LFE12-.LFB12
 3608 0070 00000000 		.4byte	.LFB13
ARM GAS  C:\Users\glenn\AppData\Local\Temp\cclrFd8J.s 			page 88


 3609 0074 20000000 		.4byte	.LFE13-.LFB13
 3610 0078 00000000 		.4byte	.LFB14
 3611 007c 1C000000 		.4byte	.LFE14-.LFB14
 3612 0080 00000000 		.4byte	0
 3613 0084 00000000 		.4byte	0
 3614              		.section	.debug_ranges,"",%progbits
 3615              	.Ldebug_ranges0:
 3616 0000 8C000000 		.4byte	.LBB8
 3617 0004 9A000000 		.4byte	.LBE8
 3618 0008 9C000000 		.4byte	.LBB11
 3619 000c 9E000000 		.4byte	.LBE11
 3620 0010 00000000 		.4byte	0
 3621 0014 00000000 		.4byte	0
 3622 0018 8C000000 		.4byte	.LBB12
 3623 001c 9A000000 		.4byte	.LBE12
 3624 0020 9C000000 		.4byte	.LBB15
 3625 0024 9E000000 		.4byte	.LBE15
 3626 0028 00000000 		.4byte	0
 3627 002c 00000000 		.4byte	0
 3628 0030 28000000 		.4byte	.LBB16
 3629 0034 34000000 		.4byte	.LBE16
 3630 0038 36000000 		.4byte	.LBB19
 3631 003c 3A000000 		.4byte	.LBE19
 3632 0040 00000000 		.4byte	0
 3633 0044 00000000 		.4byte	0
 3634 0048 00000000 		.4byte	.LFB1
 3635 004c FC000000 		.4byte	.LFE1
 3636 0050 00000000 		.4byte	.LFB2
 3637 0054 10010000 		.4byte	.LFE2
 3638 0058 00000000 		.4byte	.LFB3
 3639 005c C4000000 		.4byte	.LFE3
 3640 0060 00000000 		.4byte	.LFB4
 3641 0064 C4000000 		.4byte	.LFE4
 3642 0068 00000000 		.4byte	.LFB5
 3643 006c 84000000 		.4byte	.LFE5
 3644 0070 00000000 		.4byte	.LFB6
 3645 0074 88000000 		.4byte	.LFE6
 3646 0078 00000000 		.4byte	.LFB7
 3647 007c 88000000 		.4byte	.LFE7
 3648 0080 00000000 		.4byte	.LFB8
 3649 0084 0C000000 		.4byte	.LFE8
 3650 0088 00000000 		.4byte	.LFB9
 3651 008c 0C000000 		.4byte	.LFE9
 3652 0090 00000000 		.4byte	.LFB10
 3653 0094 28000000 		.4byte	.LFE10
 3654 0098 00000000 		.4byte	.LFB11
 3655 009c 28000000 		.4byte	.LFE11
 3656 00a0 00000000 		.4byte	.LFB12
 3657 00a4 30000000 		.4byte	.LFE12
 3658 00a8 00000000 		.4byte	.LFB13
 3659 00ac 20000000 		.4byte	.LFE13
 3660 00b0 00000000 		.4byte	.LFB14
 3661 00b4 1C000000 		.4byte	.LFE14
 3662 00b8 00000000 		.4byte	0
 3663 00bc 00000000 		.4byte	0
 3664              		.section	.debug_line,"",%progbits
 3665              	.Ldebug_line0:
ARM GAS  C:\Users\glenn\AppData\Local\Temp\cclrFd8J.s 			page 89


 3666 0000 56030000 		.section	.debug_str,"MS",%progbits,1
 3666      02006B00 
 3666      00000201 
 3666      FB0E0D00 
 3666      01010101 
 3667              	.LASF15:
 3668 0000 72656733 		.ascii	"reg32\000"
 3668      3200
 3669              	.LASF34:
 3670 0006 4932435F 		.ascii	"I2C_1_I2CMasterGetWriteBufSize\000"
 3670      315F4932 
 3670      434D6173 
 3670      74657247 
 3670      65745772 
 3671              	.LASF38:
 3672 0025 73746174 		.ascii	"status\000"
 3672      757300
 3673              	.LASF45:
 3674 002c 4932435F 		.ascii	"I2C_1_mstrRdBufIndex\000"
 3674      315F6D73 
 3674      74725264 
 3674      42756649 
 3674      6E646578 
 3675              	.LASF42:
 3676 0041 4932435F 		.ascii	"I2C_1_mstrControl\000"
 3676      315F6D73 
 3676      7472436F 
 3676      6E74726F 
 3676      6C00
 3677              	.LASF46:
 3678 0053 4932435F 		.ascii	"I2C_1_mstrWrBufPtr\000"
 3678      315F6D73 
 3678      74725772 
 3678      42756650 
 3678      747200
 3679              	.LASF3:
 3680 0066 73686F72 		.ascii	"short unsigned int\000"
 3680      7420756E 
 3680      7369676E 
 3680      65642069 
 3680      6E7400
 3681              	.LASF47:
 3682 0079 4932435F 		.ascii	"I2C_1_mstrWrBufSize\000"
 3682      315F6D73 
 3682      74725772 
 3682      42756653 
 3682      697A6500 
 3683              	.LASF41:
 3684 008d 4932435F 		.ascii	"I2C_1_mstrStatus\000"
 3684      315F6D73 
 3684      74725374 
 3684      61747573 
 3684      00
 3685              	.LASF26:
 3686 009e 72657365 		.ascii	"resetIp\000"
 3686      74497000 
 3687              	.LASF35:
ARM GAS  C:\Users\glenn\AppData\Local\Temp\cclrFd8J.s 			page 90


 3688 00a6 4932435F 		.ascii	"I2C_1_I2CMasterClearReadBuf\000"
 3688      315F4932 
 3688      434D6173 
 3688      74657243 
 3688      6C656172 
 3689              	.LASF12:
 3690 00c2 666C6F61 		.ascii	"float\000"
 3690      7400
 3691              	.LASF52:
 3692 00c8 474E5520 		.ascii	"GNU C 4.9.3 20150303 (release) [ARM/embedded-4_9-br"
 3692      4320342E 
 3692      392E3320 
 3692      32303135 
 3692      30333033 
 3693 00fb 616E6368 		.ascii	"anch revision 221220] -mcpu=cortex-m0 -mthumb -g -O"
 3693      20726576 
 3693      6973696F 
 3693      6E203232 
 3693      31323230 
 3694 012e 32202D66 		.ascii	"2 -ffunction-sections -finline-functions -ffat-lto-"
 3694      66756E63 
 3694      74696F6E 
 3694      2D736563 
 3694      74696F6E 
 3695 0161 6F626A65 		.ascii	"objects\000"
 3695      63747300 
 3696              	.LASF1:
 3697 0169 756E7369 		.ascii	"unsigned char\000"
 3697      676E6564 
 3697      20636861 
 3697      7200
 3698              	.LASF29:
 3699 0177 4932435F 		.ascii	"I2C_1_I2CMasterWriteByte\000"
 3699      315F4932 
 3699      434D6173 
 3699      74657257 
 3699      72697465 
 3700              	.LASF5:
 3701 0190 6C6F6E67 		.ascii	"long unsigned int\000"
 3701      20756E73 
 3701      69676E65 
 3701      6420696E 
 3701      7400
 3702              	.LASF39:
 3703 01a2 4932435F 		.ascii	"I2C_1_I2CMasterClearStatus\000"
 3703      315F4932 
 3703      434D6173 
 3703      74657243 
 3703      6C656172 
 3704              	.LASF9:
 3705 01bd 75696E74 		.ascii	"uint8\000"
 3705      3800
 3706              	.LASF32:
 3707 01c3 61636B4E 		.ascii	"ackNack\000"
 3707      61636B00 
 3708              	.LASF23:
 3709 01cb 65727253 		.ascii	"errStatus\000"
ARM GAS  C:\Users\glenn\AppData\Local\Temp\cclrFd8J.s 			page 91


 3709      74617475 
 3709      7300
 3710              	.LASF13:
 3711 01d5 646F7562 		.ascii	"double\000"
 3711      6C6500
 3712              	.LASF36:
 3713 01dc 4932435F 		.ascii	"I2C_1_I2CMasterClearWriteBuf\000"
 3713      315F4932 
 3713      434D6173 
 3713      74657243 
 3713      6C656172 
 3714              	.LASF25:
 3715 01f9 62697452 		.ascii	"bitRnW\000"
 3715      6E5700
 3716              	.LASF50:
 3717 0200 4932435F 		.ascii	"I2C_1_I2CReStartGeneration\000"
 3717      315F4932 
 3717      43526553 
 3717      74617274 
 3717      47656E65 
 3718              	.LASF51:
 3719 021b 4379496E 		.ascii	"CyIntEnable\000"
 3719      74456E61 
 3719      626C6500 
 3720              	.LASF49:
 3721 0227 4932435F 		.ascii	"I2C_1_mstrWrBufIndexTmp\000"
 3721      315F6D73 
 3721      74725772 
 3721      42756649 
 3721      6E646578 
 3722              	.LASF10:
 3723 023f 75696E74 		.ascii	"uint16\000"
 3723      313600
 3724              	.LASF37:
 3725 0246 4932435F 		.ascii	"I2C_1_I2CMasterStatus\000"
 3725      315F4932 
 3725      434D6173 
 3725      74657253 
 3725      74617475 
 3726              	.LASF22:
 3727 025c 72644461 		.ascii	"rdData\000"
 3727      746100
 3728              	.LASF11:
 3729 0263 75696E74 		.ascii	"uint32\000"
 3729      333200
 3730              	.LASF40:
 3731 026a 4932435F 		.ascii	"I2C_1_state\000"
 3731      315F7374 
 3731      61746500 
 3732              	.LASF8:
 3733 0276 756E7369 		.ascii	"unsigned int\000"
 3733      676E6564 
 3733      20696E74 
 3733      00
 3734              	.LASF18:
 3735 0283 77724461 		.ascii	"wrData\000"
 3735      746100
ARM GAS  C:\Users\glenn\AppData\Local\Temp\cclrFd8J.s 			page 92


 3736              	.LASF7:
 3737 028a 6C6F6E67 		.ascii	"long long unsigned int\000"
 3737      206C6F6E 
 3737      6720756E 
 3737      7369676E 
 3737      65642069 
 3738              	.LASF24:
 3739 02a1 4932435F 		.ascii	"I2C_1_I2CMasterSendStart\000"
 3739      315F4932 
 3739      434D6173 
 3739      74657253 
 3739      656E6453 
 3740              	.LASF19:
 3741 02ba 6D6F6465 		.ascii	"mode\000"
 3741      00
 3742              	.LASF17:
 3743 02bf 736C6176 		.ascii	"slaveAddress\000"
 3743      65416464 
 3743      72657373 
 3743      00
 3744              	.LASF44:
 3745 02cc 4932435F 		.ascii	"I2C_1_mstrRdBufSize\000"
 3745      315F6D73 
 3745      74725264 
 3745      42756653 
 3745      697A6500 
 3746              	.LASF53:
 3747 02e0 47656E65 		.ascii	"Generated_Source\\PSoC4\\I2C_1_I2C_MASTER.c\000"
 3747      72617465 
 3747      645F536F 
 3747      75726365 
 3747      5C50536F 
 3748              	.LASF31:
 3749 030a 4932435F 		.ascii	"I2C_1_I2CMasterReadByte\000"
 3749      315F4932 
 3749      434D6173 
 3749      74657252 
 3749      65616442 
 3750              	.LASF16:
 3751 0322 73697A65 		.ascii	"sizetype\000"
 3751      74797065 
 3751      00
 3752              	.LASF6:
 3753 032b 6C6F6E67 		.ascii	"long long int\000"
 3753      206C6F6E 
 3753      6720696E 
 3753      7400
 3754              	.LASF28:
 3755 0339 4932435F 		.ascii	"I2C_1_I2CMasterSendStop\000"
 3755      315F4932 
 3755      434D6173 
 3755      74657253 
 3755      656E6453 
 3756              	.LASF14:
 3757 0351 63686172 		.ascii	"char\000"
 3757      00
 3758              	.LASF43:
ARM GAS  C:\Users\glenn\AppData\Local\Temp\cclrFd8J.s 			page 93


 3759 0356 4932435F 		.ascii	"I2C_1_mstrRdBufPtr\000"
 3759      315F6D73 
 3759      74725264 
 3759      42756650 
 3759      747200
 3760              	.LASF55:
 3761 0369 4379496E 		.ascii	"CyIntDisable\000"
 3761      74446973 
 3761      61626C65 
 3761      00
 3762              	.LASF33:
 3763 0376 4932435F 		.ascii	"I2C_1_I2CMasterGetReadBufSize\000"
 3763      315F4932 
 3763      434D6173 
 3763      74657247 
 3763      65745265 
 3764              	.LASF2:
 3765 0394 73686F72 		.ascii	"short int\000"
 3765      7420696E 
 3765      7400
 3766              	.LASF30:
 3767 039e 74686542 		.ascii	"theByte\000"
 3767      79746500 
 3768              	.LASF48:
 3769 03a6 4932435F 		.ascii	"I2C_1_mstrWrBufIndex\000"
 3769      315F6D73 
 3769      74725772 
 3769      42756649 
 3769      6E646578 
 3770              	.LASF4:
 3771 03bb 6C6F6E67 		.ascii	"long int\000"
 3771      20696E74 
 3771      00
 3772              	.LASF54:
 3773 03c4 433A5C55 		.ascii	"C:\\Users\\glenn\\OneDrive\\PSOC\\moisture_sensor_4"
 3773      73657273 
 3773      5C676C65 
 3773      6E6E5C4F 
 3773      6E654472 
 3774 03f2 6D5C4D6F 		.ascii	"m\\Moisture_Sensor\\Moisture_Sensor.cydsn\000"
 3774      69737475 
 3774      72655F53 
 3774      656E736F 
 3774      725C4D6F 
 3775              	.LASF0:
 3776 041a 7369676E 		.ascii	"signed char\000"
 3776      65642063 
 3776      68617200 
 3777              	.LASF27:
 3778 0426 4932435F 		.ascii	"I2C_1_I2CMasterSendRestart\000"
 3778      315F4932 
 3778      434D6173 
 3778      74657253 
 3778      656E6452 
 3779              	.LASF21:
 3780 0441 4932435F 		.ascii	"I2C_1_I2CMasterReadBuf\000"
 3780      315F4932 
ARM GAS  C:\Users\glenn\AppData\Local\Temp\cclrFd8J.s 			page 94


 3780      434D6173 
 3780      74657252 
 3780      65616442 
 3781              	.LASF20:
 3782 0458 4932435F 		.ascii	"I2C_1_I2CMasterWriteBuf\000"
 3782      315F4932 
 3782      434D6173 
 3782      74657257 
 3782      72697465 
 3783              		.ident	"GCC: (GNU Tools for ARM Embedded Processors) 4.9.3 20150303 (release) [ARM/embedded-4_9-br
