ARM GAS  C:\Users\glenn\AppData\Local\Temp\ccN5T1Ua.s 			page 1


   1              		.cpu cortex-m0
   2              		.fpu softvfp
   3              		.eabi_attribute 20, 1
   4              		.eabi_attribute 21, 1
   5              		.eabi_attribute 23, 3
   6              		.eabi_attribute 24, 1
   7              		.eabi_attribute 25, 1
   8              		.eabi_attribute 26, 1
   9              		.eabi_attribute 30, 2
  10              		.eabi_attribute 34, 0
  11              		.eabi_attribute 18, 4
  12              		.code	16
  13              		.file	"I2C_1.c"
  14              		.text
  15              	.Ltext0:
  16              		.cfi_sections	.debug_frame
  17              		.section	.text.I2C_1_Init,"ax",%progbits
  18              		.align	2
  19              		.global	I2C_1_Init
  20              		.code	16
  21              		.thumb_func
  22              		.type	I2C_1_Init, %function
  23              	I2C_1_Init:
  24              	.LFB1:
  25              		.file 1 "Generated_Source\\PSoC4\\I2C_1.c"
   1:Generated_Source\PSoC4/I2C_1.c **** /***************************************************************************//**
   2:Generated_Source\PSoC4/I2C_1.c **** * \file I2C_1.c
   3:Generated_Source\PSoC4/I2C_1.c **** * \version 3.20
   4:Generated_Source\PSoC4/I2C_1.c **** *
   5:Generated_Source\PSoC4/I2C_1.c **** * \brief
   6:Generated_Source\PSoC4/I2C_1.c **** *  This file provides the source code to the API for the SCB Component.
   7:Generated_Source\PSoC4/I2C_1.c **** *
   8:Generated_Source\PSoC4/I2C_1.c **** * Note:
   9:Generated_Source\PSoC4/I2C_1.c **** *
  10:Generated_Source\PSoC4/I2C_1.c **** *******************************************************************************
  11:Generated_Source\PSoC4/I2C_1.c **** * \copyright
  12:Generated_Source\PSoC4/I2C_1.c **** * Copyright 2013-2016, Cypress Semiconductor Corporation.  All rights reserved.
  13:Generated_Source\PSoC4/I2C_1.c **** * You may use this file only in accordance with the license, terms, conditions,
  14:Generated_Source\PSoC4/I2C_1.c **** * disclaimers, and limitations in the end user license agreement accompanying
  15:Generated_Source\PSoC4/I2C_1.c **** * the software package with which this file was provided.
  16:Generated_Source\PSoC4/I2C_1.c **** *******************************************************************************/
  17:Generated_Source\PSoC4/I2C_1.c **** 
  18:Generated_Source\PSoC4/I2C_1.c **** #include "I2C_1_PVT.h"
  19:Generated_Source\PSoC4/I2C_1.c **** 
  20:Generated_Source\PSoC4/I2C_1.c **** #if (I2C_1_SCB_MODE_I2C_INC)
  21:Generated_Source\PSoC4/I2C_1.c ****     #include "I2C_1_I2C_PVT.h"
  22:Generated_Source\PSoC4/I2C_1.c **** #endif /* (I2C_1_SCB_MODE_I2C_INC) */
  23:Generated_Source\PSoC4/I2C_1.c **** 
  24:Generated_Source\PSoC4/I2C_1.c **** #if (I2C_1_SCB_MODE_EZI2C_INC)
  25:Generated_Source\PSoC4/I2C_1.c ****     #include "I2C_1_EZI2C_PVT.h"
  26:Generated_Source\PSoC4/I2C_1.c **** #endif /* (I2C_1_SCB_MODE_EZI2C_INC) */
  27:Generated_Source\PSoC4/I2C_1.c **** 
  28:Generated_Source\PSoC4/I2C_1.c **** #if (I2C_1_SCB_MODE_SPI_INC || I2C_1_SCB_MODE_UART_INC)
  29:Generated_Source\PSoC4/I2C_1.c ****     #include "I2C_1_SPI_UART_PVT.h"
  30:Generated_Source\PSoC4/I2C_1.c **** #endif /* (I2C_1_SCB_MODE_SPI_INC || I2C_1_SCB_MODE_UART_INC) */
  31:Generated_Source\PSoC4/I2C_1.c **** 
  32:Generated_Source\PSoC4/I2C_1.c **** 
ARM GAS  C:\Users\glenn\AppData\Local\Temp\ccN5T1Ua.s 			page 2


  33:Generated_Source\PSoC4/I2C_1.c **** /***************************************
  34:Generated_Source\PSoC4/I2C_1.c **** *    Run Time Configuration Vars
  35:Generated_Source\PSoC4/I2C_1.c **** ***************************************/
  36:Generated_Source\PSoC4/I2C_1.c **** 
  37:Generated_Source\PSoC4/I2C_1.c **** /* Stores internal component configuration for Unconfigured mode */
  38:Generated_Source\PSoC4/I2C_1.c **** #if (I2C_1_SCB_MODE_UNCONFIG_CONST_CFG)
  39:Generated_Source\PSoC4/I2C_1.c ****     /* Common configuration variables */
  40:Generated_Source\PSoC4/I2C_1.c ****     uint8 I2C_1_scbMode = I2C_1_SCB_MODE_UNCONFIG;
  41:Generated_Source\PSoC4/I2C_1.c ****     uint8 I2C_1_scbEnableWake;
  42:Generated_Source\PSoC4/I2C_1.c ****     uint8 I2C_1_scbEnableIntr;
  43:Generated_Source\PSoC4/I2C_1.c **** 
  44:Generated_Source\PSoC4/I2C_1.c ****     /* I2C configuration variables */
  45:Generated_Source\PSoC4/I2C_1.c ****     uint8 I2C_1_mode;
  46:Generated_Source\PSoC4/I2C_1.c ****     uint8 I2C_1_acceptAddr;
  47:Generated_Source\PSoC4/I2C_1.c **** 
  48:Generated_Source\PSoC4/I2C_1.c ****     /* SPI/UART configuration variables */
  49:Generated_Source\PSoC4/I2C_1.c ****     volatile uint8 * I2C_1_rxBuffer;
  50:Generated_Source\PSoC4/I2C_1.c ****     uint8  I2C_1_rxDataBits;
  51:Generated_Source\PSoC4/I2C_1.c ****     uint32 I2C_1_rxBufferSize;
  52:Generated_Source\PSoC4/I2C_1.c **** 
  53:Generated_Source\PSoC4/I2C_1.c ****     volatile uint8 * I2C_1_txBuffer;
  54:Generated_Source\PSoC4/I2C_1.c ****     uint8  I2C_1_txDataBits;
  55:Generated_Source\PSoC4/I2C_1.c ****     uint32 I2C_1_txBufferSize;
  56:Generated_Source\PSoC4/I2C_1.c **** 
  57:Generated_Source\PSoC4/I2C_1.c ****     /* EZI2C configuration variables */
  58:Generated_Source\PSoC4/I2C_1.c ****     uint8 I2C_1_numberOfAddr;
  59:Generated_Source\PSoC4/I2C_1.c ****     uint8 I2C_1_subAddrSize;
  60:Generated_Source\PSoC4/I2C_1.c **** #endif /* (I2C_1_SCB_MODE_UNCONFIG_CONST_CFG) */
  61:Generated_Source\PSoC4/I2C_1.c **** 
  62:Generated_Source\PSoC4/I2C_1.c **** 
  63:Generated_Source\PSoC4/I2C_1.c **** /***************************************
  64:Generated_Source\PSoC4/I2C_1.c **** *     Common SCB Vars
  65:Generated_Source\PSoC4/I2C_1.c **** ***************************************/
  66:Generated_Source\PSoC4/I2C_1.c **** /**
  67:Generated_Source\PSoC4/I2C_1.c **** * \addtogroup group_general
  68:Generated_Source\PSoC4/I2C_1.c **** * \{
  69:Generated_Source\PSoC4/I2C_1.c **** */
  70:Generated_Source\PSoC4/I2C_1.c **** 
  71:Generated_Source\PSoC4/I2C_1.c **** /** I2C_1_initVar indicates whether the I2C_1 
  72:Generated_Source\PSoC4/I2C_1.c **** *  component has been initialized. The variable is initialized to 0 
  73:Generated_Source\PSoC4/I2C_1.c **** *  and set to 1 the first time SCB_Start() is called. This allows 
  74:Generated_Source\PSoC4/I2C_1.c **** *  the component to restart without reinitialization after the first 
  75:Generated_Source\PSoC4/I2C_1.c **** *  call to the I2C_1_Start() routine.
  76:Generated_Source\PSoC4/I2C_1.c **** *
  77:Generated_Source\PSoC4/I2C_1.c **** *  If re-initialization of the component is required, then the 
  78:Generated_Source\PSoC4/I2C_1.c **** *  I2C_1_Init() function can be called before the 
  79:Generated_Source\PSoC4/I2C_1.c **** *  I2C_1_Start() or I2C_1_Enable() function.
  80:Generated_Source\PSoC4/I2C_1.c **** */
  81:Generated_Source\PSoC4/I2C_1.c **** uint8 I2C_1_initVar = 0u;
  82:Generated_Source\PSoC4/I2C_1.c **** 
  83:Generated_Source\PSoC4/I2C_1.c **** 
  84:Generated_Source\PSoC4/I2C_1.c **** #if (! (I2C_1_SCB_MODE_I2C_CONST_CFG || \
  85:Generated_Source\PSoC4/I2C_1.c ****         I2C_1_SCB_MODE_EZI2C_CONST_CFG))
  86:Generated_Source\PSoC4/I2C_1.c ****     /** This global variable stores TX interrupt sources after 
  87:Generated_Source\PSoC4/I2C_1.c ****     * I2C_1_Stop() is called. Only these TX interrupt sources 
  88:Generated_Source\PSoC4/I2C_1.c ****     * will be restored on a subsequent I2C_1_Enable() call.
  89:Generated_Source\PSoC4/I2C_1.c ****     */
ARM GAS  C:\Users\glenn\AppData\Local\Temp\ccN5T1Ua.s 			page 3


  90:Generated_Source\PSoC4/I2C_1.c ****     uint16 I2C_1_IntrTxMask = 0u;
  91:Generated_Source\PSoC4/I2C_1.c **** #endif /* (! (I2C_1_SCB_MODE_I2C_CONST_CFG || \
  92:Generated_Source\PSoC4/I2C_1.c ****               I2C_1_SCB_MODE_EZI2C_CONST_CFG)) */
  93:Generated_Source\PSoC4/I2C_1.c **** /** \} globals */
  94:Generated_Source\PSoC4/I2C_1.c **** 
  95:Generated_Source\PSoC4/I2C_1.c **** #if (I2C_1_SCB_IRQ_INTERNAL)
  96:Generated_Source\PSoC4/I2C_1.c **** #if !defined (CY_REMOVE_I2C_1_CUSTOM_INTR_HANDLER)
  97:Generated_Source\PSoC4/I2C_1.c ****     void (*I2C_1_customIntrHandler)(void) = NULL;
  98:Generated_Source\PSoC4/I2C_1.c **** #endif /* !defined (CY_REMOVE_I2C_1_CUSTOM_INTR_HANDLER) */
  99:Generated_Source\PSoC4/I2C_1.c **** #endif /* (I2C_1_SCB_IRQ_INTERNAL) */
 100:Generated_Source\PSoC4/I2C_1.c **** 
 101:Generated_Source\PSoC4/I2C_1.c **** 
 102:Generated_Source\PSoC4/I2C_1.c **** /***************************************
 103:Generated_Source\PSoC4/I2C_1.c **** *    Private Function Prototypes
 104:Generated_Source\PSoC4/I2C_1.c **** ***************************************/
 105:Generated_Source\PSoC4/I2C_1.c **** 
 106:Generated_Source\PSoC4/I2C_1.c **** static void I2C_1_ScbEnableIntr(void);
 107:Generated_Source\PSoC4/I2C_1.c **** static void I2C_1_ScbModeStop(void);
 108:Generated_Source\PSoC4/I2C_1.c **** static void I2C_1_ScbModePostEnable(void);
 109:Generated_Source\PSoC4/I2C_1.c **** 
 110:Generated_Source\PSoC4/I2C_1.c **** 
 111:Generated_Source\PSoC4/I2C_1.c **** /*******************************************************************************
 112:Generated_Source\PSoC4/I2C_1.c **** * Function Name: I2C_1_Init
 113:Generated_Source\PSoC4/I2C_1.c **** ****************************************************************************//**
 114:Generated_Source\PSoC4/I2C_1.c **** *
 115:Generated_Source\PSoC4/I2C_1.c **** *  Initializes the I2C_1 component to operate in one of the selected
 116:Generated_Source\PSoC4/I2C_1.c **** *  configurations: I2C, SPI, UART or EZI2C.
 117:Generated_Source\PSoC4/I2C_1.c **** *  When the configuration is set to "Unconfigured SCB", this function does
 118:Generated_Source\PSoC4/I2C_1.c **** *  not do any initialization. Use mode-specific initialization APIs instead:
 119:Generated_Source\PSoC4/I2C_1.c **** *  I2C_1_I2CInit, I2C_1_SpiInit, 
 120:Generated_Source\PSoC4/I2C_1.c **** *  I2C_1_UartInit or I2C_1_EzI2CInit.
 121:Generated_Source\PSoC4/I2C_1.c **** *
 122:Generated_Source\PSoC4/I2C_1.c **** *******************************************************************************/
 123:Generated_Source\PSoC4/I2C_1.c **** void I2C_1_Init(void)
 124:Generated_Source\PSoC4/I2C_1.c **** {
  26              		.loc 1 124 0
  27              		.cfi_startproc
  28 0000 08B5     		push	{r3, lr}
  29              		.cfi_def_cfa_offset 8
  30              		.cfi_offset 3, -8
  31              		.cfi_offset 14, -4
 125:Generated_Source\PSoC4/I2C_1.c **** #if (I2C_1_SCB_MODE_UNCONFIG_CONST_CFG)
 126:Generated_Source\PSoC4/I2C_1.c ****     if (I2C_1_SCB_MODE_UNCONFIG_RUNTM_CFG)
 127:Generated_Source\PSoC4/I2C_1.c ****     {
 128:Generated_Source\PSoC4/I2C_1.c ****         I2C_1_initVar = 0u;
 129:Generated_Source\PSoC4/I2C_1.c ****     }
 130:Generated_Source\PSoC4/I2C_1.c ****     else
 131:Generated_Source\PSoC4/I2C_1.c ****     {
 132:Generated_Source\PSoC4/I2C_1.c ****         /* Initialization was done before this function call */
 133:Generated_Source\PSoC4/I2C_1.c ****     }
 134:Generated_Source\PSoC4/I2C_1.c **** 
 135:Generated_Source\PSoC4/I2C_1.c **** #elif (I2C_1_SCB_MODE_I2C_CONST_CFG)
 136:Generated_Source\PSoC4/I2C_1.c ****     I2C_1_I2CInit();
  32              		.loc 1 136 0
  33 0002 FFF7FEFF 		bl	I2C_1_I2CInit
  34              	.LVL0:
 137:Generated_Source\PSoC4/I2C_1.c **** 
ARM GAS  C:\Users\glenn\AppData\Local\Temp\ccN5T1Ua.s 			page 4


 138:Generated_Source\PSoC4/I2C_1.c **** #elif (I2C_1_SCB_MODE_SPI_CONST_CFG)
 139:Generated_Source\PSoC4/I2C_1.c ****     I2C_1_SpiInit();
 140:Generated_Source\PSoC4/I2C_1.c **** 
 141:Generated_Source\PSoC4/I2C_1.c **** #elif (I2C_1_SCB_MODE_UART_CONST_CFG)
 142:Generated_Source\PSoC4/I2C_1.c ****     I2C_1_UartInit();
 143:Generated_Source\PSoC4/I2C_1.c **** 
 144:Generated_Source\PSoC4/I2C_1.c **** #elif (I2C_1_SCB_MODE_EZI2C_CONST_CFG)
 145:Generated_Source\PSoC4/I2C_1.c ****     I2C_1_EzI2CInit();
 146:Generated_Source\PSoC4/I2C_1.c **** 
 147:Generated_Source\PSoC4/I2C_1.c **** #endif /* (I2C_1_SCB_MODE_UNCONFIG_CONST_CFG) */
 148:Generated_Source\PSoC4/I2C_1.c **** }
  35              		.loc 1 148 0
  36              		@ sp needed
  37 0006 08BD     		pop	{r3, pc}
  38              		.cfi_endproc
  39              	.LFE1:
  40              		.size	I2C_1_Init, .-I2C_1_Init
  41              		.section	.text.I2C_1_Enable,"ax",%progbits
  42              		.align	2
  43              		.global	I2C_1_Enable
  44              		.code	16
  45              		.thumb_func
  46              		.type	I2C_1_Enable, %function
  47              	I2C_1_Enable:
  48              	.LFB2:
 149:Generated_Source\PSoC4/I2C_1.c **** 
 150:Generated_Source\PSoC4/I2C_1.c **** 
 151:Generated_Source\PSoC4/I2C_1.c **** /*******************************************************************************
 152:Generated_Source\PSoC4/I2C_1.c **** * Function Name: I2C_1_Enable
 153:Generated_Source\PSoC4/I2C_1.c **** ****************************************************************************//**
 154:Generated_Source\PSoC4/I2C_1.c **** *
 155:Generated_Source\PSoC4/I2C_1.c **** *  Enables I2C_1 component operation: activates the hardware and 
 156:Generated_Source\PSoC4/I2C_1.c **** *  internal interrupt. It also restores TX interrupt sources disabled after the 
 157:Generated_Source\PSoC4/I2C_1.c **** *  I2C_1_Stop() function was called (note that level-triggered TX 
 158:Generated_Source\PSoC4/I2C_1.c **** *  interrupt sources remain disabled to not cause code lock-up).
 159:Generated_Source\PSoC4/I2C_1.c **** *  For I2C and EZI2C modes the interrupt is internal and mandatory for 
 160:Generated_Source\PSoC4/I2C_1.c **** *  operation. For SPI and UART modes the interrupt can be configured as none, 
 161:Generated_Source\PSoC4/I2C_1.c **** *  internal or external.
 162:Generated_Source\PSoC4/I2C_1.c **** *  The I2C_1 configuration should be not changed when the component
 163:Generated_Source\PSoC4/I2C_1.c **** *  is enabled. Any configuration changes should be made after disabling the 
 164:Generated_Source\PSoC4/I2C_1.c **** *  component.
 165:Generated_Source\PSoC4/I2C_1.c **** *  When configuration is set to “Unconfigured I2C_1”, the component 
 166:Generated_Source\PSoC4/I2C_1.c **** *  must first be initialized to operate in one of the following configurations: 
 167:Generated_Source\PSoC4/I2C_1.c **** *  I2C, SPI, UART or EZ I2C, using the mode-specific initialization API. 
 168:Generated_Source\PSoC4/I2C_1.c **** *  Otherwise this function does not enable the component.
 169:Generated_Source\PSoC4/I2C_1.c **** *
 170:Generated_Source\PSoC4/I2C_1.c **** *******************************************************************************/
 171:Generated_Source\PSoC4/I2C_1.c **** void I2C_1_Enable(void)
 172:Generated_Source\PSoC4/I2C_1.c **** {
  49              		.loc 1 172 0
  50              		.cfi_startproc
 173:Generated_Source\PSoC4/I2C_1.c **** #if (I2C_1_SCB_MODE_UNCONFIG_CONST_CFG)
 174:Generated_Source\PSoC4/I2C_1.c ****     /* Enable SCB block, only if it is already configured */
 175:Generated_Source\PSoC4/I2C_1.c ****     if (!I2C_1_SCB_MODE_UNCONFIG_RUNTM_CFG)
 176:Generated_Source\PSoC4/I2C_1.c ****     {
 177:Generated_Source\PSoC4/I2C_1.c ****         I2C_1_CTRL_REG |= I2C_1_CTRL_ENABLED;
 178:Generated_Source\PSoC4/I2C_1.c **** 
ARM GAS  C:\Users\glenn\AppData\Local\Temp\ccN5T1Ua.s 			page 5


 179:Generated_Source\PSoC4/I2C_1.c ****         I2C_1_ScbEnableIntr();
 180:Generated_Source\PSoC4/I2C_1.c **** 
 181:Generated_Source\PSoC4/I2C_1.c ****         /* Call PostEnable function specific to current operation mode */
 182:Generated_Source\PSoC4/I2C_1.c ****         I2C_1_ScbModePostEnable();
 183:Generated_Source\PSoC4/I2C_1.c ****     }
 184:Generated_Source\PSoC4/I2C_1.c **** #else
 185:Generated_Source\PSoC4/I2C_1.c ****     I2C_1_CTRL_REG |= I2C_1_CTRL_ENABLED;
  51              		.loc 1 185 0
  52 0000 8021     		mov	r1, #128
  53 0002 054A     		ldr	r2, .L3
 172:Generated_Source\PSoC4/I2C_1.c **** #if (I2C_1_SCB_MODE_UNCONFIG_CONST_CFG)
  54              		.loc 1 172 0
  55 0004 08B5     		push	{r3, lr}
  56              		.cfi_def_cfa_offset 8
  57              		.cfi_offset 3, -8
  58              		.cfi_offset 14, -4
  59              		.loc 1 185 0
  60 0006 1368     		ldr	r3, [r2]
  61 0008 0906     		lsl	r1, r1, #24
  62 000a 0B43     		orr	r3, r1
  63 000c 1360     		str	r3, [r2]
  64              	.LBB14:
  65              	.LBB15:
 186:Generated_Source\PSoC4/I2C_1.c **** 
 187:Generated_Source\PSoC4/I2C_1.c ****     I2C_1_ScbEnableIntr();
 188:Generated_Source\PSoC4/I2C_1.c **** 
 189:Generated_Source\PSoC4/I2C_1.c ****     /* Call PostEnable function specific to current operation mode */
 190:Generated_Source\PSoC4/I2C_1.c ****     I2C_1_ScbModePostEnable();
 191:Generated_Source\PSoC4/I2C_1.c **** #endif /* (I2C_1_SCB_MODE_UNCONFIG_CONST_CFG) */
 192:Generated_Source\PSoC4/I2C_1.c **** }
 193:Generated_Source\PSoC4/I2C_1.c **** 
 194:Generated_Source\PSoC4/I2C_1.c **** 
 195:Generated_Source\PSoC4/I2C_1.c **** /*******************************************************************************
 196:Generated_Source\PSoC4/I2C_1.c **** * Function Name: I2C_1_Start
 197:Generated_Source\PSoC4/I2C_1.c **** ****************************************************************************//**
 198:Generated_Source\PSoC4/I2C_1.c **** *
 199:Generated_Source\PSoC4/I2C_1.c **** *  Invokes I2C_1_Init() and I2C_1_Enable().
 200:Generated_Source\PSoC4/I2C_1.c **** *  After this function call, the component is enabled and ready for operation.
 201:Generated_Source\PSoC4/I2C_1.c **** *  When configuration is set to "Unconfigured SCB", the component must first be
 202:Generated_Source\PSoC4/I2C_1.c **** *  initialized to operate in one of the following configurations: I2C, SPI, UART
 203:Generated_Source\PSoC4/I2C_1.c **** *  or EZI2C. Otherwise this function does not enable the component.
 204:Generated_Source\PSoC4/I2C_1.c **** *
 205:Generated_Source\PSoC4/I2C_1.c **** * \globalvars
 206:Generated_Source\PSoC4/I2C_1.c **** *  I2C_1_initVar - used to check initial configuration, modified
 207:Generated_Source\PSoC4/I2C_1.c **** *  on first function call.
 208:Generated_Source\PSoC4/I2C_1.c **** *
 209:Generated_Source\PSoC4/I2C_1.c **** *******************************************************************************/
 210:Generated_Source\PSoC4/I2C_1.c **** void I2C_1_Start(void)
 211:Generated_Source\PSoC4/I2C_1.c **** {
 212:Generated_Source\PSoC4/I2C_1.c ****     if (0u == I2C_1_initVar)
 213:Generated_Source\PSoC4/I2C_1.c ****     {
 214:Generated_Source\PSoC4/I2C_1.c ****         I2C_1_Init();
 215:Generated_Source\PSoC4/I2C_1.c ****         I2C_1_initVar = 1u; /* Component was initialized */
 216:Generated_Source\PSoC4/I2C_1.c ****     }
 217:Generated_Source\PSoC4/I2C_1.c **** 
 218:Generated_Source\PSoC4/I2C_1.c ****     I2C_1_Enable();
 219:Generated_Source\PSoC4/I2C_1.c **** }
ARM GAS  C:\Users\glenn\AppData\Local\Temp\ccN5T1Ua.s 			page 6


 220:Generated_Source\PSoC4/I2C_1.c **** 
 221:Generated_Source\PSoC4/I2C_1.c **** 
 222:Generated_Source\PSoC4/I2C_1.c **** /*******************************************************************************
 223:Generated_Source\PSoC4/I2C_1.c **** * Function Name: I2C_1_Stop
 224:Generated_Source\PSoC4/I2C_1.c **** ****************************************************************************//**
 225:Generated_Source\PSoC4/I2C_1.c **** *
 226:Generated_Source\PSoC4/I2C_1.c **** *  Disables the I2C_1 component: disable the hardware and internal 
 227:Generated_Source\PSoC4/I2C_1.c **** *  interrupt. It also disables all TX interrupt sources so as not to cause an 
 228:Generated_Source\PSoC4/I2C_1.c **** *  unexpected interrupt trigger because after the component is enabled, the 
 229:Generated_Source\PSoC4/I2C_1.c **** *  TX FIFO is empty.
 230:Generated_Source\PSoC4/I2C_1.c **** *  Refer to the function I2C_1_Enable() for the interrupt 
 231:Generated_Source\PSoC4/I2C_1.c **** *  configuration details.
 232:Generated_Source\PSoC4/I2C_1.c **** *  This function disables the SCB component without checking to see if 
 233:Generated_Source\PSoC4/I2C_1.c **** *  communication is in progress. Before calling this function it may be 
 234:Generated_Source\PSoC4/I2C_1.c **** *  necessary to check the status of communication to make sure communication 
 235:Generated_Source\PSoC4/I2C_1.c **** *  is complete. If this is not done then communication could be stopped mid 
 236:Generated_Source\PSoC4/I2C_1.c **** *  byte and corrupted data could result.
 237:Generated_Source\PSoC4/I2C_1.c **** *
 238:Generated_Source\PSoC4/I2C_1.c **** *******************************************************************************/
 239:Generated_Source\PSoC4/I2C_1.c **** void I2C_1_Stop(void)
 240:Generated_Source\PSoC4/I2C_1.c **** {
 241:Generated_Source\PSoC4/I2C_1.c **** #if (I2C_1_SCB_IRQ_INTERNAL)
 242:Generated_Source\PSoC4/I2C_1.c ****     I2C_1_DisableInt();
 243:Generated_Source\PSoC4/I2C_1.c **** #endif /* (I2C_1_SCB_IRQ_INTERNAL) */
 244:Generated_Source\PSoC4/I2C_1.c **** 
 245:Generated_Source\PSoC4/I2C_1.c ****     /* Call Stop function specific to current operation mode */
 246:Generated_Source\PSoC4/I2C_1.c ****     I2C_1_ScbModeStop();
 247:Generated_Source\PSoC4/I2C_1.c **** 
 248:Generated_Source\PSoC4/I2C_1.c ****     /* Disable SCB IP */
 249:Generated_Source\PSoC4/I2C_1.c ****     I2C_1_CTRL_REG &= (uint32) ~I2C_1_CTRL_ENABLED;
 250:Generated_Source\PSoC4/I2C_1.c **** 
 251:Generated_Source\PSoC4/I2C_1.c ****     /* Disable all TX interrupt sources so as not to cause an unexpected
 252:Generated_Source\PSoC4/I2C_1.c ****     * interrupt trigger after the component will be enabled because the 
 253:Generated_Source\PSoC4/I2C_1.c ****     * TX FIFO is empty.
 254:Generated_Source\PSoC4/I2C_1.c ****     * For SCB IP v0, it is critical as it does not mask-out interrupt
 255:Generated_Source\PSoC4/I2C_1.c ****     * sources when it is disabled. This can cause a code lock-up in the
 256:Generated_Source\PSoC4/I2C_1.c ****     * interrupt handler because TX FIFO cannot be loaded after the block
 257:Generated_Source\PSoC4/I2C_1.c ****     * is disabled.
 258:Generated_Source\PSoC4/I2C_1.c ****     */
 259:Generated_Source\PSoC4/I2C_1.c ****     I2C_1_SetTxInterruptMode(I2C_1_NO_INTR_SOURCES);
 260:Generated_Source\PSoC4/I2C_1.c **** 
 261:Generated_Source\PSoC4/I2C_1.c **** #if (I2C_1_SCB_IRQ_INTERNAL)
 262:Generated_Source\PSoC4/I2C_1.c ****     I2C_1_ClearPendingInt();
 263:Generated_Source\PSoC4/I2C_1.c **** #endif /* (I2C_1_SCB_IRQ_INTERNAL) */
 264:Generated_Source\PSoC4/I2C_1.c **** }
 265:Generated_Source\PSoC4/I2C_1.c **** 
 266:Generated_Source\PSoC4/I2C_1.c **** 
 267:Generated_Source\PSoC4/I2C_1.c **** /*******************************************************************************
 268:Generated_Source\PSoC4/I2C_1.c **** * Function Name: I2C_1_SetRxFifoLevel
 269:Generated_Source\PSoC4/I2C_1.c **** ****************************************************************************//**
 270:Generated_Source\PSoC4/I2C_1.c **** *
 271:Generated_Source\PSoC4/I2C_1.c **** *  Sets level in the RX FIFO to generate a RX level interrupt.
 272:Generated_Source\PSoC4/I2C_1.c **** *  When the RX FIFO has more entries than the RX FIFO level an RX level
 273:Generated_Source\PSoC4/I2C_1.c **** *  interrupt request is generated.
 274:Generated_Source\PSoC4/I2C_1.c **** *
 275:Generated_Source\PSoC4/I2C_1.c **** *  \param level: Level in the RX FIFO to generate RX level interrupt.
 276:Generated_Source\PSoC4/I2C_1.c **** *   The range of valid level values is between 0 and RX FIFO depth - 1.
ARM GAS  C:\Users\glenn\AppData\Local\Temp\ccN5T1Ua.s 			page 7


 277:Generated_Source\PSoC4/I2C_1.c **** *
 278:Generated_Source\PSoC4/I2C_1.c **** *******************************************************************************/
 279:Generated_Source\PSoC4/I2C_1.c **** void I2C_1_SetRxFifoLevel(uint32 level)
 280:Generated_Source\PSoC4/I2C_1.c **** {
 281:Generated_Source\PSoC4/I2C_1.c ****     uint32 rxFifoCtrl;
 282:Generated_Source\PSoC4/I2C_1.c **** 
 283:Generated_Source\PSoC4/I2C_1.c ****     rxFifoCtrl = I2C_1_RX_FIFO_CTRL_REG;
 284:Generated_Source\PSoC4/I2C_1.c **** 
 285:Generated_Source\PSoC4/I2C_1.c ****     rxFifoCtrl &= ((uint32) ~I2C_1_RX_FIFO_CTRL_TRIGGER_LEVEL_MASK); /* Clear level mask bits */
 286:Generated_Source\PSoC4/I2C_1.c ****     rxFifoCtrl |= ((uint32) (I2C_1_RX_FIFO_CTRL_TRIGGER_LEVEL_MASK & level));
 287:Generated_Source\PSoC4/I2C_1.c **** 
 288:Generated_Source\PSoC4/I2C_1.c ****     I2C_1_RX_FIFO_CTRL_REG = rxFifoCtrl;
 289:Generated_Source\PSoC4/I2C_1.c **** }
 290:Generated_Source\PSoC4/I2C_1.c **** 
 291:Generated_Source\PSoC4/I2C_1.c **** 
 292:Generated_Source\PSoC4/I2C_1.c **** /*******************************************************************************
 293:Generated_Source\PSoC4/I2C_1.c **** * Function Name: I2C_1_SetTxFifoLevel
 294:Generated_Source\PSoC4/I2C_1.c **** ****************************************************************************//**
 295:Generated_Source\PSoC4/I2C_1.c **** *
 296:Generated_Source\PSoC4/I2C_1.c **** *  Sets level in the TX FIFO to generate a TX level interrupt.
 297:Generated_Source\PSoC4/I2C_1.c **** *  When the TX FIFO has less entries than the TX FIFO level an TX level
 298:Generated_Source\PSoC4/I2C_1.c **** *  interrupt request is generated.
 299:Generated_Source\PSoC4/I2C_1.c **** *
 300:Generated_Source\PSoC4/I2C_1.c **** *  \param level: Level in the TX FIFO to generate TX level interrupt.
 301:Generated_Source\PSoC4/I2C_1.c **** *   The range of valid level values is between 0 and TX FIFO depth - 1.
 302:Generated_Source\PSoC4/I2C_1.c **** *
 303:Generated_Source\PSoC4/I2C_1.c **** *******************************************************************************/
 304:Generated_Source\PSoC4/I2C_1.c **** void I2C_1_SetTxFifoLevel(uint32 level)
 305:Generated_Source\PSoC4/I2C_1.c **** {
 306:Generated_Source\PSoC4/I2C_1.c ****     uint32 txFifoCtrl;
 307:Generated_Source\PSoC4/I2C_1.c **** 
 308:Generated_Source\PSoC4/I2C_1.c ****     txFifoCtrl = I2C_1_TX_FIFO_CTRL_REG;
 309:Generated_Source\PSoC4/I2C_1.c **** 
 310:Generated_Source\PSoC4/I2C_1.c ****     txFifoCtrl &= ((uint32) ~I2C_1_TX_FIFO_CTRL_TRIGGER_LEVEL_MASK); /* Clear level mask bits */
 311:Generated_Source\PSoC4/I2C_1.c ****     txFifoCtrl |= ((uint32) (I2C_1_TX_FIFO_CTRL_TRIGGER_LEVEL_MASK & level));
 312:Generated_Source\PSoC4/I2C_1.c **** 
 313:Generated_Source\PSoC4/I2C_1.c ****     I2C_1_TX_FIFO_CTRL_REG = txFifoCtrl;
 314:Generated_Source\PSoC4/I2C_1.c **** }
 315:Generated_Source\PSoC4/I2C_1.c **** 
 316:Generated_Source\PSoC4/I2C_1.c **** 
 317:Generated_Source\PSoC4/I2C_1.c **** #if (I2C_1_SCB_IRQ_INTERNAL)
 318:Generated_Source\PSoC4/I2C_1.c ****     /*******************************************************************************
 319:Generated_Source\PSoC4/I2C_1.c ****     * Function Name: I2C_1_SetCustomInterruptHandler
 320:Generated_Source\PSoC4/I2C_1.c ****     ****************************************************************************//**
 321:Generated_Source\PSoC4/I2C_1.c ****     *
 322:Generated_Source\PSoC4/I2C_1.c ****     *  Registers a function to be called by the internal interrupt handler.
 323:Generated_Source\PSoC4/I2C_1.c ****     *  First the function that is registered is called, then the internal interrupt
 324:Generated_Source\PSoC4/I2C_1.c ****     *  handler performs any operation such as software buffer management functions
 325:Generated_Source\PSoC4/I2C_1.c ****     *  before the interrupt returns.  It is the user's responsibility not to break
 326:Generated_Source\PSoC4/I2C_1.c ****     *  the software buffer operations. Only one custom handler is supported, which
 327:Generated_Source\PSoC4/I2C_1.c ****     *  is the function provided by the most recent call.
 328:Generated_Source\PSoC4/I2C_1.c ****     *  At the initialization time no custom handler is registered.
 329:Generated_Source\PSoC4/I2C_1.c ****     *
 330:Generated_Source\PSoC4/I2C_1.c ****     *  \param func: Pointer to the function to register.
 331:Generated_Source\PSoC4/I2C_1.c ****     *        The value NULL indicates to remove the current custom interrupt
 332:Generated_Source\PSoC4/I2C_1.c ****     *        handler.
 333:Generated_Source\PSoC4/I2C_1.c ****     *
ARM GAS  C:\Users\glenn\AppData\Local\Temp\ccN5T1Ua.s 			page 8


 334:Generated_Source\PSoC4/I2C_1.c ****     *******************************************************************************/
 335:Generated_Source\PSoC4/I2C_1.c ****     void I2C_1_SetCustomInterruptHandler(void (*func)(void))
 336:Generated_Source\PSoC4/I2C_1.c ****     {
 337:Generated_Source\PSoC4/I2C_1.c ****     #if !defined (CY_REMOVE_I2C_1_CUSTOM_INTR_HANDLER)
 338:Generated_Source\PSoC4/I2C_1.c ****         I2C_1_customIntrHandler = func; /* Register interrupt handler */
 339:Generated_Source\PSoC4/I2C_1.c ****     #else
 340:Generated_Source\PSoC4/I2C_1.c ****         if (NULL != func)
 341:Generated_Source\PSoC4/I2C_1.c ****         {
 342:Generated_Source\PSoC4/I2C_1.c ****             /* Suppress compiler warning */
 343:Generated_Source\PSoC4/I2C_1.c ****         }
 344:Generated_Source\PSoC4/I2C_1.c ****     #endif /* !defined (CY_REMOVE_I2C_1_CUSTOM_INTR_HANDLER) */
 345:Generated_Source\PSoC4/I2C_1.c ****     }
 346:Generated_Source\PSoC4/I2C_1.c **** #endif /* (I2C_1_SCB_IRQ_INTERNAL) */
 347:Generated_Source\PSoC4/I2C_1.c **** 
 348:Generated_Source\PSoC4/I2C_1.c **** 
 349:Generated_Source\PSoC4/I2C_1.c **** /*******************************************************************************
 350:Generated_Source\PSoC4/I2C_1.c **** * Function Name: I2C_1_ScbModeEnableIntr
 351:Generated_Source\PSoC4/I2C_1.c **** ****************************************************************************//**
 352:Generated_Source\PSoC4/I2C_1.c **** *
 353:Generated_Source\PSoC4/I2C_1.c **** *  Enables an interrupt for a specific mode.
 354:Generated_Source\PSoC4/I2C_1.c **** *
 355:Generated_Source\PSoC4/I2C_1.c **** *******************************************************************************/
 356:Generated_Source\PSoC4/I2C_1.c **** static void I2C_1_ScbEnableIntr(void)
 357:Generated_Source\PSoC4/I2C_1.c **** {
 358:Generated_Source\PSoC4/I2C_1.c **** #if (I2C_1_SCB_IRQ_INTERNAL)
 359:Generated_Source\PSoC4/I2C_1.c ****     /* Enable interrupt in NVIC */
 360:Generated_Source\PSoC4/I2C_1.c ****     #if (I2C_1_SCB_MODE_UNCONFIG_CONST_CFG)
 361:Generated_Source\PSoC4/I2C_1.c ****         if (0u != I2C_1_scbEnableIntr)
 362:Generated_Source\PSoC4/I2C_1.c ****         {
 363:Generated_Source\PSoC4/I2C_1.c ****             I2C_1_EnableInt();
 364:Generated_Source\PSoC4/I2C_1.c ****         }
 365:Generated_Source\PSoC4/I2C_1.c **** 
 366:Generated_Source\PSoC4/I2C_1.c ****     #else
 367:Generated_Source\PSoC4/I2C_1.c ****         I2C_1_EnableInt();
  66              		.loc 1 367 0
  67 000e 0820     		mov	r0, #8
  68 0010 FFF7FEFF 		bl	CyIntEnable
  69              	.LVL1:
  70              	.LBE15:
  71              	.LBE14:
 192:Generated_Source\PSoC4/I2C_1.c **** 
  72              		.loc 1 192 0
  73              		@ sp needed
  74 0014 08BD     		pop	{r3, pc}
  75              	.L4:
  76 0016 C046     		.align	2
  77              	.L3:
  78 0018 00002440 		.word	1076101120
  79              		.cfi_endproc
  80              	.LFE2:
  81              		.size	I2C_1_Enable, .-I2C_1_Enable
  82              		.section	.text.I2C_1_Start,"ax",%progbits
  83              		.align	2
  84              		.global	I2C_1_Start
  85              		.code	16
  86              		.thumb_func
  87              		.type	I2C_1_Start, %function
ARM GAS  C:\Users\glenn\AppData\Local\Temp\ccN5T1Ua.s 			page 9


  88              	I2C_1_Start:
  89              	.LFB3:
 211:Generated_Source\PSoC4/I2C_1.c ****     if (0u == I2C_1_initVar)
  90              		.loc 1 211 0
  91              		.cfi_startproc
  92 0000 10B5     		push	{r4, lr}
  93              		.cfi_def_cfa_offset 8
  94              		.cfi_offset 4, -8
  95              		.cfi_offset 14, -4
 212:Generated_Source\PSoC4/I2C_1.c ****     {
  96              		.loc 1 212 0
  97 0002 094C     		ldr	r4, .L8
  98 0004 2378     		ldrb	r3, [r4]
  99 0006 002B     		cmp	r3, #0
 100 0008 03D1     		bne	.L6
 101              	.LBB16:
 102              	.LBB17:
 136:Generated_Source\PSoC4/I2C_1.c **** 
 103              		.loc 1 136 0
 104 000a FFF7FEFF 		bl	I2C_1_I2CInit
 105              	.LVL2:
 106              	.LBE17:
 107              	.LBE16:
 215:Generated_Source\PSoC4/I2C_1.c ****     }
 108              		.loc 1 215 0
 109 000e 0123     		mov	r3, #1
 110 0010 2370     		strb	r3, [r4]
 111              	.L6:
 112              	.LBB18:
 113              	.LBB19:
 185:Generated_Source\PSoC4/I2C_1.c **** 
 114              		.loc 1 185 0
 115 0012 8021     		mov	r1, #128
 116 0014 054A     		ldr	r2, .L8+4
 117 0016 0906     		lsl	r1, r1, #24
 118 0018 1368     		ldr	r3, [r2]
 119              	.LBB20:
 120              	.LBB21:
 121              		.loc 1 367 0
 122 001a 0820     		mov	r0, #8
 123              	.LBE21:
 124              	.LBE20:
 185:Generated_Source\PSoC4/I2C_1.c **** 
 125              		.loc 1 185 0
 126 001c 0B43     		orr	r3, r1
 127 001e 1360     		str	r3, [r2]
 128              	.LBB23:
 129              	.LBB22:
 130              		.loc 1 367 0
 131 0020 FFF7FEFF 		bl	CyIntEnable
 132              	.LVL3:
 133              	.LBE22:
 134              	.LBE23:
 135              	.LBE19:
 136              	.LBE18:
 219:Generated_Source\PSoC4/I2C_1.c **** 
 137              		.loc 1 219 0
ARM GAS  C:\Users\glenn\AppData\Local\Temp\ccN5T1Ua.s 			page 10


 138              		@ sp needed
 139 0024 10BD     		pop	{r4, pc}
 140              	.L9:
 141 0026 C046     		.align	2
 142              	.L8:
 143 0028 00000000 		.word	.LANCHOR0
 144 002c 00002440 		.word	1076101120
 145              		.cfi_endproc
 146              	.LFE3:
 147              		.size	I2C_1_Start, .-I2C_1_Start
 148              		.section	.text.I2C_1_Stop,"ax",%progbits
 149              		.align	2
 150              		.global	I2C_1_Stop
 151              		.code	16
 152              		.thumb_func
 153              		.type	I2C_1_Stop, %function
 154              	I2C_1_Stop:
 155              	.LFB4:
 240:Generated_Source\PSoC4/I2C_1.c **** #if (I2C_1_SCB_IRQ_INTERNAL)
 156              		.loc 1 240 0
 157              		.cfi_startproc
 158 0000 08B5     		push	{r3, lr}
 159              		.cfi_def_cfa_offset 8
 160              		.cfi_offset 3, -8
 161              		.cfi_offset 14, -4
 242:Generated_Source\PSoC4/I2C_1.c **** #endif /* (I2C_1_SCB_IRQ_INTERNAL) */
 162              		.loc 1 242 0
 163 0002 0820     		mov	r0, #8
 164 0004 FFF7FEFF 		bl	CyIntDisable
 165              	.LVL4:
 166              	.LBB24:
 167              	.LBB25:
 368:Generated_Source\PSoC4/I2C_1.c **** 
 369:Generated_Source\PSoC4/I2C_1.c ****     #endif /* (I2C_1_SCB_MODE_UNCONFIG_CONST_CFG) */
 370:Generated_Source\PSoC4/I2C_1.c **** #endif /* (I2C_1_SCB_IRQ_INTERNAL) */
 371:Generated_Source\PSoC4/I2C_1.c **** }
 372:Generated_Source\PSoC4/I2C_1.c **** 
 373:Generated_Source\PSoC4/I2C_1.c **** 
 374:Generated_Source\PSoC4/I2C_1.c **** /*******************************************************************************
 375:Generated_Source\PSoC4/I2C_1.c **** * Function Name: I2C_1_ScbModePostEnable
 376:Generated_Source\PSoC4/I2C_1.c **** ****************************************************************************//**
 377:Generated_Source\PSoC4/I2C_1.c **** *
 378:Generated_Source\PSoC4/I2C_1.c **** *  Calls the PostEnable function for a specific operation mode.
 379:Generated_Source\PSoC4/I2C_1.c **** *
 380:Generated_Source\PSoC4/I2C_1.c **** *******************************************************************************/
 381:Generated_Source\PSoC4/I2C_1.c **** static void I2C_1_ScbModePostEnable(void)
 382:Generated_Source\PSoC4/I2C_1.c **** {
 383:Generated_Source\PSoC4/I2C_1.c **** #if (I2C_1_SCB_MODE_UNCONFIG_CONST_CFG)
 384:Generated_Source\PSoC4/I2C_1.c **** #if (!I2C_1_CY_SCBIP_V1)
 385:Generated_Source\PSoC4/I2C_1.c ****     if (I2C_1_SCB_MODE_SPI_RUNTM_CFG)
 386:Generated_Source\PSoC4/I2C_1.c ****     {
 387:Generated_Source\PSoC4/I2C_1.c ****         I2C_1_SpiPostEnable();
 388:Generated_Source\PSoC4/I2C_1.c ****     }
 389:Generated_Source\PSoC4/I2C_1.c ****     else if (I2C_1_SCB_MODE_UART_RUNTM_CFG)
 390:Generated_Source\PSoC4/I2C_1.c ****     {
 391:Generated_Source\PSoC4/I2C_1.c ****         I2C_1_UartPostEnable();
 392:Generated_Source\PSoC4/I2C_1.c ****     }
ARM GAS  C:\Users\glenn\AppData\Local\Temp\ccN5T1Ua.s 			page 11


 393:Generated_Source\PSoC4/I2C_1.c ****     else
 394:Generated_Source\PSoC4/I2C_1.c ****     {
 395:Generated_Source\PSoC4/I2C_1.c ****         /* Unknown mode: do nothing */
 396:Generated_Source\PSoC4/I2C_1.c ****     }
 397:Generated_Source\PSoC4/I2C_1.c **** #endif /* (!I2C_1_CY_SCBIP_V1) */
 398:Generated_Source\PSoC4/I2C_1.c **** 
 399:Generated_Source\PSoC4/I2C_1.c **** #elif (I2C_1_SCB_MODE_SPI_CONST_CFG)
 400:Generated_Source\PSoC4/I2C_1.c ****     I2C_1_SpiPostEnable();
 401:Generated_Source\PSoC4/I2C_1.c **** 
 402:Generated_Source\PSoC4/I2C_1.c **** #elif (I2C_1_SCB_MODE_UART_CONST_CFG)
 403:Generated_Source\PSoC4/I2C_1.c ****     I2C_1_UartPostEnable();
 404:Generated_Source\PSoC4/I2C_1.c **** 
 405:Generated_Source\PSoC4/I2C_1.c **** #else
 406:Generated_Source\PSoC4/I2C_1.c ****     /* Unknown mode: do nothing */
 407:Generated_Source\PSoC4/I2C_1.c **** #endif /* (I2C_1_SCB_MODE_UNCONFIG_CONST_CFG) */
 408:Generated_Source\PSoC4/I2C_1.c **** }
 409:Generated_Source\PSoC4/I2C_1.c **** 
 410:Generated_Source\PSoC4/I2C_1.c **** 
 411:Generated_Source\PSoC4/I2C_1.c **** /*******************************************************************************
 412:Generated_Source\PSoC4/I2C_1.c **** * Function Name: I2C_1_ScbModeStop
 413:Generated_Source\PSoC4/I2C_1.c **** ****************************************************************************//**
 414:Generated_Source\PSoC4/I2C_1.c **** *
 415:Generated_Source\PSoC4/I2C_1.c **** *  Calls the Stop function for a specific operation mode.
 416:Generated_Source\PSoC4/I2C_1.c **** *
 417:Generated_Source\PSoC4/I2C_1.c **** *******************************************************************************/
 418:Generated_Source\PSoC4/I2C_1.c **** static void I2C_1_ScbModeStop(void)
 419:Generated_Source\PSoC4/I2C_1.c **** {
 420:Generated_Source\PSoC4/I2C_1.c **** #if (I2C_1_SCB_MODE_UNCONFIG_CONST_CFG)
 421:Generated_Source\PSoC4/I2C_1.c ****     if (I2C_1_SCB_MODE_I2C_RUNTM_CFG)
 422:Generated_Source\PSoC4/I2C_1.c ****     {
 423:Generated_Source\PSoC4/I2C_1.c ****         I2C_1_I2CStop();
 424:Generated_Source\PSoC4/I2C_1.c ****     }
 425:Generated_Source\PSoC4/I2C_1.c ****     else if (I2C_1_SCB_MODE_EZI2C_RUNTM_CFG)
 426:Generated_Source\PSoC4/I2C_1.c ****     {
 427:Generated_Source\PSoC4/I2C_1.c ****         I2C_1_EzI2CStop();
 428:Generated_Source\PSoC4/I2C_1.c ****     }
 429:Generated_Source\PSoC4/I2C_1.c **** #if (!I2C_1_CY_SCBIP_V1)
 430:Generated_Source\PSoC4/I2C_1.c ****     else if (I2C_1_SCB_MODE_SPI_RUNTM_CFG)
 431:Generated_Source\PSoC4/I2C_1.c ****     {
 432:Generated_Source\PSoC4/I2C_1.c ****         I2C_1_SpiStop();
 433:Generated_Source\PSoC4/I2C_1.c ****     }
 434:Generated_Source\PSoC4/I2C_1.c ****     else if (I2C_1_SCB_MODE_UART_RUNTM_CFG)
 435:Generated_Source\PSoC4/I2C_1.c ****     {
 436:Generated_Source\PSoC4/I2C_1.c ****         I2C_1_UartStop();
 437:Generated_Source\PSoC4/I2C_1.c ****     }
 438:Generated_Source\PSoC4/I2C_1.c **** #endif /* (!I2C_1_CY_SCBIP_V1) */
 439:Generated_Source\PSoC4/I2C_1.c ****     else
 440:Generated_Source\PSoC4/I2C_1.c ****     {
 441:Generated_Source\PSoC4/I2C_1.c ****         /* Unknown mode: do nothing */
 442:Generated_Source\PSoC4/I2C_1.c ****     }
 443:Generated_Source\PSoC4/I2C_1.c **** #elif (I2C_1_SCB_MODE_I2C_CONST_CFG)
 444:Generated_Source\PSoC4/I2C_1.c ****     I2C_1_I2CStop();
 168              		.loc 1 444 0
 169 0008 FFF7FEFF 		bl	I2C_1_I2CStop
 170              	.LVL5:
 171              	.LBE25:
 172              	.LBE24:
ARM GAS  C:\Users\glenn\AppData\Local\Temp\ccN5T1Ua.s 			page 12


 249:Generated_Source\PSoC4/I2C_1.c **** 
 173              		.loc 1 249 0
 174 000c 054A     		ldr	r2, .L11
 262:Generated_Source\PSoC4/I2C_1.c **** #endif /* (I2C_1_SCB_IRQ_INTERNAL) */
 175              		.loc 1 262 0
 176 000e 0820     		mov	r0, #8
 249:Generated_Source\PSoC4/I2C_1.c **** 
 177              		.loc 1 249 0
 178 0010 1368     		ldr	r3, [r2]
 264:Generated_Source\PSoC4/I2C_1.c **** 
 179              		.loc 1 264 0
 180              		@ sp needed
 249:Generated_Source\PSoC4/I2C_1.c **** 
 181              		.loc 1 249 0
 182 0012 5B00     		lsl	r3, r3, #1
 183 0014 5B08     		lsr	r3, r3, #1
 184 0016 1360     		str	r3, [r2]
 259:Generated_Source\PSoC4/I2C_1.c **** 
 185              		.loc 1 259 0
 186 0018 0022     		mov	r2, #0
 187 001a 034B     		ldr	r3, .L11+4
 188 001c 1A60     		str	r2, [r3]
 262:Generated_Source\PSoC4/I2C_1.c **** #endif /* (I2C_1_SCB_IRQ_INTERNAL) */
 189              		.loc 1 262 0
 190 001e FFF7FEFF 		bl	CyIntClearPending
 191              	.LVL6:
 264:Generated_Source\PSoC4/I2C_1.c **** 
 192              		.loc 1 264 0
 193 0022 08BD     		pop	{r3, pc}
 194              	.L12:
 195              		.align	2
 196              	.L11:
 197 0024 00002440 		.word	1076101120
 198 0028 880F2440 		.word	1076105096
 199              		.cfi_endproc
 200              	.LFE4:
 201              		.size	I2C_1_Stop, .-I2C_1_Stop
 202              		.section	.text.I2C_1_SetRxFifoLevel,"ax",%progbits
 203              		.align	2
 204              		.global	I2C_1_SetRxFifoLevel
 205              		.code	16
 206              		.thumb_func
 207              		.type	I2C_1_SetRxFifoLevel, %function
 208              	I2C_1_SetRxFifoLevel:
 209              	.LFB5:
 280:Generated_Source\PSoC4/I2C_1.c ****     uint32 rxFifoCtrl;
 210              		.loc 1 280 0
 211              		.cfi_startproc
 212              	.LVL7:
 285:Generated_Source\PSoC4/I2C_1.c ****     rxFifoCtrl |= ((uint32) (I2C_1_RX_FIFO_CTRL_TRIGGER_LEVEL_MASK & level));
 213              		.loc 1 285 0
 214 0000 0F21     		mov	r1, #15
 283:Generated_Source\PSoC4/I2C_1.c **** 
 215              		.loc 1 283 0
 216 0002 034A     		ldr	r2, .L14
 286:Generated_Source\PSoC4/I2C_1.c **** 
 217              		.loc 1 286 0
ARM GAS  C:\Users\glenn\AppData\Local\Temp\ccN5T1Ua.s 			page 13


 218 0004 0840     		and	r0, r1
 219              	.LVL8:
 283:Generated_Source\PSoC4/I2C_1.c **** 
 220              		.loc 1 283 0
 221 0006 1368     		ldr	r3, [r2]
 222              	.LVL9:
 289:Generated_Source\PSoC4/I2C_1.c **** 
 223              		.loc 1 289 0
 224              		@ sp needed
 285:Generated_Source\PSoC4/I2C_1.c ****     rxFifoCtrl |= ((uint32) (I2C_1_RX_FIFO_CTRL_TRIGGER_LEVEL_MASK & level));
 225              		.loc 1 285 0
 226 0008 8B43     		bic	r3, r1
 227              	.LVL10:
 286:Generated_Source\PSoC4/I2C_1.c **** 
 228              		.loc 1 286 0
 229 000a 1843     		orr	r0, r3
 230              	.LVL11:
 288:Generated_Source\PSoC4/I2C_1.c **** }
 231              		.loc 1 288 0
 232 000c 1060     		str	r0, [r2]
 289:Generated_Source\PSoC4/I2C_1.c **** 
 233              		.loc 1 289 0
 234 000e 7047     		bx	lr
 235              	.L15:
 236              		.align	2
 237              	.L14:
 238 0010 04032440 		.word	1076101892
 239              		.cfi_endproc
 240              	.LFE5:
 241              		.size	I2C_1_SetRxFifoLevel, .-I2C_1_SetRxFifoLevel
 242              		.section	.text.I2C_1_SetTxFifoLevel,"ax",%progbits
 243              		.align	2
 244              		.global	I2C_1_SetTxFifoLevel
 245              		.code	16
 246              		.thumb_func
 247              		.type	I2C_1_SetTxFifoLevel, %function
 248              	I2C_1_SetTxFifoLevel:
 249              	.LFB6:
 305:Generated_Source\PSoC4/I2C_1.c ****     uint32 txFifoCtrl;
 250              		.loc 1 305 0
 251              		.cfi_startproc
 252              	.LVL12:
 310:Generated_Source\PSoC4/I2C_1.c ****     txFifoCtrl |= ((uint32) (I2C_1_TX_FIFO_CTRL_TRIGGER_LEVEL_MASK & level));
 253              		.loc 1 310 0
 254 0000 0F21     		mov	r1, #15
 308:Generated_Source\PSoC4/I2C_1.c **** 
 255              		.loc 1 308 0
 256 0002 034A     		ldr	r2, .L17
 311:Generated_Source\PSoC4/I2C_1.c **** 
 257              		.loc 1 311 0
 258 0004 0840     		and	r0, r1
 259              	.LVL13:
 308:Generated_Source\PSoC4/I2C_1.c **** 
 260              		.loc 1 308 0
 261 0006 1368     		ldr	r3, [r2]
 262              	.LVL14:
 314:Generated_Source\PSoC4/I2C_1.c **** 
ARM GAS  C:\Users\glenn\AppData\Local\Temp\ccN5T1Ua.s 			page 14


 263              		.loc 1 314 0
 264              		@ sp needed
 310:Generated_Source\PSoC4/I2C_1.c ****     txFifoCtrl |= ((uint32) (I2C_1_TX_FIFO_CTRL_TRIGGER_LEVEL_MASK & level));
 265              		.loc 1 310 0
 266 0008 8B43     		bic	r3, r1
 267              	.LVL15:
 311:Generated_Source\PSoC4/I2C_1.c **** 
 268              		.loc 1 311 0
 269 000a 1843     		orr	r0, r3
 270              	.LVL16:
 313:Generated_Source\PSoC4/I2C_1.c **** }
 271              		.loc 1 313 0
 272 000c 1060     		str	r0, [r2]
 314:Generated_Source\PSoC4/I2C_1.c **** 
 273              		.loc 1 314 0
 274 000e 7047     		bx	lr
 275              	.L18:
 276              		.align	2
 277              	.L17:
 278 0010 04022440 		.word	1076101636
 279              		.cfi_endproc
 280              	.LFE6:
 281              		.size	I2C_1_SetTxFifoLevel, .-I2C_1_SetTxFifoLevel
 282              		.section	.text.I2C_1_SetCustomInterruptHandler,"ax",%progbits
 283              		.align	2
 284              		.global	I2C_1_SetCustomInterruptHandler
 285              		.code	16
 286              		.thumb_func
 287              		.type	I2C_1_SetCustomInterruptHandler, %function
 288              	I2C_1_SetCustomInterruptHandler:
 289              	.LFB7:
 336:Generated_Source\PSoC4/I2C_1.c ****     #if !defined (CY_REMOVE_I2C_1_CUSTOM_INTR_HANDLER)
 290              		.loc 1 336 0
 291              		.cfi_startproc
 292              	.LVL17:
 338:Generated_Source\PSoC4/I2C_1.c ****     #else
 293              		.loc 1 338 0
 294 0000 014B     		ldr	r3, .L20
 345:Generated_Source\PSoC4/I2C_1.c **** #endif /* (I2C_1_SCB_IRQ_INTERNAL) */
 295              		.loc 1 345 0
 296              		@ sp needed
 338:Generated_Source\PSoC4/I2C_1.c ****     #else
 297              		.loc 1 338 0
 298 0002 5860     		str	r0, [r3, #4]
 345:Generated_Source\PSoC4/I2C_1.c **** #endif /* (I2C_1_SCB_IRQ_INTERNAL) */
 299              		.loc 1 345 0
 300 0004 7047     		bx	lr
 301              	.L21:
 302 0006 C046     		.align	2
 303              	.L20:
 304 0008 00000000 		.word	.LANCHOR0
 305              		.cfi_endproc
 306              	.LFE7:
 307              		.size	I2C_1_SetCustomInterruptHandler, .-I2C_1_SetCustomInterruptHandler
 308              		.global	I2C_1_customIntrHandler
 309              		.global	I2C_1_initVar
 310              		.bss
ARM GAS  C:\Users\glenn\AppData\Local\Temp\ccN5T1Ua.s 			page 15


 311              		.align	2
 312              		.set	.LANCHOR0,. + 0
 313              		.type	I2C_1_initVar, %object
 314              		.size	I2C_1_initVar, 1
 315              	I2C_1_initVar:
 316 0000 00       		.space	1
 317 0001 000000   		.space	3
 318              		.type	I2C_1_customIntrHandler, %object
 319              		.size	I2C_1_customIntrHandler, 4
 320              	I2C_1_customIntrHandler:
 321 0004 00000000 		.space	4
 322              		.text
 323              	.Letext0:
 324              		.file 2 "Generated_Source\\PSoC4/cytypes.h"
 325              		.file 3 "Generated_Source\\PSoC4\\I2C_1_I2C_PVT.h"
 326              		.file 4 "Generated_Source\\PSoC4/CyLib.h"