ARM GAS  C:\Users\glenn\AppData\Local\Temp\cclrFd8J.s 			page 1


   1              		.cpu cortex-m0
   2              		.fpu softvfp
   3              		.eabi_attribute 20, 1
   4              		.eabi_attribute 21, 1
   5              		.eabi_attribute 23, 3
   6              		.eabi_attribute 24, 1
   7              		.eabi_attribute 25, 1
   8              		.eabi_attribute 26, 1
   9              		.eabi_attribute 30, 2
  10              		.eabi_attribute 34, 0
  11              		.eabi_attribute 18, 4
  12              		.code	16
  13              		.file	"I2C_1_I2C_MASTER.c"
  14              		.text
  15              	.Ltext0:
  16              		.cfi_sections	.debug_frame
  17              		.section	.text.I2C_1_I2CMasterWriteBuf,"ax",%progbits
  18              		.align	2
  19              		.global	I2C_1_I2CMasterWriteBuf
  20              		.code	16
  21              		.thumb_func
  22              		.type	I2C_1_I2CMasterWriteBuf, %function
  23              	I2C_1_I2CMasterWriteBuf:
  24              	.LFB1:
  25              		.file 1 "Generated_Source\\PSoC4\\I2C_1_I2C_MASTER.c"
   1:Generated_Source\PSoC4/I2C_1_I2C_MASTER.c **** /***************************************************************************//**
   2:Generated_Source\PSoC4/I2C_1_I2C_MASTER.c **** * \file I2C_1_I2C_MASTER.c
   3:Generated_Source\PSoC4/I2C_1_I2C_MASTER.c **** * \version 3.20
   4:Generated_Source\PSoC4/I2C_1_I2C_MASTER.c **** *
   5:Generated_Source\PSoC4/I2C_1_I2C_MASTER.c **** * \brief
   6:Generated_Source\PSoC4/I2C_1_I2C_MASTER.c **** *  This file provides the source code to the API for the SCB Component in
   7:Generated_Source\PSoC4/I2C_1_I2C_MASTER.c **** *  I2C Master mode.
   8:Generated_Source\PSoC4/I2C_1_I2C_MASTER.c **** *
   9:Generated_Source\PSoC4/I2C_1_I2C_MASTER.c **** * Note:
  10:Generated_Source\PSoC4/I2C_1_I2C_MASTER.c **** *
  11:Generated_Source\PSoC4/I2C_1_I2C_MASTER.c **** *******************************************************************************
  12:Generated_Source\PSoC4/I2C_1_I2C_MASTER.c **** * \copyright
  13:Generated_Source\PSoC4/I2C_1_I2C_MASTER.c **** * Copyright 2013-2016, Cypress Semiconductor Corporation.  All rights reserved.
  14:Generated_Source\PSoC4/I2C_1_I2C_MASTER.c **** * You may use this file only in accordance with the license, terms, conditions,
  15:Generated_Source\PSoC4/I2C_1_I2C_MASTER.c **** * disclaimers, and limitations in the end user license agreement accompanying
  16:Generated_Source\PSoC4/I2C_1_I2C_MASTER.c **** * the software package with which this file was provided.
  17:Generated_Source\PSoC4/I2C_1_I2C_MASTER.c **** *******************************************************************************/
  18:Generated_Source\PSoC4/I2C_1_I2C_MASTER.c **** 
  19:Generated_Source\PSoC4/I2C_1_I2C_MASTER.c **** #include "I2C_1_PVT.h"
  20:Generated_Source\PSoC4/I2C_1_I2C_MASTER.c **** #include "I2C_1_I2C_PVT.h"
  21:Generated_Source\PSoC4/I2C_1_I2C_MASTER.c **** 
  22:Generated_Source\PSoC4/I2C_1_I2C_MASTER.c **** #if(I2C_1_I2C_MASTER_CONST)
  23:Generated_Source\PSoC4/I2C_1_I2C_MASTER.c **** 
  24:Generated_Source\PSoC4/I2C_1_I2C_MASTER.c **** /***************************************
  25:Generated_Source\PSoC4/I2C_1_I2C_MASTER.c **** *      I2C Master Private Vars
  26:Generated_Source\PSoC4/I2C_1_I2C_MASTER.c **** ***************************************/
  27:Generated_Source\PSoC4/I2C_1_I2C_MASTER.c **** 
  28:Generated_Source\PSoC4/I2C_1_I2C_MASTER.c **** /* Master variables */
  29:Generated_Source\PSoC4/I2C_1_I2C_MASTER.c **** volatile uint16 I2C_1_mstrStatus;      /* Master Status byte  */
  30:Generated_Source\PSoC4/I2C_1_I2C_MASTER.c **** volatile uint8  I2C_1_mstrControl;     /* Master Control byte */
  31:Generated_Source\PSoC4/I2C_1_I2C_MASTER.c **** 
  32:Generated_Source\PSoC4/I2C_1_I2C_MASTER.c **** /* Receive buffer variables */
ARM GAS  C:\Users\glenn\AppData\Local\Temp\cclrFd8J.s 			page 2


  33:Generated_Source\PSoC4/I2C_1_I2C_MASTER.c **** volatile uint8 * I2C_1_mstrRdBufPtr;   /* Pointer to Master Read buffer */
  34:Generated_Source\PSoC4/I2C_1_I2C_MASTER.c **** volatile uint32  I2C_1_mstrRdBufSize;  /* Master Read buffer size       */
  35:Generated_Source\PSoC4/I2C_1_I2C_MASTER.c **** volatile uint32  I2C_1_mstrRdBufIndex; /* Master Read buffer Index      */
  36:Generated_Source\PSoC4/I2C_1_I2C_MASTER.c **** 
  37:Generated_Source\PSoC4/I2C_1_I2C_MASTER.c **** /* Transmit buffer variables */
  38:Generated_Source\PSoC4/I2C_1_I2C_MASTER.c **** volatile uint8 * I2C_1_mstrWrBufPtr;   /* Pointer to Master Write buffer */
  39:Generated_Source\PSoC4/I2C_1_I2C_MASTER.c **** volatile uint32  I2C_1_mstrWrBufSize;  /* Master Write buffer size       */
  40:Generated_Source\PSoC4/I2C_1_I2C_MASTER.c **** volatile uint32  I2C_1_mstrWrBufIndex; /* Master Write buffer Index      */
  41:Generated_Source\PSoC4/I2C_1_I2C_MASTER.c **** volatile uint32  I2C_1_mstrWrBufIndexTmp; /* Master Write buffer Index Tmp */
  42:Generated_Source\PSoC4/I2C_1_I2C_MASTER.c **** 
  43:Generated_Source\PSoC4/I2C_1_I2C_MASTER.c **** #if (!I2C_1_CY_SCBIP_V0 && \
  44:Generated_Source\PSoC4/I2C_1_I2C_MASTER.c ****     I2C_1_I2C_MULTI_MASTER_SLAVE_CONST && I2C_1_I2C_WAKE_ENABLE_CONST)
  45:Generated_Source\PSoC4/I2C_1_I2C_MASTER.c ****     static void I2C_1_I2CMasterDisableEcAm(void);
  46:Generated_Source\PSoC4/I2C_1_I2C_MASTER.c **** #endif /* (!I2C_1_CY_SCBIP_V0) */
  47:Generated_Source\PSoC4/I2C_1_I2C_MASTER.c **** 
  48:Generated_Source\PSoC4/I2C_1_I2C_MASTER.c **** 
  49:Generated_Source\PSoC4/I2C_1_I2C_MASTER.c **** /*******************************************************************************
  50:Generated_Source\PSoC4/I2C_1_I2C_MASTER.c **** * Function Name: I2C_1_I2CMasterWriteBuf
  51:Generated_Source\PSoC4/I2C_1_I2C_MASTER.c **** ****************************************************************************//**
  52:Generated_Source\PSoC4/I2C_1_I2C_MASTER.c **** *
  53:Generated_Source\PSoC4/I2C_1_I2C_MASTER.c **** *  Automatically writes an entire buffer of data to a slave device.
  54:Generated_Source\PSoC4/I2C_1_I2C_MASTER.c **** *  Once the data transfer is initiated by this function, further data transfer
  55:Generated_Source\PSoC4/I2C_1_I2C_MASTER.c **** *  is handled by the included ISR.
  56:Generated_Source\PSoC4/I2C_1_I2C_MASTER.c **** *  Enables the I2C interrupt and clears I2C_1_I2C_MSTAT_WR_CMPLT 
  57:Generated_Source\PSoC4/I2C_1_I2C_MASTER.c **** *  status.
  58:Generated_Source\PSoC4/I2C_1_I2C_MASTER.c **** *
  59:Generated_Source\PSoC4/I2C_1_I2C_MASTER.c **** *  \param slaveAddr: 7-bit slave address.
  60:Generated_Source\PSoC4/I2C_1_I2C_MASTER.c **** *  \param xferData: Pointer to buffer of data to be sent.
  61:Generated_Source\PSoC4/I2C_1_I2C_MASTER.c **** *  \param cnt: Size of buffer to send.
  62:Generated_Source\PSoC4/I2C_1_I2C_MASTER.c **** *  \param mode: Transfer mode defines:
  63:Generated_Source\PSoC4/I2C_1_I2C_MASTER.c **** *  (1) Whether a start or restart condition is generated at the beginning 
  64:Generated_Source\PSoC4/I2C_1_I2C_MASTER.c **** *  of the transfer, and
  65:Generated_Source\PSoC4/I2C_1_I2C_MASTER.c **** *  (2) Whether the transfer is completed or halted before the stop 
  66:Generated_Source\PSoC4/I2C_1_I2C_MASTER.c **** *  condition is generated on the bus.Transfer mode, mode constants 
  67:Generated_Source\PSoC4/I2C_1_I2C_MASTER.c **** *  may be ORed together.
  68:Generated_Source\PSoC4/I2C_1_I2C_MASTER.c **** *  - I2C_1_I2C_MODE_COMPLETE_XFER - Perform complete transfer 
  69:Generated_Source\PSoC4/I2C_1_I2C_MASTER.c **** *    from Start to Stop.
  70:Generated_Source\PSoC4/I2C_1_I2C_MASTER.c **** *  - I2C_1_I2C_MODE_REPEAT_START - Send Repeat Start instead 
  71:Generated_Source\PSoC4/I2C_1_I2C_MASTER.c **** *    of Start. A Stop is generated after transfer is completed unless 
  72:Generated_Source\PSoC4/I2C_1_I2C_MASTER.c **** *    NO_STOP is specified.
  73:Generated_Source\PSoC4/I2C_1_I2C_MASTER.c **** *  - I2C_1_I2C_MODE_NO_STOP Execute transfer without a Stop.
  74:Generated_Source\PSoC4/I2C_1_I2C_MASTER.c **** *    The following transfer expected to perform ReStart.
  75:Generated_Source\PSoC4/I2C_1_I2C_MASTER.c **** *
  76:Generated_Source\PSoC4/I2C_1_I2C_MASTER.c **** * \return
  77:Generated_Source\PSoC4/I2C_1_I2C_MASTER.c **** *  Error status.
  78:Generated_Source\PSoC4/I2C_1_I2C_MASTER.c **** *  - I2C_1_I2C_MSTR_NO_ERROR - Function complete without error. 
  79:Generated_Source\PSoC4/I2C_1_I2C_MASTER.c **** *    The master started the transfer.
  80:Generated_Source\PSoC4/I2C_1_I2C_MASTER.c **** *  - I2C_1_I2C_MSTR_BUS_BUSY - Bus is busy. Nothing was sent on
  81:Generated_Source\PSoC4/I2C_1_I2C_MASTER.c **** *    the bus. The attempt has to be retried.
  82:Generated_Source\PSoC4/I2C_1_I2C_MASTER.c **** *  - I2C_1_I2C_MSTR_NOT_READY - Master is not ready for to start
  83:Generated_Source\PSoC4/I2C_1_I2C_MASTER.c **** *    transfer. A master still has not completed previous transaction or a 
  84:Generated_Source\PSoC4/I2C_1_I2C_MASTER.c **** *    slave operation is in progress (in multi-master-slave configuration).
  85:Generated_Source\PSoC4/I2C_1_I2C_MASTER.c **** *    Nothing was sent on the bus. The attempt has to be retried.
  86:Generated_Source\PSoC4/I2C_1_I2C_MASTER.c **** *
  87:Generated_Source\PSoC4/I2C_1_I2C_MASTER.c **** * \globalvars
  88:Generated_Source\PSoC4/I2C_1_I2C_MASTER.c **** *  I2C_1_mstrStatus  - used to store current status of I2C Master.
  89:Generated_Source\PSoC4/I2C_1_I2C_MASTER.c **** *  I2C_1_state       - used to store current state of software FSM.
ARM GAS  C:\Users\glenn\AppData\Local\Temp\cclrFd8J.s 			page 3


  90:Generated_Source\PSoC4/I2C_1_I2C_MASTER.c **** *  I2C_1_mstrControl - used to control master end of transaction with
  91:Generated_Source\PSoC4/I2C_1_I2C_MASTER.c **** *  or without the Stop generation.
  92:Generated_Source\PSoC4/I2C_1_I2C_MASTER.c **** *  I2C_1_mstrWrBufPtr - used to store pointer to master write buffer.
  93:Generated_Source\PSoC4/I2C_1_I2C_MASTER.c **** *  I2C_1_mstrWrBufIndex - used to current index within master write
  94:Generated_Source\PSoC4/I2C_1_I2C_MASTER.c **** *  buffer.
  95:Generated_Source\PSoC4/I2C_1_I2C_MASTER.c **** *  I2C_1_mstrWrBufSize - used to store master write buffer size.
  96:Generated_Source\PSoC4/I2C_1_I2C_MASTER.c **** *
  97:Generated_Source\PSoC4/I2C_1_I2C_MASTER.c **** *******************************************************************************/
  98:Generated_Source\PSoC4/I2C_1_I2C_MASTER.c **** uint32 I2C_1_I2CMasterWriteBuf(uint32 slaveAddress, uint8 * wrData, uint32 cnt, uint32 mode)
  99:Generated_Source\PSoC4/I2C_1_I2C_MASTER.c **** {
  26              		.loc 1 99 0
  27              		.cfi_startproc
  28              	.LVL0:
  29 0000 F0B5     		push	{r4, r5, r6, r7, lr}
  30              		.cfi_def_cfa_offset 20
  31              		.cfi_offset 4, -20
  32              		.cfi_offset 5, -16
  33              		.cfi_offset 6, -12
  34              		.cfi_offset 7, -8
  35              		.cfi_offset 14, -4
  36 0002 4F46     		mov	r7, r9
  37 0004 4646     		mov	r6, r8
  38 0006 C0B4     		push	{r6, r7}
  39              		.cfi_def_cfa_offset 28
  40              		.cfi_offset 8, -28
  41              		.cfi_offset 9, -24
  42 0008 9146     		mov	r9, r2
  43 000a 83B0     		sub	sp, sp, #12
  44              		.cfi_def_cfa_offset 40
  45              		.loc 1 99 0
  46 000c 061C     		mov	r6, r0
  47 000e 0F1E     		sub	r7, r1, #0
  48 0010 9846     		mov	r8, r3
 100:Generated_Source\PSoC4/I2C_1_I2C_MASTER.c ****     uint32 errStatus;
 101:Generated_Source\PSoC4/I2C_1_I2C_MASTER.c **** 
 102:Generated_Source\PSoC4/I2C_1_I2C_MASTER.c ****     errStatus = I2C_1_I2C_MSTR_NOT_READY;
 103:Generated_Source\PSoC4/I2C_1_I2C_MASTER.c **** 
 104:Generated_Source\PSoC4/I2C_1_I2C_MASTER.c ****     if(NULL != wrData)  /* Check buffer pointer */
  49              		.loc 1 104 0
  50 0012 10D0     		beq	.L9
 105:Generated_Source\PSoC4/I2C_1_I2C_MASTER.c ****     {
 106:Generated_Source\PSoC4/I2C_1_I2C_MASTER.c ****         /* Check FSM state and bus before generating Start/ReStart condition */
 107:Generated_Source\PSoC4/I2C_1_I2C_MASTER.c ****         if(I2C_1_CHECK_I2C_FSM_IDLE)
  51              		.loc 1 107 0
  52 0014 2B4D     		ldr	r5, .L20
  53 0016 2B78     		ldrb	r3, [r5]
  54              	.LVL1:
  55 0018 102B     		cmp	r3, #16
  56 001a 49D0     		beq	.L17
 108:Generated_Source\PSoC4/I2C_1_I2C_MASTER.c ****         {
 109:Generated_Source\PSoC4/I2C_1_I2C_MASTER.c ****             I2C_1_DisableInt();  /* Lock from interruption */
 110:Generated_Source\PSoC4/I2C_1_I2C_MASTER.c **** 
 111:Generated_Source\PSoC4/I2C_1_I2C_MASTER.c ****             /* Check bus state */
 112:Generated_Source\PSoC4/I2C_1_I2C_MASTER.c ****             errStatus = I2C_1_CHECK_I2C_STATUS(I2C_1_I2C_STATUS_BUS_BUSY) ?
 113:Generated_Source\PSoC4/I2C_1_I2C_MASTER.c ****                             I2C_1_I2C_MSTR_BUS_BUSY : I2C_1_I2C_MSTR_NO_ERROR;
 114:Generated_Source\PSoC4/I2C_1_I2C_MASTER.c ****         }
 115:Generated_Source\PSoC4/I2C_1_I2C_MASTER.c ****         else if(I2C_1_CHECK_I2C_FSM_HALT)
ARM GAS  C:\Users\glenn\AppData\Local\Temp\cclrFd8J.s 			page 4


  57              		.loc 1 115 0
  58 001c 2B78     		ldrb	r3, [r5]
 102:Generated_Source\PSoC4/I2C_1_I2C_MASTER.c **** 
  59              		.loc 1 102 0
  60 001e 0424     		mov	r4, #4
  61              		.loc 1 115 0
  62 0020 602B     		cmp	r3, #96
  63 0022 0AD0     		beq	.L18
  64              	.LVL2:
  65              	.L6:
 116:Generated_Source\PSoC4/I2C_1_I2C_MASTER.c ****         {
 117:Generated_Source\PSoC4/I2C_1_I2C_MASTER.c ****             I2C_1_mstrStatus &= (uint16) ~I2C_1_I2C_MSTAT_XFER_HALT;
 118:Generated_Source\PSoC4/I2C_1_I2C_MASTER.c ****                               errStatus  = I2C_1_I2C_MSTR_NO_ERROR;
 119:Generated_Source\PSoC4/I2C_1_I2C_MASTER.c ****         }
 120:Generated_Source\PSoC4/I2C_1_I2C_MASTER.c ****         else
 121:Generated_Source\PSoC4/I2C_1_I2C_MASTER.c ****         {
 122:Generated_Source\PSoC4/I2C_1_I2C_MASTER.c ****             /* Unexpected FSM state: exit */
 123:Generated_Source\PSoC4/I2C_1_I2C_MASTER.c ****         }
 124:Generated_Source\PSoC4/I2C_1_I2C_MASTER.c ****     }
 125:Generated_Source\PSoC4/I2C_1_I2C_MASTER.c **** 
 126:Generated_Source\PSoC4/I2C_1_I2C_MASTER.c ****     /* Check if master is ready to start  */
 127:Generated_Source\PSoC4/I2C_1_I2C_MASTER.c ****     if(I2C_1_I2C_MSTR_NO_ERROR == errStatus) /* No error proceed */
 128:Generated_Source\PSoC4/I2C_1_I2C_MASTER.c ****     {
 129:Generated_Source\PSoC4/I2C_1_I2C_MASTER.c ****     #if (!I2C_1_CY_SCBIP_V0 && \
 130:Generated_Source\PSoC4/I2C_1_I2C_MASTER.c ****         I2C_1_I2C_MULTI_MASTER_SLAVE_CONST && I2C_1_I2C_WAKE_ENABLE_CONST)
 131:Generated_Source\PSoC4/I2C_1_I2C_MASTER.c ****             I2C_1_I2CMasterDisableEcAm();
 132:Generated_Source\PSoC4/I2C_1_I2C_MASTER.c ****     #endif /* (!I2C_1_CY_SCBIP_V0) */
 133:Generated_Source\PSoC4/I2C_1_I2C_MASTER.c **** 
 134:Generated_Source\PSoC4/I2C_1_I2C_MASTER.c ****         /* Set up write transaction */
 135:Generated_Source\PSoC4/I2C_1_I2C_MASTER.c ****         I2C_1_state = I2C_1_I2C_FSM_MSTR_WR_ADDR;
 136:Generated_Source\PSoC4/I2C_1_I2C_MASTER.c ****         I2C_1_mstrWrBufIndexTmp = 0u;
 137:Generated_Source\PSoC4/I2C_1_I2C_MASTER.c ****         I2C_1_mstrWrBufIndex    = 0u;
 138:Generated_Source\PSoC4/I2C_1_I2C_MASTER.c ****         I2C_1_mstrWrBufSize     = cnt;
 139:Generated_Source\PSoC4/I2C_1_I2C_MASTER.c ****         I2C_1_mstrWrBufPtr      = (volatile uint8 *) wrData;
 140:Generated_Source\PSoC4/I2C_1_I2C_MASTER.c ****         I2C_1_mstrControl       = (uint8) mode;
 141:Generated_Source\PSoC4/I2C_1_I2C_MASTER.c **** 
 142:Generated_Source\PSoC4/I2C_1_I2C_MASTER.c ****         slaveAddress = I2C_1_GET_I2C_8BIT_ADDRESS(slaveAddress);
 143:Generated_Source\PSoC4/I2C_1_I2C_MASTER.c **** 
 144:Generated_Source\PSoC4/I2C_1_I2C_MASTER.c ****         I2C_1_mstrStatus &= (uint16) ~I2C_1_I2C_MSTAT_WR_CMPLT;
 145:Generated_Source\PSoC4/I2C_1_I2C_MASTER.c **** 
 146:Generated_Source\PSoC4/I2C_1_I2C_MASTER.c ****         I2C_1_ClearMasterInterruptSource(I2C_1_INTR_MASTER_ALL);
 147:Generated_Source\PSoC4/I2C_1_I2C_MASTER.c ****         I2C_1_ClearTxInterruptSource(I2C_1_INTR_TX_UNDERFLOW);
 148:Generated_Source\PSoC4/I2C_1_I2C_MASTER.c **** 
 149:Generated_Source\PSoC4/I2C_1_I2C_MASTER.c ****         /* The TX and RX FIFO have to be EMPTY */
 150:Generated_Source\PSoC4/I2C_1_I2C_MASTER.c **** 
 151:Generated_Source\PSoC4/I2C_1_I2C_MASTER.c ****         /* Enable interrupt source to catch when address is sent */
 152:Generated_Source\PSoC4/I2C_1_I2C_MASTER.c ****         I2C_1_SetTxInterruptMode(I2C_1_INTR_TX_UNDERFLOW);
 153:Generated_Source\PSoC4/I2C_1_I2C_MASTER.c **** 
 154:Generated_Source\PSoC4/I2C_1_I2C_MASTER.c ****         /* Generate Start or ReStart */
 155:Generated_Source\PSoC4/I2C_1_I2C_MASTER.c ****         if(I2C_1_CHECK_I2C_MODE_RESTART(mode))
 156:Generated_Source\PSoC4/I2C_1_I2C_MASTER.c ****         {
 157:Generated_Source\PSoC4/I2C_1_I2C_MASTER.c ****             I2C_1_I2C_MASTER_GENERATE_RESTART;
 158:Generated_Source\PSoC4/I2C_1_I2C_MASTER.c ****             I2C_1_TX_FIFO_WR_REG = slaveAddress;
 159:Generated_Source\PSoC4/I2C_1_I2C_MASTER.c ****         }
 160:Generated_Source\PSoC4/I2C_1_I2C_MASTER.c ****         else
 161:Generated_Source\PSoC4/I2C_1_I2C_MASTER.c ****         {
 162:Generated_Source\PSoC4/I2C_1_I2C_MASTER.c ****             I2C_1_TX_FIFO_WR_REG = slaveAddress;
ARM GAS  C:\Users\glenn\AppData\Local\Temp\cclrFd8J.s 			page 5


 163:Generated_Source\PSoC4/I2C_1_I2C_MASTER.c ****             I2C_1_I2C_MASTER_GENERATE_START;
 164:Generated_Source\PSoC4/I2C_1_I2C_MASTER.c ****         }
 165:Generated_Source\PSoC4/I2C_1_I2C_MASTER.c ****     }
 166:Generated_Source\PSoC4/I2C_1_I2C_MASTER.c **** 
 167:Generated_Source\PSoC4/I2C_1_I2C_MASTER.c ****     I2C_1_EnableInt();   /* Release lock */
  66              		.loc 1 167 0
  67 0024 0820     		mov	r0, #8
  68 0026 FFF7FEFF 		bl	CyIntEnable
  69              	.LVL3:
 168:Generated_Source\PSoC4/I2C_1_I2C_MASTER.c **** 
 169:Generated_Source\PSoC4/I2C_1_I2C_MASTER.c ****     return(errStatus);
 170:Generated_Source\PSoC4/I2C_1_I2C_MASTER.c **** }
  70              		.loc 1 170 0
  71 002a 201C     		mov	r0, r4
  72 002c 03B0     		add	sp, sp, #12
  73              		@ sp needed
  74              	.LVL4:
  75              	.LVL5:
  76              	.LVL6:
  77              	.LVL7:
  78 002e 0CBC     		pop	{r2, r3}
  79 0030 9046     		mov	r8, r2
  80 0032 9946     		mov	r9, r3
  81 0034 F0BD     		pop	{r4, r5, r6, r7, pc}
  82              	.LVL8:
  83              	.L9:
 102:Generated_Source\PSoC4/I2C_1_I2C_MASTER.c **** 
  84              		.loc 1 102 0
  85 0036 0424     		mov	r4, #4
  86 0038 F4E7     		b	.L6
  87              	.LVL9:
  88              	.L18:
 117:Generated_Source\PSoC4/I2C_1_I2C_MASTER.c ****                               errStatus  = I2C_1_I2C_MSTR_NO_ERROR;
  89              		.loc 1 117 0
  90 003a 0821     		mov	r1, #8
  91              	.LVL10:
  92 003c 224B     		ldr	r3, .L20+4
  93 003e 1A88     		ldrh	r2, [r3]
  94              	.LVL11:
  95 0040 8A43     		bic	r2, r1
  96 0042 1A80     		strh	r2, [r3]
  97              	.LVL12:
  98              	.L4:
 135:Generated_Source\PSoC4/I2C_1_I2C_MASTER.c ****         I2C_1_mstrWrBufIndexTmp = 0u;
  99              		.loc 1 135 0
 100 0044 2822     		mov	r2, #40
 101 0046 2A70     		strb	r2, [r5]
 136:Generated_Source\PSoC4/I2C_1_I2C_MASTER.c ****         I2C_1_mstrWrBufIndex    = 0u;
 102              		.loc 1 136 0
 103 0048 0022     		mov	r2, #0
 104 004a 2049     		ldr	r1, .L20+8
 142:Generated_Source\PSoC4/I2C_1_I2C_MASTER.c **** 
 105              		.loc 1 142 0
 106 004c 7600     		lsl	r6, r6, #1
 107              	.LVL13:
 136:Generated_Source\PSoC4/I2C_1_I2C_MASTER.c ****         I2C_1_mstrWrBufIndex    = 0u;
 108              		.loc 1 136 0
ARM GAS  C:\Users\glenn\AppData\Local\Temp\cclrFd8J.s 			page 6


 109 004e 0A60     		str	r2, [r1]
 137:Generated_Source\PSoC4/I2C_1_I2C_MASTER.c ****         I2C_1_mstrWrBufSize     = cnt;
 110              		.loc 1 137 0
 111 0050 1F49     		ldr	r1, .L20+12
 112 0052 0A60     		str	r2, [r1]
 138:Generated_Source\PSoC4/I2C_1_I2C_MASTER.c ****         I2C_1_mstrWrBufPtr      = (volatile uint8 *) wrData;
 113              		.loc 1 138 0
 114 0054 4946     		mov	r1, r9
 115 0056 1F4A     		ldr	r2, .L20+16
 116 0058 1160     		str	r1, [r2]
 139:Generated_Source\PSoC4/I2C_1_I2C_MASTER.c ****         I2C_1_mstrControl       = (uint8) mode;
 117              		.loc 1 139 0
 118 005a 1F4A     		ldr	r2, .L20+20
 140:Generated_Source\PSoC4/I2C_1_I2C_MASTER.c **** 
 119              		.loc 1 140 0
 120 005c 6946     		mov	r1, sp
 139:Generated_Source\PSoC4/I2C_1_I2C_MASTER.c ****         I2C_1_mstrControl       = (uint8) mode;
 121              		.loc 1 139 0
 122 005e 1760     		str	r7, [r2]
 140:Generated_Source\PSoC4/I2C_1_I2C_MASTER.c **** 
 123              		.loc 1 140 0
 124 0060 4246     		mov	r2, r8
 125 0062 CA71     		strb	r2, [r1, #7]
 126 0064 C979     		ldrb	r1, [r1, #7]
 127 0066 1D4A     		ldr	r2, .L20+24
 128 0068 1170     		strb	r1, [r2]
 142:Generated_Source\PSoC4/I2C_1_I2C_MASTER.c **** 
 129              		.loc 1 142 0
 130 006a FF22     		mov	r2, #255
 144:Generated_Source\PSoC4/I2C_1_I2C_MASTER.c **** 
 131              		.loc 1 144 0
 132 006c 1988     		ldrh	r1, [r3]
 142:Generated_Source\PSoC4/I2C_1_I2C_MASTER.c **** 
 133              		.loc 1 142 0
 134 006e 1640     		and	r6, r2
 135              	.LVL14:
 144:Generated_Source\PSoC4/I2C_1_I2C_MASTER.c **** 
 136              		.loc 1 144 0
 137 0070 FD3A     		sub	r2, r2, #253
 138 0072 9143     		bic	r1, r2
 139 0074 1980     		strh	r1, [r3]
 146:Generated_Source\PSoC4/I2C_1_I2C_MASTER.c ****         I2C_1_ClearTxInterruptSource(I2C_1_INTR_TX_UNDERFLOW);
 140              		.loc 1 146 0
 141 0076 1A49     		ldr	r1, .L20+28
 142 0078 1A4B     		ldr	r3, .L20+32
 143 007a 1960     		str	r1, [r3]
 147:Generated_Source\PSoC4/I2C_1_I2C_MASTER.c **** 
 144              		.loc 1 147 0
 145 007c 4023     		mov	r3, #64
 146 007e 1A49     		ldr	r1, .L20+36
 147 0080 0B60     		str	r3, [r1]
 152:Generated_Source\PSoC4/I2C_1_I2C_MASTER.c **** 
 148              		.loc 1 152 0
 149 0082 1A49     		ldr	r1, .L20+40
 150 0084 0B60     		str	r3, [r1]
 155:Generated_Source\PSoC4/I2C_1_I2C_MASTER.c ****         {
 151              		.loc 1 155 0
ARM GAS  C:\Users\glenn\AppData\Local\Temp\cclrFd8J.s 			page 7


 152 0086 4346     		mov	r3, r8
 153 0088 DB07     		lsl	r3, r3, #31
 154 008a 0BD5     		bpl	.L19
 155              	.LVL15:
 156              	.LBB8:
 157              	.LBB9:
 171:Generated_Source\PSoC4/I2C_1_I2C_MASTER.c **** 
 172:Generated_Source\PSoC4/I2C_1_I2C_MASTER.c **** 
 173:Generated_Source\PSoC4/I2C_1_I2C_MASTER.c **** /*******************************************************************************
 174:Generated_Source\PSoC4/I2C_1_I2C_MASTER.c **** * Function Name: I2C_1_I2CMasterReadBuf
 175:Generated_Source\PSoC4/I2C_1_I2C_MASTER.c **** ****************************************************************************//**
 176:Generated_Source\PSoC4/I2C_1_I2C_MASTER.c **** *
 177:Generated_Source\PSoC4/I2C_1_I2C_MASTER.c **** *  Automatically reads an entire buffer of data from a slave device.
 178:Generated_Source\PSoC4/I2C_1_I2C_MASTER.c **** *  Once the data transfer is initiated by this function, further data transfer
 179:Generated_Source\PSoC4/I2C_1_I2C_MASTER.c **** *  is handled by the included ISR.
 180:Generated_Source\PSoC4/I2C_1_I2C_MASTER.c **** *  Enables the I2C interrupt and clears I2C_1_I2C_MSTAT_RD_CMPLT 
 181:Generated_Source\PSoC4/I2C_1_I2C_MASTER.c **** *  status.
 182:Generated_Source\PSoC4/I2C_1_I2C_MASTER.c **** *
 183:Generated_Source\PSoC4/I2C_1_I2C_MASTER.c **** *  \param slaveAddr: 7-bit slave address.
 184:Generated_Source\PSoC4/I2C_1_I2C_MASTER.c **** *  \param xferData: Pointer to buffer of data to be sent.
 185:Generated_Source\PSoC4/I2C_1_I2C_MASTER.c **** *  \param cnt: Size of buffer to send.
 186:Generated_Source\PSoC4/I2C_1_I2C_MASTER.c **** *  \param mode: Transfer mode defines:
 187:Generated_Source\PSoC4/I2C_1_I2C_MASTER.c **** *  (1) Whether a start or restart condition is generated at the beginning 
 188:Generated_Source\PSoC4/I2C_1_I2C_MASTER.c **** *  of the transfer, and
 189:Generated_Source\PSoC4/I2C_1_I2C_MASTER.c **** *  (2) Whether the transfer is completed or halted before the stop 
 190:Generated_Source\PSoC4/I2C_1_I2C_MASTER.c **** *  condition is generated on the bus.Transfer mode, mode constants may 
 191:Generated_Source\PSoC4/I2C_1_I2C_MASTER.c **** *  be ORed together. See I2C_1_I2CMasterWriteBuf() 
 192:Generated_Source\PSoC4/I2C_1_I2C_MASTER.c **** *  function for constants.
 193:Generated_Source\PSoC4/I2C_1_I2C_MASTER.c **** *
 194:Generated_Source\PSoC4/I2C_1_I2C_MASTER.c **** * \return
 195:Generated_Source\PSoC4/I2C_1_I2C_MASTER.c **** *  Error status.See I2C_1_I2CMasterWriteBuf() 
 196:Generated_Source\PSoC4/I2C_1_I2C_MASTER.c **** *  function for constants.
 197:Generated_Source\PSoC4/I2C_1_I2C_MASTER.c **** *
 198:Generated_Source\PSoC4/I2C_1_I2C_MASTER.c **** * \globalvars
 199:Generated_Source\PSoC4/I2C_1_I2C_MASTER.c **** *  I2C_1_mstrStatus  - used to store current status of I2C Master.
 200:Generated_Source\PSoC4/I2C_1_I2C_MASTER.c **** *  I2C_1_state       - used to store current state of software FSM.
 201:Generated_Source\PSoC4/I2C_1_I2C_MASTER.c **** *  I2C_1_mstrControl - used to control master end of transaction with
 202:Generated_Source\PSoC4/I2C_1_I2C_MASTER.c **** *  or without the Stop generation.
 203:Generated_Source\PSoC4/I2C_1_I2C_MASTER.c **** *  I2C_1_mstrRdBufPtr - used to store pointer to master read buffer.
 204:Generated_Source\PSoC4/I2C_1_I2C_MASTER.c **** *  I2C_1_mstrRdBufIndex - used to current index within master read
 205:Generated_Source\PSoC4/I2C_1_I2C_MASTER.c **** *  buffer.
 206:Generated_Source\PSoC4/I2C_1_I2C_MASTER.c **** *  I2C_1_mstrRdBufSize - used to store master read buffer size.
 207:Generated_Source\PSoC4/I2C_1_I2C_MASTER.c **** *
 208:Generated_Source\PSoC4/I2C_1_I2C_MASTER.c **** *******************************************************************************/
 209:Generated_Source\PSoC4/I2C_1_I2C_MASTER.c **** uint32 I2C_1_I2CMasterReadBuf(uint32 slaveAddress, uint8 * rdData, uint32 cnt, uint32 mode)
 210:Generated_Source\PSoC4/I2C_1_I2C_MASTER.c **** {
 211:Generated_Source\PSoC4/I2C_1_I2C_MASTER.c ****     uint32 errStatus;
 212:Generated_Source\PSoC4/I2C_1_I2C_MASTER.c **** 
 213:Generated_Source\PSoC4/I2C_1_I2C_MASTER.c ****     errStatus = I2C_1_I2C_MSTR_NOT_READY;
 214:Generated_Source\PSoC4/I2C_1_I2C_MASTER.c **** 
 215:Generated_Source\PSoC4/I2C_1_I2C_MASTER.c ****     if(NULL != rdData)
 216:Generated_Source\PSoC4/I2C_1_I2C_MASTER.c ****     {
 217:Generated_Source\PSoC4/I2C_1_I2C_MASTER.c ****         /* Check FSM state and bus before generating Start/ReStart condition */
 218:Generated_Source\PSoC4/I2C_1_I2C_MASTER.c ****         if(I2C_1_CHECK_I2C_FSM_IDLE)
 219:Generated_Source\PSoC4/I2C_1_I2C_MASTER.c ****         {
 220:Generated_Source\PSoC4/I2C_1_I2C_MASTER.c ****             I2C_1_DisableInt();  /* Lock from interruption */
 221:Generated_Source\PSoC4/I2C_1_I2C_MASTER.c **** 
ARM GAS  C:\Users\glenn\AppData\Local\Temp\cclrFd8J.s 			page 8


 222:Generated_Source\PSoC4/I2C_1_I2C_MASTER.c ****             /* Check bus state */
 223:Generated_Source\PSoC4/I2C_1_I2C_MASTER.c ****             errStatus = I2C_1_CHECK_I2C_STATUS(I2C_1_I2C_STATUS_BUS_BUSY) ?
 224:Generated_Source\PSoC4/I2C_1_I2C_MASTER.c ****                             I2C_1_I2C_MSTR_BUS_BUSY : I2C_1_I2C_MSTR_NO_ERROR;
 225:Generated_Source\PSoC4/I2C_1_I2C_MASTER.c ****         }
 226:Generated_Source\PSoC4/I2C_1_I2C_MASTER.c ****         else if(I2C_1_CHECK_I2C_FSM_HALT)
 227:Generated_Source\PSoC4/I2C_1_I2C_MASTER.c ****         {
 228:Generated_Source\PSoC4/I2C_1_I2C_MASTER.c ****             I2C_1_mstrStatus &= (uint16) ~I2C_1_I2C_MSTAT_XFER_HALT;
 229:Generated_Source\PSoC4/I2C_1_I2C_MASTER.c ****                               errStatus  =  I2C_1_I2C_MSTR_NO_ERROR;
 230:Generated_Source\PSoC4/I2C_1_I2C_MASTER.c ****         }
 231:Generated_Source\PSoC4/I2C_1_I2C_MASTER.c ****         else
 232:Generated_Source\PSoC4/I2C_1_I2C_MASTER.c ****         {
 233:Generated_Source\PSoC4/I2C_1_I2C_MASTER.c ****             /* Unexpected FSM state: exit */
 234:Generated_Source\PSoC4/I2C_1_I2C_MASTER.c ****         }
 235:Generated_Source\PSoC4/I2C_1_I2C_MASTER.c ****     }
 236:Generated_Source\PSoC4/I2C_1_I2C_MASTER.c **** 
 237:Generated_Source\PSoC4/I2C_1_I2C_MASTER.c ****     /* Check master ready to proceed */
 238:Generated_Source\PSoC4/I2C_1_I2C_MASTER.c ****     if(I2C_1_I2C_MSTR_NO_ERROR == errStatus) /* No error proceed */
 239:Generated_Source\PSoC4/I2C_1_I2C_MASTER.c ****     {
 240:Generated_Source\PSoC4/I2C_1_I2C_MASTER.c ****         #if (!I2C_1_CY_SCBIP_V0 && \
 241:Generated_Source\PSoC4/I2C_1_I2C_MASTER.c ****         I2C_1_I2C_MULTI_MASTER_SLAVE_CONST && I2C_1_I2C_WAKE_ENABLE_CONST)
 242:Generated_Source\PSoC4/I2C_1_I2C_MASTER.c ****             I2C_1_I2CMasterDisableEcAm();
 243:Generated_Source\PSoC4/I2C_1_I2C_MASTER.c ****         #endif /* (!I2C_1_CY_SCBIP_V0) */
 244:Generated_Source\PSoC4/I2C_1_I2C_MASTER.c **** 
 245:Generated_Source\PSoC4/I2C_1_I2C_MASTER.c ****         /* Set up read transaction */
 246:Generated_Source\PSoC4/I2C_1_I2C_MASTER.c ****         I2C_1_state = I2C_1_I2C_FSM_MSTR_RD_ADDR;
 247:Generated_Source\PSoC4/I2C_1_I2C_MASTER.c ****         I2C_1_mstrRdBufIndex = 0u;
 248:Generated_Source\PSoC4/I2C_1_I2C_MASTER.c ****         I2C_1_mstrRdBufSize  = cnt;
 249:Generated_Source\PSoC4/I2C_1_I2C_MASTER.c ****         I2C_1_mstrRdBufPtr   = (volatile uint8 *) rdData;
 250:Generated_Source\PSoC4/I2C_1_I2C_MASTER.c ****         I2C_1_mstrControl    = (uint8) mode;
 251:Generated_Source\PSoC4/I2C_1_I2C_MASTER.c **** 
 252:Generated_Source\PSoC4/I2C_1_I2C_MASTER.c ****         slaveAddress = (I2C_1_GET_I2C_8BIT_ADDRESS(slaveAddress) | I2C_1_I2C_READ_FLAG);
 253:Generated_Source\PSoC4/I2C_1_I2C_MASTER.c **** 
 254:Generated_Source\PSoC4/I2C_1_I2C_MASTER.c ****         I2C_1_mstrStatus &= (uint16) ~I2C_1_I2C_MSTAT_RD_CMPLT;
 255:Generated_Source\PSoC4/I2C_1_I2C_MASTER.c **** 
 256:Generated_Source\PSoC4/I2C_1_I2C_MASTER.c ****         I2C_1_ClearMasterInterruptSource(I2C_1_INTR_MASTER_ALL);
 257:Generated_Source\PSoC4/I2C_1_I2C_MASTER.c **** 
 258:Generated_Source\PSoC4/I2C_1_I2C_MASTER.c ****         /* TX and RX FIFO have to be EMPTY */
 259:Generated_Source\PSoC4/I2C_1_I2C_MASTER.c **** 
 260:Generated_Source\PSoC4/I2C_1_I2C_MASTER.c ****         /* Prepare reading */
 261:Generated_Source\PSoC4/I2C_1_I2C_MASTER.c ****         if(I2C_1_mstrRdBufSize < I2C_1_I2C_FIFO_SIZE)
 262:Generated_Source\PSoC4/I2C_1_I2C_MASTER.c ****         {
 263:Generated_Source\PSoC4/I2C_1_I2C_MASTER.c ****             /* Reading byte-by-byte */
 264:Generated_Source\PSoC4/I2C_1_I2C_MASTER.c ****             I2C_1_SetRxInterruptMode(I2C_1_INTR_RX_NOT_EMPTY);
 265:Generated_Source\PSoC4/I2C_1_I2C_MASTER.c ****         }
 266:Generated_Source\PSoC4/I2C_1_I2C_MASTER.c ****         else
 267:Generated_Source\PSoC4/I2C_1_I2C_MASTER.c ****         {
 268:Generated_Source\PSoC4/I2C_1_I2C_MASTER.c ****             /* Receive RX FIFO chunks */
 269:Generated_Source\PSoC4/I2C_1_I2C_MASTER.c ****             I2C_1_ENABLE_MASTER_AUTO_DATA_ACK;
 270:Generated_Source\PSoC4/I2C_1_I2C_MASTER.c ****             I2C_1_SetRxInterruptMode(I2C_1_INTR_RX_FULL);
 271:Generated_Source\PSoC4/I2C_1_I2C_MASTER.c ****         }
 272:Generated_Source\PSoC4/I2C_1_I2C_MASTER.c **** 
 273:Generated_Source\PSoC4/I2C_1_I2C_MASTER.c ****         /* Generate Start or ReStart */
 274:Generated_Source\PSoC4/I2C_1_I2C_MASTER.c ****         if(I2C_1_CHECK_I2C_MODE_RESTART(mode))
 275:Generated_Source\PSoC4/I2C_1_I2C_MASTER.c ****         {
 276:Generated_Source\PSoC4/I2C_1_I2C_MASTER.c ****             I2C_1_I2C_MASTER_GENERATE_RESTART;
 277:Generated_Source\PSoC4/I2C_1_I2C_MASTER.c ****             I2C_1_TX_FIFO_WR_REG = (slaveAddress);
 278:Generated_Source\PSoC4/I2C_1_I2C_MASTER.c ****         }
ARM GAS  C:\Users\glenn\AppData\Local\Temp\cclrFd8J.s 			page 9


 279:Generated_Source\PSoC4/I2C_1_I2C_MASTER.c ****         else
 280:Generated_Source\PSoC4/I2C_1_I2C_MASTER.c ****         {
 281:Generated_Source\PSoC4/I2C_1_I2C_MASTER.c ****             I2C_1_TX_FIFO_WR_REG = (slaveAddress);
 282:Generated_Source\PSoC4/I2C_1_I2C_MASTER.c ****             I2C_1_I2C_MASTER_GENERATE_START;
 283:Generated_Source\PSoC4/I2C_1_I2C_MASTER.c ****         }
 284:Generated_Source\PSoC4/I2C_1_I2C_MASTER.c ****     }
 285:Generated_Source\PSoC4/I2C_1_I2C_MASTER.c **** 
 286:Generated_Source\PSoC4/I2C_1_I2C_MASTER.c ****     I2C_1_EnableInt();   /* Release lock */
 287:Generated_Source\PSoC4/I2C_1_I2C_MASTER.c **** 
 288:Generated_Source\PSoC4/I2C_1_I2C_MASTER.c ****     return(errStatus);
 289:Generated_Source\PSoC4/I2C_1_I2C_MASTER.c **** }
 290:Generated_Source\PSoC4/I2C_1_I2C_MASTER.c **** 
 291:Generated_Source\PSoC4/I2C_1_I2C_MASTER.c **** 
 292:Generated_Source\PSoC4/I2C_1_I2C_MASTER.c **** /*******************************************************************************
 293:Generated_Source\PSoC4/I2C_1_I2C_MASTER.c **** * Function Name: I2C_1_I2CMasterSendStart
 294:Generated_Source\PSoC4/I2C_1_I2C_MASTER.c **** ****************************************************************************//**
 295:Generated_Source\PSoC4/I2C_1_I2C_MASTER.c **** *
 296:Generated_Source\PSoC4/I2C_1_I2C_MASTER.c **** *  Generates Start condition and sends slave address with read/write bit.
 297:Generated_Source\PSoC4/I2C_1_I2C_MASTER.c **** *  Disables the I2C interrupt.
 298:Generated_Source\PSoC4/I2C_1_I2C_MASTER.c **** *  This function is blocking and does not return until start condition and
 299:Generated_Source\PSoC4/I2C_1_I2C_MASTER.c **** *  address byte are sent and ACK/NACK response is received or errors occurred.
 300:Generated_Source\PSoC4/I2C_1_I2C_MASTER.c **** *
 301:Generated_Source\PSoC4/I2C_1_I2C_MASTER.c **** * \param slaveAddress: Right justified 7-bit Slave address (valid range 
 302:Generated_Source\PSoC4/I2C_1_I2C_MASTER.c **** *  8 to 120).
 303:Generated_Source\PSoC4/I2C_1_I2C_MASTER.c **** * \param bitRnW: Direction of the following transfer. 
 304:Generated_Source\PSoC4/I2C_1_I2C_MASTER.c **** *  It is defined by read/write bit within address byte.
 305:Generated_Source\PSoC4/I2C_1_I2C_MASTER.c **** *  - I2C_1_I2C_WRITE_XFER_MODE - Set write direction for the 
 306:Generated_Source\PSoC4/I2C_1_I2C_MASTER.c **** *    following transfer.
 307:Generated_Source\PSoC4/I2C_1_I2C_MASTER.c **** *  - I2C_1_I2C_READ_XFER_MODE - Set read direction for the 
 308:Generated_Source\PSoC4/I2C_1_I2C_MASTER.c **** *    following transfer.
 309:Generated_Source\PSoC4/I2C_1_I2C_MASTER.c **** *
 310:Generated_Source\PSoC4/I2C_1_I2C_MASTER.c **** * \return
 311:Generated_Source\PSoC4/I2C_1_I2C_MASTER.c **** *  Error status.
 312:Generated_Source\PSoC4/I2C_1_I2C_MASTER.c **** *   - I2C_1_I2C_MSTR_NO_ERROR - Function complete without error.
 313:Generated_Source\PSoC4/I2C_1_I2C_MASTER.c **** *   - I2C_1_I2C_MSTR_BUS_BUSY - Bus is busy. 
 314:Generated_Source\PSoC4/I2C_1_I2C_MASTER.c **** *     Nothing was sent on the bus. The attempt has to be retried.
 315:Generated_Source\PSoC4/I2C_1_I2C_MASTER.c **** *   - I2C_1_I2C_MSTR_NOT_READY - Master is not ready for to 
 316:Generated_Source\PSoC4/I2C_1_I2C_MASTER.c **** *     start transfer.
 317:Generated_Source\PSoC4/I2C_1_I2C_MASTER.c **** *     A master still has not completed previous transaction or a slave 
 318:Generated_Source\PSoC4/I2C_1_I2C_MASTER.c **** *     operation is in progress (in multi-master-slave configuration).
 319:Generated_Source\PSoC4/I2C_1_I2C_MASTER.c **** *     Nothing was sent on the bus. The attempt has to be retried.
 320:Generated_Source\PSoC4/I2C_1_I2C_MASTER.c **** *   - I2C_1_I2C_MSTR_ERR_LB_NAK - Error condition: Last byte was 
 321:Generated_Source\PSoC4/I2C_1_I2C_MASTER.c **** *     NAKed.
 322:Generated_Source\PSoC4/I2C_1_I2C_MASTER.c **** *   - I2C_1_I2C_MSTR_ERR_ARB_LOST - Error condition: Master lost 
 323:Generated_Source\PSoC4/I2C_1_I2C_MASTER.c **** *     arbitration.
 324:Generated_Source\PSoC4/I2C_1_I2C_MASTER.c **** *   - I2C_1_I2C_MSTR_ERR_BUS_ERR - Error condition: Master 
 325:Generated_Source\PSoC4/I2C_1_I2C_MASTER.c **** *     encountered a bus error. Bus error is misplaced start or stop detection.
 326:Generated_Source\PSoC4/I2C_1_I2C_MASTER.c **** *   - I2C_1_I2C_MSTR_ERR_ABORT_START - Error condition: The start 
 327:Generated_Source\PSoC4/I2C_1_I2C_MASTER.c **** *     condition generation was aborted due to beginning of Slave operation. 
 328:Generated_Source\PSoC4/I2C_1_I2C_MASTER.c **** *     This error condition is only applicable for Multi-Master-Slave mode.
 329:Generated_Source\PSoC4/I2C_1_I2C_MASTER.c **** *
 330:Generated_Source\PSoC4/I2C_1_I2C_MASTER.c **** * \globalvars
 331:Generated_Source\PSoC4/I2C_1_I2C_MASTER.c **** *  I2C_1_state - used to store current state of software FSM.
 332:Generated_Source\PSoC4/I2C_1_I2C_MASTER.c **** *
 333:Generated_Source\PSoC4/I2C_1_I2C_MASTER.c **** *******************************************************************************/
 334:Generated_Source\PSoC4/I2C_1_I2C_MASTER.c **** uint32 I2C_1_I2CMasterSendStart(uint32 slaveAddress, uint32 bitRnW)
 335:Generated_Source\PSoC4/I2C_1_I2C_MASTER.c **** {
ARM GAS  C:\Users\glenn\AppData\Local\Temp\cclrFd8J.s 			page 10


 336:Generated_Source\PSoC4/I2C_1_I2C_MASTER.c ****     uint32  resetIp;
 337:Generated_Source\PSoC4/I2C_1_I2C_MASTER.c ****     uint32 errStatus;
 338:Generated_Source\PSoC4/I2C_1_I2C_MASTER.c **** 
 339:Generated_Source\PSoC4/I2C_1_I2C_MASTER.c ****     resetIp   = 0u;
 340:Generated_Source\PSoC4/I2C_1_I2C_MASTER.c ****     errStatus = I2C_1_I2C_MSTR_NOT_READY;
 341:Generated_Source\PSoC4/I2C_1_I2C_MASTER.c **** 
 342:Generated_Source\PSoC4/I2C_1_I2C_MASTER.c ****     /* Check FSM state before generating Start condition */
 343:Generated_Source\PSoC4/I2C_1_I2C_MASTER.c ****     if(I2C_1_CHECK_I2C_FSM_IDLE)
 344:Generated_Source\PSoC4/I2C_1_I2C_MASTER.c ****     {
 345:Generated_Source\PSoC4/I2C_1_I2C_MASTER.c ****         /* If bus is free, generate Start condition */
 346:Generated_Source\PSoC4/I2C_1_I2C_MASTER.c ****         if(I2C_1_CHECK_I2C_STATUS(I2C_1_I2C_STATUS_BUS_BUSY))
 347:Generated_Source\PSoC4/I2C_1_I2C_MASTER.c ****         {
 348:Generated_Source\PSoC4/I2C_1_I2C_MASTER.c ****             errStatus = I2C_1_I2C_MSTR_BUS_BUSY;
 349:Generated_Source\PSoC4/I2C_1_I2C_MASTER.c ****         }
 350:Generated_Source\PSoC4/I2C_1_I2C_MASTER.c ****         else
 351:Generated_Source\PSoC4/I2C_1_I2C_MASTER.c ****         {
 352:Generated_Source\PSoC4/I2C_1_I2C_MASTER.c ****             I2C_1_DisableInt();  /* Lock from interruption */
 353:Generated_Source\PSoC4/I2C_1_I2C_MASTER.c **** 
 354:Generated_Source\PSoC4/I2C_1_I2C_MASTER.c ****         #if (!I2C_1_CY_SCBIP_V0 && \
 355:Generated_Source\PSoC4/I2C_1_I2C_MASTER.c ****             I2C_1_I2C_MULTI_MASTER_SLAVE_CONST && I2C_1_I2C_WAKE_ENABLE_CONST)
 356:Generated_Source\PSoC4/I2C_1_I2C_MASTER.c ****             I2C_1_I2CMasterDisableEcAm();
 357:Generated_Source\PSoC4/I2C_1_I2C_MASTER.c ****         #endif /* (!I2C_1_CY_SCBIP_V0) */
 358:Generated_Source\PSoC4/I2C_1_I2C_MASTER.c **** 
 359:Generated_Source\PSoC4/I2C_1_I2C_MASTER.c ****             slaveAddress = I2C_1_GET_I2C_8BIT_ADDRESS(slaveAddress);
 360:Generated_Source\PSoC4/I2C_1_I2C_MASTER.c **** 
 361:Generated_Source\PSoC4/I2C_1_I2C_MASTER.c ****             if(0u == bitRnW) /* Write direction */
 362:Generated_Source\PSoC4/I2C_1_I2C_MASTER.c ****             {
 363:Generated_Source\PSoC4/I2C_1_I2C_MASTER.c ****                 I2C_1_state = I2C_1_I2C_FSM_MSTR_WR_DATA;
 364:Generated_Source\PSoC4/I2C_1_I2C_MASTER.c ****             }
 365:Generated_Source\PSoC4/I2C_1_I2C_MASTER.c ****             else /* Read direction */
 366:Generated_Source\PSoC4/I2C_1_I2C_MASTER.c ****             {
 367:Generated_Source\PSoC4/I2C_1_I2C_MASTER.c ****                 I2C_1_state = I2C_1_I2C_FSM_MSTR_RD_DATA;
 368:Generated_Source\PSoC4/I2C_1_I2C_MASTER.c ****                          slaveAddress |= I2C_1_I2C_READ_FLAG;
 369:Generated_Source\PSoC4/I2C_1_I2C_MASTER.c ****             }
 370:Generated_Source\PSoC4/I2C_1_I2C_MASTER.c **** 
 371:Generated_Source\PSoC4/I2C_1_I2C_MASTER.c ****             /* TX and RX FIFO have to be EMPTY */
 372:Generated_Source\PSoC4/I2C_1_I2C_MASTER.c **** 
 373:Generated_Source\PSoC4/I2C_1_I2C_MASTER.c ****             I2C_1_TX_FIFO_WR_REG = slaveAddress; /* Put address in TX FIFO */
 374:Generated_Source\PSoC4/I2C_1_I2C_MASTER.c ****             I2C_1_ClearMasterInterruptSource(I2C_1_INTR_MASTER_ALL);
 375:Generated_Source\PSoC4/I2C_1_I2C_MASTER.c **** 
 376:Generated_Source\PSoC4/I2C_1_I2C_MASTER.c ****             I2C_1_I2C_MASTER_GENERATE_START;
 377:Generated_Source\PSoC4/I2C_1_I2C_MASTER.c **** 
 378:Generated_Source\PSoC4/I2C_1_I2C_MASTER.c **** 
 379:Generated_Source\PSoC4/I2C_1_I2C_MASTER.c ****             while(!I2C_1_CHECK_INTR_MASTER(I2C_1_INTR_MASTER_I2C_ACK      |
 380:Generated_Source\PSoC4/I2C_1_I2C_MASTER.c ****                                                       I2C_1_INTR_MASTER_I2C_NACK     |
 381:Generated_Source\PSoC4/I2C_1_I2C_MASTER.c ****                                                       I2C_1_INTR_MASTER_I2C_ARB_LOST |
 382:Generated_Source\PSoC4/I2C_1_I2C_MASTER.c ****                                                       I2C_1_INTR_MASTER_I2C_BUS_ERROR))
 383:Generated_Source\PSoC4/I2C_1_I2C_MASTER.c ****             {
 384:Generated_Source\PSoC4/I2C_1_I2C_MASTER.c ****                 /*
 385:Generated_Source\PSoC4/I2C_1_I2C_MASTER.c ****                 * Write: wait until address has been transferred
 386:Generated_Source\PSoC4/I2C_1_I2C_MASTER.c ****                 * Read : wait until address has been transferred, data byte is going to RX FIFO as 
 387:Generated_Source\PSoC4/I2C_1_I2C_MASTER.c ****                 */
 388:Generated_Source\PSoC4/I2C_1_I2C_MASTER.c ****             }
 389:Generated_Source\PSoC4/I2C_1_I2C_MASTER.c **** 
 390:Generated_Source\PSoC4/I2C_1_I2C_MASTER.c ****             /* Check the results of the address phase */
 391:Generated_Source\PSoC4/I2C_1_I2C_MASTER.c ****             if(I2C_1_CHECK_INTR_MASTER(I2C_1_INTR_MASTER_I2C_ACK))
 392:Generated_Source\PSoC4/I2C_1_I2C_MASTER.c ****             {
ARM GAS  C:\Users\glenn\AppData\Local\Temp\cclrFd8J.s 			page 11


 393:Generated_Source\PSoC4/I2C_1_I2C_MASTER.c ****                 errStatus = I2C_1_I2C_MSTR_NO_ERROR;
 394:Generated_Source\PSoC4/I2C_1_I2C_MASTER.c ****             }
 395:Generated_Source\PSoC4/I2C_1_I2C_MASTER.c ****             else if(I2C_1_CHECK_INTR_MASTER(I2C_1_INTR_MASTER_I2C_NACK))
 396:Generated_Source\PSoC4/I2C_1_I2C_MASTER.c ****             {
 397:Generated_Source\PSoC4/I2C_1_I2C_MASTER.c ****                 errStatus = I2C_1_I2C_MSTR_ERR_LB_NAK;
 398:Generated_Source\PSoC4/I2C_1_I2C_MASTER.c ****             }
 399:Generated_Source\PSoC4/I2C_1_I2C_MASTER.c ****             else if(I2C_1_CHECK_INTR_MASTER(I2C_1_INTR_MASTER_I2C_ARB_LOST))
 400:Generated_Source\PSoC4/I2C_1_I2C_MASTER.c ****             {
 401:Generated_Source\PSoC4/I2C_1_I2C_MASTER.c ****                 I2C_1_state = I2C_1_I2C_FSM_IDLE;
 402:Generated_Source\PSoC4/I2C_1_I2C_MASTER.c ****                              errStatus = I2C_1_I2C_MSTR_ERR_ARB_LOST;
 403:Generated_Source\PSoC4/I2C_1_I2C_MASTER.c ****                              resetIp   = I2C_1_I2C_RESET_ERROR;
 404:Generated_Source\PSoC4/I2C_1_I2C_MASTER.c ****             }
 405:Generated_Source\PSoC4/I2C_1_I2C_MASTER.c ****             else /* I2C_1_INTR_MASTER_I2C_BUS_ERROR set is else condition */
 406:Generated_Source\PSoC4/I2C_1_I2C_MASTER.c ****             {
 407:Generated_Source\PSoC4/I2C_1_I2C_MASTER.c ****                 I2C_1_state = I2C_1_I2C_FSM_IDLE;
 408:Generated_Source\PSoC4/I2C_1_I2C_MASTER.c ****                              errStatus = I2C_1_I2C_MSTR_ERR_BUS_ERR;
 409:Generated_Source\PSoC4/I2C_1_I2C_MASTER.c ****                              resetIp   = I2C_1_I2C_RESET_ERROR;
 410:Generated_Source\PSoC4/I2C_1_I2C_MASTER.c ****             }
 411:Generated_Source\PSoC4/I2C_1_I2C_MASTER.c **** 
 412:Generated_Source\PSoC4/I2C_1_I2C_MASTER.c ****             I2C_1_ClearMasterInterruptSource(I2C_1_INTR_MASTER_I2C_ACK      |
 413:Generated_Source\PSoC4/I2C_1_I2C_MASTER.c ****                                                         I2C_1_INTR_MASTER_I2C_NACK     |
 414:Generated_Source\PSoC4/I2C_1_I2C_MASTER.c ****                                                         I2C_1_INTR_MASTER_I2C_ARB_LOST |
 415:Generated_Source\PSoC4/I2C_1_I2C_MASTER.c ****                                                         I2C_1_INTR_MASTER_I2C_BUS_ERROR);
 416:Generated_Source\PSoC4/I2C_1_I2C_MASTER.c **** 
 417:Generated_Source\PSoC4/I2C_1_I2C_MASTER.c ****             /* Reset block in case of: LOST_ARB or BUS_ERR */
 418:Generated_Source\PSoC4/I2C_1_I2C_MASTER.c ****             if(0u != resetIp)
 419:Generated_Source\PSoC4/I2C_1_I2C_MASTER.c ****             {
 420:Generated_Source\PSoC4/I2C_1_I2C_MASTER.c ****                 I2C_1_SCB_SW_RESET;
 421:Generated_Source\PSoC4/I2C_1_I2C_MASTER.c ****             }
 422:Generated_Source\PSoC4/I2C_1_I2C_MASTER.c ****         }
 423:Generated_Source\PSoC4/I2C_1_I2C_MASTER.c ****     }
 424:Generated_Source\PSoC4/I2C_1_I2C_MASTER.c **** 
 425:Generated_Source\PSoC4/I2C_1_I2C_MASTER.c ****     return(errStatus);
 426:Generated_Source\PSoC4/I2C_1_I2C_MASTER.c **** }
 427:Generated_Source\PSoC4/I2C_1_I2C_MASTER.c **** 
 428:Generated_Source\PSoC4/I2C_1_I2C_MASTER.c **** 
 429:Generated_Source\PSoC4/I2C_1_I2C_MASTER.c **** /*******************************************************************************
 430:Generated_Source\PSoC4/I2C_1_I2C_MASTER.c **** * Function Name: I2C_1_I2CMasterSendRestart
 431:Generated_Source\PSoC4/I2C_1_I2C_MASTER.c **** ****************************************************************************//**
 432:Generated_Source\PSoC4/I2C_1_I2C_MASTER.c **** *
 433:Generated_Source\PSoC4/I2C_1_I2C_MASTER.c **** *  Generates Restart condition and sends slave address with read/write bit.
 434:Generated_Source\PSoC4/I2C_1_I2C_MASTER.c **** *  This function is blocking and does not return until start condition and
 435:Generated_Source\PSoC4/I2C_1_I2C_MASTER.c **** *  address are sent and ACK/NACK response is received or errors occurred.
 436:Generated_Source\PSoC4/I2C_1_I2C_MASTER.c **** *
 437:Generated_Source\PSoC4/I2C_1_I2C_MASTER.c **** * \param slaveAddress: Right justified 7-bit Slave address (valid range 
 438:Generated_Source\PSoC4/I2C_1_I2C_MASTER.c **** *   8 to 120).
 439:Generated_Source\PSoC4/I2C_1_I2C_MASTER.c **** * \param bitRnW: Direction of the following transfer. It is defined by 
 440:Generated_Source\PSoC4/I2C_1_I2C_MASTER.c **** *  read/write bit within address byte. 
 441:Generated_Source\PSoC4/I2C_1_I2C_MASTER.c **** *  See I2C_1_I2CMasterSendStart() function for constants.
 442:Generated_Source\PSoC4/I2C_1_I2C_MASTER.c **** *
 443:Generated_Source\PSoC4/I2C_1_I2C_MASTER.c **** * \return
 444:Generated_Source\PSoC4/I2C_1_I2C_MASTER.c **** *  Error status. 
 445:Generated_Source\PSoC4/I2C_1_I2C_MASTER.c **** *  See I2C_1_I2CMasterSendStart() function for constants.
 446:Generated_Source\PSoC4/I2C_1_I2C_MASTER.c **** *
 447:Generated_Source\PSoC4/I2C_1_I2C_MASTER.c **** * \sideeffect
 448:Generated_Source\PSoC4/I2C_1_I2C_MASTER.c **** *  A valid Start or ReStart condition must be generated before calling 
 449:Generated_Source\PSoC4/I2C_1_I2C_MASTER.c **** *  this function. This function does nothing if Start or ReStart conditions 
ARM GAS  C:\Users\glenn\AppData\Local\Temp\cclrFd8J.s 			page 12


 450:Generated_Source\PSoC4/I2C_1_I2C_MASTER.c **** *  failed before this function was called.
 451:Generated_Source\PSoC4/I2C_1_I2C_MASTER.c **** *  For read transaction, at least one byte has to be read before ReStart 
 452:Generated_Source\PSoC4/I2C_1_I2C_MASTER.c **** *  generation.
 453:Generated_Source\PSoC4/I2C_1_I2C_MASTER.c **** *
 454:Generated_Source\PSoC4/I2C_1_I2C_MASTER.c **** * \globalvars
 455:Generated_Source\PSoC4/I2C_1_I2C_MASTER.c **** *  I2C_1_state - used to store current state of software FSM.
 456:Generated_Source\PSoC4/I2C_1_I2C_MASTER.c **** *
 457:Generated_Source\PSoC4/I2C_1_I2C_MASTER.c **** *******************************************************************************/
 458:Generated_Source\PSoC4/I2C_1_I2C_MASTER.c **** uint32 I2C_1_I2CMasterSendRestart(uint32 slaveAddress, uint32 bitRnW)
 459:Generated_Source\PSoC4/I2C_1_I2C_MASTER.c **** {
 460:Generated_Source\PSoC4/I2C_1_I2C_MASTER.c ****     uint32 resetIp;
 461:Generated_Source\PSoC4/I2C_1_I2C_MASTER.c ****     uint32 errStatus;
 462:Generated_Source\PSoC4/I2C_1_I2C_MASTER.c **** 
 463:Generated_Source\PSoC4/I2C_1_I2C_MASTER.c ****     resetIp   = 0u;
 464:Generated_Source\PSoC4/I2C_1_I2C_MASTER.c ****     errStatus = I2C_1_I2C_MSTR_NOT_READY;
 465:Generated_Source\PSoC4/I2C_1_I2C_MASTER.c **** 
 466:Generated_Source\PSoC4/I2C_1_I2C_MASTER.c ****     /* Check FSM state before generating ReStart condition */
 467:Generated_Source\PSoC4/I2C_1_I2C_MASTER.c ****     if(I2C_1_CHECK_I2C_MASTER_ACTIVE)
 468:Generated_Source\PSoC4/I2C_1_I2C_MASTER.c ****     {
 469:Generated_Source\PSoC4/I2C_1_I2C_MASTER.c ****         slaveAddress = I2C_1_GET_I2C_8BIT_ADDRESS(slaveAddress);
 470:Generated_Source\PSoC4/I2C_1_I2C_MASTER.c **** 
 471:Generated_Source\PSoC4/I2C_1_I2C_MASTER.c ****         if(0u == bitRnW) /* Write direction */
 472:Generated_Source\PSoC4/I2C_1_I2C_MASTER.c ****         {
 473:Generated_Source\PSoC4/I2C_1_I2C_MASTER.c ****             I2C_1_state = I2C_1_I2C_FSM_MSTR_WR_DATA;
 474:Generated_Source\PSoC4/I2C_1_I2C_MASTER.c ****         }
 475:Generated_Source\PSoC4/I2C_1_I2C_MASTER.c ****         else  /* Read direction */
 476:Generated_Source\PSoC4/I2C_1_I2C_MASTER.c ****         {
 477:Generated_Source\PSoC4/I2C_1_I2C_MASTER.c ****             I2C_1_state  = I2C_1_I2C_FSM_MSTR_RD_DATA;
 478:Generated_Source\PSoC4/I2C_1_I2C_MASTER.c ****                       slaveAddress |= I2C_1_I2C_READ_FLAG;
 479:Generated_Source\PSoC4/I2C_1_I2C_MASTER.c ****         }
 480:Generated_Source\PSoC4/I2C_1_I2C_MASTER.c **** 
 481:Generated_Source\PSoC4/I2C_1_I2C_MASTER.c ****         /* TX and RX FIFO have to be EMPTY */
 482:Generated_Source\PSoC4/I2C_1_I2C_MASTER.c **** 
 483:Generated_Source\PSoC4/I2C_1_I2C_MASTER.c ****         /* Clean-up interrupt status */
 484:Generated_Source\PSoC4/I2C_1_I2C_MASTER.c ****         I2C_1_ClearMasterInterruptSource(I2C_1_INTR_MASTER_ALL);
 485:Generated_Source\PSoC4/I2C_1_I2C_MASTER.c **** 
 486:Generated_Source\PSoC4/I2C_1_I2C_MASTER.c ****         /* A proper ReStart sequence is: generate ReStart, then put an address byte in the TX FIFO.
 487:Generated_Source\PSoC4/I2C_1_I2C_MASTER.c ****         * Otherwise the master treats the address in the TX FIFO as a data byte if a previous trans
 488:Generated_Source\PSoC4/I2C_1_I2C_MASTER.c ****         * The write transfer continues instead of ReStart.
 489:Generated_Source\PSoC4/I2C_1_I2C_MASTER.c ****         */
 490:Generated_Source\PSoC4/I2C_1_I2C_MASTER.c ****         I2C_1_I2C_MASTER_GENERATE_RESTART;
 491:Generated_Source\PSoC4/I2C_1_I2C_MASTER.c **** 
 492:Generated_Source\PSoC4/I2C_1_I2C_MASTER.c ****         while(I2C_1_CHECK_I2C_MASTER_CMD(I2C_1_I2C_MASTER_CMD_M_START))
 493:Generated_Source\PSoC4/I2C_1_I2C_MASTER.c ****         {
 494:Generated_Source\PSoC4/I2C_1_I2C_MASTER.c ****             /* Wait until ReStart has been generated */
 495:Generated_Source\PSoC4/I2C_1_I2C_MASTER.c ****         }
 496:Generated_Source\PSoC4/I2C_1_I2C_MASTER.c **** 
 497:Generated_Source\PSoC4/I2C_1_I2C_MASTER.c ****         /* Put address into TX FIFO */
 498:Generated_Source\PSoC4/I2C_1_I2C_MASTER.c ****         I2C_1_TX_FIFO_WR_REG = slaveAddress;
 499:Generated_Source\PSoC4/I2C_1_I2C_MASTER.c **** 
 500:Generated_Source\PSoC4/I2C_1_I2C_MASTER.c ****         /* Wait for address to be transferred */
 501:Generated_Source\PSoC4/I2C_1_I2C_MASTER.c ****         while(!I2C_1_CHECK_INTR_MASTER(I2C_1_INTR_MASTER_I2C_ACK      |
 502:Generated_Source\PSoC4/I2C_1_I2C_MASTER.c ****                                                   I2C_1_INTR_MASTER_I2C_NACK     |
 503:Generated_Source\PSoC4/I2C_1_I2C_MASTER.c ****                                                   I2C_1_INTR_MASTER_I2C_ARB_LOST |
 504:Generated_Source\PSoC4/I2C_1_I2C_MASTER.c ****                                                   I2C_1_INTR_MASTER_I2C_BUS_ERROR))
 505:Generated_Source\PSoC4/I2C_1_I2C_MASTER.c ****         {
 506:Generated_Source\PSoC4/I2C_1_I2C_MASTER.c ****             /* Wait until address has been transferred */
ARM GAS  C:\Users\glenn\AppData\Local\Temp\cclrFd8J.s 			page 13


 507:Generated_Source\PSoC4/I2C_1_I2C_MASTER.c ****         }
 508:Generated_Source\PSoC4/I2C_1_I2C_MASTER.c **** 
 509:Generated_Source\PSoC4/I2C_1_I2C_MASTER.c ****         /* Check results of address phase */
 510:Generated_Source\PSoC4/I2C_1_I2C_MASTER.c ****         if(I2C_1_CHECK_INTR_MASTER(I2C_1_INTR_MASTER_I2C_ACK))
 511:Generated_Source\PSoC4/I2C_1_I2C_MASTER.c ****         {
 512:Generated_Source\PSoC4/I2C_1_I2C_MASTER.c ****             errStatus = I2C_1_I2C_MSTR_NO_ERROR;
 513:Generated_Source\PSoC4/I2C_1_I2C_MASTER.c ****         }
 514:Generated_Source\PSoC4/I2C_1_I2C_MASTER.c ****         else if(I2C_1_CHECK_INTR_MASTER(I2C_1_INTR_MASTER_I2C_NACK))
 515:Generated_Source\PSoC4/I2C_1_I2C_MASTER.c ****         {
 516:Generated_Source\PSoC4/I2C_1_I2C_MASTER.c ****              errStatus = I2C_1_I2C_MSTR_ERR_LB_NAK;
 517:Generated_Source\PSoC4/I2C_1_I2C_MASTER.c ****         }
 518:Generated_Source\PSoC4/I2C_1_I2C_MASTER.c ****         else if(I2C_1_CHECK_INTR_MASTER(I2C_1_INTR_MASTER_I2C_ARB_LOST))
 519:Generated_Source\PSoC4/I2C_1_I2C_MASTER.c ****         {
 520:Generated_Source\PSoC4/I2C_1_I2C_MASTER.c ****             I2C_1_state = I2C_1_I2C_FSM_IDLE;
 521:Generated_Source\PSoC4/I2C_1_I2C_MASTER.c ****                          errStatus = I2C_1_I2C_MSTR_ERR_ARB_LOST;
 522:Generated_Source\PSoC4/I2C_1_I2C_MASTER.c ****                          resetIp   = I2C_1_I2C_RESET_ERROR;
 523:Generated_Source\PSoC4/I2C_1_I2C_MASTER.c ****         }
 524:Generated_Source\PSoC4/I2C_1_I2C_MASTER.c ****         else /* I2C_1_INTR_MASTER_I2C_BUS_ERROR set is else condition */
 525:Generated_Source\PSoC4/I2C_1_I2C_MASTER.c ****         {
 526:Generated_Source\PSoC4/I2C_1_I2C_MASTER.c ****             I2C_1_state = I2C_1_I2C_FSM_IDLE;
 527:Generated_Source\PSoC4/I2C_1_I2C_MASTER.c ****                          errStatus = I2C_1_I2C_MSTR_ERR_BUS_ERR;
 528:Generated_Source\PSoC4/I2C_1_I2C_MASTER.c ****                          resetIp   = I2C_1_I2C_RESET_ERROR;
 529:Generated_Source\PSoC4/I2C_1_I2C_MASTER.c ****         }
 530:Generated_Source\PSoC4/I2C_1_I2C_MASTER.c **** 
 531:Generated_Source\PSoC4/I2C_1_I2C_MASTER.c ****         I2C_1_ClearMasterInterruptSource(I2C_1_INTR_MASTER_I2C_ACK      |
 532:Generated_Source\PSoC4/I2C_1_I2C_MASTER.c ****                                                     I2C_1_INTR_MASTER_I2C_NACK     |
 533:Generated_Source\PSoC4/I2C_1_I2C_MASTER.c ****                                                     I2C_1_INTR_MASTER_I2C_ARB_LOST |
 534:Generated_Source\PSoC4/I2C_1_I2C_MASTER.c ****                                                     I2C_1_INTR_MASTER_I2C_BUS_ERROR);
 535:Generated_Source\PSoC4/I2C_1_I2C_MASTER.c **** 
 536:Generated_Source\PSoC4/I2C_1_I2C_MASTER.c ****         /* Reset block in case of: LOST_ARB or BUS_ERR */
 537:Generated_Source\PSoC4/I2C_1_I2C_MASTER.c ****         if(0u != resetIp)
 538:Generated_Source\PSoC4/I2C_1_I2C_MASTER.c ****         {
 539:Generated_Source\PSoC4/I2C_1_I2C_MASTER.c ****             I2C_1_SCB_SW_RESET;
 540:Generated_Source\PSoC4/I2C_1_I2C_MASTER.c ****         }
 541:Generated_Source\PSoC4/I2C_1_I2C_MASTER.c ****     }
 542:Generated_Source\PSoC4/I2C_1_I2C_MASTER.c **** 
 543:Generated_Source\PSoC4/I2C_1_I2C_MASTER.c ****     return(errStatus);
 544:Generated_Source\PSoC4/I2C_1_I2C_MASTER.c **** }
 545:Generated_Source\PSoC4/I2C_1_I2C_MASTER.c **** 
 546:Generated_Source\PSoC4/I2C_1_I2C_MASTER.c **** 
 547:Generated_Source\PSoC4/I2C_1_I2C_MASTER.c **** /*******************************************************************************
 548:Generated_Source\PSoC4/I2C_1_I2C_MASTER.c **** * Function Name: I2C_1_I2CMasterSendStop
 549:Generated_Source\PSoC4/I2C_1_I2C_MASTER.c **** ****************************************************************************//**
 550:Generated_Source\PSoC4/I2C_1_I2C_MASTER.c **** *
 551:Generated_Source\PSoC4/I2C_1_I2C_MASTER.c **** *  Generates Stop condition on the bus. 
 552:Generated_Source\PSoC4/I2C_1_I2C_MASTER.c **** *  The NAK is generated before Stop in case of a read transaction.
 553:Generated_Source\PSoC4/I2C_1_I2C_MASTER.c **** *  At least one byte has to be read if a Start or ReStart condition with read 
 554:Generated_Source\PSoC4/I2C_1_I2C_MASTER.c **** *  direction was generated before.
 555:Generated_Source\PSoC4/I2C_1_I2C_MASTER.c **** *  This function is blocking and does not return until a Stop condition is 
 556:Generated_Source\PSoC4/I2C_1_I2C_MASTER.c **** *  generated or error occurred.
 557:Generated_Source\PSoC4/I2C_1_I2C_MASTER.c **** *
 558:Generated_Source\PSoC4/I2C_1_I2C_MASTER.c **** * \return
 559:Generated_Source\PSoC4/I2C_1_I2C_MASTER.c **** *  Error status.
 560:Generated_Source\PSoC4/I2C_1_I2C_MASTER.c **** *  See I2C_1_I2CMasterSendStart() function for constants.
 561:Generated_Source\PSoC4/I2C_1_I2C_MASTER.c **** *
 562:Generated_Source\PSoC4/I2C_1_I2C_MASTER.c **** * \sideeffect
 563:Generated_Source\PSoC4/I2C_1_I2C_MASTER.c **** *  A valid Start or ReStart condition must be generated before calling 
ARM GAS  C:\Users\glenn\AppData\Local\Temp\cclrFd8J.s 			page 14


 564:Generated_Source\PSoC4/I2C_1_I2C_MASTER.c **** *  this function. This function does nothing if Start or ReStart conditions 
 565:Generated_Source\PSoC4/I2C_1_I2C_MASTER.c **** *  failed before this function was called.
 566:Generated_Source\PSoC4/I2C_1_I2C_MASTER.c **** *  For read transaction, at least one byte has to be read before ReStart 
 567:Generated_Source\PSoC4/I2C_1_I2C_MASTER.c **** *  generation.
 568:Generated_Source\PSoC4/I2C_1_I2C_MASTER.c **** *
 569:Generated_Source\PSoC4/I2C_1_I2C_MASTER.c **** * \globalvars
 570:Generated_Source\PSoC4/I2C_1_I2C_MASTER.c **** *  I2C_1_state - used to store current state of software FSM.
 571:Generated_Source\PSoC4/I2C_1_I2C_MASTER.c **** *
 572:Generated_Source\PSoC4/I2C_1_I2C_MASTER.c **** *******************************************************************************/
 573:Generated_Source\PSoC4/I2C_1_I2C_MASTER.c **** uint32 I2C_1_I2CMasterSendStop(void)
 574:Generated_Source\PSoC4/I2C_1_I2C_MASTER.c **** {
 575:Generated_Source\PSoC4/I2C_1_I2C_MASTER.c ****     uint32 resetIp;
 576:Generated_Source\PSoC4/I2C_1_I2C_MASTER.c ****     uint32 errStatus;
 577:Generated_Source\PSoC4/I2C_1_I2C_MASTER.c **** 
 578:Generated_Source\PSoC4/I2C_1_I2C_MASTER.c ****     resetIp   = 0u;
 579:Generated_Source\PSoC4/I2C_1_I2C_MASTER.c ****     errStatus = I2C_1_I2C_MSTR_NOT_READY;
 580:Generated_Source\PSoC4/I2C_1_I2C_MASTER.c **** 
 581:Generated_Source\PSoC4/I2C_1_I2C_MASTER.c ****     /* Check FSM state before generating Stop condition */
 582:Generated_Source\PSoC4/I2C_1_I2C_MASTER.c ****     if(I2C_1_CHECK_I2C_MASTER_ACTIVE)
 583:Generated_Source\PSoC4/I2C_1_I2C_MASTER.c ****     {
 584:Generated_Source\PSoC4/I2C_1_I2C_MASTER.c ****         /*
 585:Generated_Source\PSoC4/I2C_1_I2C_MASTER.c ****         * Write direction: generates Stop
 586:Generated_Source\PSoC4/I2C_1_I2C_MASTER.c ****         * Read  direction: generates NACK and Stop
 587:Generated_Source\PSoC4/I2C_1_I2C_MASTER.c ****         */
 588:Generated_Source\PSoC4/I2C_1_I2C_MASTER.c ****         I2C_1_I2C_MASTER_GENERATE_STOP;
 589:Generated_Source\PSoC4/I2C_1_I2C_MASTER.c **** 
 590:Generated_Source\PSoC4/I2C_1_I2C_MASTER.c ****         while(!I2C_1_CHECK_INTR_MASTER(I2C_1_INTR_MASTER_I2C_STOP     |
 591:Generated_Source\PSoC4/I2C_1_I2C_MASTER.c ****                                                   I2C_1_INTR_MASTER_I2C_ARB_LOST |
 592:Generated_Source\PSoC4/I2C_1_I2C_MASTER.c ****                                                   I2C_1_INTR_MASTER_I2C_BUS_ERROR))
 593:Generated_Source\PSoC4/I2C_1_I2C_MASTER.c ****         {
 594:Generated_Source\PSoC4/I2C_1_I2C_MASTER.c ****             /* Wait until Stop has been generated */
 595:Generated_Source\PSoC4/I2C_1_I2C_MASTER.c ****         }
 596:Generated_Source\PSoC4/I2C_1_I2C_MASTER.c **** 
 597:Generated_Source\PSoC4/I2C_1_I2C_MASTER.c ****         /* Check Stop generation */
 598:Generated_Source\PSoC4/I2C_1_I2C_MASTER.c ****         if(I2C_1_CHECK_INTR_MASTER(I2C_1_INTR_MASTER_I2C_STOP))
 599:Generated_Source\PSoC4/I2C_1_I2C_MASTER.c ****         {
 600:Generated_Source\PSoC4/I2C_1_I2C_MASTER.c ****             errStatus = I2C_1_I2C_MSTR_NO_ERROR;
 601:Generated_Source\PSoC4/I2C_1_I2C_MASTER.c ****         }
 602:Generated_Source\PSoC4/I2C_1_I2C_MASTER.c ****         else if(I2C_1_CHECK_INTR_MASTER(I2C_1_INTR_MASTER_I2C_ARB_LOST))
 603:Generated_Source\PSoC4/I2C_1_I2C_MASTER.c ****         {
 604:Generated_Source\PSoC4/I2C_1_I2C_MASTER.c ****             errStatus = I2C_1_I2C_MSTR_ERR_ARB_LOST;
 605:Generated_Source\PSoC4/I2C_1_I2C_MASTER.c ****             resetIp   = I2C_1_I2C_RESET_ERROR;
 606:Generated_Source\PSoC4/I2C_1_I2C_MASTER.c ****         }
 607:Generated_Source\PSoC4/I2C_1_I2C_MASTER.c ****         else /* I2C_1_INTR_MASTER_I2C_BUS_ERROR is set */
 608:Generated_Source\PSoC4/I2C_1_I2C_MASTER.c ****         {
 609:Generated_Source\PSoC4/I2C_1_I2C_MASTER.c ****             errStatus = I2C_1_I2C_MSTR_ERR_BUS_ERR;
 610:Generated_Source\PSoC4/I2C_1_I2C_MASTER.c ****             resetIp   = I2C_1_I2C_RESET_ERROR;
 611:Generated_Source\PSoC4/I2C_1_I2C_MASTER.c ****         }
 612:Generated_Source\PSoC4/I2C_1_I2C_MASTER.c **** 
 613:Generated_Source\PSoC4/I2C_1_I2C_MASTER.c ****         I2C_1_ClearMasterInterruptSource(I2C_1_INTR_MASTER_I2C_STOP     |
 614:Generated_Source\PSoC4/I2C_1_I2C_MASTER.c ****                                                     I2C_1_INTR_MASTER_I2C_ARB_LOST |
 615:Generated_Source\PSoC4/I2C_1_I2C_MASTER.c ****                                                     I2C_1_INTR_MASTER_I2C_BUS_ERROR);
 616:Generated_Source\PSoC4/I2C_1_I2C_MASTER.c **** 
 617:Generated_Source\PSoC4/I2C_1_I2C_MASTER.c ****         I2C_1_state = I2C_1_I2C_FSM_IDLE;
 618:Generated_Source\PSoC4/I2C_1_I2C_MASTER.c **** 
 619:Generated_Source\PSoC4/I2C_1_I2C_MASTER.c ****         /* Reset block in case of: LOST_ARB or BUS_ERR */
 620:Generated_Source\PSoC4/I2C_1_I2C_MASTER.c ****         if(0u != resetIp)
ARM GAS  C:\Users\glenn\AppData\Local\Temp\cclrFd8J.s 			page 15


 621:Generated_Source\PSoC4/I2C_1_I2C_MASTER.c ****         {
 622:Generated_Source\PSoC4/I2C_1_I2C_MASTER.c ****             I2C_1_SCB_SW_RESET;
 623:Generated_Source\PSoC4/I2C_1_I2C_MASTER.c ****         }
 624:Generated_Source\PSoC4/I2C_1_I2C_MASTER.c ****     }
 625:Generated_Source\PSoC4/I2C_1_I2C_MASTER.c **** 
 626:Generated_Source\PSoC4/I2C_1_I2C_MASTER.c ****     return(errStatus);
 627:Generated_Source\PSoC4/I2C_1_I2C_MASTER.c **** }
 628:Generated_Source\PSoC4/I2C_1_I2C_MASTER.c **** 
 629:Generated_Source\PSoC4/I2C_1_I2C_MASTER.c **** 
 630:Generated_Source\PSoC4/I2C_1_I2C_MASTER.c **** /*******************************************************************************
 631:Generated_Source\PSoC4/I2C_1_I2C_MASTER.c **** * Function Name: I2C_1_I2CMasterWriteByte
 632:Generated_Source\PSoC4/I2C_1_I2C_MASTER.c **** ****************************************************************************//**
 633:Generated_Source\PSoC4/I2C_1_I2C_MASTER.c **** *
 634:Generated_Source\PSoC4/I2C_1_I2C_MASTER.c **** *  Sends one byte to a slave.
 635:Generated_Source\PSoC4/I2C_1_I2C_MASTER.c **** *  This function is blocking and does not return until byte is transmitted
 636:Generated_Source\PSoC4/I2C_1_I2C_MASTER.c **** *  or error occurred.
 637:Generated_Source\PSoC4/I2C_1_I2C_MASTER.c **** *
 638:Generated_Source\PSoC4/I2C_1_I2C_MASTER.c **** * \param data: The data byte to send to the slave.
 639:Generated_Source\PSoC4/I2C_1_I2C_MASTER.c **** *
 640:Generated_Source\PSoC4/I2C_1_I2C_MASTER.c **** * \return
 641:Generated_Source\PSoC4/I2C_1_I2C_MASTER.c **** *  Error status.
 642:Generated_Source\PSoC4/I2C_1_I2C_MASTER.c **** *  See I2C_1_I2CMasterSendStart() function for constants.
 643:Generated_Source\PSoC4/I2C_1_I2C_MASTER.c **** *
 644:Generated_Source\PSoC4/I2C_1_I2C_MASTER.c **** * \sideeffect
 645:Generated_Source\PSoC4/I2C_1_I2C_MASTER.c **** *  A valid Start or ReStart condition must be generated before calling
 646:Generated_Source\PSoC4/I2C_1_I2C_MASTER.c **** *  this function. This function does nothing if Start or ReStart condition
 647:Generated_Source\PSoC4/I2C_1_I2C_MASTER.c **** *  failed before this function was called.
 648:Generated_Source\PSoC4/I2C_1_I2C_MASTER.c **** *
 649:Generated_Source\PSoC4/I2C_1_I2C_MASTER.c **** * \globalvars
 650:Generated_Source\PSoC4/I2C_1_I2C_MASTER.c **** *  I2C_1_state - used to store current state of software FSM.
 651:Generated_Source\PSoC4/I2C_1_I2C_MASTER.c **** *
 652:Generated_Source\PSoC4/I2C_1_I2C_MASTER.c **** *******************************************************************************/
 653:Generated_Source\PSoC4/I2C_1_I2C_MASTER.c **** uint32 I2C_1_I2CMasterWriteByte(uint32 theByte)
 654:Generated_Source\PSoC4/I2C_1_I2C_MASTER.c **** {
 655:Generated_Source\PSoC4/I2C_1_I2C_MASTER.c ****     uint32 resetIp;
 656:Generated_Source\PSoC4/I2C_1_I2C_MASTER.c ****     uint32 errStatus;
 657:Generated_Source\PSoC4/I2C_1_I2C_MASTER.c **** 
 658:Generated_Source\PSoC4/I2C_1_I2C_MASTER.c ****     resetIp   = 0u;
 659:Generated_Source\PSoC4/I2C_1_I2C_MASTER.c ****     errStatus = I2C_1_I2C_MSTR_NOT_READY;
 660:Generated_Source\PSoC4/I2C_1_I2C_MASTER.c **** 
 661:Generated_Source\PSoC4/I2C_1_I2C_MASTER.c ****     /* Check FSM state before write byte */
 662:Generated_Source\PSoC4/I2C_1_I2C_MASTER.c ****     if(I2C_1_CHECK_I2C_MASTER_ACTIVE)
 663:Generated_Source\PSoC4/I2C_1_I2C_MASTER.c ****     {
 664:Generated_Source\PSoC4/I2C_1_I2C_MASTER.c ****         I2C_1_TX_FIFO_WR_REG = theByte;
 665:Generated_Source\PSoC4/I2C_1_I2C_MASTER.c **** 
 666:Generated_Source\PSoC4/I2C_1_I2C_MASTER.c ****         while(!I2C_1_CHECK_INTR_MASTER(I2C_1_INTR_MASTER_I2C_ACK      |
 667:Generated_Source\PSoC4/I2C_1_I2C_MASTER.c ****                                                   I2C_1_INTR_MASTER_I2C_NACK     |
 668:Generated_Source\PSoC4/I2C_1_I2C_MASTER.c ****                                                   I2C_1_INTR_MASTER_I2C_ARB_LOST |
 669:Generated_Source\PSoC4/I2C_1_I2C_MASTER.c ****                                                   I2C_1_INTR_MASTER_I2C_BUS_ERROR))
 670:Generated_Source\PSoC4/I2C_1_I2C_MASTER.c ****         {
 671:Generated_Source\PSoC4/I2C_1_I2C_MASTER.c ****             /* Wait until byte has been transferred */
 672:Generated_Source\PSoC4/I2C_1_I2C_MASTER.c ****         }
 673:Generated_Source\PSoC4/I2C_1_I2C_MASTER.c **** 
 674:Generated_Source\PSoC4/I2C_1_I2C_MASTER.c ****         /* Check results after byte was sent */
 675:Generated_Source\PSoC4/I2C_1_I2C_MASTER.c ****         if(I2C_1_CHECK_INTR_MASTER(I2C_1_INTR_MASTER_I2C_ACK))
 676:Generated_Source\PSoC4/I2C_1_I2C_MASTER.c ****         {
 677:Generated_Source\PSoC4/I2C_1_I2C_MASTER.c ****             I2C_1_state = I2C_1_I2C_FSM_MSTR_HALT;
ARM GAS  C:\Users\glenn\AppData\Local\Temp\cclrFd8J.s 			page 16


 678:Generated_Source\PSoC4/I2C_1_I2C_MASTER.c ****                          errStatus = I2C_1_I2C_MSTR_NO_ERROR;
 679:Generated_Source\PSoC4/I2C_1_I2C_MASTER.c ****         }
 680:Generated_Source\PSoC4/I2C_1_I2C_MASTER.c ****         else if(I2C_1_CHECK_INTR_MASTER(I2C_1_INTR_MASTER_I2C_NACK))
 681:Generated_Source\PSoC4/I2C_1_I2C_MASTER.c ****         {
 682:Generated_Source\PSoC4/I2C_1_I2C_MASTER.c ****             I2C_1_state = I2C_1_I2C_FSM_MSTR_HALT;
 683:Generated_Source\PSoC4/I2C_1_I2C_MASTER.c ****                          errStatus = I2C_1_I2C_MSTR_ERR_LB_NAK;
 684:Generated_Source\PSoC4/I2C_1_I2C_MASTER.c ****         }
 685:Generated_Source\PSoC4/I2C_1_I2C_MASTER.c ****         else if(I2C_1_CHECK_INTR_MASTER(I2C_1_INTR_MASTER_I2C_ARB_LOST))
 686:Generated_Source\PSoC4/I2C_1_I2C_MASTER.c ****         {
 687:Generated_Source\PSoC4/I2C_1_I2C_MASTER.c ****             I2C_1_state = I2C_1_I2C_FSM_IDLE;
 688:Generated_Source\PSoC4/I2C_1_I2C_MASTER.c ****                          errStatus = I2C_1_I2C_MSTR_ERR_ARB_LOST;
 689:Generated_Source\PSoC4/I2C_1_I2C_MASTER.c ****                          resetIp   = I2C_1_I2C_RESET_ERROR;
 690:Generated_Source\PSoC4/I2C_1_I2C_MASTER.c ****         }
 691:Generated_Source\PSoC4/I2C_1_I2C_MASTER.c ****         else /* I2C_1_INTR_MASTER_I2C_BUS_ERROR set is */
 692:Generated_Source\PSoC4/I2C_1_I2C_MASTER.c ****         {
 693:Generated_Source\PSoC4/I2C_1_I2C_MASTER.c ****             I2C_1_state = I2C_1_I2C_FSM_IDLE;
 694:Generated_Source\PSoC4/I2C_1_I2C_MASTER.c ****                          errStatus = I2C_1_I2C_MSTR_ERR_BUS_ERR;
 695:Generated_Source\PSoC4/I2C_1_I2C_MASTER.c ****                          resetIp   = I2C_1_I2C_RESET_ERROR;
 696:Generated_Source\PSoC4/I2C_1_I2C_MASTER.c ****         }
 697:Generated_Source\PSoC4/I2C_1_I2C_MASTER.c **** 
 698:Generated_Source\PSoC4/I2C_1_I2C_MASTER.c ****         I2C_1_ClearMasterInterruptSource(I2C_1_INTR_MASTER_I2C_ACK      |
 699:Generated_Source\PSoC4/I2C_1_I2C_MASTER.c ****                                                     I2C_1_INTR_MASTER_I2C_NACK     |
 700:Generated_Source\PSoC4/I2C_1_I2C_MASTER.c ****                                                     I2C_1_INTR_MASTER_I2C_ARB_LOST |
 701:Generated_Source\PSoC4/I2C_1_I2C_MASTER.c ****                                                     I2C_1_INTR_MASTER_I2C_BUS_ERROR);
 702:Generated_Source\PSoC4/I2C_1_I2C_MASTER.c **** 
 703:Generated_Source\PSoC4/I2C_1_I2C_MASTER.c ****         /* Reset block in case of: LOST_ARB or BUS_ERR */
 704:Generated_Source\PSoC4/I2C_1_I2C_MASTER.c ****         if(0u != resetIp)
 705:Generated_Source\PSoC4/I2C_1_I2C_MASTER.c ****         {
 706:Generated_Source\PSoC4/I2C_1_I2C_MASTER.c ****             I2C_1_SCB_SW_RESET;
 707:Generated_Source\PSoC4/I2C_1_I2C_MASTER.c ****         }
 708:Generated_Source\PSoC4/I2C_1_I2C_MASTER.c ****     }
 709:Generated_Source\PSoC4/I2C_1_I2C_MASTER.c **** 
 710:Generated_Source\PSoC4/I2C_1_I2C_MASTER.c ****     return(errStatus);
 711:Generated_Source\PSoC4/I2C_1_I2C_MASTER.c **** }
 712:Generated_Source\PSoC4/I2C_1_I2C_MASTER.c **** 
 713:Generated_Source\PSoC4/I2C_1_I2C_MASTER.c **** 
 714:Generated_Source\PSoC4/I2C_1_I2C_MASTER.c **** /*******************************************************************************
 715:Generated_Source\PSoC4/I2C_1_I2C_MASTER.c **** * Function Name: I2C_1_I2CMasterReadByte
 716:Generated_Source\PSoC4/I2C_1_I2C_MASTER.c **** ****************************************************************************//**
 717:Generated_Source\PSoC4/I2C_1_I2C_MASTER.c **** *
 718:Generated_Source\PSoC4/I2C_1_I2C_MASTER.c **** *  Reads one byte from a slave and generates ACK or prepares to generate NAK. 
 719:Generated_Source\PSoC4/I2C_1_I2C_MASTER.c **** *  The NAK will be generated before Stop or ReStart condition by 
 720:Generated_Source\PSoC4/I2C_1_I2C_MASTER.c **** *  I2C_1_I2CMasterSendStop() or 
 721:Generated_Source\PSoC4/I2C_1_I2C_MASTER.c **** *  I2C_1_I2CMasterSendRestart() function appropriately.
 722:Generated_Source\PSoC4/I2C_1_I2C_MASTER.c **** *  This function is blocking. It does not return until a byte is received or 
 723:Generated_Source\PSoC4/I2C_1_I2C_MASTER.c **** *  an error occurs.
 724:Generated_Source\PSoC4/I2C_1_I2C_MASTER.c **** *
 725:Generated_Source\PSoC4/I2C_1_I2C_MASTER.c **** * \param ackNack: Response to received byte.
 726:Generated_Source\PSoC4/I2C_1_I2C_MASTER.c **** *  - I2C_1_I2C_ACK_DATA - Generates ACK. 
 727:Generated_Source\PSoC4/I2C_1_I2C_MASTER.c **** *     The master notifies slave that transfer continues.
 728:Generated_Source\PSoC4/I2C_1_I2C_MASTER.c **** *  - I2C_1_I2C_NAK_DATA - Prepares to generate NAK.
 729:Generated_Source\PSoC4/I2C_1_I2C_MASTER.c **** *     The master will notify slave that transfer is completed.
 730:Generated_Source\PSoC4/I2C_1_I2C_MASTER.c **** *
 731:Generated_Source\PSoC4/I2C_1_I2C_MASTER.c **** * \return
 732:Generated_Source\PSoC4/I2C_1_I2C_MASTER.c **** *  Byte read from the slave. In case of error the MSB of returned data 
 733:Generated_Source\PSoC4/I2C_1_I2C_MASTER.c **** *  is set to 1.
 734:Generated_Source\PSoC4/I2C_1_I2C_MASTER.c **** *
ARM GAS  C:\Users\glenn\AppData\Local\Temp\cclrFd8J.s 			page 17


 735:Generated_Source\PSoC4/I2C_1_I2C_MASTER.c **** * \sideeffect
 736:Generated_Source\PSoC4/I2C_1_I2C_MASTER.c **** *  A valid Start or ReStart condition must be generated before calling
 737:Generated_Source\PSoC4/I2C_1_I2C_MASTER.c **** *  this function. This function does nothing if Start or ReStart condition
 738:Generated_Source\PSoC4/I2C_1_I2C_MASTER.c **** *  failed before this function was called.
 739:Generated_Source\PSoC4/I2C_1_I2C_MASTER.c **** *
 740:Generated_Source\PSoC4/I2C_1_I2C_MASTER.c **** * \globalvars
 741:Generated_Source\PSoC4/I2C_1_I2C_MASTER.c **** *  I2C_1_state - used to store current state of software FSM.
 742:Generated_Source\PSoC4/I2C_1_I2C_MASTER.c **** *
 743:Generated_Source\PSoC4/I2C_1_I2C_MASTER.c **** *******************************************************************************/
 744:Generated_Source\PSoC4/I2C_1_I2C_MASTER.c **** uint32 I2C_1_I2CMasterReadByte(uint32 ackNack)
 745:Generated_Source\PSoC4/I2C_1_I2C_MASTER.c **** {
 746:Generated_Source\PSoC4/I2C_1_I2C_MASTER.c ****     uint32 theByte;
 747:Generated_Source\PSoC4/I2C_1_I2C_MASTER.c **** 
 748:Generated_Source\PSoC4/I2C_1_I2C_MASTER.c ****     /* Return invalid byte in case BUS_ERR happen during receiving */
 749:Generated_Source\PSoC4/I2C_1_I2C_MASTER.c ****     theByte = I2C_1_I2C_INVALID_BYTE;
 750:Generated_Source\PSoC4/I2C_1_I2C_MASTER.c **** 
 751:Generated_Source\PSoC4/I2C_1_I2C_MASTER.c ****     /* Check FSM state before read byte */
 752:Generated_Source\PSoC4/I2C_1_I2C_MASTER.c ****     if(I2C_1_CHECK_I2C_MASTER_ACTIVE)
 753:Generated_Source\PSoC4/I2C_1_I2C_MASTER.c ****     {
 754:Generated_Source\PSoC4/I2C_1_I2C_MASTER.c ****         while((!I2C_1_CHECK_INTR_RX(I2C_1_INTR_RX_NOT_EMPTY)) &&
 755:Generated_Source\PSoC4/I2C_1_I2C_MASTER.c ****               (!I2C_1_CHECK_INTR_MASTER(I2C_1_INTR_MASTER_I2C_ARB_LOST |
 756:Generated_Source\PSoC4/I2C_1_I2C_MASTER.c ****                                                   I2C_1_INTR_MASTER_I2C_BUS_ERROR)))
 757:Generated_Source\PSoC4/I2C_1_I2C_MASTER.c ****         {
 758:Generated_Source\PSoC4/I2C_1_I2C_MASTER.c ****             /* Wait until byte has been received */
 759:Generated_Source\PSoC4/I2C_1_I2C_MASTER.c ****         }
 760:Generated_Source\PSoC4/I2C_1_I2C_MASTER.c **** 
 761:Generated_Source\PSoC4/I2C_1_I2C_MASTER.c ****         /* Check the results after the byte was sent */
 762:Generated_Source\PSoC4/I2C_1_I2C_MASTER.c ****         if(I2C_1_CHECK_INTR_RX(I2C_1_INTR_RX_NOT_EMPTY))
 763:Generated_Source\PSoC4/I2C_1_I2C_MASTER.c ****         {
 764:Generated_Source\PSoC4/I2C_1_I2C_MASTER.c ****             theByte = I2C_1_RX_FIFO_RD_REG;
 765:Generated_Source\PSoC4/I2C_1_I2C_MASTER.c **** 
 766:Generated_Source\PSoC4/I2C_1_I2C_MASTER.c ****             I2C_1_ClearRxInterruptSource(I2C_1_INTR_RX_NOT_EMPTY);
 767:Generated_Source\PSoC4/I2C_1_I2C_MASTER.c **** 
 768:Generated_Source\PSoC4/I2C_1_I2C_MASTER.c ****             if(0u == ackNack)
 769:Generated_Source\PSoC4/I2C_1_I2C_MASTER.c ****             {
 770:Generated_Source\PSoC4/I2C_1_I2C_MASTER.c ****                 I2C_1_I2C_MASTER_GENERATE_ACK;
 771:Generated_Source\PSoC4/I2C_1_I2C_MASTER.c ****             }
 772:Generated_Source\PSoC4/I2C_1_I2C_MASTER.c ****             else
 773:Generated_Source\PSoC4/I2C_1_I2C_MASTER.c ****             {
 774:Generated_Source\PSoC4/I2C_1_I2C_MASTER.c ****                 /* NACK is generated by Stop or ReStart command */
 775:Generated_Source\PSoC4/I2C_1_I2C_MASTER.c ****                 I2C_1_state = I2C_1_I2C_FSM_MSTR_HALT;
 776:Generated_Source\PSoC4/I2C_1_I2C_MASTER.c ****             }
 777:Generated_Source\PSoC4/I2C_1_I2C_MASTER.c ****         }
 778:Generated_Source\PSoC4/I2C_1_I2C_MASTER.c ****         else
 779:Generated_Source\PSoC4/I2C_1_I2C_MASTER.c ****         {
 780:Generated_Source\PSoC4/I2C_1_I2C_MASTER.c ****             I2C_1_ClearMasterInterruptSource(I2C_1_INTR_MASTER_ALL);
 781:Generated_Source\PSoC4/I2C_1_I2C_MASTER.c **** 
 782:Generated_Source\PSoC4/I2C_1_I2C_MASTER.c ****             /* Reset block in case of: LOST_ARB or BUS_ERR */
 783:Generated_Source\PSoC4/I2C_1_I2C_MASTER.c ****             I2C_1_SCB_SW_RESET;
 784:Generated_Source\PSoC4/I2C_1_I2C_MASTER.c ****         }
 785:Generated_Source\PSoC4/I2C_1_I2C_MASTER.c ****     }
 786:Generated_Source\PSoC4/I2C_1_I2C_MASTER.c **** 
 787:Generated_Source\PSoC4/I2C_1_I2C_MASTER.c ****     return(theByte);
 788:Generated_Source\PSoC4/I2C_1_I2C_MASTER.c **** }
 789:Generated_Source\PSoC4/I2C_1_I2C_MASTER.c **** 
 790:Generated_Source\PSoC4/I2C_1_I2C_MASTER.c **** 
 791:Generated_Source\PSoC4/I2C_1_I2C_MASTER.c **** /*******************************************************************************
ARM GAS  C:\Users\glenn\AppData\Local\Temp\cclrFd8J.s 			page 18


 792:Generated_Source\PSoC4/I2C_1_I2C_MASTER.c **** * Function Name: I2C_1_I2CMasterGetReadBufSize
 793:Generated_Source\PSoC4/I2C_1_I2C_MASTER.c **** ****************************************************************************//**
 794:Generated_Source\PSoC4/I2C_1_I2C_MASTER.c **** *
 795:Generated_Source\PSoC4/I2C_1_I2C_MASTER.c **** *  Returns the number of bytes that has been transferred with an
 796:Generated_Source\PSoC4/I2C_1_I2C_MASTER.c **** *  I2C_1_I2CMasterReadBuf() function.
 797:Generated_Source\PSoC4/I2C_1_I2C_MASTER.c **** *
 798:Generated_Source\PSoC4/I2C_1_I2C_MASTER.c **** * \return
 799:Generated_Source\PSoC4/I2C_1_I2C_MASTER.c **** *  Byte count of transfer. If the transfer is not yet complete, it returns
 800:Generated_Source\PSoC4/I2C_1_I2C_MASTER.c **** *  the byte count transferred so far.
 801:Generated_Source\PSoC4/I2C_1_I2C_MASTER.c **** *
 802:Generated_Source\PSoC4/I2C_1_I2C_MASTER.c **** * \sideeffect
 803:Generated_Source\PSoC4/I2C_1_I2C_MASTER.c **** *  This function returns not valid value if 
 804:Generated_Source\PSoC4/I2C_1_I2C_MASTER.c **** *  I2C_1_I2C_MSTAT_ERR_ARB_LOST or
 805:Generated_Source\PSoC4/I2C_1_I2C_MASTER.c **** *  I2C_1_I2C_MSTAT_ERR_BUS_ERROR occurred while read transfer.
 806:Generated_Source\PSoC4/I2C_1_I2C_MASTER.c **** *
 807:Generated_Source\PSoC4/I2C_1_I2C_MASTER.c **** * \globalvars
 808:Generated_Source\PSoC4/I2C_1_I2C_MASTER.c **** *  I2C_1_mstrRdBufIndex - used to current index within master read
 809:Generated_Source\PSoC4/I2C_1_I2C_MASTER.c **** *  buffer.
 810:Generated_Source\PSoC4/I2C_1_I2C_MASTER.c **** *
 811:Generated_Source\PSoC4/I2C_1_I2C_MASTER.c **** *******************************************************************************/
 812:Generated_Source\PSoC4/I2C_1_I2C_MASTER.c **** uint32 I2C_1_I2CMasterGetReadBufSize(void)
 813:Generated_Source\PSoC4/I2C_1_I2C_MASTER.c **** {
 814:Generated_Source\PSoC4/I2C_1_I2C_MASTER.c ****     return(I2C_1_mstrRdBufIndex);
 815:Generated_Source\PSoC4/I2C_1_I2C_MASTER.c **** }
 816:Generated_Source\PSoC4/I2C_1_I2C_MASTER.c **** 
 817:Generated_Source\PSoC4/I2C_1_I2C_MASTER.c **** 
 818:Generated_Source\PSoC4/I2C_1_I2C_MASTER.c **** /*******************************************************************************
 819:Generated_Source\PSoC4/I2C_1_I2C_MASTER.c **** * Function Name: I2C_1_I2CMasterGetWriteBufSize
 820:Generated_Source\PSoC4/I2C_1_I2C_MASTER.c **** ****************************************************************************//**
 821:Generated_Source\PSoC4/I2C_1_I2C_MASTER.c **** *
 822:Generated_Source\PSoC4/I2C_1_I2C_MASTER.c **** *  Returns the number of bytes that have been transferred with an
 823:Generated_Source\PSoC4/I2C_1_I2C_MASTER.c **** *  SCB_I2CMasterWriteBuf() function.
 824:Generated_Source\PSoC4/I2C_1_I2C_MASTER.c **** *
 825:Generated_Source\PSoC4/I2C_1_I2C_MASTER.c **** * \return
 826:Generated_Source\PSoC4/I2C_1_I2C_MASTER.c **** *   Byte count of transfer. If the transfer is not yet complete, it returns
 827:Generated_Source\PSoC4/I2C_1_I2C_MASTER.c **** *   zero unit transfer completion.
 828:Generated_Source\PSoC4/I2C_1_I2C_MASTER.c **** *
 829:Generated_Source\PSoC4/I2C_1_I2C_MASTER.c **** * \sideeffect
 830:Generated_Source\PSoC4/I2C_1_I2C_MASTER.c **** *   This function returns not valid value if 
 831:Generated_Source\PSoC4/I2C_1_I2C_MASTER.c **** *   I2C_1_I2C_MSTAT_ERR_ARB_LOST or 
 832:Generated_Source\PSoC4/I2C_1_I2C_MASTER.c **** *   I2C_1_I2C_MSTAT_ERR_BUS_ERROR occurred while read transfer.
 833:Generated_Source\PSoC4/I2C_1_I2C_MASTER.c **** *
 834:Generated_Source\PSoC4/I2C_1_I2C_MASTER.c **** * \globalvars
 835:Generated_Source\PSoC4/I2C_1_I2C_MASTER.c **** *  I2C_1_mstrWrBufIndex - used to current index within master write
 836:Generated_Source\PSoC4/I2C_1_I2C_MASTER.c **** *  buffer.
 837:Generated_Source\PSoC4/I2C_1_I2C_MASTER.c **** *
 838:Generated_Source\PSoC4/I2C_1_I2C_MASTER.c **** *******************************************************************************/
 839:Generated_Source\PSoC4/I2C_1_I2C_MASTER.c **** uint32 I2C_1_I2CMasterGetWriteBufSize(void)
 840:Generated_Source\PSoC4/I2C_1_I2C_MASTER.c **** {
 841:Generated_Source\PSoC4/I2C_1_I2C_MASTER.c ****     return(I2C_1_mstrWrBufIndex);
 842:Generated_Source\PSoC4/I2C_1_I2C_MASTER.c **** }
 843:Generated_Source\PSoC4/I2C_1_I2C_MASTER.c **** 
 844:Generated_Source\PSoC4/I2C_1_I2C_MASTER.c **** 
 845:Generated_Source\PSoC4/I2C_1_I2C_MASTER.c **** /*******************************************************************************
 846:Generated_Source\PSoC4/I2C_1_I2C_MASTER.c **** * Function Name: I2C_1_I2CMasterClearReadBuf
 847:Generated_Source\PSoC4/I2C_1_I2C_MASTER.c **** ****************************************************************************//**
 848:Generated_Source\PSoC4/I2C_1_I2C_MASTER.c **** *
ARM GAS  C:\Users\glenn\AppData\Local\Temp\cclrFd8J.s 			page 19


 849:Generated_Source\PSoC4/I2C_1_I2C_MASTER.c **** *  Resets the read buffer pointer back to the first byte in the buffer.
 850:Generated_Source\PSoC4/I2C_1_I2C_MASTER.c **** *
 851:Generated_Source\PSoC4/I2C_1_I2C_MASTER.c **** * \globalvars
 852:Generated_Source\PSoC4/I2C_1_I2C_MASTER.c **** *  I2C_1_mstrRdBufIndex - used to current index within master read
 853:Generated_Source\PSoC4/I2C_1_I2C_MASTER.c **** *   buffer.
 854:Generated_Source\PSoC4/I2C_1_I2C_MASTER.c **** *  I2C_1_mstrStatus - used to store current status of I2C Master.
 855:Generated_Source\PSoC4/I2C_1_I2C_MASTER.c **** *
 856:Generated_Source\PSoC4/I2C_1_I2C_MASTER.c **** *******************************************************************************/
 857:Generated_Source\PSoC4/I2C_1_I2C_MASTER.c **** void I2C_1_I2CMasterClearReadBuf(void)
 858:Generated_Source\PSoC4/I2C_1_I2C_MASTER.c **** {
 859:Generated_Source\PSoC4/I2C_1_I2C_MASTER.c ****     I2C_1_DisableInt();  /* Lock from interruption */
 860:Generated_Source\PSoC4/I2C_1_I2C_MASTER.c **** 
 861:Generated_Source\PSoC4/I2C_1_I2C_MASTER.c ****     I2C_1_mstrRdBufIndex = 0u;
 862:Generated_Source\PSoC4/I2C_1_I2C_MASTER.c ****     I2C_1_mstrStatus    &= (uint16) ~I2C_1_I2C_MSTAT_RD_CMPLT;
 863:Generated_Source\PSoC4/I2C_1_I2C_MASTER.c **** 
 864:Generated_Source\PSoC4/I2C_1_I2C_MASTER.c ****     I2C_1_EnableInt();   /* Release lock */
 865:Generated_Source\PSoC4/I2C_1_I2C_MASTER.c **** }
 866:Generated_Source\PSoC4/I2C_1_I2C_MASTER.c **** 
 867:Generated_Source\PSoC4/I2C_1_I2C_MASTER.c **** 
 868:Generated_Source\PSoC4/I2C_1_I2C_MASTER.c **** /*******************************************************************************
 869:Generated_Source\PSoC4/I2C_1_I2C_MASTER.c **** * Function Name: I2C_1_I2CMasterClearWriteBuf
 870:Generated_Source\PSoC4/I2C_1_I2C_MASTER.c **** ****************************************************************************//**
 871:Generated_Source\PSoC4/I2C_1_I2C_MASTER.c **** *
 872:Generated_Source\PSoC4/I2C_1_I2C_MASTER.c **** *  Resets the write buffer pointer back to the first byte in the buffer.
 873:Generated_Source\PSoC4/I2C_1_I2C_MASTER.c **** *
 874:Generated_Source\PSoC4/I2C_1_I2C_MASTER.c **** * \globalvars
 875:Generated_Source\PSoC4/I2C_1_I2C_MASTER.c **** *  I2C_1_mstrRdBufIndex - used to current index within master read
 876:Generated_Source\PSoC4/I2C_1_I2C_MASTER.c **** *   buffer.
 877:Generated_Source\PSoC4/I2C_1_I2C_MASTER.c **** *  I2C_1_mstrStatus - used to store current status of I2C Master.
 878:Generated_Source\PSoC4/I2C_1_I2C_MASTER.c **** *
 879:Generated_Source\PSoC4/I2C_1_I2C_MASTER.c **** *******************************************************************************/
 880:Generated_Source\PSoC4/I2C_1_I2C_MASTER.c **** void I2C_1_I2CMasterClearWriteBuf(void)
 881:Generated_Source\PSoC4/I2C_1_I2C_MASTER.c **** {
 882:Generated_Source\PSoC4/I2C_1_I2C_MASTER.c ****     I2C_1_DisableInt();  /* Lock from interruption */
 883:Generated_Source\PSoC4/I2C_1_I2C_MASTER.c **** 
 884:Generated_Source\PSoC4/I2C_1_I2C_MASTER.c ****     I2C_1_mstrWrBufIndex = 0u;
 885:Generated_Source\PSoC4/I2C_1_I2C_MASTER.c ****     I2C_1_mstrStatus    &= (uint16) ~I2C_1_I2C_MSTAT_WR_CMPLT;
 886:Generated_Source\PSoC4/I2C_1_I2C_MASTER.c **** 
 887:Generated_Source\PSoC4/I2C_1_I2C_MASTER.c ****     I2C_1_EnableInt();   /* Release lock */
 888:Generated_Source\PSoC4/I2C_1_I2C_MASTER.c **** }
 889:Generated_Source\PSoC4/I2C_1_I2C_MASTER.c **** 
 890:Generated_Source\PSoC4/I2C_1_I2C_MASTER.c **** 
 891:Generated_Source\PSoC4/I2C_1_I2C_MASTER.c **** /*******************************************************************************
 892:Generated_Source\PSoC4/I2C_1_I2C_MASTER.c **** * Function Name: I2C_1_I2CMasterStatus
 893:Generated_Source\PSoC4/I2C_1_I2C_MASTER.c **** ****************************************************************************//**
 894:Generated_Source\PSoC4/I2C_1_I2C_MASTER.c **** *
 895:Generated_Source\PSoC4/I2C_1_I2C_MASTER.c **** *  Returns the master's communication status.
 896:Generated_Source\PSoC4/I2C_1_I2C_MASTER.c **** *
 897:Generated_Source\PSoC4/I2C_1_I2C_MASTER.c **** * \return
 898:Generated_Source\PSoC4/I2C_1_I2C_MASTER.c **** *  Current status of I2C master. This status incorporates status constants. 
 899:Generated_Source\PSoC4/I2C_1_I2C_MASTER.c **** *  Each constant is a bit field value. The value returned may have multiple 
 900:Generated_Source\PSoC4/I2C_1_I2C_MASTER.c **** *  bits set to indicate the status of the read or write transfer.
 901:Generated_Source\PSoC4/I2C_1_I2C_MASTER.c **** *  - I2C_1_I2C_MSTAT_RD_CMPLT - Read transfer complete.
 902:Generated_Source\PSoC4/I2C_1_I2C_MASTER.c **** *    The error condition status bits must be checked to ensure that 
 903:Generated_Source\PSoC4/I2C_1_I2C_MASTER.c **** *    read transfer was completed successfully.
 904:Generated_Source\PSoC4/I2C_1_I2C_MASTER.c **** *  - I2C_1_I2C_MSTAT_WR_CMPLT - Write transfer complete.
 905:Generated_Source\PSoC4/I2C_1_I2C_MASTER.c **** *    The error condition status bits must be checked to ensure that write 
ARM GAS  C:\Users\glenn\AppData\Local\Temp\cclrFd8J.s 			page 20


 906:Generated_Source\PSoC4/I2C_1_I2C_MASTER.c **** *    transfer was completed successfully.
 907:Generated_Source\PSoC4/I2C_1_I2C_MASTER.c **** *  - I2C_1_I2C_MSTAT_XFER_INP - Transfer in progress.
 908:Generated_Source\PSoC4/I2C_1_I2C_MASTER.c **** *  - I2C_1_I2C_MSTAT_XFER_HALT - Transfer has been halted. 
 909:Generated_Source\PSoC4/I2C_1_I2C_MASTER.c **** *    The I2C bus is waiting for ReStart or Stop condition generation.
 910:Generated_Source\PSoC4/I2C_1_I2C_MASTER.c **** *  - I2C_1_I2C_MSTAT_ERR_SHORT_XFER - Error condition: Write 
 911:Generated_Source\PSoC4/I2C_1_I2C_MASTER.c **** *    transfer completed before all bytes were transferred. The slave NAKed 
 912:Generated_Source\PSoC4/I2C_1_I2C_MASTER.c **** *    the byte which was expected to be ACKed.
 913:Generated_Source\PSoC4/I2C_1_I2C_MASTER.c **** *  - I2C_1_I2C_MSTAT_ERR_ADDR_NAK - Error condition: Slave did 
 914:Generated_Source\PSoC4/I2C_1_I2C_MASTER.c **** *    not acknowledge address.
 915:Generated_Source\PSoC4/I2C_1_I2C_MASTER.c **** *  - I2C_1_I2C_MSTAT_ERR_ARB_LOST - Error condition: Master lost 
 916:Generated_Source\PSoC4/I2C_1_I2C_MASTER.c **** *    arbitration during communications with slave.
 917:Generated_Source\PSoC4/I2C_1_I2C_MASTER.c **** *  - I2C_1_I2C_MSTAT_ERR_BUS_ERROR - Error condition: bus error 
 918:Generated_Source\PSoC4/I2C_1_I2C_MASTER.c **** *    occurred during master transfer due to misplaced Start or Stop 
 919:Generated_Source\PSoC4/I2C_1_I2C_MASTER.c **** *    condition on the bus.
 920:Generated_Source\PSoC4/I2C_1_I2C_MASTER.c **** *  - I2C_1_I2C_MSTAT_ERR_ABORT_XFER - Error condition: Slave was 
 921:Generated_Source\PSoC4/I2C_1_I2C_MASTER.c **** *    addressed by another master while master performed the start condition 
 922:Generated_Source\PSoC4/I2C_1_I2C_MASTER.c **** *    generation. As a result, master has automatically switched to slave 
 923:Generated_Source\PSoC4/I2C_1_I2C_MASTER.c **** *    mode and is responding. The master transaction has not taken place
 924:Generated_Source\PSoC4/I2C_1_I2C_MASTER.c **** *    This error condition only applicable for Multi-Master-Slave mode.
 925:Generated_Source\PSoC4/I2C_1_I2C_MASTER.c **** *  - I2C_1_I2C_MSTAT_ERR_XFER - Error condition: This is the 
 926:Generated_Source\PSoC4/I2C_1_I2C_MASTER.c **** *    ORed value of all error conditions provided above.
 927:Generated_Source\PSoC4/I2C_1_I2C_MASTER.c **** *
 928:Generated_Source\PSoC4/I2C_1_I2C_MASTER.c **** * \globalvars
 929:Generated_Source\PSoC4/I2C_1_I2C_MASTER.c **** *  I2C_1_mstrStatus - used to store current status of I2C Master.
 930:Generated_Source\PSoC4/I2C_1_I2C_MASTER.c **** *
 931:Generated_Source\PSoC4/I2C_1_I2C_MASTER.c **** *******************************************************************************/
 932:Generated_Source\PSoC4/I2C_1_I2C_MASTER.c **** uint32 I2C_1_I2CMasterStatus(void)
 933:Generated_Source\PSoC4/I2C_1_I2C_MASTER.c **** {
 934:Generated_Source\PSoC4/I2C_1_I2C_MASTER.c ****     uint32 status;
 935:Generated_Source\PSoC4/I2C_1_I2C_MASTER.c **** 
 936:Generated_Source\PSoC4/I2C_1_I2C_MASTER.c ****     I2C_1_DisableInt();  /* Lock from interruption */
 937:Generated_Source\PSoC4/I2C_1_I2C_MASTER.c **** 
 938:Generated_Source\PSoC4/I2C_1_I2C_MASTER.c ****     status = (uint32) I2C_1_mstrStatus;
 939:Generated_Source\PSoC4/I2C_1_I2C_MASTER.c **** 
 940:Generated_Source\PSoC4/I2C_1_I2C_MASTER.c ****     if (I2C_1_CHECK_I2C_MASTER_ACTIVE)
 941:Generated_Source\PSoC4/I2C_1_I2C_MASTER.c ****     {
 942:Generated_Source\PSoC4/I2C_1_I2C_MASTER.c ****         /* Add status of master pending transaction: MSTAT_XFER_INP */
 943:Generated_Source\PSoC4/I2C_1_I2C_MASTER.c ****         status |= (uint32) I2C_1_I2C_MSTAT_XFER_INP;
 944:Generated_Source\PSoC4/I2C_1_I2C_MASTER.c ****     }
 945:Generated_Source\PSoC4/I2C_1_I2C_MASTER.c **** 
 946:Generated_Source\PSoC4/I2C_1_I2C_MASTER.c ****     I2C_1_EnableInt();   /* Release lock */
 947:Generated_Source\PSoC4/I2C_1_I2C_MASTER.c **** 
 948:Generated_Source\PSoC4/I2C_1_I2C_MASTER.c ****     return(status);
 949:Generated_Source\PSoC4/I2C_1_I2C_MASTER.c **** }
 950:Generated_Source\PSoC4/I2C_1_I2C_MASTER.c **** 
 951:Generated_Source\PSoC4/I2C_1_I2C_MASTER.c **** 
 952:Generated_Source\PSoC4/I2C_1_I2C_MASTER.c **** /*******************************************************************************
 953:Generated_Source\PSoC4/I2C_1_I2C_MASTER.c **** * Function Name: I2C_1_I2CMasterClearStatus
 954:Generated_Source\PSoC4/I2C_1_I2C_MASTER.c **** ****************************************************************************//**
 955:Generated_Source\PSoC4/I2C_1_I2C_MASTER.c **** *
 956:Generated_Source\PSoC4/I2C_1_I2C_MASTER.c **** *  Clears all status flags and returns the master status.
 957:Generated_Source\PSoC4/I2C_1_I2C_MASTER.c **** *
 958:Generated_Source\PSoC4/I2C_1_I2C_MASTER.c **** * \return
 959:Generated_Source\PSoC4/I2C_1_I2C_MASTER.c **** *  Current status of master. See the I2C_1_I2CMasterStatus() 
 960:Generated_Source\PSoC4/I2C_1_I2C_MASTER.c **** *  function for constants.
 961:Generated_Source\PSoC4/I2C_1_I2C_MASTER.c **** *
 962:Generated_Source\PSoC4/I2C_1_I2C_MASTER.c **** * \globalvars
ARM GAS  C:\Users\glenn\AppData\Local\Temp\cclrFd8J.s 			page 21


 963:Generated_Source\PSoC4/I2C_1_I2C_MASTER.c **** *  I2C_1_mstrStatus - used to store current status of I2C Master.
 964:Generated_Source\PSoC4/I2C_1_I2C_MASTER.c **** *
 965:Generated_Source\PSoC4/I2C_1_I2C_MASTER.c **** *******************************************************************************/
 966:Generated_Source\PSoC4/I2C_1_I2C_MASTER.c **** uint32 I2C_1_I2CMasterClearStatus(void)
 967:Generated_Source\PSoC4/I2C_1_I2C_MASTER.c **** {
 968:Generated_Source\PSoC4/I2C_1_I2C_MASTER.c ****     uint32 status;
 969:Generated_Source\PSoC4/I2C_1_I2C_MASTER.c **** 
 970:Generated_Source\PSoC4/I2C_1_I2C_MASTER.c ****     I2C_1_DisableInt();  /* Lock from interruption */
 971:Generated_Source\PSoC4/I2C_1_I2C_MASTER.c **** 
 972:Generated_Source\PSoC4/I2C_1_I2C_MASTER.c ****     /* Read and clear master status */
 973:Generated_Source\PSoC4/I2C_1_I2C_MASTER.c ****     status = (uint32) I2C_1_mstrStatus;
 974:Generated_Source\PSoC4/I2C_1_I2C_MASTER.c ****     I2C_1_mstrStatus = I2C_1_I2C_MSTAT_CLEAR;
 975:Generated_Source\PSoC4/I2C_1_I2C_MASTER.c **** 
 976:Generated_Source\PSoC4/I2C_1_I2C_MASTER.c ****     I2C_1_EnableInt();   /* Release lock */
 977:Generated_Source\PSoC4/I2C_1_I2C_MASTER.c **** 
 978:Generated_Source\PSoC4/I2C_1_I2C_MASTER.c ****     return(status);
 979:Generated_Source\PSoC4/I2C_1_I2C_MASTER.c **** }
 980:Generated_Source\PSoC4/I2C_1_I2C_MASTER.c **** 
 981:Generated_Source\PSoC4/I2C_1_I2C_MASTER.c **** 
 982:Generated_Source\PSoC4/I2C_1_I2C_MASTER.c **** /*******************************************************************************
 983:Generated_Source\PSoC4/I2C_1_I2C_MASTER.c **** * Function Name: I2C_1_I2CReStartGeneration
 984:Generated_Source\PSoC4/I2C_1_I2C_MASTER.c **** ****************************************************************************//**
 985:Generated_Source\PSoC4/I2C_1_I2C_MASTER.c **** *
 986:Generated_Source\PSoC4/I2C_1_I2C_MASTER.c **** *  Generates a ReStart condition:
 987:Generated_Source\PSoC4/I2C_1_I2C_MASTER.c **** *  - SCB IP V1 and later: Generates ReStart using the scb IP functionality
 988:Generated_Source\PSoC4/I2C_1_I2C_MASTER.c **** *    Sets the I2C_MASTER_CMD_M_START and I2C_MASTER_CMD_M_NACK (if the previous
 989:Generated_Source\PSoC4/I2C_1_I2C_MASTER.c **** *    transaction was read) bits in the SCB.I2C_MASTER_CMD register.
 990:Generated_Source\PSoC4/I2C_1_I2C_MASTER.c **** *    This combination forces the master to generate ReStart.
 991:Generated_Source\PSoC4/I2C_1_I2C_MASTER.c **** *
 992:Generated_Source\PSoC4/I2C_1_I2C_MASTER.c **** *  - SCB IP V0: Generates Restart using the GPIO and scb IP functionality.
 993:Generated_Source\PSoC4/I2C_1_I2C_MASTER.c **** *    After the master completes write or read, the SCL is stretched.
 994:Generated_Source\PSoC4/I2C_1_I2C_MASTER.c **** *    The master waits until SDA line is released by the slave. Then the GPIO
 995:Generated_Source\PSoC4/I2C_1_I2C_MASTER.c **** *    function is enabled and the scb IP disabled as it already does not drive
 996:Generated_Source\PSoC4/I2C_1_I2C_MASTER.c **** *    the bus. In case of the previous transfer was read, the NACK is generated
 997:Generated_Source\PSoC4/I2C_1_I2C_MASTER.c **** *    by the GPIO. The delay of tLOW is added to manage the hold time.
 998:Generated_Source\PSoC4/I2C_1_I2C_MASTER.c **** *    Set I2C_M_CMD.START and enable the scb IP. The ReStart generation
 999:Generated_Source\PSoC4/I2C_1_I2C_MASTER.c **** *    is started after the I2C function is enabled for the SCL.
1000:Generated_Source\PSoC4/I2C_1_I2C_MASTER.c **** *    Note1: the scb IP due re-enable generates Start but on the I2C bus it
1001:Generated_Source\PSoC4/I2C_1_I2C_MASTER.c **** *           appears as ReStart.
1002:Generated_Source\PSoC4/I2C_1_I2C_MASTER.c **** *    Note2: the I2C_M_CMD.START is queued if scb IP is disabled.
1003:Generated_Source\PSoC4/I2C_1_I2C_MASTER.c **** *    Note3: the I2C_STATUS_M_READ is cleared is address was NACKed before.
1004:Generated_Source\PSoC4/I2C_1_I2C_MASTER.c **** *
1005:Generated_Source\PSoC4/I2C_1_I2C_MASTER.c **** * \sideeffect
1006:Generated_Source\PSoC4/I2C_1_I2C_MASTER.c **** *  SCB IP V0: The NACK generation by the GPIO may cause a greater SCL period
1007:Generated_Source\PSoC4/I2C_1_I2C_MASTER.c **** *             than expected for the selected master data rate.
1008:Generated_Source\PSoC4/I2C_1_I2C_MASTER.c **** *
1009:Generated_Source\PSoC4/I2C_1_I2C_MASTER.c **** *******************************************************************************/
1010:Generated_Source\PSoC4/I2C_1_I2C_MASTER.c **** void I2C_1_I2CReStartGeneration(void)
1011:Generated_Source\PSoC4/I2C_1_I2C_MASTER.c **** {
1012:Generated_Source\PSoC4/I2C_1_I2C_MASTER.c **** #if(I2C_1_CY_SCBIP_V0)
1013:Generated_Source\PSoC4/I2C_1_I2C_MASTER.c ****     /* Generates Restart use GPIO and scb IP functionality. Ticket ID#143715,
1014:Generated_Source\PSoC4/I2C_1_I2C_MASTER.c ****     * ID#145238 and ID#173656.
1015:Generated_Source\PSoC4/I2C_1_I2C_MASTER.c ****     */
1016:Generated_Source\PSoC4/I2C_1_I2C_MASTER.c ****     uint32 status = I2C_1_I2C_STATUS_REG;
1017:Generated_Source\PSoC4/I2C_1_I2C_MASTER.c **** 
1018:Generated_Source\PSoC4/I2C_1_I2C_MASTER.c ****     while(I2C_1_WAIT_SDA_SET_HIGH)
1019:Generated_Source\PSoC4/I2C_1_I2C_MASTER.c ****     {
ARM GAS  C:\Users\glenn\AppData\Local\Temp\cclrFd8J.s 			page 22


1020:Generated_Source\PSoC4/I2C_1_I2C_MASTER.c ****         /* Wait when slave release SDA line: SCL tHIGH is complete */
1021:Generated_Source\PSoC4/I2C_1_I2C_MASTER.c ****     }
1022:Generated_Source\PSoC4/I2C_1_I2C_MASTER.c **** 
1023:Generated_Source\PSoC4/I2C_1_I2C_MASTER.c ****     /* Prepare DR register to drive SCL line */
1024:Generated_Source\PSoC4/I2C_1_I2C_MASTER.c ****     I2C_1_SET_I2C_SCL_DR(I2C_1_I2C_SCL_LOW);
1025:Generated_Source\PSoC4/I2C_1_I2C_MASTER.c **** 
1026:Generated_Source\PSoC4/I2C_1_I2C_MASTER.c ****     /* Switch HSIOM to GPIO: SCL goes low */
1027:Generated_Source\PSoC4/I2C_1_I2C_MASTER.c ****     I2C_1_SET_I2C_SCL_HSIOM_SEL(I2C_1_HSIOM_GPIO_SEL);
1028:Generated_Source\PSoC4/I2C_1_I2C_MASTER.c **** 
1029:Generated_Source\PSoC4/I2C_1_I2C_MASTER.c ****     /* Disable SCB block */
1030:Generated_Source\PSoC4/I2C_1_I2C_MASTER.c ****     I2C_1_CTRL_REG &= (uint32) ~I2C_1_CTRL_ENABLED;
1031:Generated_Source\PSoC4/I2C_1_I2C_MASTER.c **** 
1032:Generated_Source\PSoC4/I2C_1_I2C_MASTER.c ****     if(0u != (status & I2C_1_I2C_STATUS_M_READ))
1033:Generated_Source\PSoC4/I2C_1_I2C_MASTER.c ****     {
1034:Generated_Source\PSoC4/I2C_1_I2C_MASTER.c ****         /* Generate NACK use GPIO functionality */
1035:Generated_Source\PSoC4/I2C_1_I2C_MASTER.c ****         I2C_1_SET_I2C_SCL_DR(I2C_1_I2C_SCL_LOW);
1036:Generated_Source\PSoC4/I2C_1_I2C_MASTER.c ****         CyDelayUs(I2C_1_I2C_TLOW_TIME); /* Count tLOW */
1037:Generated_Source\PSoC4/I2C_1_I2C_MASTER.c **** 
1038:Generated_Source\PSoC4/I2C_1_I2C_MASTER.c ****         I2C_1_SET_I2C_SCL_DR(I2C_1_I2C_SCL_HIGH);
1039:Generated_Source\PSoC4/I2C_1_I2C_MASTER.c ****         while(I2C_1_WAIT_SCL_SET_HIGH)
1040:Generated_Source\PSoC4/I2C_1_I2C_MASTER.c ****         {
1041:Generated_Source\PSoC4/I2C_1_I2C_MASTER.c ****             /* Wait until slave releases SCL in case if it stretches */
1042:Generated_Source\PSoC4/I2C_1_I2C_MASTER.c ****         }
1043:Generated_Source\PSoC4/I2C_1_I2C_MASTER.c ****         CyDelayUs(I2C_1_I2C_THIGH_TIME); /* Count tHIGH */
1044:Generated_Source\PSoC4/I2C_1_I2C_MASTER.c ****     }
1045:Generated_Source\PSoC4/I2C_1_I2C_MASTER.c **** 
1046:Generated_Source\PSoC4/I2C_1_I2C_MASTER.c ****     /* Count tLOW as hold time for write and read */
1047:Generated_Source\PSoC4/I2C_1_I2C_MASTER.c ****     I2C_1_SET_I2C_SCL_DR(I2C_1_I2C_SCL_LOW);
1048:Generated_Source\PSoC4/I2C_1_I2C_MASTER.c ****     CyDelayUs(I2C_1_I2C_TLOW_TIME); /* Count tLOW */
1049:Generated_Source\PSoC4/I2C_1_I2C_MASTER.c **** 
1050:Generated_Source\PSoC4/I2C_1_I2C_MASTER.c ****     /* Set command for Start generation: it will appear */
1051:Generated_Source\PSoC4/I2C_1_I2C_MASTER.c ****     I2C_1_I2C_MASTER_CMD_REG = I2C_1_I2C_MASTER_CMD_M_START;
1052:Generated_Source\PSoC4/I2C_1_I2C_MASTER.c **** 
1053:Generated_Source\PSoC4/I2C_1_I2C_MASTER.c ****     /* Enable SCB block */
1054:Generated_Source\PSoC4/I2C_1_I2C_MASTER.c ****     I2C_1_CTRL_REG |= (uint32) I2C_1_CTRL_ENABLED;
1055:Generated_Source\PSoC4/I2C_1_I2C_MASTER.c **** 
1056:Generated_Source\PSoC4/I2C_1_I2C_MASTER.c ****     /* Switch HSIOM to I2C: */
1057:Generated_Source\PSoC4/I2C_1_I2C_MASTER.c ****     I2C_1_SET_I2C_SCL_HSIOM_SEL(I2C_1_HSIOM_I2C_SEL);
1058:Generated_Source\PSoC4/I2C_1_I2C_MASTER.c **** 
1059:Generated_Source\PSoC4/I2C_1_I2C_MASTER.c ****     /* Revert SCL DR register */
1060:Generated_Source\PSoC4/I2C_1_I2C_MASTER.c ****     I2C_1_SET_I2C_SCL_DR(I2C_1_I2C_SCL_HIGH);
1061:Generated_Source\PSoC4/I2C_1_I2C_MASTER.c **** #else
1062:Generated_Source\PSoC4/I2C_1_I2C_MASTER.c ****     uint32 cmd;
1063:Generated_Source\PSoC4/I2C_1_I2C_MASTER.c **** 
1064:Generated_Source\PSoC4/I2C_1_I2C_MASTER.c ****     /* Generates ReStart use scb IP functionality */
1065:Generated_Source\PSoC4/I2C_1_I2C_MASTER.c ****     cmd  = I2C_1_I2C_MASTER_CMD_M_START;
1066:Generated_Source\PSoC4/I2C_1_I2C_MASTER.c ****     cmd |= I2C_1_CHECK_I2C_STATUS(I2C_1_I2C_STATUS_M_READ) ?
 158              		.loc 1 1066 0
 159 008c 184B     		ldr	r3, .L20+44
 160 008e 1A68     		ldr	r2, [r3]
1067:Generated_Source\PSoC4/I2C_1_I2C_MASTER.c ****                 (I2C_1_I2C_MASTER_CMD_M_NACK) : (0u);
 161              		.loc 1 1067 0
 162 0090 0923     		mov	r3, #9
 163 0092 9206     		lsl	r2, r2, #26
 164 0094 00D4     		bmi	.L5
 165 0096 083B     		sub	r3, r3, #8
 166              	.L5:
ARM GAS  C:\Users\glenn\AppData\Local\Temp\cclrFd8J.s 			page 23


 167              	.LVL16:
1068:Generated_Source\PSoC4/I2C_1_I2C_MASTER.c **** 
1069:Generated_Source\PSoC4/I2C_1_I2C_MASTER.c ****     I2C_1_I2C_MASTER_CMD_REG = cmd;
 168              		.loc 1 1069 0
 169 0098 164A     		ldr	r2, .L20+48
 170              	.LBE9:
 171              	.LBE8:
 172 009a 0024     		mov	r4, #0
 173              	.LBB11:
 174              	.LBB10:
 175 009c 1360     		str	r3, [r2]
 176              	.LBE10:
 177              	.LBE11:
 158:Generated_Source\PSoC4/I2C_1_I2C_MASTER.c ****         }
 178              		.loc 1 158 0
 179 009e 164B     		ldr	r3, .L20+52
 180              	.LVL17:
 181 00a0 1E60     		str	r6, [r3]
 182              	.LVL18:
 183 00a2 BFE7     		b	.L6
 184              	.L19:
 162:Generated_Source\PSoC4/I2C_1_I2C_MASTER.c ****             I2C_1_I2C_MASTER_GENERATE_START;
 185              		.loc 1 162 0
 186 00a4 144B     		ldr	r3, .L20+52
 163:Generated_Source\PSoC4/I2C_1_I2C_MASTER.c ****         }
 187              		.loc 1 163 0
 188 00a6 0024     		mov	r4, #0
 162:Generated_Source\PSoC4/I2C_1_I2C_MASTER.c ****             I2C_1_I2C_MASTER_GENERATE_START;
 189              		.loc 1 162 0
 190 00a8 1E60     		str	r6, [r3]
 163:Generated_Source\PSoC4/I2C_1_I2C_MASTER.c ****         }
 191              		.loc 1 163 0
 192 00aa 124B     		ldr	r3, .L20+48
 193 00ac 1A60     		str	r2, [r3]
 194 00ae B9E7     		b	.L6
 195              	.LVL19:
 196              	.L17:
 109:Generated_Source\PSoC4/I2C_1_I2C_MASTER.c **** 
 197              		.loc 1 109 0
 198 00b0 0820     		mov	r0, #8
 199              	.LVL20:
 200 00b2 FFF7FEFF 		bl	CyIntDisable
 201              	.LVL21:
 112:Generated_Source\PSoC4/I2C_1_I2C_MASTER.c ****                             I2C_1_I2C_MSTR_BUS_BUSY : I2C_1_I2C_MSTR_NO_ERROR;
 202              		.loc 1 112 0
 203 00b6 0E4B     		ldr	r3, .L20+44
 204 00b8 0824     		mov	r4, #8
 205 00ba 1B68     		ldr	r3, [r3]
 206 00bc DB07     		lsl	r3, r3, #31
 207 00be B1D4     		bmi	.L6
 208 00c0 014B     		ldr	r3, .L20+4
 209 00c2 BFE7     		b	.L4
 210              	.L21:
 211              		.align	2
 212              	.L20:
 213 00c4 00000000 		.word	I2C_1_state
 214 00c8 00000000 		.word	I2C_1_mstrStatus
ARM GAS  C:\Users\glenn\AppData\Local\Temp\cclrFd8J.s 			page 24


 215 00cc 00000000 		.word	I2C_1_mstrWrBufIndexTmp
 216 00d0 00000000 		.word	I2C_1_mstrWrBufIndex
 217 00d4 00000000 		.word	I2C_1_mstrWrBufSize
 218 00d8 00000000 		.word	I2C_1_mstrWrBufPtr
 219 00dc 00000000 		.word	I2C_1_mstrControl
 220 00e0 17030000 		.word	791
 221 00e4 000F2440 		.word	1076104960
 222 00e8 800F2440 		.word	1076105088
 223 00ec 880F2440 		.word	1076105096
 224 00f0 64002440 		.word	1076101220
 225 00f4 68002440 		.word	1076101224
 226 00f8 40022440 		.word	1076101696
 227              		.cfi_endproc
 228              	.LFE1:
 229              		.size	I2C_1_I2CMasterWriteBuf, .-I2C_1_I2CMasterWriteBuf
 230              		.section	.text.I2C_1_I2CMasterReadBuf,"ax",%progbits
 231              		.align	2
 232              		.global	I2C_1_I2CMasterReadBuf
 233              		.code	16
 234              		.thumb_func
 235              		.type	I2C_1_I2CMasterReadBuf, %function
 236              	I2C_1_I2CMasterReadBuf:
 237              	.LFB2:
 210:Generated_Source\PSoC4/I2C_1_I2C_MASTER.c ****     uint32 errStatus;
 238              		.loc 1 210 0
 239              		.cfi_startproc
 240              	.LVL22:
 241 0000 F0B5     		push	{r4, r5, r6, r7, lr}
 242              		.cfi_def_cfa_offset 20
 243              		.cfi_offset 4, -20
 244              		.cfi_offset 5, -16
 245              		.cfi_offset 6, -12
 246              		.cfi_offset 7, -8
 247              		.cfi_offset 14, -4
 248 0002 4F46     		mov	r7, r9
 249 0004 4646     		mov	r6, r8
 250 0006 C0B4     		push	{r6, r7}
 251              		.cfi_def_cfa_offset 28
 252              		.cfi_offset 8, -28
 253              		.cfi_offset 9, -24
 254 0008 051C     		mov	r5, r0
 255 000a 83B0     		sub	sp, sp, #12
 256              		.cfi_def_cfa_offset 40
 210:Generated_Source\PSoC4/I2C_1_I2C_MASTER.c ****     uint32 errStatus;
 257              		.loc 1 210 0
 258 000c 0F1E     		sub	r7, r1, #0
 259 000e 9146     		mov	r9, r2
 260 0010 9846     		mov	r8, r3
 215:Generated_Source\PSoC4/I2C_1_I2C_MASTER.c ****     {
 261              		.loc 1 215 0
 262 0012 10D0     		beq	.L32
 218:Generated_Source\PSoC4/I2C_1_I2C_MASTER.c ****         {
 263              		.loc 1 218 0
 264 0014 314E     		ldr	r6, .L42
 265 0016 3378     		ldrb	r3, [r6]
 266              	.LVL23:
 267 0018 102B     		cmp	r3, #16
ARM GAS  C:\Users\glenn\AppData\Local\Temp\cclrFd8J.s 			page 25


 268 001a 54D0     		beq	.L39
 226:Generated_Source\PSoC4/I2C_1_I2C_MASTER.c ****         {
 269              		.loc 1 226 0
 270 001c 3378     		ldrb	r3, [r6]
 213:Generated_Source\PSoC4/I2C_1_I2C_MASTER.c **** 
 271              		.loc 1 213 0
 272 001e 0424     		mov	r4, #4
 226:Generated_Source\PSoC4/I2C_1_I2C_MASTER.c ****         {
 273              		.loc 1 226 0
 274 0020 602B     		cmp	r3, #96
 275 0022 0AD0     		beq	.L40
 276              	.LVL24:
 277              	.L29:
 286:Generated_Source\PSoC4/I2C_1_I2C_MASTER.c **** 
 278              		.loc 1 286 0
 279 0024 0820     		mov	r0, #8
 280 0026 FFF7FEFF 		bl	CyIntEnable
 281              	.LVL25:
 289:Generated_Source\PSoC4/I2C_1_I2C_MASTER.c **** 
 282              		.loc 1 289 0
 283 002a 201C     		mov	r0, r4
 284 002c 03B0     		add	sp, sp, #12
 285              		@ sp needed
 286              	.LVL26:
 287              	.LVL27:
 288              	.LVL28:
 289              	.LVL29:
 290 002e 0CBC     		pop	{r2, r3}
 291 0030 9046     		mov	r8, r2
 292 0032 9946     		mov	r9, r3
 293 0034 F0BD     		pop	{r4, r5, r6, r7, pc}
 294              	.LVL30:
 295              	.L32:
 213:Generated_Source\PSoC4/I2C_1_I2C_MASTER.c **** 
 296              		.loc 1 213 0
 297 0036 0424     		mov	r4, #4
 298 0038 F4E7     		b	.L29
 299              	.LVL31:
 300              	.L40:
 228:Generated_Source\PSoC4/I2C_1_I2C_MASTER.c ****                               errStatus  =  I2C_1_I2C_MSTR_NO_ERROR;
 301              		.loc 1 228 0
 302 003a 0821     		mov	r1, #8
 303              	.LVL32:
 304 003c 284B     		ldr	r3, .L42+4
 305 003e 1A88     		ldrh	r2, [r3]
 306              	.LVL33:
 307 0040 8A43     		bic	r2, r1
 308 0042 1A80     		strh	r2, [r3]
 309              	.LVL34:
 310              	.L25:
 246:Generated_Source\PSoC4/I2C_1_I2C_MASTER.c ****         I2C_1_mstrRdBufIndex = 0u;
 311              		.loc 1 246 0
 312 0044 2922     		mov	r2, #41
 247:Generated_Source\PSoC4/I2C_1_I2C_MASTER.c ****         I2C_1_mstrRdBufSize  = cnt;
 313              		.loc 1 247 0
 314 0046 0021     		mov	r1, #0
 246:Generated_Source\PSoC4/I2C_1_I2C_MASTER.c ****         I2C_1_mstrRdBufIndex = 0u;
ARM GAS  C:\Users\glenn\AppData\Local\Temp\cclrFd8J.s 			page 26


 315              		.loc 1 246 0
 316 0048 3270     		strb	r2, [r6]
 247:Generated_Source\PSoC4/I2C_1_I2C_MASTER.c ****         I2C_1_mstrRdBufSize  = cnt;
 317              		.loc 1 247 0
 318 004a 264A     		ldr	r2, .L42+8
 250:Generated_Source\PSoC4/I2C_1_I2C_MASTER.c **** 
 319              		.loc 1 250 0
 320 004c 6846     		mov	r0, sp
 247:Generated_Source\PSoC4/I2C_1_I2C_MASTER.c ****         I2C_1_mstrRdBufSize  = cnt;
 321              		.loc 1 247 0
 322 004e 1160     		str	r1, [r2]
 248:Generated_Source\PSoC4/I2C_1_I2C_MASTER.c ****         I2C_1_mstrRdBufPtr   = (volatile uint8 *) rdData;
 323              		.loc 1 248 0
 324 0050 4A46     		mov	r2, r9
 325 0052 2549     		ldr	r1, .L42+12
 252:Generated_Source\PSoC4/I2C_1_I2C_MASTER.c **** 
 326              		.loc 1 252 0
 327 0054 6D00     		lsl	r5, r5, #1
 328              	.LVL35:
 248:Generated_Source\PSoC4/I2C_1_I2C_MASTER.c ****         I2C_1_mstrRdBufPtr   = (volatile uint8 *) rdData;
 329              		.loc 1 248 0
 330 0056 0A60     		str	r2, [r1]
 249:Generated_Source\PSoC4/I2C_1_I2C_MASTER.c ****         I2C_1_mstrControl    = (uint8) mode;
 331              		.loc 1 249 0
 332 0058 244A     		ldr	r2, .L42+16
 333 005a 1760     		str	r7, [r2]
 250:Generated_Source\PSoC4/I2C_1_I2C_MASTER.c **** 
 334              		.loc 1 250 0
 335 005c 4246     		mov	r2, r8
 336 005e C271     		strb	r2, [r0, #7]
 337 0060 C279     		ldrb	r2, [r0, #7]
 338 0062 2348     		ldr	r0, .L42+20
 339 0064 0270     		strb	r2, [r0]
 252:Generated_Source\PSoC4/I2C_1_I2C_MASTER.c **** 
 340              		.loc 1 252 0
 341 0066 FF22     		mov	r2, #255
 342 0068 0120     		mov	r0, #1
 343 006a 1540     		and	r5, r2
 254:Generated_Source\PSoC4/I2C_1_I2C_MASTER.c **** 
 344              		.loc 1 254 0
 345 006c 1A88     		ldrh	r2, [r3]
 252:Generated_Source\PSoC4/I2C_1_I2C_MASTER.c **** 
 346              		.loc 1 252 0
 347 006e 0543     		orr	r5, r0
 348              	.LVL36:
 254:Generated_Source\PSoC4/I2C_1_I2C_MASTER.c **** 
 349              		.loc 1 254 0
 350 0070 8243     		bic	r2, r0
 351 0072 1A80     		strh	r2, [r3]
 256:Generated_Source\PSoC4/I2C_1_I2C_MASTER.c **** 
 352              		.loc 1 256 0
 353 0074 1F4B     		ldr	r3, .L42+24
 354 0076 204A     		ldr	r2, .L42+28
 355 0078 1A60     		str	r2, [r3]
 261:Generated_Source\PSoC4/I2C_1_I2C_MASTER.c ****         {
 356              		.loc 1 261 0
 357 007a 0B68     		ldr	r3, [r1]
ARM GAS  C:\Users\glenn\AppData\Local\Temp\cclrFd8J.s 			page 27


 358 007c 072B     		cmp	r3, #7
 359 007e 18D8     		bhi	.L41
 264:Generated_Source\PSoC4/I2C_1_I2C_MASTER.c ****         }
 360              		.loc 1 264 0
 361 0080 0422     		mov	r2, #4
 362 0082 1E4B     		ldr	r3, .L42+32
 363 0084 1A60     		str	r2, [r3]
 364              	.L26:
 274:Generated_Source\PSoC4/I2C_1_I2C_MASTER.c ****         {
 365              		.loc 1 274 0
 366 0086 4346     		mov	r3, r8
 367 0088 DB07     		lsl	r3, r3, #31
 368 008a 0BD5     		bpl	.L27
 369              	.LVL37:
 370              	.LBB12:
 371              	.LBB13:
1066:Generated_Source\PSoC4/I2C_1_I2C_MASTER.c ****                 (I2C_1_I2C_MASTER_CMD_M_NACK) : (0u);
 372              		.loc 1 1066 0
 373 008c 1C4B     		ldr	r3, .L42+36
 374 008e 1A68     		ldr	r2, [r3]
1067:Generated_Source\PSoC4/I2C_1_I2C_MASTER.c **** 
 375              		.loc 1 1067 0
 376 0090 0923     		mov	r3, #9
 377 0092 9206     		lsl	r2, r2, #26
 378 0094 00D4     		bmi	.L28
 379 0096 083B     		sub	r3, r3, #8
 380              	.L28:
 381              	.LVL38:
 382              		.loc 1 1069 0
 383 0098 1A4A     		ldr	r2, .L42+40
 384              	.LBE13:
 385              	.LBE12:
 386 009a 0024     		mov	r4, #0
 387              	.LBB15:
 388              	.LBB14:
 389 009c 1360     		str	r3, [r2]
 390              	.LBE14:
 391              	.LBE15:
 277:Generated_Source\PSoC4/I2C_1_I2C_MASTER.c ****         }
 392              		.loc 1 277 0
 393 009e 1A4B     		ldr	r3, .L42+44
 394              	.LVL39:
 395 00a0 1D60     		str	r5, [r3]
 396              	.LVL40:
 397 00a2 BFE7     		b	.L29
 398              	.L27:
 282:Generated_Source\PSoC4/I2C_1_I2C_MASTER.c ****         }
 399              		.loc 1 282 0
 400 00a4 0222     		mov	r2, #2
 281:Generated_Source\PSoC4/I2C_1_I2C_MASTER.c ****             I2C_1_I2C_MASTER_GENERATE_START;
 401              		.loc 1 281 0
 402 00a6 184B     		ldr	r3, .L42+44
 282:Generated_Source\PSoC4/I2C_1_I2C_MASTER.c ****         }
 403              		.loc 1 282 0
 404 00a8 0024     		mov	r4, #0
 281:Generated_Source\PSoC4/I2C_1_I2C_MASTER.c ****             I2C_1_I2C_MASTER_GENERATE_START;
 405              		.loc 1 281 0
ARM GAS  C:\Users\glenn\AppData\Local\Temp\cclrFd8J.s 			page 28


 406 00aa 1D60     		str	r5, [r3]
 282:Generated_Source\PSoC4/I2C_1_I2C_MASTER.c ****         }
 407              		.loc 1 282 0
 408 00ac 154B     		ldr	r3, .L42+40
 409 00ae 1A60     		str	r2, [r3]
 410 00b0 B8E7     		b	.L29
 411              	.L41:
 269:Generated_Source\PSoC4/I2C_1_I2C_MASTER.c ****             I2C_1_SetRxInterruptMode(I2C_1_INTR_RX_FULL);
 412              		.loc 1 269 0
 413 00b2 8021     		mov	r1, #128
 414 00b4 154A     		ldr	r2, .L42+48
 415 00b6 4900     		lsl	r1, r1, #1
 416 00b8 1368     		ldr	r3, [r2]
 417 00ba 0B43     		orr	r3, r1
 418 00bc 1360     		str	r3, [r2]
 270:Generated_Source\PSoC4/I2C_1_I2C_MASTER.c ****         }
 419              		.loc 1 270 0
 420 00be 0822     		mov	r2, #8
 421 00c0 0E4B     		ldr	r3, .L42+32
 422 00c2 1A60     		str	r2, [r3]
 423 00c4 DFE7     		b	.L26
 424              	.LVL41:
 425              	.L39:
 220:Generated_Source\PSoC4/I2C_1_I2C_MASTER.c **** 
 426              		.loc 1 220 0
 427 00c6 0820     		mov	r0, #8
 428              	.LVL42:
 429 00c8 FFF7FEFF 		bl	CyIntDisable
 430              	.LVL43:
 223:Generated_Source\PSoC4/I2C_1_I2C_MASTER.c ****                             I2C_1_I2C_MSTR_BUS_BUSY : I2C_1_I2C_MSTR_NO_ERROR;
 431              		.loc 1 223 0
 432 00cc 0C4B     		ldr	r3, .L42+36
 433 00ce 0824     		mov	r4, #8
 434 00d0 1B68     		ldr	r3, [r3]
 435 00d2 DB07     		lsl	r3, r3, #31
 436 00d4 A6D4     		bmi	.L29
 437 00d6 024B     		ldr	r3, .L42+4
 438 00d8 B4E7     		b	.L25
 439              	.L43:
 440 00da C046     		.align	2
 441              	.L42:
 442 00dc 00000000 		.word	I2C_1_state
 443 00e0 00000000 		.word	I2C_1_mstrStatus
 444 00e4 00000000 		.word	I2C_1_mstrRdBufIndex
 445 00e8 00000000 		.word	I2C_1_mstrRdBufSize
 446 00ec 00000000 		.word	I2C_1_mstrRdBufPtr
 447 00f0 00000000 		.word	I2C_1_mstrControl
 448 00f4 000F2440 		.word	1076104960
 449 00f8 17030000 		.word	791
 450 00fc C80F2440 		.word	1076105160
 451 0100 64002440 		.word	1076101220
 452 0104 68002440 		.word	1076101224
 453 0108 40022440 		.word	1076101696
 454 010c 60002440 		.word	1076101216
 455              		.cfi_endproc
 456              	.LFE2:
 457              		.size	I2C_1_I2CMasterReadBuf, .-I2C_1_I2CMasterReadBuf
ARM GAS  C:\Users\glenn\AppData\Local\Temp\cclrFd8J.s 			page 29


 458              		.section	.text.I2C_1_I2CMasterSendStart,"ax",%progbits
 459              		.align	2
 460              		.global	I2C_1_I2CMasterSendStart
 461              		.code	16
 462              		.thumb_func
 463              		.type	I2C_1_I2CMasterSendStart, %function
 464              	I2C_1_I2CMasterSendStart:
 465              	.LFB3:
 335:Generated_Source\PSoC4/I2C_1_I2C_MASTER.c ****     uint32  resetIp;
 466              		.loc 1 335 0
 467              		.cfi_startproc
 468              	.LVL44:
 469 0000 F8B5     		push	{r3, r4, r5, r6, r7, lr}
 470              		.cfi_def_cfa_offset 24
 471              		.cfi_offset 3, -24
 472              		.cfi_offset 4, -20
 473              		.cfi_offset 5, -16
 474              		.cfi_offset 6, -12
 475              		.cfi_offset 7, -8
 476              		.cfi_offset 14, -4
 343:Generated_Source\PSoC4/I2C_1_I2C_MASTER.c ****     {
 477              		.loc 1 343 0
 478 0002 294C     		ldr	r4, .L60
 340:Generated_Source\PSoC4/I2C_1_I2C_MASTER.c **** 
 479              		.loc 1 340 0
 480 0004 0423     		mov	r3, #4
 343:Generated_Source\PSoC4/I2C_1_I2C_MASTER.c ****     {
 481              		.loc 1 343 0
 482 0006 2278     		ldrb	r2, [r4]
 483 0008 102A     		cmp	r2, #16
 484 000a 01D0     		beq	.L59
 485              	.LVL45:
 486              	.L57:
 426:Generated_Source\PSoC4/I2C_1_I2C_MASTER.c **** 
 487              		.loc 1 426 0
 488 000c 181C     		mov	r0, r3
 489              		@ sp needed
 490 000e F8BD     		pop	{r3, r4, r5, r6, r7, pc}
 491              	.LVL46:
 492              	.L59:
 346:Generated_Source\PSoC4/I2C_1_I2C_MASTER.c ****         {
 493              		.loc 1 346 0
 494 0010 0126     		mov	r6, #1
 495 0012 264B     		ldr	r3, .L60+4
 496 0014 1A68     		ldr	r2, [r3]
 348:Generated_Source\PSoC4/I2C_1_I2C_MASTER.c ****         }
 497              		.loc 1 348 0
 498 0016 0823     		mov	r3, #8
 346:Generated_Source\PSoC4/I2C_1_I2C_MASTER.c ****         {
 499              		.loc 1 346 0
 500 0018 1642     		tst	r6, r2
 501 001a F7D1     		bne	.L57
 502 001c 051C     		mov	r5, r0
 352:Generated_Source\PSoC4/I2C_1_I2C_MASTER.c **** 
 503              		.loc 1 352 0
 504 001e 0820     		mov	r0, #8
 505              	.LVL47:
ARM GAS  C:\Users\glenn\AppData\Local\Temp\cclrFd8J.s 			page 30


 506 0020 0F1C     		mov	r7, r1
 507 0022 FFF7FEFF 		bl	CyIntDisable
 508              	.LVL48:
 359:Generated_Source\PSoC4/I2C_1_I2C_MASTER.c **** 
 509              		.loc 1 359 0
 510 0026 FF23     		mov	r3, #255
 511 0028 6800     		lsl	r0, r5, #1
 512 002a 1840     		and	r0, r3
 513              	.LVL49:
 361:Generated_Source\PSoC4/I2C_1_I2C_MASTER.c ****             {
 514              		.loc 1 361 0
 515 002c 002F     		cmp	r7, #0
 516 002e 2AD1     		bne	.L46
 363:Generated_Source\PSoC4/I2C_1_I2C_MASTER.c ****             }
 517              		.loc 1 363 0
 518 0030 DB3B     		sub	r3, r3, #219
 519 0032 2370     		strb	r3, [r4]
 520              	.L47:
 373:Generated_Source\PSoC4/I2C_1_I2C_MASTER.c ****             I2C_1_ClearMasterInterruptSource(I2C_1_INTR_MASTER_ALL);
 521              		.loc 1 373 0
 522 0034 1E4B     		ldr	r3, .L60+8
 376:Generated_Source\PSoC4/I2C_1_I2C_MASTER.c **** 
 523              		.loc 1 376 0
 524 0036 0221     		mov	r1, #2
 373:Generated_Source\PSoC4/I2C_1_I2C_MASTER.c ****             I2C_1_ClearMasterInterruptSource(I2C_1_INTR_MASTER_ALL);
 525              		.loc 1 373 0
 526 0038 1860     		str	r0, [r3]
 379:Generated_Source\PSoC4/I2C_1_I2C_MASTER.c ****                                                       I2C_1_INTR_MASTER_I2C_NACK     |
 527              		.loc 1 379 0
 528 003a 0820     		mov	r0, #8
 529              	.LVL50:
 374:Generated_Source\PSoC4/I2C_1_I2C_MASTER.c **** 
 530              		.loc 1 374 0
 531 003c 1D4B     		ldr	r3, .L60+12
 532              	.LVL51:
 533 003e 1E4A     		ldr	r2, .L60+16
 379:Generated_Source\PSoC4/I2C_1_I2C_MASTER.c ****                                                       I2C_1_INTR_MASTER_I2C_NACK     |
 534              		.loc 1 379 0
 535 0040 FF30     		add	r0, r0, #255
 374:Generated_Source\PSoC4/I2C_1_I2C_MASTER.c **** 
 536              		.loc 1 374 0
 537 0042 1360     		str	r3, [r2]
 538              	.LVL52:
 376:Generated_Source\PSoC4/I2C_1_I2C_MASTER.c **** 
 539              		.loc 1 376 0
 540 0044 1D4B     		ldr	r3, .L60+20
 541 0046 1960     		str	r1, [r3]
 542              	.L48:
 379:Generated_Source\PSoC4/I2C_1_I2C_MASTER.c ****                                                       I2C_1_INTR_MASTER_I2C_NACK     |
 543              		.loc 1 379 0 discriminator 1
 544 0048 1368     		ldr	r3, [r2]
 545 004a 1B49     		ldr	r1, .L60+16
 546 004c 0342     		tst	r3, r0
 547 004e FBD0     		beq	.L48
 391:Generated_Source\PSoC4/I2C_1_I2C_MASTER.c ****             {
 548              		.loc 1 391 0
 549 0050 0B68     		ldr	r3, [r1]
ARM GAS  C:\Users\glenn\AppData\Local\Temp\cclrFd8J.s 			page 31


 550 0052 5B07     		lsl	r3, r3, #29
 551 0054 1BD4     		bmi	.L54
 395:Generated_Source\PSoC4/I2C_1_I2C_MASTER.c ****             {
 552              		.loc 1 395 0
 553 0056 0B68     		ldr	r3, [r1]
 554 0058 9B07     		lsl	r3, r3, #30
 555 005a 1ED4     		bmi	.L55
 399:Generated_Source\PSoC4/I2C_1_I2C_MASTER.c ****             {
 556              		.loc 1 399 0
 557 005c 0B68     		ldr	r3, [r1]
 558 005e DB07     		lsl	r3, r3, #31
 559 0060 1DD5     		bpl	.L50
 401:Generated_Source\PSoC4/I2C_1_I2C_MASTER.c ****                              errStatus = I2C_1_I2C_MSTR_ERR_ARB_LOST;
 560              		.loc 1 401 0
 561 0062 1023     		mov	r3, #16
 562 0064 2370     		strb	r3, [r4]
 563              	.LVL53:
 402:Generated_Source\PSoC4/I2C_1_I2C_MASTER.c ****                              resetIp   = I2C_1_I2C_RESET_ERROR;
 564              		.loc 1 402 0
 565 0066 0F3B     		sub	r3, r3, #15
 566              	.LVL54:
 567              	.L51:
 412:Generated_Source\PSoC4/I2C_1_I2C_MASTER.c ****                                                         I2C_1_INTR_MASTER_I2C_NACK     |
 568              		.loc 1 412 0
 569 0068 0821     		mov	r1, #8
 420:Generated_Source\PSoC4/I2C_1_I2C_MASTER.c ****             }
 570              		.loc 1 420 0
 571 006a 8020     		mov	r0, #128
 412:Generated_Source\PSoC4/I2C_1_I2C_MASTER.c ****                                                         I2C_1_INTR_MASTER_I2C_NACK     |
 572              		.loc 1 412 0
 573 006c 124A     		ldr	r2, .L60+16
 574 006e FF31     		add	r1, r1, #255
 575 0070 1160     		str	r1, [r2]
 420:Generated_Source\PSoC4/I2C_1_I2C_MASTER.c ****             }
 576              		.loc 1 420 0
 577 0072 1349     		ldr	r1, .L60+24
 578 0074 0006     		lsl	r0, r0, #24
 579 0076 0A68     		ldr	r2, [r1]
 580 0078 5200     		lsl	r2, r2, #1
 581 007a 5208     		lsr	r2, r2, #1
 582 007c 0A60     		str	r2, [r1]
 583 007e 0A68     		ldr	r2, [r1]
 584 0080 0243     		orr	r2, r0
 585 0082 0A60     		str	r2, [r1]
 586 0084 C2E7     		b	.L57
 587              	.LVL55:
 588              	.L46:
 367:Generated_Source\PSoC4/I2C_1_I2C_MASTER.c ****                          slaveAddress |= I2C_1_I2C_READ_FLAG;
 589              		.loc 1 367 0
 590 0086 2523     		mov	r3, #37
 368:Generated_Source\PSoC4/I2C_1_I2C_MASTER.c ****             }
 591              		.loc 1 368 0
 592 0088 3043     		orr	r0, r6
 593              	.LVL56:
 367:Generated_Source\PSoC4/I2C_1_I2C_MASTER.c ****                          slaveAddress |= I2C_1_I2C_READ_FLAG;
 594              		.loc 1 367 0
 595 008a 2370     		strb	r3, [r4]
ARM GAS  C:\Users\glenn\AppData\Local\Temp\cclrFd8J.s 			page 32


 596 008c D2E7     		b	.L47
 597              	.LVL57:
 598              	.L54:
 393:Generated_Source\PSoC4/I2C_1_I2C_MASTER.c ****             }
 599              		.loc 1 393 0
 600 008e 0023     		mov	r3, #0
 601              	.L49:
 602              	.LVL58:
 412:Generated_Source\PSoC4/I2C_1_I2C_MASTER.c ****                                                         I2C_1_INTR_MASTER_I2C_NACK     |
 603              		.loc 1 412 0
 604 0090 0821     		mov	r1, #8
 605 0092 094A     		ldr	r2, .L60+16
 606 0094 FF31     		add	r1, r1, #255
 607 0096 1160     		str	r1, [r2]
 608 0098 B8E7     		b	.L57
 609              	.LVL59:
 610              	.L55:
 397:Generated_Source\PSoC4/I2C_1_I2C_MASTER.c ****             }
 611              		.loc 1 397 0
 612 009a 0223     		mov	r3, #2
 613 009c F8E7     		b	.L49
 614              	.L50:
 407:Generated_Source\PSoC4/I2C_1_I2C_MASTER.c ****                              errStatus = I2C_1_I2C_MSTR_ERR_BUS_ERR;
 615              		.loc 1 407 0
 616 009e 1023     		mov	r3, #16
 617 00a0 2370     		strb	r3, [r4]
 618              	.LVL60:
 408:Generated_Source\PSoC4/I2C_1_I2C_MASTER.c ****                              resetIp   = I2C_1_I2C_RESET_ERROR;
 619              		.loc 1 408 0
 620 00a2 F033     		add	r3, r3, #240
 621 00a4 E0E7     		b	.L51
 622              	.L61:
 623 00a6 C046     		.align	2
 624              	.L60:
 625 00a8 00000000 		.word	I2C_1_state
 626 00ac 64002440 		.word	1076101220
 627 00b0 40022440 		.word	1076101696
 628 00b4 17030000 		.word	791
 629 00b8 000F2440 		.word	1076104960
 630 00bc 68002440 		.word	1076101224
 631 00c0 00002440 		.word	1076101120
 632              		.cfi_endproc
 633              	.LFE3:
 634              		.size	I2C_1_I2CMasterSendStart, .-I2C_1_I2CMasterSendStart
 635              		.section	.text.I2C_1_I2CMasterSendRestart,"ax",%progbits
 636              		.align	2
 637              		.global	I2C_1_I2CMasterSendRestart
 638              		.code	16
 639              		.thumb_func
 640              		.type	I2C_1_I2CMasterSendRestart, %function
 641              	I2C_1_I2CMasterSendRestart:
 642              	.LFB4:
 459:Generated_Source\PSoC4/I2C_1_I2C_MASTER.c ****     uint32 resetIp;
 643              		.loc 1 459 0
 644              		.cfi_startproc
 645              	.LVL61:
 646 0000 10B5     		push	{r4, lr}
ARM GAS  C:\Users\glenn\AppData\Local\Temp\cclrFd8J.s 			page 33


 647              		.cfi_def_cfa_offset 8
 648              		.cfi_offset 4, -8
 649              		.cfi_offset 14, -4
 467:Generated_Source\PSoC4/I2C_1_I2C_MASTER.c ****     {
 650              		.loc 1 467 0
 651 0002 294C     		ldr	r4, .L84
 464:Generated_Source\PSoC4/I2C_1_I2C_MASTER.c **** 
 652              		.loc 1 464 0
 653 0004 0423     		mov	r3, #4
 467:Generated_Source\PSoC4/I2C_1_I2C_MASTER.c ****     {
 654              		.loc 1 467 0
 655 0006 2278     		ldrb	r2, [r4]
 656 0008 9206     		lsl	r2, r2, #26
 657 000a 01D4     		bmi	.L81
 658              	.LVL62:
 659              	.L77:
 544:Generated_Source\PSoC4/I2C_1_I2C_MASTER.c **** 
 660              		.loc 1 544 0
 661 000c 181C     		mov	r0, r3
 662              		@ sp needed
 663 000e 10BD     		pop	{r4, pc}
 664              	.LVL63:
 665              	.L81:
 469:Generated_Source\PSoC4/I2C_1_I2C_MASTER.c **** 
 666              		.loc 1 469 0
 667 0010 4000     		lsl	r0, r0, #1
 668              	.LVL64:
 669 0012 FB33     		add	r3, r3, #251
 670 0014 1840     		and	r0, r3
 671              	.LVL65:
 471:Generated_Source\PSoC4/I2C_1_I2C_MASTER.c ****         {
 672              		.loc 1 471 0
 673 0016 0029     		cmp	r1, #0
 674 0018 36D0     		beq	.L82
 477:Generated_Source\PSoC4/I2C_1_I2C_MASTER.c ****                       slaveAddress |= I2C_1_I2C_READ_FLAG;
 675              		.loc 1 477 0
 676 001a 2523     		mov	r3, #37
 677 001c 2370     		strb	r3, [r4]
 478:Generated_Source\PSoC4/I2C_1_I2C_MASTER.c ****         }
 678              		.loc 1 478 0
 679 001e 243B     		sub	r3, r3, #36
 680 0020 1843     		orr	r0, r3
 681              	.LVL66:
 682              	.L65:
 484:Generated_Source\PSoC4/I2C_1_I2C_MASTER.c **** 
 683              		.loc 1 484 0
 684 0022 224A     		ldr	r2, .L84+4
 685 0024 224B     		ldr	r3, .L84+8
 686 0026 1A60     		str	r2, [r3]
 687              	.LVL67:
 688              	.LBB16:
 689              	.LBB17:
1066:Generated_Source\PSoC4/I2C_1_I2C_MASTER.c ****                 (I2C_1_I2C_MASTER_CMD_M_NACK) : (0u);
 690              		.loc 1 1066 0
 691 0028 224B     		ldr	r3, .L84+12
 692 002a 1A68     		ldr	r2, [r3]
1067:Generated_Source\PSoC4/I2C_1_I2C_MASTER.c **** 
ARM GAS  C:\Users\glenn\AppData\Local\Temp\cclrFd8J.s 			page 34


 693              		.loc 1 1067 0
 694 002c 0923     		mov	r3, #9
 695 002e 9206     		lsl	r2, r2, #26
 696 0030 00D4     		bmi	.L66
 697 0032 083B     		sub	r3, r3, #8
 698              	.L66:
 699              	.LVL68:
 700              	.LBE17:
 701              	.LBE16:
 492:Generated_Source\PSoC4/I2C_1_I2C_MASTER.c ****         {
 702              		.loc 1 492 0
 703 0034 0121     		mov	r1, #1
 704              	.LVL69:
 705              	.LBB19:
 706              	.LBB18:
 707              		.loc 1 1069 0
 708 0036 204A     		ldr	r2, .L84+16
 709 0038 1360     		str	r3, [r2]
 710              	.LVL70:
 711              	.L67:
 712              	.LBE18:
 713              	.LBE19:
 492:Generated_Source\PSoC4/I2C_1_I2C_MASTER.c ****         {
 714              		.loc 1 492 0 discriminator 1
 715 003a 1368     		ldr	r3, [r2]
 716 003c 1942     		tst	r1, r3
 717 003e FCD1     		bne	.L67
 501:Generated_Source\PSoC4/I2C_1_I2C_MASTER.c ****                                                   I2C_1_INTR_MASTER_I2C_NACK     |
 718              		.loc 1 501 0
 719 0040 0821     		mov	r1, #8
 498:Generated_Source\PSoC4/I2C_1_I2C_MASTER.c **** 
 720              		.loc 1 498 0
 721 0042 1E4B     		ldr	r3, .L84+20
 501:Generated_Source\PSoC4/I2C_1_I2C_MASTER.c ****                                                   I2C_1_INTR_MASTER_I2C_NACK     |
 722              		.loc 1 501 0
 723 0044 FF31     		add	r1, r1, #255
 498:Generated_Source\PSoC4/I2C_1_I2C_MASTER.c **** 
 724              		.loc 1 498 0
 725 0046 1860     		str	r0, [r3]
 726              	.LVL71:
 501:Generated_Source\PSoC4/I2C_1_I2C_MASTER.c ****                                                   I2C_1_INTR_MASTER_I2C_NACK     |
 727              		.loc 1 501 0
 728 0048 1948     		ldr	r0, .L84+8
 729              	.LVL72:
 730              	.L68:
 501:Generated_Source\PSoC4/I2C_1_I2C_MASTER.c ****                                                   I2C_1_INTR_MASTER_I2C_NACK     |
 731              		.loc 1 501 0 is_stmt 0 discriminator 1
 732 004a 0368     		ldr	r3, [r0]
 733 004c 184A     		ldr	r2, .L84+8
 734 004e 0B42     		tst	r3, r1
 735 0050 FBD0     		beq	.L68
 510:Generated_Source\PSoC4/I2C_1_I2C_MASTER.c ****         {
 736              		.loc 1 510 0 is_stmt 1
 737 0052 1368     		ldr	r3, [r2]
 738 0054 5B07     		lsl	r3, r3, #29
 739 0056 1AD4     		bmi	.L74
 514:Generated_Source\PSoC4/I2C_1_I2C_MASTER.c ****         {
ARM GAS  C:\Users\glenn\AppData\Local\Temp\cclrFd8J.s 			page 35


 740              		.loc 1 514 0
 741 0058 1368     		ldr	r3, [r2]
 742 005a 9B07     		lsl	r3, r3, #30
 743 005c 1DD4     		bmi	.L75
 518:Generated_Source\PSoC4/I2C_1_I2C_MASTER.c ****         {
 744              		.loc 1 518 0
 745 005e 1368     		ldr	r3, [r2]
 746 0060 DB07     		lsl	r3, r3, #31
 747 0062 1CD4     		bmi	.L83
 526:Generated_Source\PSoC4/I2C_1_I2C_MASTER.c ****                          errStatus = I2C_1_I2C_MSTR_ERR_BUS_ERR;
 748              		.loc 1 526 0
 749 0064 1023     		mov	r3, #16
 750 0066 2370     		strb	r3, [r4]
 751              	.LVL73:
 527:Generated_Source\PSoC4/I2C_1_I2C_MASTER.c ****                          resetIp   = I2C_1_I2C_RESET_ERROR;
 752              		.loc 1 527 0
 753 0068 F033     		add	r3, r3, #240
 754              	.LVL74:
 755              	.L71:
 531:Generated_Source\PSoC4/I2C_1_I2C_MASTER.c ****                                                     I2C_1_INTR_MASTER_I2C_NACK     |
 756              		.loc 1 531 0
 757 006a 0821     		mov	r1, #8
 539:Generated_Source\PSoC4/I2C_1_I2C_MASTER.c ****         }
 758              		.loc 1 539 0
 759 006c 8020     		mov	r0, #128
 531:Generated_Source\PSoC4/I2C_1_I2C_MASTER.c ****                                                     I2C_1_INTR_MASTER_I2C_NACK     |
 760              		.loc 1 531 0
 761 006e 104A     		ldr	r2, .L84+8
 762 0070 FF31     		add	r1, r1, #255
 763 0072 1160     		str	r1, [r2]
 539:Generated_Source\PSoC4/I2C_1_I2C_MASTER.c ****         }
 764              		.loc 1 539 0
 765 0074 1249     		ldr	r1, .L84+24
 766 0076 0006     		lsl	r0, r0, #24
 767 0078 0A68     		ldr	r2, [r1]
 768 007a 5200     		lsl	r2, r2, #1
 769 007c 5208     		lsr	r2, r2, #1
 770 007e 0A60     		str	r2, [r1]
 771 0080 0A68     		ldr	r2, [r1]
 772 0082 0243     		orr	r2, r0
 773 0084 0A60     		str	r2, [r1]
 774 0086 C1E7     		b	.L77
 775              	.LVL75:
 776              	.L82:
 473:Generated_Source\PSoC4/I2C_1_I2C_MASTER.c ****         }
 777              		.loc 1 473 0
 778 0088 DB3B     		sub	r3, r3, #219
 779 008a 2370     		strb	r3, [r4]
 780 008c C9E7     		b	.L65
 781              	.LVL76:
 782              	.L74:
 512:Generated_Source\PSoC4/I2C_1_I2C_MASTER.c ****         }
 783              		.loc 1 512 0
 784 008e 0023     		mov	r3, #0
 785              	.L69:
 786              	.LVL77:
 531:Generated_Source\PSoC4/I2C_1_I2C_MASTER.c ****                                                     I2C_1_INTR_MASTER_I2C_NACK     |
ARM GAS  C:\Users\glenn\AppData\Local\Temp\cclrFd8J.s 			page 36


 787              		.loc 1 531 0
 788 0090 0821     		mov	r1, #8
 789 0092 074A     		ldr	r2, .L84+8
 790 0094 FF31     		add	r1, r1, #255
 791 0096 1160     		str	r1, [r2]
 792              	.LVL78:
 793 0098 B8E7     		b	.L77
 794              	.LVL79:
 795              	.L75:
 516:Generated_Source\PSoC4/I2C_1_I2C_MASTER.c ****         }
 796              		.loc 1 516 0
 797 009a 0223     		mov	r3, #2
 798 009c F8E7     		b	.L69
 799              	.L83:
 520:Generated_Source\PSoC4/I2C_1_I2C_MASTER.c ****                          errStatus = I2C_1_I2C_MSTR_ERR_ARB_LOST;
 800              		.loc 1 520 0
 801 009e 1023     		mov	r3, #16
 802 00a0 2370     		strb	r3, [r4]
 803              	.LVL80:
 521:Generated_Source\PSoC4/I2C_1_I2C_MASTER.c ****                          resetIp   = I2C_1_I2C_RESET_ERROR;
 804              		.loc 1 521 0
 805 00a2 0F3B     		sub	r3, r3, #15
 806 00a4 E1E7     		b	.L71
 807              	.L85:
 808 00a6 C046     		.align	2
 809              	.L84:
 810 00a8 00000000 		.word	I2C_1_state
 811 00ac 17030000 		.word	791
 812 00b0 000F2440 		.word	1076104960
 813 00b4 64002440 		.word	1076101220
 814 00b8 68002440 		.word	1076101224
 815 00bc 40022440 		.word	1076101696
 816 00c0 00002440 		.word	1076101120
 817              		.cfi_endproc
 818              	.LFE4:
 819              		.size	I2C_1_I2CMasterSendRestart, .-I2C_1_I2CMasterSendRestart
 820              		.section	.text.I2C_1_I2CMasterSendStop,"ax",%progbits
 821              		.align	2
 822              		.global	I2C_1_I2CMasterSendStop
 823              		.code	16
 824              		.thumb_func
 825              		.type	I2C_1_I2CMasterSendStop, %function
 826              	I2C_1_I2CMasterSendStop:
 827              	.LFB5:
 574:Generated_Source\PSoC4/I2C_1_I2C_MASTER.c ****     uint32 resetIp;
 828              		.loc 1 574 0
 829              		.cfi_startproc
 830              	.LVL81:
 582:Generated_Source\PSoC4/I2C_1_I2C_MASTER.c ****     {
 831              		.loc 1 582 0
 832 0000 2023     		mov	r3, #32
 574:Generated_Source\PSoC4/I2C_1_I2C_MASTER.c ****     uint32 resetIp;
 833              		.loc 1 574 0
 834 0002 10B5     		push	{r4, lr}
 835              		.cfi_def_cfa_offset 8
 836              		.cfi_offset 4, -8
 837              		.cfi_offset 14, -4
ARM GAS  C:\Users\glenn\AppData\Local\Temp\cclrFd8J.s 			page 37


 582:Generated_Source\PSoC4/I2C_1_I2C_MASTER.c ****     {
 838              		.loc 1 582 0
 839 0004 1A4C     		ldr	r4, .L101
 579:Generated_Source\PSoC4/I2C_1_I2C_MASTER.c **** 
 840              		.loc 1 579 0
 841 0006 0420     		mov	r0, #4
 582:Generated_Source\PSoC4/I2C_1_I2C_MASTER.c ****     {
 842              		.loc 1 582 0
 843 0008 2278     		ldrb	r2, [r4]
 844 000a 1342     		tst	r3, r2
 845 000c 00D1     		bne	.L99
 846              	.LVL82:
 847              	.L96:
 627:Generated_Source\PSoC4/I2C_1_I2C_MASTER.c **** 
 848              		.loc 1 627 0
 849              		@ sp needed
 850 000e 10BD     		pop	{r4, pc}
 851              	.LVL83:
 852              	.L99:
 588:Generated_Source\PSoC4/I2C_1_I2C_MASTER.c **** 
 853              		.loc 1 588 0
 854 0010 184A     		ldr	r2, .L101+4
 855 0012 1168     		ldr	r1, [r2]
 856 0014 1822     		mov	r2, #24
 857 0016 0B42     		tst	r3, r1
 858 0018 28D0     		beq	.L100
 859              	.L88:
 590:Generated_Source\PSoC4/I2C_1_I2C_MASTER.c ****                                                   I2C_1_INTR_MASTER_I2C_ARB_LOST |
 860              		.loc 1 590 0 discriminator 4
 861 001a 1221     		mov	r1, #18
 588:Generated_Source\PSoC4/I2C_1_I2C_MASTER.c **** 
 862              		.loc 1 588 0 discriminator 4
 863 001c 164B     		ldr	r3, .L101+8
 590:Generated_Source\PSoC4/I2C_1_I2C_MASTER.c ****                                                   I2C_1_INTR_MASTER_I2C_ARB_LOST |
 864              		.loc 1 590 0 discriminator 4
 865 001e 1748     		ldr	r0, .L101+12
 588:Generated_Source\PSoC4/I2C_1_I2C_MASTER.c **** 
 866              		.loc 1 588 0 discriminator 4
 867 0020 1A60     		str	r2, [r3]
 590:Generated_Source\PSoC4/I2C_1_I2C_MASTER.c ****                                                   I2C_1_INTR_MASTER_I2C_ARB_LOST |
 868              		.loc 1 590 0 discriminator 4
 869 0022 FF31     		add	r1, r1, #255
 870              	.L89:
 590:Generated_Source\PSoC4/I2C_1_I2C_MASTER.c ****                                                   I2C_1_INTR_MASTER_I2C_ARB_LOST |
 871              		.loc 1 590 0 is_stmt 0 discriminator 1
 872 0024 0368     		ldr	r3, [r0]
 873 0026 154A     		ldr	r2, .L101+12
 874 0028 0B42     		tst	r3, r1
 875 002a FBD0     		beq	.L89
 598:Generated_Source\PSoC4/I2C_1_I2C_MASTER.c ****         {
 876              		.loc 1 598 0 is_stmt 1
 877 002c 1023     		mov	r3, #16
 878 002e 1168     		ldr	r1, [r2]
 879 0030 0B42     		tst	r3, r1
 880 0032 15D1     		bne	.L90
 602:Generated_Source\PSoC4/I2C_1_I2C_MASTER.c ****         {
 881              		.loc 1 602 0
ARM GAS  C:\Users\glenn\AppData\Local\Temp\cclrFd8J.s 			page 38


 882 0034 1368     		ldr	r3, [r2]
 604:Generated_Source\PSoC4/I2C_1_I2C_MASTER.c ****             resetIp   = I2C_1_I2C_RESET_ERROR;
 883              		.loc 1 604 0
 884 0036 0120     		mov	r0, #1
 602:Generated_Source\PSoC4/I2C_1_I2C_MASTER.c ****         {
 885              		.loc 1 602 0
 886 0038 DB07     		lsl	r3, r3, #31
 887 003a 00D4     		bmi	.L91
 609:Generated_Source\PSoC4/I2C_1_I2C_MASTER.c ****             resetIp   = I2C_1_I2C_RESET_ERROR;
 888              		.loc 1 609 0
 889 003c FF30     		add	r0, r0, #255
 890              	.L91:
 891              	.LVL84:
 613:Generated_Source\PSoC4/I2C_1_I2C_MASTER.c ****                                                     I2C_1_INTR_MASTER_I2C_ARB_LOST |
 892              		.loc 1 613 0
 893 003e 1222     		mov	r2, #18
 894 0040 0E4B     		ldr	r3, .L101+12
 895 0042 FF32     		add	r2, r2, #255
 896 0044 1A60     		str	r2, [r3]
 617:Generated_Source\PSoC4/I2C_1_I2C_MASTER.c **** 
 897              		.loc 1 617 0
 898 0046 1023     		mov	r3, #16
 622:Generated_Source\PSoC4/I2C_1_I2C_MASTER.c ****         }
 899              		.loc 1 622 0
 900 0048 8021     		mov	r1, #128
 901 004a 0D4A     		ldr	r2, .L101+16
 617:Generated_Source\PSoC4/I2C_1_I2C_MASTER.c **** 
 902              		.loc 1 617 0
 903 004c 2370     		strb	r3, [r4]
 622:Generated_Source\PSoC4/I2C_1_I2C_MASTER.c ****         }
 904              		.loc 1 622 0
 905 004e 1368     		ldr	r3, [r2]
 906 0050 0906     		lsl	r1, r1, #24
 907 0052 5B00     		lsl	r3, r3, #1
 908 0054 5B08     		lsr	r3, r3, #1
 909 0056 1360     		str	r3, [r2]
 910 0058 1368     		ldr	r3, [r2]
 911 005a 0B43     		orr	r3, r1
 912 005c 1360     		str	r3, [r2]
 913 005e D6E7     		b	.L96
 914              	.LVL85:
 915              	.L90:
 613:Generated_Source\PSoC4/I2C_1_I2C_MASTER.c ****                                                     I2C_1_INTR_MASTER_I2C_ARB_LOST |
 916              		.loc 1 613 0
 917 0060 1221     		mov	r1, #18
 918 0062 FF31     		add	r1, r1, #255
 919 0064 1160     		str	r1, [r2]
 600:Generated_Source\PSoC4/I2C_1_I2C_MASTER.c ****         }
 920              		.loc 1 600 0
 921 0066 0020     		mov	r0, #0
 922              	.LVL86:
 617:Generated_Source\PSoC4/I2C_1_I2C_MASTER.c **** 
 923              		.loc 1 617 0
 924 0068 2370     		strb	r3, [r4]
 925 006a D0E7     		b	.L96
 926              	.LVL87:
 927              	.L100:
ARM GAS  C:\Users\glenn\AppData\Local\Temp\cclrFd8J.s 			page 39


 588:Generated_Source\PSoC4/I2C_1_I2C_MASTER.c **** 
 928              		.loc 1 588 0
 929 006c 083A     		sub	r2, r2, #8
 930 006e D4E7     		b	.L88
 931              	.L102:
 932              		.align	2
 933              	.L101:
 934 0070 00000000 		.word	I2C_1_state
 935 0074 64002440 		.word	1076101220
 936 0078 68002440 		.word	1076101224
 937 007c 000F2440 		.word	1076104960
 938 0080 00002440 		.word	1076101120
 939              		.cfi_endproc
 940              	.LFE5:
 941              		.size	I2C_1_I2CMasterSendStop, .-I2C_1_I2CMasterSendStop
 942              		.section	.text.I2C_1_I2CMasterWriteByte,"ax",%progbits
 943              		.align	2
 944              		.global	I2C_1_I2CMasterWriteByte
 945              		.code	16
 946              		.thumb_func
 947              		.type	I2C_1_I2CMasterWriteByte, %function
 948              	I2C_1_I2CMasterWriteByte:
 949              	.LFB6:
 654:Generated_Source\PSoC4/I2C_1_I2C_MASTER.c ****     uint32 resetIp;
 950              		.loc 1 654 0
 951              		.cfi_startproc
 952              	.LVL88:
 953 0000 10B5     		push	{r4, lr}
 954              		.cfi_def_cfa_offset 8
 955              		.cfi_offset 4, -8
 956              		.cfi_offset 14, -4
 662:Generated_Source\PSoC4/I2C_1_I2C_MASTER.c ****     {
 957              		.loc 1 662 0
 958 0002 1D4C     		ldr	r4, .L119
 659:Generated_Source\PSoC4/I2C_1_I2C_MASTER.c **** 
 959              		.loc 1 659 0
 960 0004 0423     		mov	r3, #4
 662:Generated_Source\PSoC4/I2C_1_I2C_MASTER.c ****     {
 961              		.loc 1 662 0
 962 0006 2278     		ldrb	r2, [r4]
 963 0008 9206     		lsl	r2, r2, #26
 964 000a 01D4     		bmi	.L116
 965              	.LVL89:
 966              	.L113:
 711:Generated_Source\PSoC4/I2C_1_I2C_MASTER.c **** 
 967              		.loc 1 711 0
 968 000c 181C     		mov	r0, r3
 969              		@ sp needed
 970 000e 10BD     		pop	{r4, pc}
 971              	.LVL90:
 972              	.L116:
 666:Generated_Source\PSoC4/I2C_1_I2C_MASTER.c ****                                                   I2C_1_INTR_MASTER_I2C_NACK     |
 973              		.loc 1 666 0
 974 0010 0821     		mov	r1, #8
 664:Generated_Source\PSoC4/I2C_1_I2C_MASTER.c **** 
 975              		.loc 1 664 0
 976 0012 1A4B     		ldr	r3, .L119+4
ARM GAS  C:\Users\glenn\AppData\Local\Temp\cclrFd8J.s 			page 40


 666:Generated_Source\PSoC4/I2C_1_I2C_MASTER.c ****                                                   I2C_1_INTR_MASTER_I2C_NACK     |
 977              		.loc 1 666 0
 978 0014 FF31     		add	r1, r1, #255
 664:Generated_Source\PSoC4/I2C_1_I2C_MASTER.c **** 
 979              		.loc 1 664 0
 980 0016 1860     		str	r0, [r3]
 666:Generated_Source\PSoC4/I2C_1_I2C_MASTER.c ****                                                   I2C_1_INTR_MASTER_I2C_NACK     |
 981              		.loc 1 666 0
 982 0018 1948     		ldr	r0, .L119+8
 983              	.LVL91:
 984              	.L105:
 666:Generated_Source\PSoC4/I2C_1_I2C_MASTER.c ****                                                   I2C_1_INTR_MASTER_I2C_NACK     |
 985              		.loc 1 666 0 is_stmt 0 discriminator 1
 986 001a 0368     		ldr	r3, [r0]
 987 001c 184A     		ldr	r2, .L119+8
 988 001e 0B42     		tst	r3, r1
 989 0020 FBD0     		beq	.L105
 675:Generated_Source\PSoC4/I2C_1_I2C_MASTER.c ****         {
 990              		.loc 1 675 0 is_stmt 1
 991 0022 1368     		ldr	r3, [r2]
 992 0024 5B07     		lsl	r3, r3, #29
 993 0026 0AD4     		bmi	.L117
 680:Generated_Source\PSoC4/I2C_1_I2C_MASTER.c ****         {
 994              		.loc 1 680 0
 995 0028 1368     		ldr	r3, [r2]
 996 002a 9B07     		lsl	r3, r3, #30
 997 002c 0BD5     		bpl	.L108
 682:Generated_Source\PSoC4/I2C_1_I2C_MASTER.c ****                          errStatus = I2C_1_I2C_MSTR_ERR_LB_NAK;
 998              		.loc 1 682 0
 999 002e 6023     		mov	r3, #96
 1000 0030 2370     		strb	r3, [r4]
 1001              	.LVL92:
 683:Generated_Source\PSoC4/I2C_1_I2C_MASTER.c ****         }
 1002              		.loc 1 683 0
 1003 0032 5E3B     		sub	r3, r3, #94
 1004              	.LVL93:
 1005              	.L107:
 698:Generated_Source\PSoC4/I2C_1_I2C_MASTER.c ****                                                     I2C_1_INTR_MASTER_I2C_NACK     |
 1006              		.loc 1 698 0
 1007 0034 0821     		mov	r1, #8
 1008 0036 124A     		ldr	r2, .L119+8
 1009 0038 FF31     		add	r1, r1, #255
 1010 003a 1160     		str	r1, [r2]
 1011 003c E6E7     		b	.L113
 1012              	.LVL94:
 1013              	.L117:
 677:Generated_Source\PSoC4/I2C_1_I2C_MASTER.c ****                          errStatus = I2C_1_I2C_MSTR_NO_ERROR;
 1014              		.loc 1 677 0
 1015 003e 6023     		mov	r3, #96
 1016 0040 2370     		strb	r3, [r4]
 1017              	.LVL95:
 678:Generated_Source\PSoC4/I2C_1_I2C_MASTER.c ****         }
 1018              		.loc 1 678 0
 1019 0042 0023     		mov	r3, #0
 1020 0044 F6E7     		b	.L107
 1021              	.LVL96:
 1022              	.L108:
ARM GAS  C:\Users\glenn\AppData\Local\Temp\cclrFd8J.s 			page 41


 685:Generated_Source\PSoC4/I2C_1_I2C_MASTER.c ****         {
 1023              		.loc 1 685 0
 1024 0046 1368     		ldr	r3, [r2]
 1025 0048 DB07     		lsl	r3, r3, #31
 1026 004a 11D4     		bmi	.L118
 693:Generated_Source\PSoC4/I2C_1_I2C_MASTER.c ****                          errStatus = I2C_1_I2C_MSTR_ERR_BUS_ERR;
 1027              		.loc 1 693 0
 1028 004c 1023     		mov	r3, #16
 1029 004e 2370     		strb	r3, [r4]
 1030              	.LVL97:
 694:Generated_Source\PSoC4/I2C_1_I2C_MASTER.c ****                          resetIp   = I2C_1_I2C_RESET_ERROR;
 1031              		.loc 1 694 0
 1032 0050 F033     		add	r3, r3, #240
 1033              	.LVL98:
 1034              	.L110:
 698:Generated_Source\PSoC4/I2C_1_I2C_MASTER.c ****                                                     I2C_1_INTR_MASTER_I2C_NACK     |
 1035              		.loc 1 698 0
 1036 0052 0821     		mov	r1, #8
 706:Generated_Source\PSoC4/I2C_1_I2C_MASTER.c ****         }
 1037              		.loc 1 706 0
 1038 0054 8020     		mov	r0, #128
 698:Generated_Source\PSoC4/I2C_1_I2C_MASTER.c ****                                                     I2C_1_INTR_MASTER_I2C_NACK     |
 1039              		.loc 1 698 0
 1040 0056 0A4A     		ldr	r2, .L119+8
 1041 0058 FF31     		add	r1, r1, #255
 1042 005a 1160     		str	r1, [r2]
 706:Generated_Source\PSoC4/I2C_1_I2C_MASTER.c ****         }
 1043              		.loc 1 706 0
 1044 005c 0949     		ldr	r1, .L119+12
 1045 005e 0006     		lsl	r0, r0, #24
 1046 0060 0A68     		ldr	r2, [r1]
 1047 0062 5200     		lsl	r2, r2, #1
 1048 0064 5208     		lsr	r2, r2, #1
 1049 0066 0A60     		str	r2, [r1]
 1050 0068 0A68     		ldr	r2, [r1]
 1051 006a 0243     		orr	r2, r0
 1052 006c 0A60     		str	r2, [r1]
 1053 006e CDE7     		b	.L113
 1054              	.LVL99:
 1055              	.L118:
 687:Generated_Source\PSoC4/I2C_1_I2C_MASTER.c ****                          errStatus = I2C_1_I2C_MSTR_ERR_ARB_LOST;
 1056              		.loc 1 687 0
 1057 0070 1023     		mov	r3, #16
 1058 0072 2370     		strb	r3, [r4]
 1059              	.LVL100:
 688:Generated_Source\PSoC4/I2C_1_I2C_MASTER.c ****                          resetIp   = I2C_1_I2C_RESET_ERROR;
 1060              		.loc 1 688 0
 1061 0074 0F3B     		sub	r3, r3, #15
 1062 0076 ECE7     		b	.L110
 1063              	.L120:
 1064              		.align	2
 1065              	.L119:
 1066 0078 00000000 		.word	I2C_1_state
 1067 007c 40022440 		.word	1076101696
 1068 0080 000F2440 		.word	1076104960
 1069 0084 00002440 		.word	1076101120
 1070              		.cfi_endproc
ARM GAS  C:\Users\glenn\AppData\Local\Temp\cclrFd8J.s 			page 42


 1071              	.LFE6:
 1072              		.size	I2C_1_I2CMasterWriteByte, .-I2C_1_I2CMasterWriteByte
 1073              		.section	.text.I2C_1_I2CMasterReadByte,"ax",%progbits
 1074              		.align	2
 1075              		.global	I2C_1_I2CMasterReadByte
 1076              		.code	16
 1077              		.thumb_func
 1078              		.type	I2C_1_I2CMasterReadByte, %function
 1079              	I2C_1_I2CMasterReadByte:
 1080              	.LFB7:
 745:Generated_Source\PSoC4/I2C_1_I2C_MASTER.c ****     uint32 theByte;
 1081              		.loc 1 745 0
 1082              		.cfi_startproc
 1083              	.LVL101:
 1084 0000 70B5     		push	{r4, r5, r6, lr}
 1085              		.cfi_def_cfa_offset 16
 1086              		.cfi_offset 4, -16
 1087              		.cfi_offset 5, -12
 1088              		.cfi_offset 6, -8
 1089              		.cfi_offset 14, -4
 752:Generated_Source\PSoC4/I2C_1_I2C_MASTER.c ****     {
 1090              		.loc 1 752 0
 1091 0002 1A4E     		ldr	r6, .L134
 1092 0004 3378     		ldrb	r3, [r6]
 1093 0006 9B06     		lsl	r3, r3, #26
 1094 0008 03D4     		bmi	.L131
 749:Generated_Source\PSoC4/I2C_1_I2C_MASTER.c **** 
 1095              		.loc 1 749 0
 1096 000a 0123     		mov	r3, #1
 1097 000c 5B42     		neg	r3, r3
 1098              	.LVL102:
 1099              	.L122:
 788:Generated_Source\PSoC4/I2C_1_I2C_MASTER.c **** 
 1100              		.loc 1 788 0
 1101 000e 181C     		mov	r0, r3
 1102              	.LVL103:
 1103              		@ sp needed
 1104 0010 70BD     		pop	{r4, r5, r6, pc}
 1105              	.LVL104:
 1106              	.L131:
 755:Generated_Source\PSoC4/I2C_1_I2C_MASTER.c ****                                                   I2C_1_INTR_MASTER_I2C_BUS_ERROR)))
 1107              		.loc 1 755 0 discriminator 2
 1108 0012 0224     		mov	r4, #2
 754:Generated_Source\PSoC4/I2C_1_I2C_MASTER.c ****               (!I2C_1_CHECK_INTR_MASTER(I2C_1_INTR_MASTER_I2C_ARB_LOST |
 1109              		.loc 1 754 0 discriminator 2
 1110 0014 1649     		ldr	r1, .L134+4
 1111 0016 0422     		mov	r2, #4
 755:Generated_Source\PSoC4/I2C_1_I2C_MASTER.c ****                                                   I2C_1_INTR_MASTER_I2C_BUS_ERROR)))
 1112              		.loc 1 755 0 discriminator 2
 1113 0018 164D     		ldr	r5, .L134+8
 1114 001a FF34     		add	r4, r4, #255
 1115 001c 02E0     		b	.L129
 1116              	.L132:
 755:Generated_Source\PSoC4/I2C_1_I2C_MASTER.c ****                                                   I2C_1_INTR_MASTER_I2C_BUS_ERROR)))
 1117              		.loc 1 755 0 is_stmt 0 discriminator 1
 1118 001e 2B68     		ldr	r3, [r5]
 754:Generated_Source\PSoC4/I2C_1_I2C_MASTER.c ****               (!I2C_1_CHECK_INTR_MASTER(I2C_1_INTR_MASTER_I2C_ARB_LOST |
ARM GAS  C:\Users\glenn\AppData\Local\Temp\cclrFd8J.s 			page 43


 1119              		.loc 1 754 0 is_stmt 1 discriminator 1
 1120 0020 2342     		tst	r3, r4
 1121 0022 02D1     		bne	.L123
 1122              	.L129:
 754:Generated_Source\PSoC4/I2C_1_I2C_MASTER.c ****               (!I2C_1_CHECK_INTR_MASTER(I2C_1_INTR_MASTER_I2C_ARB_LOST |
 1123              		.loc 1 754 0 is_stmt 0 discriminator 2
 1124 0024 0B68     		ldr	r3, [r1]
 1125 0026 1A42     		tst	r2, r3
 1126 0028 F9D0     		beq	.L132
 1127              	.L123:
 762:Generated_Source\PSoC4/I2C_1_I2C_MASTER.c ****         {
 1128              		.loc 1 762 0 is_stmt 1
 1129 002a 0422     		mov	r2, #4
 1130 002c 1049     		ldr	r1, .L134+4
 1131 002e 0B68     		ldr	r3, [r1]
 1132 0030 1A42     		tst	r2, r3
 1133 0032 0FD1     		bne	.L133
 783:Generated_Source\PSoC4/I2C_1_I2C_MASTER.c ****         }
 1134              		.loc 1 783 0
 1135 0034 8021     		mov	r1, #128
 780:Generated_Source\PSoC4/I2C_1_I2C_MASTER.c **** 
 1136              		.loc 1 780 0
 1137 0036 104A     		ldr	r2, .L134+12
 1138 0038 0E4B     		ldr	r3, .L134+8
 783:Generated_Source\PSoC4/I2C_1_I2C_MASTER.c ****         }
 1139              		.loc 1 783 0
 1140 003a 0906     		lsl	r1, r1, #24
 780:Generated_Source\PSoC4/I2C_1_I2C_MASTER.c **** 
 1141              		.loc 1 780 0
 1142 003c 1A60     		str	r2, [r3]
 783:Generated_Source\PSoC4/I2C_1_I2C_MASTER.c ****         }
 1143              		.loc 1 783 0
 1144 003e 0F4A     		ldr	r2, .L134+16
 1145 0040 1368     		ldr	r3, [r2]
 1146 0042 5B00     		lsl	r3, r3, #1
 1147 0044 5B08     		lsr	r3, r3, #1
 1148 0046 1360     		str	r3, [r2]
 1149 0048 1368     		ldr	r3, [r2]
 1150 004a 0B43     		orr	r3, r1
 1151 004c 1360     		str	r3, [r2]
 749:Generated_Source\PSoC4/I2C_1_I2C_MASTER.c **** 
 1152              		.loc 1 749 0
 1153 004e 0123     		mov	r3, #1
 1154 0050 5B42     		neg	r3, r3
 1155 0052 DCE7     		b	.L122
 1156              	.L133:
 764:Generated_Source\PSoC4/I2C_1_I2C_MASTER.c **** 
 1157              		.loc 1 764 0
 1158 0054 0A4B     		ldr	r3, .L134+20
 1159 0056 1B68     		ldr	r3, [r3]
 1160              	.LVL105:
 766:Generated_Source\PSoC4/I2C_1_I2C_MASTER.c **** 
 1161              		.loc 1 766 0
 1162 0058 0A60     		str	r2, [r1]
 768:Generated_Source\PSoC4/I2C_1_I2C_MASTER.c ****             {
 1163              		.loc 1 768 0
 1164 005a 0028     		cmp	r0, #0
ARM GAS  C:\Users\glenn\AppData\Local\Temp\cclrFd8J.s 			page 44


 1165 005c 02D1     		bne	.L126
 770:Generated_Source\PSoC4/I2C_1_I2C_MASTER.c ****             }
 1166              		.loc 1 770 0
 1167 005e 0949     		ldr	r1, .L134+24
 1168 0060 0A60     		str	r2, [r1]
 1169 0062 D4E7     		b	.L122
 1170              	.L126:
 775:Generated_Source\PSoC4/I2C_1_I2C_MASTER.c ****             }
 1171              		.loc 1 775 0
 1172 0064 6022     		mov	r2, #96
 1173 0066 3270     		strb	r2, [r6]
 1174 0068 D1E7     		b	.L122
 1175              	.L135:
 1176 006a C046     		.align	2
 1177              	.L134:
 1178 006c 00000000 		.word	I2C_1_state
 1179 0070 C00F2440 		.word	1076105152
 1180 0074 000F2440 		.word	1076104960
 1181 0078 17030000 		.word	791
 1182 007c 00002440 		.word	1076101120
 1183 0080 40032440 		.word	1076101952
 1184 0084 68002440 		.word	1076101224
 1185              		.cfi_endproc
 1186              	.LFE7:
 1187              		.size	I2C_1_I2CMasterReadByte, .-I2C_1_I2CMasterReadByte
 1188              		.section	.text.I2C_1_I2CMasterGetReadBufSize,"ax",%progbits
 1189              		.align	2
 1190              		.global	I2C_1_I2CMasterGetReadBufSize
 1191              		.code	16
 1192              		.thumb_func
 1193              		.type	I2C_1_I2CMasterGetReadBufSize, %function
 1194              	I2C_1_I2CMasterGetReadBufSize:
 1195              	.LFB8:
 813:Generated_Source\PSoC4/I2C_1_I2C_MASTER.c ****     return(I2C_1_mstrRdBufIndex);
 1196              		.loc 1 813 0
 1197              		.cfi_startproc
 814:Generated_Source\PSoC4/I2C_1_I2C_MASTER.c **** }
 1198              		.loc 1 814 0
 1199 0000 014B     		ldr	r3, .L137
 815:Generated_Source\PSoC4/I2C_1_I2C_MASTER.c **** 
 1200              		.loc 1 815 0
 1201              		@ sp needed
 814:Generated_Source\PSoC4/I2C_1_I2C_MASTER.c **** }
 1202              		.loc 1 814 0
 1203 0002 1868     		ldr	r0, [r3]
 815:Generated_Source\PSoC4/I2C_1_I2C_MASTER.c **** 
 1204              		.loc 1 815 0
 1205 0004 7047     		bx	lr
 1206              	.L138:
 1207 0006 C046     		.align	2
 1208              	.L137:
 1209 0008 00000000 		.word	I2C_1_mstrRdBufIndex
 1210              		.cfi_endproc
 1211              	.LFE8:
 1212              		.size	I2C_1_I2CMasterGetReadBufSize, .-I2C_1_I2CMasterGetReadBufSize
 1213              		.section	.text.I2C_1_I2CMasterGetWriteBufSize,"ax",%progbits
 1214              		.align	2
ARM GAS  C:\Users\glenn\AppData\Local\Temp\cclrFd8J.s 			page 45


 1215              		.global	I2C_1_I2CMasterGetWriteBufSize
 1216              		.code	16
 1217              		.thumb_func
 1218              		.type	I2C_1_I2CMasterGetWriteBufSize, %function
 1219              	I2C_1_I2CMasterGetWriteBufSize:
 1220              	.LFB9:
 840:Generated_Source\PSoC4/I2C_1_I2C_MASTER.c ****     return(I2C_1_mstrWrBufIndex);
 1221              		.loc 1 840 0
 1222              		.cfi_startproc
 841:Generated_Source\PSoC4/I2C_1_I2C_MASTER.c **** }
 1223              		.loc 1 841 0
 1224 0000 014B     		ldr	r3, .L140
 842:Generated_Source\PSoC4/I2C_1_I2C_MASTER.c **** 
 1225              		.loc 1 842 0
 1226              		@ sp needed
 841:Generated_Source\PSoC4/I2C_1_I2C_MASTER.c **** }
 1227              		.loc 1 841 0
 1228 0002 1868     		ldr	r0, [r3]
 842:Generated_Source\PSoC4/I2C_1_I2C_MASTER.c **** 
 1229              		.loc 1 842 0
 1230 0004 7047     		bx	lr
 1231              	.L141:
 1232 0006 C046     		.align	2
 1233              	.L140:
 1234 0008 00000000 		.word	I2C_1_mstrWrBufIndex
 1235              		.cfi_endproc
 1236              	.LFE9:
 1237              		.size	I2C_1_I2CMasterGetWriteBufSize, .-I2C_1_I2CMasterGetWriteBufSize
 1238              		.section	.text.I2C_1_I2CMasterClearReadBuf,"ax",%progbits
 1239              		.align	2
 1240              		.global	I2C_1_I2CMasterClearReadBuf
 1241              		.code	16
 1242              		.thumb_func
 1243              		.type	I2C_1_I2CMasterClearReadBuf, %function
 1244              	I2C_1_I2CMasterClearReadBuf:
 1245              	.LFB10:
 858:Generated_Source\PSoC4/I2C_1_I2C_MASTER.c ****     I2C_1_DisableInt();  /* Lock from interruption */
 1246              		.loc 1 858 0
 1247              		.cfi_startproc
 1248 0000 08B5     		push	{r3, lr}
 1249              		.cfi_def_cfa_offset 8
 1250              		.cfi_offset 3, -8
 1251              		.cfi_offset 14, -4
 859:Generated_Source\PSoC4/I2C_1_I2C_MASTER.c **** 
 1252              		.loc 1 859 0
 1253 0002 0820     		mov	r0, #8
 1254 0004 FFF7FEFF 		bl	CyIntDisable
 1255              	.LVL106:
 861:Generated_Source\PSoC4/I2C_1_I2C_MASTER.c ****     I2C_1_mstrStatus    &= (uint16) ~I2C_1_I2C_MSTAT_RD_CMPLT;
 1256              		.loc 1 861 0
 1257 0008 0022     		mov	r2, #0
 862:Generated_Source\PSoC4/I2C_1_I2C_MASTER.c **** 
 1258              		.loc 1 862 0
 1259 000a 0121     		mov	r1, #1
 861:Generated_Source\PSoC4/I2C_1_I2C_MASTER.c ****     I2C_1_mstrStatus    &= (uint16) ~I2C_1_I2C_MSTAT_RD_CMPLT;
 1260              		.loc 1 861 0
 1261 000c 044B     		ldr	r3, .L143
ARM GAS  C:\Users\glenn\AppData\Local\Temp\cclrFd8J.s 			page 46


 864:Generated_Source\PSoC4/I2C_1_I2C_MASTER.c **** }
 1262              		.loc 1 864 0
 1263 000e 0820     		mov	r0, #8
 861:Generated_Source\PSoC4/I2C_1_I2C_MASTER.c ****     I2C_1_mstrStatus    &= (uint16) ~I2C_1_I2C_MSTAT_RD_CMPLT;
 1264              		.loc 1 861 0
 1265 0010 1A60     		str	r2, [r3]
 862:Generated_Source\PSoC4/I2C_1_I2C_MASTER.c **** 
 1266              		.loc 1 862 0
 1267 0012 044A     		ldr	r2, .L143+4
 865:Generated_Source\PSoC4/I2C_1_I2C_MASTER.c **** 
 1268              		.loc 1 865 0
 1269              		@ sp needed
 862:Generated_Source\PSoC4/I2C_1_I2C_MASTER.c **** 
 1270              		.loc 1 862 0
 1271 0014 1388     		ldrh	r3, [r2]
 1272 0016 8B43     		bic	r3, r1
 1273 0018 1380     		strh	r3, [r2]
 864:Generated_Source\PSoC4/I2C_1_I2C_MASTER.c **** }
 1274              		.loc 1 864 0
 1275 001a FFF7FEFF 		bl	CyIntEnable
 1276              	.LVL107:
 865:Generated_Source\PSoC4/I2C_1_I2C_MASTER.c **** 
 1277              		.loc 1 865 0
 1278 001e 08BD     		pop	{r3, pc}
 1279              	.L144:
 1280              		.align	2
 1281              	.L143:
 1282 0020 00000000 		.word	I2C_1_mstrRdBufIndex
 1283 0024 00000000 		.word	I2C_1_mstrStatus
 1284              		.cfi_endproc
 1285              	.LFE10:
 1286              		.size	I2C_1_I2CMasterClearReadBuf, .-I2C_1_I2CMasterClearReadBuf
 1287              		.section	.text.I2C_1_I2CMasterClearWriteBuf,"ax",%progbits
 1288              		.align	2
 1289              		.global	I2C_1_I2CMasterClearWriteBuf
 1290              		.code	16
 1291              		.thumb_func
 1292              		.type	I2C_1_I2CMasterClearWriteBuf, %function
 1293              	I2C_1_I2CMasterClearWriteBuf:
 1294              	.LFB11:
 881:Generated_Source\PSoC4/I2C_1_I2C_MASTER.c ****     I2C_1_DisableInt();  /* Lock from interruption */
 1295              		.loc 1 881 0
 1296              		.cfi_startproc
 1297 0000 08B5     		push	{r3, lr}
 1298              		.cfi_def_cfa_offset 8
 1299              		.cfi_offset 3, -8
 1300              		.cfi_offset 14, -4
 882:Generated_Source\PSoC4/I2C_1_I2C_MASTER.c **** 
 1301              		.loc 1 882 0
 1302 0002 0820     		mov	r0, #8
 1303 0004 FFF7FEFF 		bl	CyIntDisable
 1304              	.LVL108:
 884:Generated_Source\PSoC4/I2C_1_I2C_MASTER.c ****     I2C_1_mstrStatus    &= (uint16) ~I2C_1_I2C_MSTAT_WR_CMPLT;
 1305              		.loc 1 884 0
 1306 0008 0022     		mov	r2, #0
 885:Generated_Source\PSoC4/I2C_1_I2C_MASTER.c **** 
 1307              		.loc 1 885 0
ARM GAS  C:\Users\glenn\AppData\Local\Temp\cclrFd8J.s 			page 47


 1308 000a 0221     		mov	r1, #2
 884:Generated_Source\PSoC4/I2C_1_I2C_MASTER.c ****     I2C_1_mstrStatus    &= (uint16) ~I2C_1_I2C_MSTAT_WR_CMPLT;
 1309              		.loc 1 884 0
 1310 000c 044B     		ldr	r3, .L146
 887:Generated_Source\PSoC4/I2C_1_I2C_MASTER.c **** }
 1311              		.loc 1 887 0
 1312 000e 0820     		mov	r0, #8
 884:Generated_Source\PSoC4/I2C_1_I2C_MASTER.c ****     I2C_1_mstrStatus    &= (uint16) ~I2C_1_I2C_MSTAT_WR_CMPLT;
 1313              		.loc 1 884 0
 1314 0010 1A60     		str	r2, [r3]
 885:Generated_Source\PSoC4/I2C_1_I2C_MASTER.c **** 
 1315              		.loc 1 885 0
 1316 0012 044A     		ldr	r2, .L146+4
 888:Generated_Source\PSoC4/I2C_1_I2C_MASTER.c **** 
 1317              		.loc 1 888 0
 1318              		@ sp needed
 885:Generated_Source\PSoC4/I2C_1_I2C_MASTER.c **** 
 1319              		.loc 1 885 0
 1320 0014 1388     		ldrh	r3, [r2]
 1321 0016 8B43     		bic	r3, r1
 1322 0018 1380     		strh	r3, [r2]
 887:Generated_Source\PSoC4/I2C_1_I2C_MASTER.c **** }
 1323              		.loc 1 887 0
 1324 001a FFF7FEFF 		bl	CyIntEnable
 1325              	.LVL109:
 888:Generated_Source\PSoC4/I2C_1_I2C_MASTER.c **** 
 1326              		.loc 1 888 0
 1327 001e 08BD     		pop	{r3, pc}
 1328              	.L147:
 1329              		.align	2
 1330              	.L146:
 1331 0020 00000000 		.word	I2C_1_mstrWrBufIndex
 1332 0024 00000000 		.word	I2C_1_mstrStatus
 1333              		.cfi_endproc
 1334              	.LFE11:
 1335              		.size	I2C_1_I2CMasterClearWriteBuf, .-I2C_1_I2CMasterClearWriteBuf
 1336              		.section	.text.I2C_1_I2CMasterStatus,"ax",%progbits
 1337              		.align	2
 1338              		.global	I2C_1_I2CMasterStatus
 1339              		.code	16
 1340              		.thumb_func
 1341              		.type	I2C_1_I2CMasterStatus, %function
 1342              	I2C_1_I2CMasterStatus:
 1343              	.LFB12:
 933:Generated_Source\PSoC4/I2C_1_I2C_MASTER.c ****     uint32 status;
 1344              		.loc 1 933 0
 1345              		.cfi_startproc
 1346 0000 10B5     		push	{r4, lr}
 1347              		.cfi_def_cfa_offset 8
 1348              		.cfi_offset 4, -8
 1349              		.cfi_offset 14, -4
 936:Generated_Source\PSoC4/I2C_1_I2C_MASTER.c **** 
 1350              		.loc 1 936 0
 1351 0002 0820     		mov	r0, #8
 1352 0004 FFF7FEFF 		bl	CyIntDisable
 1353              	.LVL110:
 938:Generated_Source\PSoC4/I2C_1_I2C_MASTER.c **** 
ARM GAS  C:\Users\glenn\AppData\Local\Temp\cclrFd8J.s 			page 48


 1354              		.loc 1 938 0
 1355 0008 074B     		ldr	r3, .L151
 1356 000a 1888     		ldrh	r0, [r3]
 940:Generated_Source\PSoC4/I2C_1_I2C_MASTER.c ****     {
 1357              		.loc 1 940 0
 1358 000c 074B     		ldr	r3, .L151+4
 938:Generated_Source\PSoC4/I2C_1_I2C_MASTER.c **** 
 1359              		.loc 1 938 0
 1360 000e 80B2     		uxth	r0, r0
 1361              	.LVL111:
 940:Generated_Source\PSoC4/I2C_1_I2C_MASTER.c ****     {
 1362              		.loc 1 940 0
 1363 0010 1B78     		ldrb	r3, [r3]
 938:Generated_Source\PSoC4/I2C_1_I2C_MASTER.c **** 
 1364              		.loc 1 938 0
 1365 0012 041C     		mov	r4, r0
 940:Generated_Source\PSoC4/I2C_1_I2C_MASTER.c ****     {
 1366              		.loc 1 940 0
 1367 0014 9B06     		lsl	r3, r3, #26
 1368 0016 01D5     		bpl	.L150
 943:Generated_Source\PSoC4/I2C_1_I2C_MASTER.c ****     }
 1369              		.loc 1 943 0
 1370 0018 0424     		mov	r4, #4
 1371 001a 0443     		orr	r4, r0
 1372              	.LVL112:
 1373              	.L150:
 946:Generated_Source\PSoC4/I2C_1_I2C_MASTER.c **** 
 1374              		.loc 1 946 0
 1375 001c 0820     		mov	r0, #8
 1376 001e FFF7FEFF 		bl	CyIntEnable
 1377              	.LVL113:
 949:Generated_Source\PSoC4/I2C_1_I2C_MASTER.c **** 
 1378              		.loc 1 949 0
 1379              		@ sp needed
 1380 0022 201C     		mov	r0, r4
 1381              	.LVL114:
 1382 0024 10BD     		pop	{r4, pc}
 1383              	.L152:
 1384 0026 C046     		.align	2
 1385              	.L151:
 1386 0028 00000000 		.word	I2C_1_mstrStatus
 1387 002c 00000000 		.word	I2C_1_state
 1388              		.cfi_endproc
 1389              	.LFE12:
 1390              		.size	I2C_1_I2CMasterStatus, .-I2C_1_I2CMasterStatus
 1391              		.section	.text.I2C_1_I2CMasterClearStatus,"ax",%progbits
 1392              		.align	2
 1393              		.global	I2C_1_I2CMasterClearStatus
 1394              		.code	16
 1395              		.thumb_func
 1396              		.type	I2C_1_I2CMasterClearStatus, %function
 1397              	I2C_1_I2CMasterClearStatus:
 1398              	.LFB13:
 967:Generated_Source\PSoC4/I2C_1_I2C_MASTER.c ****     uint32 status;
 1399              		.loc 1 967 0
 1400              		.cfi_startproc
 1401 0000 10B5     		push	{r4, lr}
ARM GAS  C:\Users\glenn\AppData\Local\Temp\cclrFd8J.s 			page 49


 1402              		.cfi_def_cfa_offset 8
 1403              		.cfi_offset 4, -8
 1404              		.cfi_offset 14, -4
 970:Generated_Source\PSoC4/I2C_1_I2C_MASTER.c **** 
 1405              		.loc 1 970 0
 1406 0002 0820     		mov	r0, #8
 1407 0004 FFF7FEFF 		bl	CyIntDisable
 1408              	.LVL115:
 974:Generated_Source\PSoC4/I2C_1_I2C_MASTER.c **** 
 1409              		.loc 1 974 0
 1410 0008 0022     		mov	r2, #0
 973:Generated_Source\PSoC4/I2C_1_I2C_MASTER.c ****     I2C_1_mstrStatus = I2C_1_I2C_MSTAT_CLEAR;
 1411              		.loc 1 973 0
 1412 000a 044B     		ldr	r3, .L154
 976:Generated_Source\PSoC4/I2C_1_I2C_MASTER.c **** 
 1413              		.loc 1 976 0
 1414 000c 0820     		mov	r0, #8
 973:Generated_Source\PSoC4/I2C_1_I2C_MASTER.c ****     I2C_1_mstrStatus = I2C_1_I2C_MSTAT_CLEAR;
 1415              		.loc 1 973 0
 1416 000e 1C88     		ldrh	r4, [r3]
 979:Generated_Source\PSoC4/I2C_1_I2C_MASTER.c **** 
 1417              		.loc 1 979 0
 1418              		@ sp needed
 973:Generated_Source\PSoC4/I2C_1_I2C_MASTER.c ****     I2C_1_mstrStatus = I2C_1_I2C_MSTAT_CLEAR;
 1419              		.loc 1 973 0
 1420 0010 A4B2     		uxth	r4, r4
 1421              	.LVL116:
 974:Generated_Source\PSoC4/I2C_1_I2C_MASTER.c **** 
 1422              		.loc 1 974 0
 1423 0012 1A80     		strh	r2, [r3]
 976:Generated_Source\PSoC4/I2C_1_I2C_MASTER.c **** 
 1424              		.loc 1 976 0
 1425 0014 FFF7FEFF 		bl	CyIntEnable
 1426              	.LVL117:
 979:Generated_Source\PSoC4/I2C_1_I2C_MASTER.c **** 
 1427              		.loc 1 979 0
 1428 0018 201C     		mov	r0, r4
 1429              	.LVL118:
 1430 001a 10BD     		pop	{r4, pc}
 1431              	.L155:
 1432              		.align	2
 1433              	.L154:
 1434 001c 00000000 		.word	I2C_1_mstrStatus
 1435              		.cfi_endproc
 1436              	.LFE13:
 1437              		.size	I2C_1_I2CMasterClearStatus, .-I2C_1_I2CMasterClearStatus
 1438              		.section	.text.I2C_1_I2CReStartGeneration,"ax",%progbits
 1439              		.align	2
 1440              		.global	I2C_1_I2CReStartGeneration
 1441              		.code	16
 1442              		.thumb_func
 1443              		.type	I2C_1_I2CReStartGeneration, %function
 1444              	I2C_1_I2CReStartGeneration:
 1445              	.LFB14:
1011:Generated_Source\PSoC4/I2C_1_I2C_MASTER.c **** #if(I2C_1_CY_SCBIP_V0)
 1446              		.loc 1 1011 0
 1447              		.cfi_startproc
ARM GAS  C:\Users\glenn\AppData\Local\Temp\cclrFd8J.s 			page 50


 1448              	.LVL119:
1066:Generated_Source\PSoC4/I2C_1_I2C_MASTER.c ****                 (I2C_1_I2C_MASTER_CMD_M_NACK) : (0u);
 1449              		.loc 1 1066 0
 1450 0000 044B     		ldr	r3, .L159
 1451 0002 1A68     		ldr	r2, [r3]
 1452 0004 0923     		mov	r3, #9
1067:Generated_Source\PSoC4/I2C_1_I2C_MASTER.c **** 
 1453              		.loc 1 1067 0
 1454 0006 9206     		lsl	r2, r2, #26
 1455 0008 00D4     		bmi	.L157
 1456 000a 083B     		sub	r3, r3, #8
 1457              	.L157:
 1458              	.LVL120:
 1459              		.loc 1 1069 0 discriminator 4
 1460 000c 024A     		ldr	r2, .L159+4
1070:Generated_Source\PSoC4/I2C_1_I2C_MASTER.c **** #endif /* (I2C_1_CY_SCBIP_V1) */
1071:Generated_Source\PSoC4/I2C_1_I2C_MASTER.c **** }
 1461              		.loc 1 1071 0 discriminator 4
 1462              		@ sp needed
1069:Generated_Source\PSoC4/I2C_1_I2C_MASTER.c **** #endif /* (I2C_1_CY_SCBIP_V1) */
 1463              		.loc 1 1069 0 discriminator 4
 1464 000e 1360     		str	r3, [r2]
 1465              		.loc 1 1071 0 discriminator 4
 1466 0010 7047     		bx	lr
 1467              	.L160:
 1468 0012 C046     		.align	2
 1469              	.L159:
 1470 0014 64002440 		.word	1076101220
 1471 0018 68002440 		.word	1076101224
 1472              		.cfi_endproc
 1473              	.LFE14:
 1474              		.size	I2C_1_I2CReStartGeneration, .-I2C_1_I2CReStartGeneration
 1475              		.comm	I2C_1_mstrWrBufIndexTmp,4,4
 1476              		.comm	I2C_1_mstrWrBufIndex,4,4
 1477              		.comm	I2C_1_mstrWrBufSize,4,4
 1478              		.comm	I2C_1_mstrWrBufPtr,4,4
 1479              		.comm	I2C_1_mstrRdBufIndex,4,4
 1480              		.comm	I2C_1_mstrRdBufSize,4,4
 1481              		.comm	I2C_1_mstrRdBufPtr,4,4
 1482              		.comm	I2C_1_mstrControl,1,1
 1483              		.comm	I2C_1_mstrStatus,2,2
 1484              		.text
 1485              	.Letext0:
 1486              		.file 2 "Generated_Source\\PSoC4/cytypes.h"
 1487              		.file 3 "Generated_Source\\PSoC4\\I2C_1_I2C_PVT.h"
 1488              		.file 4 "Generated_Source\\PSoC4/CyLib.h"