ARM GAS  C:\Users\glenn\AppData\Local\Temp\ccqbLwrn.s 			page 1


   1              		.cpu cortex-m0
   2              		.fpu softvfp
   3              		.eabi_attribute 20, 1
   4              		.eabi_attribute 21, 1
   5              		.eabi_attribute 23, 3
   6              		.eabi_attribute 24, 1
   7              		.eabi_attribute 25, 1
   8              		.eabi_attribute 26, 1
   9              		.eabi_attribute 30, 6
  10              		.eabi_attribute 34, 0
  11              		.eabi_attribute 18, 4
  12              		.code	16
  13              		.file	"main.c"
  14              		.text
  15              	.Ltext0:
  16              		.cfi_sections	.debug_frame
  17              		.section	.text.process_status_data,"ax",%progbits
  18              		.align	2
  19              		.code	16
  20              		.thumb_func
  21              		.type	process_status_data, %function
  22              	process_status_data:
  23              	.LFB62:
  24              		.file 1 "main.c"
   1:main.c        **** /* ========================================
   2:main.c        ****  *
   3:main.c        ****  * Copyright YOUR COMPANY, THE YEAR
   4:main.c        ****  * All Rights Reserved
   5:main.c        ****  * UNPUBLISHED, LICENSED SOFTWARE.
   6:main.c        ****  *
   7:main.c        ****  * CONFIDENTIAL AND PROPRIETARY INFORMATION
   8:main.c        ****  * WHICH IS THE PROPERTY OF your company.
   9:main.c        ****  *
  10:main.c        ****  * ========================================
  11:main.c        **** */
  12:main.c        **** #include <project.h>
  13:main.c        **** #include "cf_chain_flow_support.h"
  14:main.c        **** 
  15:main.c        **** #include "cf_events.h"
  16:main.c        **** #include "cf_status_bit.h"
  17:main.c        **** #include "rtc_functions.h"
  18:main.c        **** #include "configuration_data.h"
  19:main.c        **** #include "modbus_serial_ctrl.h"
  20:main.c        **** #include "event_fifo.h"
  21:main.c        **** 
  22:main.c        **** CY_ISR(WdtIsrHandler);
  23:main.c        **** #define ENABLE_WATCH_DOG 0
  24:main.c        **** static void setup_one_second_timer_watch_dog( void );
  25:main.c        **** static void SysTickInit( void );
  26:main.c        **** 
  27:main.c        **** static inline void  process_status_data( unsigned status_data)
  28:main.c        **** {
  25              		.loc 1 28 0
  26              		.cfi_startproc
  27 0000 80B5     		push	{r7, lr}
  28              		.cfi_def_cfa_offset 8
  29              		.cfi_offset 7, -8
ARM GAS  C:\Users\glenn\AppData\Local\Temp\ccqbLwrn.s 			page 2


  30              		.cfi_offset 14, -4
  31 0002 82B0     		sub	sp, sp, #8
  32              		.cfi_def_cfa_offset 16
  33 0004 00AF     		add	r7, sp, #0
  34              		.cfi_def_cfa_register 7
  35 0006 7860     		str	r0, [r7, #4]
  29:main.c        **** 
  30:main.c        ****     
  31:main.c        ****     if( status_data &  CF_PROCESS_TIMER_TICK )
  36              		.loc 1 31 0
  37 0008 7B68     		ldr	r3, [r7, #4]
  38 000a 0122     		mov	r2, #1
  39 000c 1340     		and	r3, r2
  40 000e 06D0     		beq	.L2
  32:main.c        ****     {
  33:main.c        ****         cf_process_cf_event( CF_TIME_TICK_EVENT, TICK_INTERVAL );
  41              		.loc 1 33 0
  42 0010 0220     		mov	r0, #2
  43 0012 1021     		mov	r1, #16
  44 0014 FFF7FEFF 		bl	cf_process_cf_event
  34:main.c        ****         cf_status_clear_bit(  CF_PROCESS_TIMER_TICK );
  45              		.loc 1 34 0
  46 0018 0120     		mov	r0, #1
  47 001a FFF7FEFF 		bl	cf_status_clear_bit
  48              	.L2:
  35:main.c        ****     }
  36:main.c        ****     if( status_data & CF_PROCESS_MODBUS )
  49              		.loc 1 36 0
  50 001e 7B68     		ldr	r3, [r7, #4]
  51 0020 0222     		mov	r2, #2
  52 0022 1340     		and	r3, r2
  53 0024 04D0     		beq	.L1
  37:main.c        ****     {
  38:main.c        ****       process_rx_modbus_rtu_message( );
  54              		.loc 1 38 0
  55 0026 FFF7FEFF 		bl	process_rx_modbus_rtu_message
  39:main.c        ****       cf_status_clear_bit(  CF_PROCESS_MODBUS );
  56              		.loc 1 39 0
  57 002a 0220     		mov	r0, #2
  58 002c FFF7FEFF 		bl	cf_status_clear_bit
  59              	.L1:
  40:main.c        ****     }
  41:main.c        ****     
  42:main.c        **** }
  60              		.loc 1 42 0
  61 0030 BD46     		mov	sp, r7
  62 0032 02B0     		add	sp, sp, #8
  63              		@ sp needed
  64 0034 80BD     		pop	{r7, pc}
  65              		.cfi_endproc
  66              	.LFE62:
  67              		.size	process_status_data, .-process_status_data
  68 0036 C046     		.bss
  69              		.align	2
  70              	event_number:
  71 0000 00000000 		.space	4
  72              		.align	2
ARM GAS  C:\Users\glenn\AppData\Local\Temp\ccqbLwrn.s 			page 3


  73              	event_id:
  74 0004 00000000 		.space	4
  75              		.align	2
  76              	event_data:
  77 0008 00000000 		.space	4
  78              		.align	2
  79              	status_data:
  80 000c 00000000 		.space	4
  81              		.section	.text.main,"ax",%progbits
  82              		.align	2
  83              		.global	main
  84              		.code	16
  85              		.thumb_func
  86              		.type	main, %function
  87              	main:
  88              	.LFB63:
  43:main.c        **** 
  44:main.c        **** // static varibles to save stack space
  45:main.c        **** static int event_number;
  46:main.c        **** static unsigned event_id;
  47:main.c        **** static unsigned event_data;
  48:main.c        **** static unsigned status_data;
  49:main.c        **** //CY_SYS_WDT_MODE_RESET,CY_SYS_WDT_MODE_INT 
  50:main.c        **** // CySysGetResetReason() 
  51:main.c        **** 
  52:main.c        **** CY_ISR_PROTO(watch_dog_isr );
  53:main.c        **** 
  54:main.c        **** 
  55:main.c        **** 
  56:main.c        **** 
  57:main.c        **** int main()
  58:main.c        **** 
  59:main.c        **** {
  89              		.loc 1 59 0
  90              		.cfi_startproc
  91 0000 80B5     		push	{r7, lr}
  92              		.cfi_def_cfa_offset 8
  93              		.cfi_offset 7, -8
  94              		.cfi_offset 14, -4
  95 0002 00AF     		add	r7, sp, #0
  96              		.cfi_def_cfa_register 7
  60:main.c        **** 
  61:main.c        ****     CyGlobalIntDisable;  // Chain Global Interrupts  initialization chain will enable interrupts 
  97              		.loc 1 61 0
  98              	@ 61 "main.c" 1
  99 0004 72B6     		CPSID   i
 100              	@ 0 "" 2
  62:main.c        ****     CySysGetResetReason(CY_SYS_RESET_WDT); // record reset cause indirectlr
 101              		.loc 1 62 0
 102              		.code	16
 103 0006 0120     		mov	r0, #1
 104 0008 FFF7FEFF 		bl	CySysGetResetReason
  63:main.c        ****     CySysClkWcoStart();   
 105              		.loc 1 63 0
 106 000c FFF7FEFF 		bl	CySysClkWcoStart
  64:main.c        **** 
  65:main.c        **** 
ARM GAS  C:\Users\glenn\AppData\Local\Temp\ccqbLwrn.s 			page 4


  66:main.c        ****     cf_initialize_status_manager();             
 107              		.loc 1 66 0
 108 0010 FFF7FEFF 		bl	cf_initialize_status_manager
  67:main.c        ****     cf_initialize_event_manager();
 109              		.loc 1 67 0
 110 0014 FFF7FEFF 		bl	cf_initialize_event_manager
  68:main.c        ****     initialize_cf_system(  );
 111              		.loc 1 68 0
 112 0018 FFF7FEFF 		bl	initialize_cf_system
  69:main.c        ****     initialize_configuration_data(); 
 113              		.loc 1 69 0
 114 001c FFF7FEFF 		bl	initialize_configuration_data
  70:main.c        ****     EF_initialize();
 115              		.loc 1 70 0
 116 0020 FFF7FEFF 		bl	EF_initialize
  71:main.c        ****     EF_enqueue_elemement( 0, EVENTS_SYSTEM_REBOOT,0 );  // power up event
 117              		.loc 1 71 0
 118 0024 0020     		mov	r0, #0
 119 0026 0021     		mov	r1, #0
 120 0028 0022     		mov	r2, #0
 121 002a FFF7FEFF 		bl	EF_enqueue_elemement
  72:main.c        **** 
  73:main.c        ****     
  74:main.c        ****     CyDelay(1000); 
 122              		.loc 1 74 0
 123 002e FA23     		mov	r3, #250
 124 0030 9B00     		lsl	r3, r3, #2
 125 0032 181C     		mov	r0, r3
 126 0034 FFF7FEFF 		bl	CyDelay
  75:main.c        ****     /* Switch LFCLK source from ILO to WCO. */
  76:main.c        ****     CySysClkSetLfclkSource(CY_SYS_CLK_LFCLK_SRC_WCO);
 127              		.loc 1 76 0
 128 0038 8023     		mov	r3, #128
 129 003a DB05     		lsl	r3, r3, #23
 130 003c 181C     		mov	r0, r3
 131 003e FFF7FEFF 		bl	CySysClkSetLfclkSource
  77:main.c        **** 
  78:main.c        ****     setup_one_second_timer_watch_dog();
 132              		.loc 1 78 0
 133 0042 FFF7FEFF 		bl	setup_one_second_timer_watch_dog
  79:main.c        ****    SysTickInit(  );
 134              		.loc 1 79 0
 135 0046 FFF7FEFF 		bl	SysTickInit
  80:main.c        ****     
  81:main.c        ****     
  82:main.c        ****     
  83:main.c        ****     
  84:main.c        ****     cf_process_cf_event( CF_SYSTEM_INIT , 0);
 136              		.loc 1 84 0
 137 004a 0020     		mov	r0, #0
 138 004c 0021     		mov	r1, #0
 139 004e FFF7FEFF 		bl	cf_process_cf_event
 140              	.L7:
  85:main.c        ****     for(;;)
  86:main.c        ****     {
  87:main.c        ****         status_data = cf_get_status();
 141              		.loc 1 87 0
ARM GAS  C:\Users\glenn\AppData\Local\Temp\ccqbLwrn.s 			page 5


 142 0052 FFF7FEFF 		bl	cf_get_status
 143 0056 021C     		mov	r2, r0
 144 0058 104B     		ldr	r3, .L8
 145 005a 1A60     		str	r2, [r3]
  88:main.c        ****         if( status_data != 0 )
 146              		.loc 1 88 0
 147 005c 0F4B     		ldr	r3, .L8
 148 005e 1B68     		ldr	r3, [r3]
 149 0060 002B     		cmp	r3, #0
 150 0062 05D0     		beq	.L5
  89:main.c        ****         {
  90:main.c        ****             process_status_data( status_data);
 151              		.loc 1 90 0
 152 0064 0D4B     		ldr	r3, .L8
 153 0066 1B68     		ldr	r3, [r3]
 154 0068 181C     		mov	r0, r3
 155 006a FFF7FEFF 		bl	process_status_data
 156 006e 14E0     		b	.L6
 157              	.L5:
  91:main.c        ****              
  92:main.c        ****         }
  93:main.c        ****         else
  94:main.c        ****         {
  95:main.c        ****            
  96:main.c        ****            event_number = cf_rx_event( &event_id, &event_data );
 158              		.loc 1 96 0
 159 0070 0B4A     		ldr	r2, .L8+4
 160 0072 0C4B     		ldr	r3, .L8+8
 161 0074 101C     		mov	r0, r2
 162 0076 191C     		mov	r1, r3
 163 0078 FFF7FEFF 		bl	cf_rx_event
 164 007c 021C     		mov	r2, r0
 165 007e 0A4B     		ldr	r3, .L8+12
 166 0080 1A60     		str	r2, [r3]
  97:main.c        ****            if( event_number > 0 )
 167              		.loc 1 97 0
 168 0082 094B     		ldr	r3, .L8+12
 169 0084 1B68     		ldr	r3, [r3]
 170 0086 002B     		cmp	r3, #0
 171 0088 07DD     		ble	.L6
  98:main.c        ****            {
  99:main.c        ****             
 100:main.c        ****              
 101:main.c        ****               cf_process_cf_event( event_id, event_data);
 172              		.loc 1 101 0
 173 008a 054B     		ldr	r3, .L8+4
 174 008c 1A68     		ldr	r2, [r3]
 175 008e 054B     		ldr	r3, .L8+8
 176 0090 1B68     		ldr	r3, [r3]
 177 0092 101C     		mov	r0, r2
 178 0094 191C     		mov	r1, r3
 179 0096 FFF7FEFF 		bl	cf_process_cf_event
 180              	.L6:
 102:main.c        ****            }
 103:main.c        ****            else
 104:main.c        ****            {
 105:main.c        ****              ; // add sleep for low power apps
ARM GAS  C:\Users\glenn\AppData\Local\Temp\ccqbLwrn.s 			page 6


 106:main.c        ****            }
 107:main.c        ****         }  
 108:main.c        ****     }   
 181              		.loc 1 108 0
 182 009a DAE7     		b	.L7
 183              	.L9:
 184              		.align	2
 185              	.L8:
 186 009c 0C000000 		.word	status_data
 187 00a0 04000000 		.word	event_id
 188 00a4 08000000 		.word	event_data
 189 00a8 00000000 		.word	event_number
 190              		.cfi_endproc
 191              	.LFE63:
 192              		.size	main, .-main
 193              		.section	.text.WdtIsrHandler,"ax",%progbits
 194              		.align	2
 195              		.global	WdtIsrHandler
 196              		.code	16
 197              		.thumb_func
 198              		.type	WdtIsrHandler, %function
 199              	WdtIsrHandler:
 200              	.LFB64:
 109:main.c        **** }
 110:main.c        **** 
 111:main.c        **** 
 112:main.c        **** 
 113:main.c        **** /*
 114:main.c        **** **
 115:main.c        **** ** Watch Dog interrupt 
 116:main.c        **** **
 117:main.c        **** **
 118:main.c        **** **
 119:main.c        **** **
 120:main.c        **** */
 121:main.c        **** 
 122:main.c        **** 
 123:main.c        **** // setup 1 second interrupt
 124:main.c        **** #define WDT_COUNT0_MATCH 0x8000
 125:main.c        **** // setup 2 second watchdog timeout
 126:main.c        **** #define WDT_COUNT1_MATCH 4
 127:main.c        **** 
 128:main.c        **** 
 129:main.c        **** 
 130:main.c        **** 
 131:main.c        **** CY_ISR(WdtIsrHandler)
 132:main.c        **** {
 201              		.loc 1 132 0
 202              		.cfi_startproc
 203 0000 80B5     		push	{r7, lr}
 204              		.cfi_def_cfa_offset 8
 205              		.cfi_offset 7, -8
 206              		.cfi_offset 14, -4
 207 0002 00AF     		add	r7, sp, #0
 208              		.cfi_def_cfa_register 7
 133:main.c        **** 
 134:main.c        ****     /* Clear interrupts state */
ARM GAS  C:\Users\glenn\AppData\Local\Temp\ccqbLwrn.s 			page 7


 135:main.c        **** 	
 136:main.c        ****     RTC_1_Update();
 209              		.loc 1 136 0
 210 0004 FFF7FEFF 		bl	RTC_1_Update
 137:main.c        ****     rtc_check_time();
 211              		.loc 1 137 0
 212 0008 FFF7FEFF 		bl	rtc_check_time
 138:main.c        ****     CySysWdtClearInterrupt(CY_SYS_WDT_COUNTER0_INT);
 213              		.loc 1 138 0
 214 000c 0420     		mov	r0, #4
 215 000e FFF7FEFF 		bl	CySysWdtClearInterrupt
 139:main.c        ****     WdtIsr_ClearPending();
 216              		.loc 1 139 0
 217 0012 FFF7FEFF 		bl	WdtIsr_ClearPending
 140:main.c        ****     
 141:main.c        ****   
 142:main.c        ****      
 143:main.c        **** }
 218              		.loc 1 143 0
 219 0016 BD46     		mov	sp, r7
 220              		@ sp needed
 221 0018 80BD     		pop	{r7, pc}
 222              		.cfi_endproc
 223              	.LFE64:
 224              		.size	WdtIsrHandler, .-WdtIsrHandler
 225 001a C046     		.section	.text.setup_one_second_timer_watch_dog,"ax",%progbits
 226              		.align	2
 227              		.code	16
 228              		.thumb_func
 229              		.type	setup_one_second_timer_watch_dog, %function
 230              	setup_one_second_timer_watch_dog:
 231              	.LFB65:
 144:main.c        **** 
 145:main.c        **** 
 146:main.c        **** 
 147:main.c        **** 
 148:main.c        **** static void setup_one_second_timer_watch_dog( void )
 149:main.c        **** {
 232              		.loc 1 149 0
 233              		.cfi_startproc
 234 0000 80B5     		push	{r7, lr}
 235              		.cfi_def_cfa_offset 8
 236              		.cfi_offset 7, -8
 237              		.cfi_offset 14, -4
 238 0002 00AF     		add	r7, sp, #0
 239              		.cfi_def_cfa_register 7
 150:main.c        **** 	/* Setup ISR for interrupts at WDT counter 0 events. */
 151:main.c        ****     WdtIsr_StartEx(WdtIsrHandler);
 240              		.loc 1 151 0
 241 0004 0D4B     		ldr	r3, .L12
 242 0006 181C     		mov	r0, r3
 243 0008 FFF7FEFF 		bl	WdtIsr_StartEx
 152:main.c        **** 
 153:main.c        ****     /* Enable global interrupts. */
 154:main.c        ****     CyGlobalIntEnable;
 244              		.loc 1 154 0
 245              	@ 154 "main.c" 1
ARM GAS  C:\Users\glenn\AppData\Local\Temp\ccqbLwrn.s 			page 8


 246 000c 62B6     		CPSIE   i
 247              	@ 0 "" 2
 155:main.c        **** 	
 156:main.c        **** 	/* Set WDT counter 0 to generate interrupt on match */
 157:main.c        **** 	CySysWdtWriteMode(CY_SYS_WDT_COUNTER0, CY_SYS_WDT_MODE_INT);
 248              		.loc 1 157 0
 249              		.code	16
 250 000e 0020     		mov	r0, #0
 251 0010 0121     		mov	r1, #1
 252 0012 FFF7FEFF 		bl	CySysWdtSetMode
 158:main.c        **** 	CySysWdtWriteMatch(CY_SYS_WDT_COUNTER0, WDT_COUNT0_MATCH);
 253              		.loc 1 158 0
 254 0016 8023     		mov	r3, #128
 255 0018 1B02     		lsl	r3, r3, #8
 256 001a 0020     		mov	r0, #0
 257 001c 191C     		mov	r1, r3
 258 001e FFF7FEFF 		bl	CySysWdtSetMatch
 159:main.c        **** 	CySysWdtWriteClearOnMatch(CY_SYS_WDT_COUNTER0, 1u);
 259              		.loc 1 159 0
 260 0022 0020     		mov	r0, #0
 261 0024 0121     		mov	r1, #1
 262 0026 FFF7FEFF 		bl	CySysWdtSetClearOnMatch
 160:main.c        **** #if ENABLE_WATCH_DOG	
 161:main.c        **** 	/* Enable WDT counters 0 and 1 cascade */
 162:main.c        **** 	CySysWdtWriteCascade(CY_SYS_WDT_CASCADE_01);
 163:main.c        ****     
 164:main.c        **** 	/* Set WDT counter 1 to generate reset on match */
 165:main.c        **** 	CySysWdtWriteMatch(CY_SYS_WDT_COUNTER1, WDT_COUNT1_MATCH);
 166:main.c        **** 	CySysWdtWriteMode(CY_SYS_WDT_COUNTER1, CY_SYS_WDT_MODE_RESET);
 167:main.c        ****     CySysWdtWriteClearOnMatch(CY_SYS_WDT_COUNTER1, 1u);
 168:main.c        **** 	
 169:main.c        **** 
 170:main.c        ****     CySysWdtEnable(CY_SYS_WDT_COUNTER0_MASK | CY_SYS_WDT_COUNTER1_MASK);
 171:main.c        **** #else
 172:main.c        ****     CySysWdtEnable(CY_SYS_WDT_COUNTER0_MASK );
 263              		.loc 1 172 0
 264 002a 0120     		mov	r0, #1
 265 002c FFF7FEFF 		bl	CySysWdtEnable
 173:main.c        **** #endif
 174:main.c        **** 
 175:main.c        ****     
 176:main.c        **** 	/* Lock WDT registers and try to disable WDT counters 0 and 1 */
 177:main.c        **** 	CySysWdtLock();
 266              		.loc 1 177 0
 267 0030 FFF7FEFF 		bl	CySysWdtLock
 178:main.c        ****     init_rtc();
 268              		.loc 1 178 0
 269 0034 FFF7FEFF 		bl	init_rtc
 179:main.c        **** 
 180:main.c        **** 
 181:main.c        **** }
 270              		.loc 1 181 0
 271 0038 BD46     		mov	sp, r7
 272              		@ sp needed
 273 003a 80BD     		pop	{r7, pc}
 274              	.L13:
 275              		.align	2
ARM GAS  C:\Users\glenn\AppData\Local\Temp\ccqbLwrn.s 			page 9


 276              	.L12:
 277 003c 00000000 		.word	WdtIsrHandler
 278              		.cfi_endproc
 279              	.LFE65:
 280              		.size	setup_one_second_timer_watch_dog, .-setup_one_second_timer_watch_dog
 281              		.comm	switch_on,4,4
 282              		.bss
 283              		.align	2
 284              	sub_divide_count:
 285 0010 00000000 		.space	4
 286              		.align	2
 287              	deglitch_register:
 288 0014 00000000 		.space	4
 289              		.section	.text.process_switch_functions,"ax",%progbits
 290              		.align	2
 291              		.code	16
 292              		.thumb_func
 293              		.type	process_switch_functions, %function
 294              	process_switch_functions:
 295              	.LFB66:
 182:main.c        **** 
 183:main.c        **** /*
 184:main.c        **** **
 185:main.c        **** ** SysTick Support
 186:main.c        **** **
 187:main.c        **** **
 188:main.c        **** **
 189:main.c        **** */
 190:main.c        **** 
 191:main.c        **** #define Thousand_Hz_Time    33
 192:main.c        **** #define Hundred_Hz_Divide   10
 193:main.c        **** #define DEGLITCH_MASK      0x7
 194:main.c        **** 
 195:main.c        **** 
 196:main.c        **** volatile uint32 switch_on;
 197:main.c        **** static volatile uint32 sub_divide_count;
 198:main.c        **** static volatile uint32 deglitch_register;
 199:main.c        **** 
 200:main.c        **** static inline void process_switch_functions( void )
 201:main.c        **** {
 296              		.loc 1 201 0
 297              		.cfi_startproc
 298 0000 80B5     		push	{r7, lr}
 299              		.cfi_def_cfa_offset 8
 300              		.cfi_offset 7, -8
 301              		.cfi_offset 14, -4
 302 0002 00AF     		add	r7, sp, #0
 303              		.cfi_def_cfa_register 7
 202:main.c        ****     deglitch_register = deglitch_register << 1;
 304              		.loc 1 202 0
 305 0004 124B     		ldr	r3, .L18
 306 0006 1B68     		ldr	r3, [r3]
 307 0008 5A00     		lsl	r2, r3, #1
 308 000a 114B     		ldr	r3, .L18
 309 000c 1A60     		str	r2, [r3]
 203:main.c        ****     if( Switch_Pin_Read() == 1 )
 310              		.loc 1 203 0
ARM GAS  C:\Users\glenn\AppData\Local\Temp\ccqbLwrn.s 			page 10


 311 000e FFF7FEFF 		bl	Switch_Pin_Read
 312 0012 031E     		sub	r3, r0, #0
 313 0014 012B     		cmp	r3, #1
 314 0016 05D1     		bne	.L15
 204:main.c        ****     {
 205:main.c        ****        deglitch_register = deglitch_register | 1;
 315              		.loc 1 205 0
 316 0018 0D4B     		ldr	r3, .L18
 317 001a 1B68     		ldr	r3, [r3]
 318 001c 0122     		mov	r2, #1
 319 001e 1A43     		orr	r2, r3
 320 0020 0B4B     		ldr	r3, .L18
 321 0022 1A60     		str	r2, [r3]
 322              	.L15:
 206:main.c        ****     }
 207:main.c        ****     deglitch_register = deglitch_register & DEGLITCH_MASK;
 323              		.loc 1 207 0
 324 0024 0A4B     		ldr	r3, .L18
 325 0026 1B68     		ldr	r3, [r3]
 326 0028 0722     		mov	r2, #7
 327 002a 1A40     		and	r2, r3
 328 002c 084B     		ldr	r3, .L18
 329 002e 1A60     		str	r2, [r3]
 208:main.c        ****     if( deglitch_register == DEGLITCH_MASK )
 330              		.loc 1 208 0
 331 0030 074B     		ldr	r3, .L18
 332 0032 1B68     		ldr	r3, [r3]
 333 0034 072B     		cmp	r3, #7
 334 0036 02D1     		bne	.L16
 209:main.c        ****     {
 210:main.c        ****         switch_on = 1;
 335              		.loc 1 210 0
 336 0038 064B     		ldr	r3, .L18+4
 337 003a 0122     		mov	r2, #1
 338 003c 1A60     		str	r2, [r3]
 339              	.L16:
 211:main.c        ****     }
 212:main.c        ****     if( deglitch_register == 0 )
 340              		.loc 1 212 0
 341 003e 044B     		ldr	r3, .L18
 342 0040 1B68     		ldr	r3, [r3]
 343 0042 002B     		cmp	r3, #0
 344 0044 02D1     		bne	.L14
 213:main.c        ****     {
 214:main.c        ****         switch_on = 0;
 345              		.loc 1 214 0
 346 0046 034B     		ldr	r3, .L18+4
 347 0048 0022     		mov	r2, #0
 348 004a 1A60     		str	r2, [r3]
 349              	.L14:
 215:main.c        ****     }
 216:main.c        **** }
 350              		.loc 1 216 0
 351 004c BD46     		mov	sp, r7
 352              		@ sp needed
 353 004e 80BD     		pop	{r7, pc}
 354              	.L19:
ARM GAS  C:\Users\glenn\AppData\Local\Temp\ccqbLwrn.s 			page 11


 355              		.align	2
 356              	.L18:
 357 0050 14000000 		.word	deglitch_register
 358 0054 00000000 		.word	switch_on
 359              		.cfi_endproc
 360              	.LFE66:
 361              		.size	process_switch_functions, .-process_switch_functions
 362              		.section	.text.SysTickCallBackHandler,"ax",%progbits
 363              		.align	2
 364              		.code	16
 365              		.thumb_func
 366              		.type	SysTickCallBackHandler, %function
 367              	SysTickCallBackHandler:
 368              	.LFB67:
 217:main.c        ****     
 218:main.c        ****     
 219:main.c        **** 
 220:main.c        **** static inline void SysTickCallBackHandler( void )
 221:main.c        **** {
 369              		.loc 1 221 0
 370              		.cfi_startproc
 371 0000 80B5     		push	{r7, lr}
 372              		.cfi_def_cfa_offset 8
 373              		.cfi_offset 7, -8
 374              		.cfi_offset 14, -4
 375 0002 00AF     		add	r7, sp, #0
 376              		.cfi_def_cfa_register 7
 222:main.c        ****     sub_divide_count += 1;
 377              		.loc 1 222 0
 378 0004 0A4B     		ldr	r3, .L22
 379 0006 1B68     		ldr	r3, [r3]
 380 0008 5A1C     		add	r2, r3, #1
 381 000a 094B     		ldr	r3, .L22
 382 000c 1A60     		str	r2, [r3]
 223:main.c        ****     if( sub_divide_count >= Hundred_Hz_Divide )
 383              		.loc 1 223 0
 384 000e 084B     		ldr	r3, .L22
 385 0010 1B68     		ldr	r3, [r3]
 386 0012 092B     		cmp	r3, #9
 387 0014 07D9     		bls	.L21
 224:main.c        ****     {
 225:main.c        ****         cf_set_interrupt_status_bit( CF_PROCESS_TIMER_TICK  );
 388              		.loc 1 225 0
 389 0016 0120     		mov	r0, #1
 390 0018 FFF7FEFF 		bl	cf_set_interrupt_status_bit
 226:main.c        ****         process_switch_functions();
 391              		.loc 1 226 0
 392 001c FFF7FEFF 		bl	process_switch_functions
 227:main.c        ****         
 228:main.c        ****         sub_divide_count = 0;
 393              		.loc 1 228 0
 394 0020 034B     		ldr	r3, .L22
 395 0022 0022     		mov	r2, #0
 396 0024 1A60     		str	r2, [r3]
 397              	.L21:
 229:main.c        ****     }
 230:main.c        ****     // process_modbus time interval interrupt
ARM GAS  C:\Users\glenn\AppData\Local\Temp\ccqbLwrn.s 			page 12


 231:main.c        ****     modbus_timer_interrupt( );
 398              		.loc 1 231 0
 399 0026 FFF7FEFF 		bl	modbus_timer_interrupt
 232:main.c        **** }
 400              		.loc 1 232 0
 401 002a BD46     		mov	sp, r7
 402              		@ sp needed
 403 002c 80BD     		pop	{r7, pc}
 404              	.L23:
 405 002e C046     		.align	2
 406              	.L22:
 407 0030 10000000 		.word	sub_divide_count
 408              		.cfi_endproc
 409              	.LFE67:
 410              		.size	SysTickCallBackHandler, .-SysTickCallBackHandler
 411              		.section	.text.SysTickInit,"ax",%progbits
 412              		.align	2
 413              		.code	16
 414              		.thumb_func
 415              		.type	SysTickInit, %function
 416              	SysTickInit:
 417              	.LFB68:
 233:main.c        **** 
 234:main.c        **** 
 235:main.c        **** /*
 236:main.c        **** **
 237:main.c        **** ** Sys Tick is setup to 1 KHZ Interrupt
 238:main.c        **** **
 239:main.c        **** */
 240:main.c        **** static void SysTickInit( void )
 241:main.c        **** {
 418              		.loc 1 241 0
 419              		.cfi_startproc
 420 0000 80B5     		push	{r7, lr}
 421              		.cfi_def_cfa_offset 8
 422              		.cfi_offset 7, -8
 423              		.cfi_offset 14, -4
 424 0002 00AF     		add	r7, sp, #0
 425              		.cfi_def_cfa_register 7
 242:main.c        ****     switch_on = 0;
 426              		.loc 1 242 0
 427 0004 0B4B     		ldr	r3, .L25
 428 0006 0022     		mov	r2, #0
 429 0008 1A60     		str	r2, [r3]
 243:main.c        ****     deglitch_register = 0;
 430              		.loc 1 243 0
 431 000a 0B4B     		ldr	r3, .L25+4
 432 000c 0022     		mov	r2, #0
 433 000e 1A60     		str	r2, [r3]
 244:main.c        ****     CySysTickStart();
 434              		.loc 1 244 0
 435 0010 FFF7FEFF 		bl	CySysTickStart
 245:main.c        ****     CySysTickSetClockSource(CY_SYS_SYST_CSR_CLK_SRC_LFCLK);
 436              		.loc 1 245 0
 437 0014 0020     		mov	r0, #0
 438 0016 FFF7FEFF 		bl	CySysTickSetClockSource
 246:main.c        ****     CySysTickSetCallback(0, SysTickCallBackHandler );
ARM GAS  C:\Users\glenn\AppData\Local\Temp\ccqbLwrn.s 			page 13


 439              		.loc 1 246 0
 440 001a 084B     		ldr	r3, .L25+8
 441 001c 0020     		mov	r0, #0
 442 001e 191C     		mov	r1, r3
 443 0020 FFF7FEFF 		bl	CySysTickSetCallback
 247:main.c        ****     CySysTickSetReload(Thousand_Hz_Time);
 444              		.loc 1 247 0
 445 0024 2120     		mov	r0, #33
 446 0026 FFF7FEFF 		bl	CySysTickSetReload
 248:main.c        ****     
 249:main.c        ****     CySysTickEnableInterrupt();
 447              		.loc 1 249 0
 448 002a FFF7FEFF 		bl	CySysTickEnableInterrupt
 250:main.c        **** }...
 449              		.loc 1 250 0
 450 002e BD46     		mov	sp, r7
 451              		@ sp needed
 452 0030 80BD     		pop	{r7, pc}
 453              	.L26:
 454 0032 C046     		.align	2
 455              	.L25:
 456 0034 00000000 		.word	switch_on
 457 0038 14000000 		.word	deglitch_register
 458 003c 00000000 		.word	SysTickCallBackHandler
 459              		.cfi_endproc
 460              	.LFE68:
 461              		.size	SysTickInit, .-SysTickInit
 462              		.text
 463              	.Letext0:
 464              		.file 2 "Generated_Source\\PSoC4/cytypes.h"