ARM GAS  C:\Users\glenn\AppData\Local\Temp\ccMxiTf9.s 			page 1


   1              		.cpu cortex-m0
   2              		.fpu softvfp
   3              		.eabi_attribute 20, 1
   4              		.eabi_attribute 21, 1
   5              		.eabi_attribute 23, 3
   6              		.eabi_attribute 24, 1
   7              		.eabi_attribute 25, 1
   8              		.eabi_attribute 26, 1
   9              		.eabi_attribute 30, 2
  10              		.eabi_attribute 34, 0
  11              		.eabi_attribute 18, 4
  12              		.code	16
  13              		.file	"modbus_rx_interrupt.c"
  14              		.text
  15              	.Ltext0:
  16              		.cfi_sections	.debug_frame
  17              		.section	.text.modbus_rx_interrupt_Interrupt,"ax",%progbits
  18              		.align	2
  19              		.global	modbus_rx_interrupt_Interrupt
  20              		.code	16
  21              		.thumb_func
  22              		.type	modbus_rx_interrupt_Interrupt, %function
  23              	modbus_rx_interrupt_Interrupt:
  24              	.LFB4:
  25              		.file 1 "Generated_Source\\PSoC4\\modbus_rx_interrupt.c"
   1:Generated_Source\PSoC4/modbus_rx_interrupt.c **** /*******************************************************************************
   2:Generated_Source\PSoC4/modbus_rx_interrupt.c **** * File Name: modbus_rx_interrupt.c  
   3:Generated_Source\PSoC4/modbus_rx_interrupt.c **** * Version 1.70
   4:Generated_Source\PSoC4/modbus_rx_interrupt.c **** *
   5:Generated_Source\PSoC4/modbus_rx_interrupt.c **** *  Description:
   6:Generated_Source\PSoC4/modbus_rx_interrupt.c **** *   API for controlling the state of an interrupt.
   7:Generated_Source\PSoC4/modbus_rx_interrupt.c **** *
   8:Generated_Source\PSoC4/modbus_rx_interrupt.c **** *
   9:Generated_Source\PSoC4/modbus_rx_interrupt.c **** *  Note:
  10:Generated_Source\PSoC4/modbus_rx_interrupt.c **** *
  11:Generated_Source\PSoC4/modbus_rx_interrupt.c **** ********************************************************************************
  12:Generated_Source\PSoC4/modbus_rx_interrupt.c **** * Copyright 2008-2015, Cypress Semiconductor Corporation.  All rights reserved.
  13:Generated_Source\PSoC4/modbus_rx_interrupt.c **** * You may use this file only in accordance with the license, terms, conditions, 
  14:Generated_Source\PSoC4/modbus_rx_interrupt.c **** * disclaimers, and limitations in the end user license agreement accompanying 
  15:Generated_Source\PSoC4/modbus_rx_interrupt.c **** * the software package with which this file was provided.
  16:Generated_Source\PSoC4/modbus_rx_interrupt.c **** *******************************************************************************/
  17:Generated_Source\PSoC4/modbus_rx_interrupt.c **** 
  18:Generated_Source\PSoC4/modbus_rx_interrupt.c **** 
  19:Generated_Source\PSoC4/modbus_rx_interrupt.c **** #include <cydevice_trm.h>
  20:Generated_Source\PSoC4/modbus_rx_interrupt.c **** #include <CyLib.h>
  21:Generated_Source\PSoC4/modbus_rx_interrupt.c **** #include <modbus_rx_interrupt.h>
  22:Generated_Source\PSoC4/modbus_rx_interrupt.c **** #include "cyapicallbacks.h"
  23:Generated_Source\PSoC4/modbus_rx_interrupt.c **** 
  24:Generated_Source\PSoC4/modbus_rx_interrupt.c **** #if !defined(modbus_rx_interrupt__REMOVED) /* Check for removal by optimization */
  25:Generated_Source\PSoC4/modbus_rx_interrupt.c **** 
  26:Generated_Source\PSoC4/modbus_rx_interrupt.c **** /*******************************************************************************
  27:Generated_Source\PSoC4/modbus_rx_interrupt.c **** *  Place your includes, defines and code here 
  28:Generated_Source\PSoC4/modbus_rx_interrupt.c **** ********************************************************************************/
  29:Generated_Source\PSoC4/modbus_rx_interrupt.c **** /* `#START modbus_rx_interrupt_intc` */
  30:Generated_Source\PSoC4/modbus_rx_interrupt.c **** 
  31:Generated_Source\PSoC4/modbus_rx_interrupt.c **** /* `#END` */
  32:Generated_Source\PSoC4/modbus_rx_interrupt.c **** 
ARM GAS  C:\Users\glenn\AppData\Local\Temp\ccMxiTf9.s 			page 2


  33:Generated_Source\PSoC4/modbus_rx_interrupt.c **** extern cyisraddress CyRamVectors[CYINT_IRQ_BASE + CY_NUM_INTERRUPTS];
  34:Generated_Source\PSoC4/modbus_rx_interrupt.c **** 
  35:Generated_Source\PSoC4/modbus_rx_interrupt.c **** /* Declared in startup, used to set unused interrupts to. */
  36:Generated_Source\PSoC4/modbus_rx_interrupt.c **** CY_ISR_PROTO(IntDefaultHandler);
  37:Generated_Source\PSoC4/modbus_rx_interrupt.c **** 
  38:Generated_Source\PSoC4/modbus_rx_interrupt.c **** 
  39:Generated_Source\PSoC4/modbus_rx_interrupt.c **** /*******************************************************************************
  40:Generated_Source\PSoC4/modbus_rx_interrupt.c **** * Function Name: modbus_rx_interrupt_Start
  41:Generated_Source\PSoC4/modbus_rx_interrupt.c **** ********************************************************************************
  42:Generated_Source\PSoC4/modbus_rx_interrupt.c **** *
  43:Generated_Source\PSoC4/modbus_rx_interrupt.c **** * Summary:
  44:Generated_Source\PSoC4/modbus_rx_interrupt.c **** *  Set up the interrupt and enable it. This function disables the interrupt, 
  45:Generated_Source\PSoC4/modbus_rx_interrupt.c **** *  sets the default interrupt vector, sets the priority from the value in the
  46:Generated_Source\PSoC4/modbus_rx_interrupt.c **** *  Design Wide Resources Interrupt Editor, then enables the interrupt to the 
  47:Generated_Source\PSoC4/modbus_rx_interrupt.c **** *  interrupt controller.
  48:Generated_Source\PSoC4/modbus_rx_interrupt.c **** *
  49:Generated_Source\PSoC4/modbus_rx_interrupt.c **** * Parameters:  
  50:Generated_Source\PSoC4/modbus_rx_interrupt.c **** *   None
  51:Generated_Source\PSoC4/modbus_rx_interrupt.c **** *
  52:Generated_Source\PSoC4/modbus_rx_interrupt.c **** * Return:
  53:Generated_Source\PSoC4/modbus_rx_interrupt.c **** *   None
  54:Generated_Source\PSoC4/modbus_rx_interrupt.c **** *
  55:Generated_Source\PSoC4/modbus_rx_interrupt.c **** *******************************************************************************/
  56:Generated_Source\PSoC4/modbus_rx_interrupt.c **** void modbus_rx_interrupt_Start(void)
  57:Generated_Source\PSoC4/modbus_rx_interrupt.c **** {
  58:Generated_Source\PSoC4/modbus_rx_interrupt.c ****     /* For all we know the interrupt is active. */
  59:Generated_Source\PSoC4/modbus_rx_interrupt.c ****     modbus_rx_interrupt_Disable();
  60:Generated_Source\PSoC4/modbus_rx_interrupt.c **** 
  61:Generated_Source\PSoC4/modbus_rx_interrupt.c ****     /* Set the ISR to point to the modbus_rx_interrupt Interrupt. */
  62:Generated_Source\PSoC4/modbus_rx_interrupt.c ****     modbus_rx_interrupt_SetVector(&modbus_rx_interrupt_Interrupt);
  63:Generated_Source\PSoC4/modbus_rx_interrupt.c **** 
  64:Generated_Source\PSoC4/modbus_rx_interrupt.c ****     /* Set the priority. */
  65:Generated_Source\PSoC4/modbus_rx_interrupt.c ****     modbus_rx_interrupt_SetPriority((uint8)modbus_rx_interrupt_INTC_PRIOR_NUMBER);
  66:Generated_Source\PSoC4/modbus_rx_interrupt.c **** 
  67:Generated_Source\PSoC4/modbus_rx_interrupt.c ****     /* Enable it. */
  68:Generated_Source\PSoC4/modbus_rx_interrupt.c ****     modbus_rx_interrupt_Enable();
  69:Generated_Source\PSoC4/modbus_rx_interrupt.c **** }
  70:Generated_Source\PSoC4/modbus_rx_interrupt.c **** 
  71:Generated_Source\PSoC4/modbus_rx_interrupt.c **** 
  72:Generated_Source\PSoC4/modbus_rx_interrupt.c **** /*******************************************************************************
  73:Generated_Source\PSoC4/modbus_rx_interrupt.c **** * Function Name: modbus_rx_interrupt_StartEx
  74:Generated_Source\PSoC4/modbus_rx_interrupt.c **** ********************************************************************************
  75:Generated_Source\PSoC4/modbus_rx_interrupt.c **** *
  76:Generated_Source\PSoC4/modbus_rx_interrupt.c **** * Summary:
  77:Generated_Source\PSoC4/modbus_rx_interrupt.c **** *  Sets up the interrupt and enables it. This function disables the interrupt,
  78:Generated_Source\PSoC4/modbus_rx_interrupt.c **** *  sets the interrupt vector based on the address passed in, sets the priority 
  79:Generated_Source\PSoC4/modbus_rx_interrupt.c **** *  from the value in the Design Wide Resources Interrupt Editor, then enables 
  80:Generated_Source\PSoC4/modbus_rx_interrupt.c **** *  the interrupt to the interrupt controller.
  81:Generated_Source\PSoC4/modbus_rx_interrupt.c **** *  
  82:Generated_Source\PSoC4/modbus_rx_interrupt.c **** *  When defining ISR functions, the CY_ISR and CY_ISR_PROTO macros should be 
  83:Generated_Source\PSoC4/modbus_rx_interrupt.c **** *  used to provide consistent definition across compilers:
  84:Generated_Source\PSoC4/modbus_rx_interrupt.c **** *  
  85:Generated_Source\PSoC4/modbus_rx_interrupt.c **** *  Function definition example:
  86:Generated_Source\PSoC4/modbus_rx_interrupt.c **** *   CY_ISR(MyISR)
  87:Generated_Source\PSoC4/modbus_rx_interrupt.c **** *   {
  88:Generated_Source\PSoC4/modbus_rx_interrupt.c **** *   }
  89:Generated_Source\PSoC4/modbus_rx_interrupt.c **** *   Function prototype example:
ARM GAS  C:\Users\glenn\AppData\Local\Temp\ccMxiTf9.s 			page 3


  90:Generated_Source\PSoC4/modbus_rx_interrupt.c **** *   CY_ISR_PROTO(MyISR);
  91:Generated_Source\PSoC4/modbus_rx_interrupt.c **** *
  92:Generated_Source\PSoC4/modbus_rx_interrupt.c **** * Parameters:  
  93:Generated_Source\PSoC4/modbus_rx_interrupt.c **** *   address: Address of the ISR to set in the interrupt vector table.
  94:Generated_Source\PSoC4/modbus_rx_interrupt.c **** *
  95:Generated_Source\PSoC4/modbus_rx_interrupt.c **** * Return:
  96:Generated_Source\PSoC4/modbus_rx_interrupt.c **** *   None
  97:Generated_Source\PSoC4/modbus_rx_interrupt.c **** *
  98:Generated_Source\PSoC4/modbus_rx_interrupt.c **** *******************************************************************************/
  99:Generated_Source\PSoC4/modbus_rx_interrupt.c **** void modbus_rx_interrupt_StartEx(cyisraddress address)
 100:Generated_Source\PSoC4/modbus_rx_interrupt.c **** {
 101:Generated_Source\PSoC4/modbus_rx_interrupt.c ****     /* For all we know the interrupt is active. */
 102:Generated_Source\PSoC4/modbus_rx_interrupt.c ****     modbus_rx_interrupt_Disable();
 103:Generated_Source\PSoC4/modbus_rx_interrupt.c **** 
 104:Generated_Source\PSoC4/modbus_rx_interrupt.c ****     /* Set the ISR to point to the modbus_rx_interrupt Interrupt. */
 105:Generated_Source\PSoC4/modbus_rx_interrupt.c ****     modbus_rx_interrupt_SetVector(address);
 106:Generated_Source\PSoC4/modbus_rx_interrupt.c **** 
 107:Generated_Source\PSoC4/modbus_rx_interrupt.c ****     /* Set the priority. */
 108:Generated_Source\PSoC4/modbus_rx_interrupt.c ****     modbus_rx_interrupt_SetPriority((uint8)modbus_rx_interrupt_INTC_PRIOR_NUMBER);
 109:Generated_Source\PSoC4/modbus_rx_interrupt.c **** 
 110:Generated_Source\PSoC4/modbus_rx_interrupt.c ****     /* Enable it. */
 111:Generated_Source\PSoC4/modbus_rx_interrupt.c ****     modbus_rx_interrupt_Enable();
 112:Generated_Source\PSoC4/modbus_rx_interrupt.c **** }
 113:Generated_Source\PSoC4/modbus_rx_interrupt.c **** 
 114:Generated_Source\PSoC4/modbus_rx_interrupt.c **** 
 115:Generated_Source\PSoC4/modbus_rx_interrupt.c **** /*******************************************************************************
 116:Generated_Source\PSoC4/modbus_rx_interrupt.c **** * Function Name: modbus_rx_interrupt_Stop
 117:Generated_Source\PSoC4/modbus_rx_interrupt.c **** ********************************************************************************
 118:Generated_Source\PSoC4/modbus_rx_interrupt.c **** *
 119:Generated_Source\PSoC4/modbus_rx_interrupt.c **** * Summary:
 120:Generated_Source\PSoC4/modbus_rx_interrupt.c **** *   Disables and removes the interrupt.
 121:Generated_Source\PSoC4/modbus_rx_interrupt.c **** *
 122:Generated_Source\PSoC4/modbus_rx_interrupt.c **** * Parameters:  
 123:Generated_Source\PSoC4/modbus_rx_interrupt.c **** *   None
 124:Generated_Source\PSoC4/modbus_rx_interrupt.c **** *
 125:Generated_Source\PSoC4/modbus_rx_interrupt.c **** * Return:
 126:Generated_Source\PSoC4/modbus_rx_interrupt.c **** *   None
 127:Generated_Source\PSoC4/modbus_rx_interrupt.c **** *
 128:Generated_Source\PSoC4/modbus_rx_interrupt.c **** *******************************************************************************/
 129:Generated_Source\PSoC4/modbus_rx_interrupt.c **** void modbus_rx_interrupt_Stop(void)
 130:Generated_Source\PSoC4/modbus_rx_interrupt.c **** {
 131:Generated_Source\PSoC4/modbus_rx_interrupt.c ****     /* Disable this interrupt. */
 132:Generated_Source\PSoC4/modbus_rx_interrupt.c ****     modbus_rx_interrupt_Disable();
 133:Generated_Source\PSoC4/modbus_rx_interrupt.c **** 
 134:Generated_Source\PSoC4/modbus_rx_interrupt.c ****     /* Set the ISR to point to the passive one. */
 135:Generated_Source\PSoC4/modbus_rx_interrupt.c ****     modbus_rx_interrupt_SetVector(&IntDefaultHandler);
 136:Generated_Source\PSoC4/modbus_rx_interrupt.c **** }
 137:Generated_Source\PSoC4/modbus_rx_interrupt.c **** 
 138:Generated_Source\PSoC4/modbus_rx_interrupt.c **** 
 139:Generated_Source\PSoC4/modbus_rx_interrupt.c **** /*******************************************************************************
 140:Generated_Source\PSoC4/modbus_rx_interrupt.c **** * Function Name: modbus_rx_interrupt_Interrupt
 141:Generated_Source\PSoC4/modbus_rx_interrupt.c **** ********************************************************************************
 142:Generated_Source\PSoC4/modbus_rx_interrupt.c **** *
 143:Generated_Source\PSoC4/modbus_rx_interrupt.c **** * Summary:
 144:Generated_Source\PSoC4/modbus_rx_interrupt.c **** *   The default Interrupt Service Routine for modbus_rx_interrupt.
 145:Generated_Source\PSoC4/modbus_rx_interrupt.c **** *
 146:Generated_Source\PSoC4/modbus_rx_interrupt.c **** *   Add custom code between the START and END comments to keep the next version
ARM GAS  C:\Users\glenn\AppData\Local\Temp\ccMxiTf9.s 			page 4


 147:Generated_Source\PSoC4/modbus_rx_interrupt.c **** *   of this file from over-writing your code.
 148:Generated_Source\PSoC4/modbus_rx_interrupt.c **** *
 149:Generated_Source\PSoC4/modbus_rx_interrupt.c **** *   Note You may use either the default ISR by using this API, or you may define
 150:Generated_Source\PSoC4/modbus_rx_interrupt.c **** *   your own separate ISR through ISR_StartEx().
 151:Generated_Source\PSoC4/modbus_rx_interrupt.c **** *
 152:Generated_Source\PSoC4/modbus_rx_interrupt.c **** * Parameters:  
 153:Generated_Source\PSoC4/modbus_rx_interrupt.c **** *   None
 154:Generated_Source\PSoC4/modbus_rx_interrupt.c **** *
 155:Generated_Source\PSoC4/modbus_rx_interrupt.c **** * Return:
 156:Generated_Source\PSoC4/modbus_rx_interrupt.c **** *   None
 157:Generated_Source\PSoC4/modbus_rx_interrupt.c **** *
 158:Generated_Source\PSoC4/modbus_rx_interrupt.c **** *******************************************************************************/
 159:Generated_Source\PSoC4/modbus_rx_interrupt.c **** CY_ISR(modbus_rx_interrupt_Interrupt)
 160:Generated_Source\PSoC4/modbus_rx_interrupt.c **** {
  26              		.loc 1 160 0
  27              		.cfi_startproc
 161:Generated_Source\PSoC4/modbus_rx_interrupt.c ****     #ifdef modbus_rx_interrupt_INTERRUPT_INTERRUPT_CALLBACK
 162:Generated_Source\PSoC4/modbus_rx_interrupt.c ****         modbus_rx_interrupt_Interrupt_InterruptCallback();
 163:Generated_Source\PSoC4/modbus_rx_interrupt.c ****     #endif /* modbus_rx_interrupt_INTERRUPT_INTERRUPT_CALLBACK */ 
 164:Generated_Source\PSoC4/modbus_rx_interrupt.c **** 
 165:Generated_Source\PSoC4/modbus_rx_interrupt.c ****     /*  Place your Interrupt code here. */
 166:Generated_Source\PSoC4/modbus_rx_interrupt.c ****     /* `#START modbus_rx_interrupt_Interrupt` */
 167:Generated_Source\PSoC4/modbus_rx_interrupt.c **** 
 168:Generated_Source\PSoC4/modbus_rx_interrupt.c ****     /* `#END` */
 169:Generated_Source\PSoC4/modbus_rx_interrupt.c **** }
  28              		.loc 1 169 0
  29              		@ sp needed
  30 0000 7047     		bx	lr
  31              		.cfi_endproc
  32              	.LFE4:
  33              		.size	modbus_rx_interrupt_Interrupt, .-modbus_rx_interrupt_Interrupt
  34 0002 C046     		.section	.text.modbus_rx_interrupt_Start,"ax",%progbits
  35              		.align	2
  36              		.global	modbus_rx_interrupt_Start
  37              		.code	16
  38              		.thumb_func
  39              		.type	modbus_rx_interrupt_Start, %function
  40              	modbus_rx_interrupt_Start:
  41              	.LFB1:
  57:Generated_Source\PSoC4/modbus_rx_interrupt.c ****     /* For all we know the interrupt is active. */
  42              		.loc 1 57 0
  43              		.cfi_startproc
  44 0000 10B5     		push	{r4, lr}
  45              		.cfi_def_cfa_offset 8
  46              		.cfi_offset 4, -8
  47              		.cfi_offset 14, -4
  48              	.LBB26:
  49              	.LBB27:
 170:Generated_Source\PSoC4/modbus_rx_interrupt.c **** 
 171:Generated_Source\PSoC4/modbus_rx_interrupt.c **** 
 172:Generated_Source\PSoC4/modbus_rx_interrupt.c **** /*******************************************************************************
 173:Generated_Source\PSoC4/modbus_rx_interrupt.c **** * Function Name: modbus_rx_interrupt_SetVector
 174:Generated_Source\PSoC4/modbus_rx_interrupt.c **** ********************************************************************************
 175:Generated_Source\PSoC4/modbus_rx_interrupt.c **** *
 176:Generated_Source\PSoC4/modbus_rx_interrupt.c **** * Summary:
 177:Generated_Source\PSoC4/modbus_rx_interrupt.c **** *   Change the ISR vector for the Interrupt. Note calling modbus_rx_interrupt_Start
 178:Generated_Source\PSoC4/modbus_rx_interrupt.c **** *   will override any effect this method would have had. To set the vector 
ARM GAS  C:\Users\glenn\AppData\Local\Temp\ccMxiTf9.s 			page 5


 179:Generated_Source\PSoC4/modbus_rx_interrupt.c **** *   before the component has been started use modbus_rx_interrupt_StartEx instead.
 180:Generated_Source\PSoC4/modbus_rx_interrupt.c **** * 
 181:Generated_Source\PSoC4/modbus_rx_interrupt.c **** *   When defining ISR functions, the CY_ISR and CY_ISR_PROTO macros should be 
 182:Generated_Source\PSoC4/modbus_rx_interrupt.c **** *   used to provide consistent definition across compilers:
 183:Generated_Source\PSoC4/modbus_rx_interrupt.c **** *
 184:Generated_Source\PSoC4/modbus_rx_interrupt.c **** *   Function definition example:
 185:Generated_Source\PSoC4/modbus_rx_interrupt.c **** *   CY_ISR(MyISR)
 186:Generated_Source\PSoC4/modbus_rx_interrupt.c **** *   {
 187:Generated_Source\PSoC4/modbus_rx_interrupt.c **** *   }
 188:Generated_Source\PSoC4/modbus_rx_interrupt.c **** *
 189:Generated_Source\PSoC4/modbus_rx_interrupt.c **** *   Function prototype example:
 190:Generated_Source\PSoC4/modbus_rx_interrupt.c **** *     CY_ISR_PROTO(MyISR);
 191:Generated_Source\PSoC4/modbus_rx_interrupt.c **** *
 192:Generated_Source\PSoC4/modbus_rx_interrupt.c **** * Parameters:
 193:Generated_Source\PSoC4/modbus_rx_interrupt.c **** *   address: Address of the ISR to set in the interrupt vector table.
 194:Generated_Source\PSoC4/modbus_rx_interrupt.c **** *
 195:Generated_Source\PSoC4/modbus_rx_interrupt.c **** * Return:
 196:Generated_Source\PSoC4/modbus_rx_interrupt.c **** *   None
 197:Generated_Source\PSoC4/modbus_rx_interrupt.c **** *
 198:Generated_Source\PSoC4/modbus_rx_interrupt.c **** *******************************************************************************/
 199:Generated_Source\PSoC4/modbus_rx_interrupt.c **** void modbus_rx_interrupt_SetVector(cyisraddress address)
 200:Generated_Source\PSoC4/modbus_rx_interrupt.c **** {
 201:Generated_Source\PSoC4/modbus_rx_interrupt.c ****     CyRamVectors[CYINT_IRQ_BASE + modbus_rx_interrupt__INTC_NUMBER] = address;
 202:Generated_Source\PSoC4/modbus_rx_interrupt.c **** }
 203:Generated_Source\PSoC4/modbus_rx_interrupt.c **** 
 204:Generated_Source\PSoC4/modbus_rx_interrupt.c **** 
 205:Generated_Source\PSoC4/modbus_rx_interrupt.c **** /*******************************************************************************
 206:Generated_Source\PSoC4/modbus_rx_interrupt.c **** * Function Name: modbus_rx_interrupt_GetVector
 207:Generated_Source\PSoC4/modbus_rx_interrupt.c **** ********************************************************************************
 208:Generated_Source\PSoC4/modbus_rx_interrupt.c **** *
 209:Generated_Source\PSoC4/modbus_rx_interrupt.c **** * Summary:
 210:Generated_Source\PSoC4/modbus_rx_interrupt.c **** *   Gets the "address" of the current ISR vector for the Interrupt.
 211:Generated_Source\PSoC4/modbus_rx_interrupt.c **** *
 212:Generated_Source\PSoC4/modbus_rx_interrupt.c **** * Parameters:
 213:Generated_Source\PSoC4/modbus_rx_interrupt.c **** *   None
 214:Generated_Source\PSoC4/modbus_rx_interrupt.c **** *
 215:Generated_Source\PSoC4/modbus_rx_interrupt.c **** * Return:
 216:Generated_Source\PSoC4/modbus_rx_interrupt.c **** *   Address of the ISR in the interrupt vector table.
 217:Generated_Source\PSoC4/modbus_rx_interrupt.c **** *
 218:Generated_Source\PSoC4/modbus_rx_interrupt.c **** *******************************************************************************/
 219:Generated_Source\PSoC4/modbus_rx_interrupt.c **** cyisraddress modbus_rx_interrupt_GetVector(void)
 220:Generated_Source\PSoC4/modbus_rx_interrupt.c **** {
 221:Generated_Source\PSoC4/modbus_rx_interrupt.c ****     return CyRamVectors[CYINT_IRQ_BASE + modbus_rx_interrupt__INTC_NUMBER];
 222:Generated_Source\PSoC4/modbus_rx_interrupt.c **** }
 223:Generated_Source\PSoC4/modbus_rx_interrupt.c **** 
 224:Generated_Source\PSoC4/modbus_rx_interrupt.c **** 
 225:Generated_Source\PSoC4/modbus_rx_interrupt.c **** /*******************************************************************************
 226:Generated_Source\PSoC4/modbus_rx_interrupt.c **** * Function Name: modbus_rx_interrupt_SetPriority
 227:Generated_Source\PSoC4/modbus_rx_interrupt.c **** ********************************************************************************
 228:Generated_Source\PSoC4/modbus_rx_interrupt.c **** *
 229:Generated_Source\PSoC4/modbus_rx_interrupt.c **** * Summary:
 230:Generated_Source\PSoC4/modbus_rx_interrupt.c **** *   Sets the Priority of the Interrupt. 
 231:Generated_Source\PSoC4/modbus_rx_interrupt.c **** *
 232:Generated_Source\PSoC4/modbus_rx_interrupt.c **** *   Note calling modbus_rx_interrupt_Start or modbus_rx_interrupt_StartEx will 
 233:Generated_Source\PSoC4/modbus_rx_interrupt.c **** *   override any effect this API would have had. This API should only be called
 234:Generated_Source\PSoC4/modbus_rx_interrupt.c **** *   after modbus_rx_interrupt_Start or modbus_rx_interrupt_StartEx has been called. 
 235:Generated_Source\PSoC4/modbus_rx_interrupt.c **** *   To set the initial priority for the component, use the Design-Wide Resources
ARM GAS  C:\Users\glenn\AppData\Local\Temp\ccMxiTf9.s 			page 6


 236:Generated_Source\PSoC4/modbus_rx_interrupt.c **** *   Interrupt Editor.
 237:Generated_Source\PSoC4/modbus_rx_interrupt.c **** *
 238:Generated_Source\PSoC4/modbus_rx_interrupt.c **** *   Note This API has no effect on Non-maskable interrupt NMI).
 239:Generated_Source\PSoC4/modbus_rx_interrupt.c **** *
 240:Generated_Source\PSoC4/modbus_rx_interrupt.c **** * Parameters:
 241:Generated_Source\PSoC4/modbus_rx_interrupt.c **** *   priority: Priority of the interrupt, 0 being the highest priority
 242:Generated_Source\PSoC4/modbus_rx_interrupt.c **** *             PSoC 3 and PSoC 5LP: Priority is from 0 to 7.
 243:Generated_Source\PSoC4/modbus_rx_interrupt.c **** *             PSoC 4: Priority is from 0 to 3.
 244:Generated_Source\PSoC4/modbus_rx_interrupt.c **** *
 245:Generated_Source\PSoC4/modbus_rx_interrupt.c **** * Return:
 246:Generated_Source\PSoC4/modbus_rx_interrupt.c **** *   None
 247:Generated_Source\PSoC4/modbus_rx_interrupt.c **** *
 248:Generated_Source\PSoC4/modbus_rx_interrupt.c **** *******************************************************************************/
 249:Generated_Source\PSoC4/modbus_rx_interrupt.c **** void modbus_rx_interrupt_SetPriority(uint8 priority)
 250:Generated_Source\PSoC4/modbus_rx_interrupt.c **** {
 251:Generated_Source\PSoC4/modbus_rx_interrupt.c **** 	uint8 interruptState;
 252:Generated_Source\PSoC4/modbus_rx_interrupt.c ****     uint32 priorityOffset = ((modbus_rx_interrupt__INTC_NUMBER % 4u) * 8u) + 6u;
 253:Generated_Source\PSoC4/modbus_rx_interrupt.c ****     
 254:Generated_Source\PSoC4/modbus_rx_interrupt.c **** 	interruptState = CyEnterCriticalSection();
 255:Generated_Source\PSoC4/modbus_rx_interrupt.c ****     *modbus_rx_interrupt_INTC_PRIOR = (*modbus_rx_interrupt_INTC_PRIOR & (uint32)(~modbus_rx_interr
 256:Generated_Source\PSoC4/modbus_rx_interrupt.c ****                                     ((uint32)priority << priorityOffset);
 257:Generated_Source\PSoC4/modbus_rx_interrupt.c **** 	CyExitCriticalSection(interruptState);
 258:Generated_Source\PSoC4/modbus_rx_interrupt.c **** }
 259:Generated_Source\PSoC4/modbus_rx_interrupt.c **** 
 260:Generated_Source\PSoC4/modbus_rx_interrupt.c **** 
 261:Generated_Source\PSoC4/modbus_rx_interrupt.c **** /*******************************************************************************
 262:Generated_Source\PSoC4/modbus_rx_interrupt.c **** * Function Name: modbus_rx_interrupt_GetPriority
 263:Generated_Source\PSoC4/modbus_rx_interrupt.c **** ********************************************************************************
 264:Generated_Source\PSoC4/modbus_rx_interrupt.c **** *
 265:Generated_Source\PSoC4/modbus_rx_interrupt.c **** * Summary:
 266:Generated_Source\PSoC4/modbus_rx_interrupt.c **** *   Gets the Priority of the Interrupt.
 267:Generated_Source\PSoC4/modbus_rx_interrupt.c **** *
 268:Generated_Source\PSoC4/modbus_rx_interrupt.c **** * Parameters:
 269:Generated_Source\PSoC4/modbus_rx_interrupt.c **** *   None
 270:Generated_Source\PSoC4/modbus_rx_interrupt.c **** *
 271:Generated_Source\PSoC4/modbus_rx_interrupt.c **** * Return:
 272:Generated_Source\PSoC4/modbus_rx_interrupt.c **** *   Priority of the interrupt, 0 being the highest priority
 273:Generated_Source\PSoC4/modbus_rx_interrupt.c **** *    PSoC 3 and PSoC 5LP: Priority is from 0 to 7.
 274:Generated_Source\PSoC4/modbus_rx_interrupt.c **** *    PSoC 4: Priority is from 0 to 3.
 275:Generated_Source\PSoC4/modbus_rx_interrupt.c **** *
 276:Generated_Source\PSoC4/modbus_rx_interrupt.c **** *******************************************************************************/
 277:Generated_Source\PSoC4/modbus_rx_interrupt.c **** uint8 modbus_rx_interrupt_GetPriority(void)
 278:Generated_Source\PSoC4/modbus_rx_interrupt.c **** {
 279:Generated_Source\PSoC4/modbus_rx_interrupt.c ****     uint32 priority;
 280:Generated_Source\PSoC4/modbus_rx_interrupt.c **** 	uint32 priorityOffset = ((modbus_rx_interrupt__INTC_NUMBER % 4u) * 8u) + 6u;
 281:Generated_Source\PSoC4/modbus_rx_interrupt.c **** 
 282:Generated_Source\PSoC4/modbus_rx_interrupt.c ****     priority = (*modbus_rx_interrupt_INTC_PRIOR & modbus_rx_interrupt__INTC_PRIOR_MASK) >> priority
 283:Generated_Source\PSoC4/modbus_rx_interrupt.c **** 
 284:Generated_Source\PSoC4/modbus_rx_interrupt.c ****     return (uint8)priority;
 285:Generated_Source\PSoC4/modbus_rx_interrupt.c **** }
 286:Generated_Source\PSoC4/modbus_rx_interrupt.c **** 
 287:Generated_Source\PSoC4/modbus_rx_interrupt.c **** 
 288:Generated_Source\PSoC4/modbus_rx_interrupt.c **** /*******************************************************************************
 289:Generated_Source\PSoC4/modbus_rx_interrupt.c **** * Function Name: modbus_rx_interrupt_Enable
 290:Generated_Source\PSoC4/modbus_rx_interrupt.c **** ********************************************************************************
 291:Generated_Source\PSoC4/modbus_rx_interrupt.c **** *
 292:Generated_Source\PSoC4/modbus_rx_interrupt.c **** * Summary:
ARM GAS  C:\Users\glenn\AppData\Local\Temp\ccMxiTf9.s 			page 7


 293:Generated_Source\PSoC4/modbus_rx_interrupt.c **** *   Enables the interrupt to the interrupt controller. Do not call this function
 294:Generated_Source\PSoC4/modbus_rx_interrupt.c **** *   unless ISR_Start() has been called or the functionality of the ISR_Start() 
 295:Generated_Source\PSoC4/modbus_rx_interrupt.c **** *   function, which sets the vector and the priority, has been called.
 296:Generated_Source\PSoC4/modbus_rx_interrupt.c **** *
 297:Generated_Source\PSoC4/modbus_rx_interrupt.c **** * Parameters:
 298:Generated_Source\PSoC4/modbus_rx_interrupt.c **** *   None
 299:Generated_Source\PSoC4/modbus_rx_interrupt.c **** *
 300:Generated_Source\PSoC4/modbus_rx_interrupt.c **** * Return:
 301:Generated_Source\PSoC4/modbus_rx_interrupt.c **** *   None
 302:Generated_Source\PSoC4/modbus_rx_interrupt.c **** *
 303:Generated_Source\PSoC4/modbus_rx_interrupt.c **** *******************************************************************************/
 304:Generated_Source\PSoC4/modbus_rx_interrupt.c **** void modbus_rx_interrupt_Enable(void)
 305:Generated_Source\PSoC4/modbus_rx_interrupt.c **** {
 306:Generated_Source\PSoC4/modbus_rx_interrupt.c ****     /* Enable the general interrupt. */
 307:Generated_Source\PSoC4/modbus_rx_interrupt.c ****     *modbus_rx_interrupt_INTC_SET_EN = modbus_rx_interrupt__INTC_MASK;
 308:Generated_Source\PSoC4/modbus_rx_interrupt.c **** }
 309:Generated_Source\PSoC4/modbus_rx_interrupt.c **** 
 310:Generated_Source\PSoC4/modbus_rx_interrupt.c **** 
 311:Generated_Source\PSoC4/modbus_rx_interrupt.c **** /*******************************************************************************
 312:Generated_Source\PSoC4/modbus_rx_interrupt.c **** * Function Name: modbus_rx_interrupt_GetState
 313:Generated_Source\PSoC4/modbus_rx_interrupt.c **** ********************************************************************************
 314:Generated_Source\PSoC4/modbus_rx_interrupt.c **** *
 315:Generated_Source\PSoC4/modbus_rx_interrupt.c **** * Summary:
 316:Generated_Source\PSoC4/modbus_rx_interrupt.c **** *   Gets the state (enabled, disabled) of the Interrupt.
 317:Generated_Source\PSoC4/modbus_rx_interrupt.c **** *
 318:Generated_Source\PSoC4/modbus_rx_interrupt.c **** * Parameters:
 319:Generated_Source\PSoC4/modbus_rx_interrupt.c **** *   None
 320:Generated_Source\PSoC4/modbus_rx_interrupt.c **** *
 321:Generated_Source\PSoC4/modbus_rx_interrupt.c **** * Return:
 322:Generated_Source\PSoC4/modbus_rx_interrupt.c **** *   1 if enabled, 0 if disabled.
 323:Generated_Source\PSoC4/modbus_rx_interrupt.c **** *
 324:Generated_Source\PSoC4/modbus_rx_interrupt.c **** *******************************************************************************/
 325:Generated_Source\PSoC4/modbus_rx_interrupt.c **** uint8 modbus_rx_interrupt_GetState(void)
 326:Generated_Source\PSoC4/modbus_rx_interrupt.c **** {
 327:Generated_Source\PSoC4/modbus_rx_interrupt.c ****     /* Get the state of the general interrupt. */
 328:Generated_Source\PSoC4/modbus_rx_interrupt.c ****     return ((*modbus_rx_interrupt_INTC_SET_EN & (uint32)modbus_rx_interrupt__INTC_MASK) != 0u) ? 1u
 329:Generated_Source\PSoC4/modbus_rx_interrupt.c **** }
 330:Generated_Source\PSoC4/modbus_rx_interrupt.c **** 
 331:Generated_Source\PSoC4/modbus_rx_interrupt.c **** 
 332:Generated_Source\PSoC4/modbus_rx_interrupt.c **** /*******************************************************************************
 333:Generated_Source\PSoC4/modbus_rx_interrupt.c **** * Function Name: modbus_rx_interrupt_Disable
 334:Generated_Source\PSoC4/modbus_rx_interrupt.c **** ********************************************************************************
 335:Generated_Source\PSoC4/modbus_rx_interrupt.c **** *
 336:Generated_Source\PSoC4/modbus_rx_interrupt.c **** * Summary:
 337:Generated_Source\PSoC4/modbus_rx_interrupt.c **** *   Disables the Interrupt in the interrupt controller.
 338:Generated_Source\PSoC4/modbus_rx_interrupt.c **** *
 339:Generated_Source\PSoC4/modbus_rx_interrupt.c **** * Parameters:
 340:Generated_Source\PSoC4/modbus_rx_interrupt.c **** *   None
 341:Generated_Source\PSoC4/modbus_rx_interrupt.c **** *
 342:Generated_Source\PSoC4/modbus_rx_interrupt.c **** * Return:
 343:Generated_Source\PSoC4/modbus_rx_interrupt.c **** *   None
 344:Generated_Source\PSoC4/modbus_rx_interrupt.c **** *
 345:Generated_Source\PSoC4/modbus_rx_interrupt.c **** *******************************************************************************/
 346:Generated_Source\PSoC4/modbus_rx_interrupt.c **** void modbus_rx_interrupt_Disable(void)
 347:Generated_Source\PSoC4/modbus_rx_interrupt.c **** {
 348:Generated_Source\PSoC4/modbus_rx_interrupt.c ****     /* Disable the general interrupt. */
 349:Generated_Source\PSoC4/modbus_rx_interrupt.c ****     *modbus_rx_interrupt_INTC_CLR_EN = modbus_rx_interrupt__INTC_MASK;
ARM GAS  C:\Users\glenn\AppData\Local\Temp\ccMxiTf9.s 			page 8


  50              		.loc 1 349 0
  51 0002 0124     		mov	r4, #1
  52 0004 084B     		ldr	r3, .L3
  53              	.LBE27:
  54              	.LBE26:
  55              	.LBB29:
  56              	.LBB30:
 201:Generated_Source\PSoC4/modbus_rx_interrupt.c **** }
  57              		.loc 1 201 0
  58 0006 094A     		ldr	r2, .L3+4
  59              	.LBE30:
  60              	.LBE29:
  61              	.LBB33:
  62              	.LBB28:
  63              		.loc 1 349 0
  64 0008 1C60     		str	r4, [r3]
  65              	.LVL0:
  66              	.LBE28:
  67              	.LBE33:
  68              	.LBB34:
  69              	.LBB31:
 201:Generated_Source\PSoC4/modbus_rx_interrupt.c **** }
  70              		.loc 1 201 0
  71 000a 094B     		ldr	r3, .L3+8
  72              	.LBE31:
  73              	.LBE34:
  69:Generated_Source\PSoC4/modbus_rx_interrupt.c **** 
  74              		.loc 1 69 0
  75              		@ sp needed
  76              	.LBB35:
  77              	.LBB32:
 201:Generated_Source\PSoC4/modbus_rx_interrupt.c **** }
  78              		.loc 1 201 0
  79 000c 1A64     		str	r2, [r3, #64]
  80              	.LVL1:
  81              	.LBE32:
  82              	.LBE35:
  83              	.LBB36:
  84              	.LBB37:
 254:Generated_Source\PSoC4/modbus_rx_interrupt.c ****     *modbus_rx_interrupt_INTC_PRIOR = (*modbus_rx_interrupt_INTC_PRIOR & (uint32)(~modbus_rx_interr
  85              		.loc 1 254 0
  86 000e FFF7FEFF 		bl	CyEnterCriticalSection
  87              	.LVL2:
 255:Generated_Source\PSoC4/modbus_rx_interrupt.c ****                                     ((uint32)priority << priorityOffset);
  88              		.loc 1 255 0
  89 0012 C023     		mov	r3, #192
  90 0014 074A     		ldr	r2, .L3+12
  91 0016 1168     		ldr	r1, [r2]
  92 0018 0B43     		orr	r3, r1
  93 001a 1360     		str	r3, [r2]
 257:Generated_Source\PSoC4/modbus_rx_interrupt.c **** }
  94              		.loc 1 257 0
  95 001c FFF7FEFF 		bl	CyExitCriticalSection
  96              	.LVL3:
  97              	.LBE37:
  98              	.LBE36:
  99              	.LBB38:
ARM GAS  C:\Users\glenn\AppData\Local\Temp\ccMxiTf9.s 			page 9


 100              	.LBB39:
 307:Generated_Source\PSoC4/modbus_rx_interrupt.c **** }
 101              		.loc 1 307 0
 102 0020 054B     		ldr	r3, .L3+16
 103 0022 1C60     		str	r4, [r3]
 104              	.LBE39:
 105              	.LBE38:
  69:Generated_Source\PSoC4/modbus_rx_interrupt.c **** 
 106              		.loc 1 69 0
 107 0024 10BD     		pop	{r4, pc}
 108              	.L4:
 109 0026 C046     		.align	2
 110              	.L3:
 111 0028 80E100E0 		.word	-536813184
 112 002c 00000000 		.word	modbus_rx_interrupt_Interrupt
 113 0030 00000000 		.word	CyRamVectors
 114 0034 00E400E0 		.word	-536812544
 115 0038 00E100E0 		.word	-536813312
 116              		.cfi_endproc
 117              	.LFE1:
 118              		.size	modbus_rx_interrupt_Start, .-modbus_rx_interrupt_Start
 119              		.section	.text.modbus_rx_interrupt_StartEx,"ax",%progbits
 120              		.align	2
 121              		.global	modbus_rx_interrupt_StartEx
 122              		.code	16
 123              		.thumb_func
 124              		.type	modbus_rx_interrupt_StartEx, %function
 125              	modbus_rx_interrupt_StartEx:
 126              	.LFB2:
 100:Generated_Source\PSoC4/modbus_rx_interrupt.c ****     /* For all we know the interrupt is active. */
 127              		.loc 1 100 0
 128              		.cfi_startproc
 129              	.LVL4:
 130 0000 10B5     		push	{r4, lr}
 131              		.cfi_def_cfa_offset 8
 132              		.cfi_offset 4, -8
 133              		.cfi_offset 14, -4
 134              	.LBB48:
 135              	.LBB49:
 136              		.loc 1 349 0
 137 0002 0124     		mov	r4, #1
 138 0004 074B     		ldr	r3, .L6
 139              	.LBE49:
 140              	.LBE48:
 112:Generated_Source\PSoC4/modbus_rx_interrupt.c **** 
 141              		.loc 1 112 0
 142              		@ sp needed
 143              	.LBB51:
 144              	.LBB50:
 145              		.loc 1 349 0
 146 0006 1C60     		str	r4, [r3]
 147              	.LVL5:
 148              	.LBE50:
 149              	.LBE51:
 150              	.LBB52:
 151              	.LBB53:
 201:Generated_Source\PSoC4/modbus_rx_interrupt.c **** }
ARM GAS  C:\Users\glenn\AppData\Local\Temp\ccMxiTf9.s 			page 10


 152              		.loc 1 201 0
 153 0008 074B     		ldr	r3, .L6+4
 154 000a 1864     		str	r0, [r3, #64]
 155              	.LVL6:
 156              	.LBE53:
 157              	.LBE52:
 158              	.LBB54:
 159              	.LBB55:
 254:Generated_Source\PSoC4/modbus_rx_interrupt.c ****     *modbus_rx_interrupt_INTC_PRIOR = (*modbus_rx_interrupt_INTC_PRIOR & (uint32)(~modbus_rx_interr
 160              		.loc 1 254 0
 161 000c FFF7FEFF 		bl	CyEnterCriticalSection
 162              	.LVL7:
 255:Generated_Source\PSoC4/modbus_rx_interrupt.c ****                                     ((uint32)priority << priorityOffset);
 163              		.loc 1 255 0
 164 0010 C023     		mov	r3, #192
 165 0012 064A     		ldr	r2, .L6+8
 166 0014 1168     		ldr	r1, [r2]
 167 0016 0B43     		orr	r3, r1
 168 0018 1360     		str	r3, [r2]
 257:Generated_Source\PSoC4/modbus_rx_interrupt.c **** }
 169              		.loc 1 257 0
 170 001a FFF7FEFF 		bl	CyExitCriticalSection
 171              	.LVL8:
 172              	.LBE55:
 173              	.LBE54:
 174              	.LBB56:
 175              	.LBB57:
 307:Generated_Source\PSoC4/modbus_rx_interrupt.c **** }
 176              		.loc 1 307 0
 177 001e 044B     		ldr	r3, .L6+12
 178 0020 1C60     		str	r4, [r3]
 179              	.LBE57:
 180              	.LBE56:
 112:Generated_Source\PSoC4/modbus_rx_interrupt.c **** 
 181              		.loc 1 112 0
 182 0022 10BD     		pop	{r4, pc}
 183              	.L7:
 184              		.align	2
 185              	.L6:
 186 0024 80E100E0 		.word	-536813184
 187 0028 00000000 		.word	CyRamVectors
 188 002c 00E400E0 		.word	-536812544
 189 0030 00E100E0 		.word	-536813312
 190              		.cfi_endproc
 191              	.LFE2:
 192              		.size	modbus_rx_interrupt_StartEx, .-modbus_rx_interrupt_StartEx
 193              		.section	.text.modbus_rx_interrupt_Stop,"ax",%progbits
 194              		.align	2
 195              		.global	modbus_rx_interrupt_Stop
 196              		.code	16
 197              		.thumb_func
 198              		.type	modbus_rx_interrupt_Stop, %function
 199              	modbus_rx_interrupt_Stop:
 200              	.LFB3:
 130:Generated_Source\PSoC4/modbus_rx_interrupt.c ****     /* Disable this interrupt. */
 201              		.loc 1 130 0
 202              		.cfi_startproc
ARM GAS  C:\Users\glenn\AppData\Local\Temp\ccMxiTf9.s 			page 11


 203              	.LBB58:
 204              	.LBB59:
 205              		.loc 1 349 0
 206 0000 0122     		mov	r2, #1
 207 0002 034B     		ldr	r3, .L9
 208              	.LBE59:
 209              	.LBE58:
 136:Generated_Source\PSoC4/modbus_rx_interrupt.c **** 
 210              		.loc 1 136 0
 211              		@ sp needed
 212              	.LBB61:
 213              	.LBB60:
 214              		.loc 1 349 0
 215 0004 1A60     		str	r2, [r3]
 216              	.LVL9:
 217              	.LBE60:
 218              	.LBE61:
 219              	.LBB62:
 220              	.LBB63:
 201:Generated_Source\PSoC4/modbus_rx_interrupt.c **** }
 221              		.loc 1 201 0
 222 0006 034A     		ldr	r2, .L9+4
 223 0008 034B     		ldr	r3, .L9+8
 224 000a 1A64     		str	r2, [r3, #64]
 225              	.LBE63:
 226              	.LBE62:
 136:Generated_Source\PSoC4/modbus_rx_interrupt.c **** 
 227              		.loc 1 136 0
 228 000c 7047     		bx	lr
 229              	.L10:
 230 000e C046     		.align	2
 231              	.L9:
 232 0010 80E100E0 		.word	-536813184
 233 0014 00000000 		.word	IntDefaultHandler
 234 0018 00000000 		.word	CyRamVectors
 235              		.cfi_endproc
 236              	.LFE3:
 237              		.size	modbus_rx_interrupt_Stop, .-modbus_rx_interrupt_Stop
 238              		.section	.text.modbus_rx_interrupt_SetVector,"ax",%progbits
 239              		.align	2
 240              		.global	modbus_rx_interrupt_SetVector
 241              		.code	16
 242              		.thumb_func
 243              		.type	modbus_rx_interrupt_SetVector, %function
 244              	modbus_rx_interrupt_SetVector:
 245              	.LFB5:
 200:Generated_Source\PSoC4/modbus_rx_interrupt.c ****     CyRamVectors[CYINT_IRQ_BASE + modbus_rx_interrupt__INTC_NUMBER] = address;
 246              		.loc 1 200 0
 247              		.cfi_startproc
 248              	.LVL10:
 201:Generated_Source\PSoC4/modbus_rx_interrupt.c **** }
 249              		.loc 1 201 0
 250 0000 014B     		ldr	r3, .L12
 202:Generated_Source\PSoC4/modbus_rx_interrupt.c **** 
 251              		.loc 1 202 0
 252              		@ sp needed
 201:Generated_Source\PSoC4/modbus_rx_interrupt.c **** }
ARM GAS  C:\Users\glenn\AppData\Local\Temp\ccMxiTf9.s 			page 12


 253              		.loc 1 201 0
 254 0002 1864     		str	r0, [r3, #64]
 202:Generated_Source\PSoC4/modbus_rx_interrupt.c **** 
 255              		.loc 1 202 0
 256 0004 7047     		bx	lr
 257              	.L13:
 258 0006 C046     		.align	2
 259              	.L12:
 260 0008 00000000 		.word	CyRamVectors
 261              		.cfi_endproc
 262              	.LFE5:
 263              		.size	modbus_rx_interrupt_SetVector, .-modbus_rx_interrupt_SetVector
 264              		.section	.text.modbus_rx_interrupt_GetVector,"ax",%progbits
 265              		.align	2
 266              		.global	modbus_rx_interrupt_GetVector
 267              		.code	16
 268              		.thumb_func
 269              		.type	modbus_rx_interrupt_GetVector, %function
 270              	modbus_rx_interrupt_GetVector:
 271              	.LFB6:
 220:Generated_Source\PSoC4/modbus_rx_interrupt.c ****     return CyRamVectors[CYINT_IRQ_BASE + modbus_rx_interrupt__INTC_NUMBER];
 272              		.loc 1 220 0
 273              		.cfi_startproc
 221:Generated_Source\PSoC4/modbus_rx_interrupt.c **** }
 274              		.loc 1 221 0
 275 0000 014B     		ldr	r3, .L15
 222:Generated_Source\PSoC4/modbus_rx_interrupt.c **** 
 276              		.loc 1 222 0
 277              		@ sp needed
 221:Generated_Source\PSoC4/modbus_rx_interrupt.c **** }
 278              		.loc 1 221 0
 279 0002 186C     		ldr	r0, [r3, #64]
 222:Generated_Source\PSoC4/modbus_rx_interrupt.c **** 
 280              		.loc 1 222 0
 281 0004 7047     		bx	lr
 282              	.L16:
 283 0006 C046     		.align	2
 284              	.L15:
 285 0008 00000000 		.word	CyRamVectors
 286              		.cfi_endproc
 287              	.LFE6:
 288              		.size	modbus_rx_interrupt_GetVector, .-modbus_rx_interrupt_GetVector
 289              		.section	.text.modbus_rx_interrupt_SetPriority,"ax",%progbits
 290              		.align	2
 291              		.global	modbus_rx_interrupt_SetPriority
 292              		.code	16
 293              		.thumb_func
 294              		.type	modbus_rx_interrupt_SetPriority, %function
 295              	modbus_rx_interrupt_SetPriority:
 296              	.LFB7:
 250:Generated_Source\PSoC4/modbus_rx_interrupt.c **** 	uint8 interruptState;
 297              		.loc 1 250 0
 298              		.cfi_startproc
 299              	.LVL11:
 300 0000 10B5     		push	{r4, lr}
 301              		.cfi_def_cfa_offset 8
 302              		.cfi_offset 4, -8
ARM GAS  C:\Users\glenn\AppData\Local\Temp\ccMxiTf9.s 			page 13


 303              		.cfi_offset 14, -4
 250:Generated_Source\PSoC4/modbus_rx_interrupt.c **** 	uint8 interruptState;
 304              		.loc 1 250 0
 305 0002 041C     		mov	r4, r0
 254:Generated_Source\PSoC4/modbus_rx_interrupt.c ****     *modbus_rx_interrupt_INTC_PRIOR = (*modbus_rx_interrupt_INTC_PRIOR & (uint32)(~modbus_rx_interr
 306              		.loc 1 254 0
 307 0004 FFF7FEFF 		bl	CyEnterCriticalSection
 308              	.LVL12:
 255:Generated_Source\PSoC4/modbus_rx_interrupt.c ****                                     ((uint32)priority << priorityOffset);
 309              		.loc 1 255 0
 310 0008 C021     		mov	r1, #192
 311 000a 044A     		ldr	r2, .L18
 256:Generated_Source\PSoC4/modbus_rx_interrupt.c **** 	CyExitCriticalSection(interruptState);
 312              		.loc 1 256 0
 313 000c A401     		lsl	r4, r4, #6
 255:Generated_Source\PSoC4/modbus_rx_interrupt.c ****                                     ((uint32)priority << priorityOffset);
 314              		.loc 1 255 0
 315 000e 1368     		ldr	r3, [r2]
 258:Generated_Source\PSoC4/modbus_rx_interrupt.c **** 
 316              		.loc 1 258 0
 317              		@ sp needed
 255:Generated_Source\PSoC4/modbus_rx_interrupt.c ****                                     ((uint32)priority << priorityOffset);
 318              		.loc 1 255 0
 319 0010 8B43     		bic	r3, r1
 320 0012 2343     		orr	r3, r4
 321 0014 1360     		str	r3, [r2]
 257:Generated_Source\PSoC4/modbus_rx_interrupt.c **** }
 322              		.loc 1 257 0
 323 0016 FFF7FEFF 		bl	CyExitCriticalSection
 324              	.LVL13:
 258:Generated_Source\PSoC4/modbus_rx_interrupt.c **** 
 325              		.loc 1 258 0
 326 001a 10BD     		pop	{r4, pc}
 327              	.L19:
 328              		.align	2
 329              	.L18:
 330 001c 00E400E0 		.word	-536812544
 331              		.cfi_endproc
 332              	.LFE7:
 333              		.size	modbus_rx_interrupt_SetPriority, .-modbus_rx_interrupt_SetPriority
 334              		.section	.text.modbus_rx_interrupt_GetPriority,"ax",%progbits
 335              		.align	2
 336              		.global	modbus_rx_interrupt_GetPriority
 337              		.code	16
 338              		.thumb_func
 339              		.type	modbus_rx_interrupt_GetPriority, %function
 340              	modbus_rx_interrupt_GetPriority:
 341              	.LFB8:
 278:Generated_Source\PSoC4/modbus_rx_interrupt.c ****     uint32 priority;
 342              		.loc 1 278 0
 343              		.cfi_startproc
 344              	.LVL14:
 282:Generated_Source\PSoC4/modbus_rx_interrupt.c **** 
 345              		.loc 1 282 0
 346 0000 024B     		ldr	r3, .L21
 285:Generated_Source\PSoC4/modbus_rx_interrupt.c **** 
 347              		.loc 1 285 0
ARM GAS  C:\Users\glenn\AppData\Local\Temp\ccMxiTf9.s 			page 14


 348              		@ sp needed
 282:Generated_Source\PSoC4/modbus_rx_interrupt.c **** 
 349              		.loc 1 282 0
 350 0002 1868     		ldr	r0, [r3]
 351              	.LVL15:
 352 0004 0006     		lsl	r0, r0, #24
 353              	.LVL16:
 284:Generated_Source\PSoC4/modbus_rx_interrupt.c **** }
 354              		.loc 1 284 0
 355 0006 800F     		lsr	r0, r0, #30
 285:Generated_Source\PSoC4/modbus_rx_interrupt.c **** 
 356              		.loc 1 285 0
 357 0008 7047     		bx	lr
 358              	.L22:
 359 000a C046     		.align	2
 360              	.L21:
 361 000c 00E400E0 		.word	-536812544
 362              		.cfi_endproc
 363              	.LFE8:
 364              		.size	modbus_rx_interrupt_GetPriority, .-modbus_rx_interrupt_GetPriority
 365              		.section	.text.modbus_rx_interrupt_Enable,"ax",%progbits
 366              		.align	2
 367              		.global	modbus_rx_interrupt_Enable
 368              		.code	16
 369              		.thumb_func
 370              		.type	modbus_rx_interrupt_Enable, %function
 371              	modbus_rx_interrupt_Enable:
 372              	.LFB9:
 305:Generated_Source\PSoC4/modbus_rx_interrupt.c ****     /* Enable the general interrupt. */
 373              		.loc 1 305 0
 374              		.cfi_startproc
 307:Generated_Source\PSoC4/modbus_rx_interrupt.c **** }
 375              		.loc 1 307 0
 376 0000 0122     		mov	r2, #1
 377 0002 014B     		ldr	r3, .L24
 308:Generated_Source\PSoC4/modbus_rx_interrupt.c **** 
 378              		.loc 1 308 0
 379              		@ sp needed
 307:Generated_Source\PSoC4/modbus_rx_interrupt.c **** }
 380              		.loc 1 307 0
 381 0004 1A60     		str	r2, [r3]
 308:Generated_Source\PSoC4/modbus_rx_interrupt.c **** 
 382              		.loc 1 308 0
 383 0006 7047     		bx	lr
 384              	.L25:
 385              		.align	2
 386              	.L24:
 387 0008 00E100E0 		.word	-536813312
 388              		.cfi_endproc
 389              	.LFE9:
 390              		.size	modbus_rx_interrupt_Enable, .-modbus_rx_interrupt_Enable
 391              		.section	.text.modbus_rx_interrupt_GetState,"ax",%progbits
 392              		.align	2
 393              		.global	modbus_rx_interrupt_GetState
 394              		.code	16
 395              		.thumb_func
 396              		.type	modbus_rx_interrupt_GetState, %function
ARM GAS  C:\Users\glenn\AppData\Local\Temp\ccMxiTf9.s 			page 15


 397              	modbus_rx_interrupt_GetState:
 398              	.LFB10:
 326:Generated_Source\PSoC4/modbus_rx_interrupt.c ****     /* Get the state of the general interrupt. */
 399              		.loc 1 326 0
 400              		.cfi_startproc
 328:Generated_Source\PSoC4/modbus_rx_interrupt.c **** }
 401              		.loc 1 328 0
 402 0000 0120     		mov	r0, #1
 403 0002 024B     		ldr	r3, .L27
 329:Generated_Source\PSoC4/modbus_rx_interrupt.c **** 
 404              		.loc 1 329 0
 405              		@ sp needed
 328:Generated_Source\PSoC4/modbus_rx_interrupt.c **** }
 406              		.loc 1 328 0
 407 0004 1B68     		ldr	r3, [r3]
 408 0006 1840     		and	r0, r3
 329:Generated_Source\PSoC4/modbus_rx_interrupt.c **** 
 409              		.loc 1 329 0
 410 0008 7047     		bx	lr
 411              	.L28:
 412 000a C046     		.align	2
 413              	.L27:
 414 000c 00E100E0 		.word	-536813312
 415              		.cfi_endproc
 416              	.LFE10:
 417              		.size	modbus_rx_interrupt_GetState, .-modbus_rx_interrupt_GetState
 418              		.section	.text.modbus_rx_interrupt_Disable,"ax",%progbits
 419              		.align	2
 420              		.global	modbus_rx_interrupt_Disable
 421              		.code	16
 422              		.thumb_func
 423              		.type	modbus_rx_interrupt_Disable, %function
 424              	modbus_rx_interrupt_Disable:
 425              	.LFB11:
 347:Generated_Source\PSoC4/modbus_rx_interrupt.c ****     /* Disable the general interrupt. */
 426              		.loc 1 347 0
 427              		.cfi_startproc
 428              		.loc 1 349 0
 429 0000 0122     		mov	r2, #1
 430 0002 014B     		ldr	r3, .L30
 350:Generated_Source\PSoC4/modbus_rx_interrupt.c **** }
 431              		.loc 1 350 0
 432              		@ sp needed
 349:Generated_Source\PSoC4/modbus_rx_interrupt.c **** }
 433              		.loc 1 349 0
 434 0004 1A60     		str	r2, [r3]
 435              		.loc 1 350 0
 436 0006 7047     		bx	lr
 437              	.L31:
 438              		.align	2
 439              	.L30:
 440 0008 80E100E0 		.word	-536813184
 441              		.cfi_endproc
 442              	.LFE11:
 443              		.size	modbus_rx_interrupt_Disable, .-modbus_rx_interrupt_Disable
 444              		.section	.text.modbus_rx_interrupt_SetPending,"ax",%progbits
 445              		.align	2
ARM GAS  C:\Users\glenn\AppData\Local\Temp\ccMxiTf9.s 			page 16


 446              		.global	modbus_rx_interrupt_SetPending
 447              		.code	16
 448              		.thumb_func
 449              		.type	modbus_rx_interrupt_SetPending, %function
 450              	modbus_rx_interrupt_SetPending:
 451              	.LFB12:
 351:Generated_Source\PSoC4/modbus_rx_interrupt.c **** 
 352:Generated_Source\PSoC4/modbus_rx_interrupt.c **** 
 353:Generated_Source\PSoC4/modbus_rx_interrupt.c **** /*******************************************************************************
 354:Generated_Source\PSoC4/modbus_rx_interrupt.c **** * Function Name: modbus_rx_interrupt_SetPending
 355:Generated_Source\PSoC4/modbus_rx_interrupt.c **** ********************************************************************************
 356:Generated_Source\PSoC4/modbus_rx_interrupt.c **** *
 357:Generated_Source\PSoC4/modbus_rx_interrupt.c **** * Summary:
 358:Generated_Source\PSoC4/modbus_rx_interrupt.c **** *   Causes the Interrupt to enter the pending state, a software method of
 359:Generated_Source\PSoC4/modbus_rx_interrupt.c **** *   generating the interrupt.
 360:Generated_Source\PSoC4/modbus_rx_interrupt.c **** *
 361:Generated_Source\PSoC4/modbus_rx_interrupt.c **** * Parameters:
 362:Generated_Source\PSoC4/modbus_rx_interrupt.c **** *   None
 363:Generated_Source\PSoC4/modbus_rx_interrupt.c **** *
 364:Generated_Source\PSoC4/modbus_rx_interrupt.c **** * Return:
 365:Generated_Source\PSoC4/modbus_rx_interrupt.c **** *   None
 366:Generated_Source\PSoC4/modbus_rx_interrupt.c **** *
 367:Generated_Source\PSoC4/modbus_rx_interrupt.c **** * Side Effects:
 368:Generated_Source\PSoC4/modbus_rx_interrupt.c **** *   If interrupts are enabled and the interrupt is set up properly, the ISR is
 369:Generated_Source\PSoC4/modbus_rx_interrupt.c **** *   entered (depending on the priority of this interrupt and other pending 
 370:Generated_Source\PSoC4/modbus_rx_interrupt.c **** *   interrupts).
 371:Generated_Source\PSoC4/modbus_rx_interrupt.c **** *
 372:Generated_Source\PSoC4/modbus_rx_interrupt.c **** *******************************************************************************/
 373:Generated_Source\PSoC4/modbus_rx_interrupt.c **** void modbus_rx_interrupt_SetPending(void)
 374:Generated_Source\PSoC4/modbus_rx_interrupt.c **** {
 452              		.loc 1 374 0
 453              		.cfi_startproc
 375:Generated_Source\PSoC4/modbus_rx_interrupt.c ****     *modbus_rx_interrupt_INTC_SET_PD = modbus_rx_interrupt__INTC_MASK;
 454              		.loc 1 375 0
 455 0000 0122     		mov	r2, #1
 456 0002 014B     		ldr	r3, .L33
 376:Generated_Source\PSoC4/modbus_rx_interrupt.c **** }
 457              		.loc 1 376 0
 458              		@ sp needed
 375:Generated_Source\PSoC4/modbus_rx_interrupt.c ****     *modbus_rx_interrupt_INTC_SET_PD = modbus_rx_interrupt__INTC_MASK;
 459              		.loc 1 375 0
 460 0004 1A60     		str	r2, [r3]
 461              		.loc 1 376 0
 462 0006 7047     		bx	lr
 463              	.L34:
 464              		.align	2
 465              	.L33:
 466 0008 00E200E0 		.word	-536813056
 467              		.cfi_endproc
 468              	.LFE12:
 469              		.size	modbus_rx_interrupt_SetPending, .-modbus_rx_interrupt_SetPending
 470              		.section	.text.modbus_rx_interrupt_ClearPending,"ax",%progbits
 471              		.align	2
 472              		.global	modbus_rx_interrupt_ClearPending
 473              		.code	16
 474              		.thumb_func
 475              		.type	modbus_rx_interrupt_ClearPending, %function
ARM GAS  C:\Users\glenn\AppData\Local\Temp\ccMxiTf9.s 			page 17


 476              	modbus_rx_interrupt_ClearPending:
 477              	.LFB13:
 377:Generated_Source\PSoC4/modbus_rx_interrupt.c **** 
 378:Generated_Source\PSoC4/modbus_rx_interrupt.c **** 
 379:Generated_Source\PSoC4/modbus_rx_interrupt.c **** /*******************************************************************************
 380:Generated_Source\PSoC4/modbus_rx_interrupt.c **** * Function Name: modbus_rx_interrupt_ClearPending
 381:Generated_Source\PSoC4/modbus_rx_interrupt.c **** ********************************************************************************
 382:Generated_Source\PSoC4/modbus_rx_interrupt.c **** *
 383:Generated_Source\PSoC4/modbus_rx_interrupt.c **** * Summary:
 384:Generated_Source\PSoC4/modbus_rx_interrupt.c **** *   Clears a pending interrupt in the interrupt controller.
 385:Generated_Source\PSoC4/modbus_rx_interrupt.c **** *
 386:Generated_Source\PSoC4/modbus_rx_interrupt.c **** *   Note Some interrupt sources are clear-on-read and require the block 
 387:Generated_Source\PSoC4/modbus_rx_interrupt.c **** *   interrupt/status register to be read/cleared with the appropriate block API 
 388:Generated_Source\PSoC4/modbus_rx_interrupt.c **** *   (GPIO, UART, and so on). Otherwise the ISR will continue to remain in 
 389:Generated_Source\PSoC4/modbus_rx_interrupt.c **** *   pending state even though the interrupt itself is cleared using this API.
 390:Generated_Source\PSoC4/modbus_rx_interrupt.c **** *
 391:Generated_Source\PSoC4/modbus_rx_interrupt.c **** * Parameters:
 392:Generated_Source\PSoC4/modbus_rx_interrupt.c **** *   None
 393:Generated_Source\PSoC4/modbus_rx_interrupt.c **** *
 394:Generated_Source\PSoC4/modbus_rx_interrupt.c **** * Return:
 395:Generated_Source\PSoC4/modbus_rx_interrupt.c **** *   None
 396:Generated_Source\PSoC4/modbus_rx_interrupt.c **** *
 397:Generated_Source\PSoC4/modbus_rx_interrupt.c **** *******************************************************************************/
 398:Generated_Source\PSoC4/modbus_rx_interrupt.c **** void modbus_rx_interrupt_ClearPending(void)
 399:Generated_Source\PSoC4/modbus_rx_interrupt.c **** {
 478              		.loc 1 399 0
 479              		.cfi_startproc
 400:Generated_Source\PSoC4/modbus_rx_interrupt.c ****     *modbus_rx_interrupt_INTC_CLR_PD = modbus_rx_interrupt__INTC_MASK;
 480              		.loc 1 400 0
 481 0000 0122     		mov	r2, #1
 482 0002 014B     		ldr	r3, .L36
 401:Generated_Source\PSoC4/modbus_rx_interrupt.c **** }
 483              		.loc 1 401 0
 484              		@ sp needed
 400:Generated_Source\PSoC4/modbus_rx_interrupt.c ****     *modbus_rx_interrupt_INTC_CLR_PD = modbus_rx_interrupt__INTC_MASK;
 485              		.loc 1 400 0
 486 0004 1A60     		str	r2, [r3]
 487              		.loc 1 401 0
 488 0006 7047     		bx	lr
 489              	.L37:
 490              		.align	2
 491              	.L36:
 492 0008 80E200E0 		.word	-536812928
 493              		.cfi_endproc
 494              	.LFE13:
 495              		.size	modbus_rx_interrupt_ClearPending, .-modbus_rx_interrupt_ClearPending
 496              		.text
 497              	.Letext0:
 498              		.file 2 "Generated_Source\\PSoC4/cytypes.h"
 499              		.file 3 "Generated_Source\\PSoC4/CyLib.h"