ARM GAS  C:\Users\glenn\AppData\Local\Temp\cc0Bw9qB.s 			page 1


   1              		.cpu cortex-m0
   2              		.fpu softvfp
   3              		.eabi_attribute 20, 1
   4              		.eabi_attribute 21, 1
   5              		.eabi_attribute 23, 3
   6              		.eabi_attribute 24, 1
   7              		.eabi_attribute 25, 1
   8              		.eabi_attribute 26, 1
   9              		.eabi_attribute 30, 2
  10              		.eabi_attribute 34, 0
  11              		.eabi_attribute 18, 4
  12              		.code	16
  13              		.file	"modbus_serial_ctrl.c"
  14              		.text
  15              	.Ltext0:
  16              		.cfi_sections	.debug_frame
  17              		.section	.text.tx_interrupt,"ax",%progbits
  18              		.align	2
  19              		.global	tx_interrupt
  20              		.code	16
  21              		.thumb_func
  22              		.type	tx_interrupt, %function
  23              	tx_interrupt:
  24              	.LFB69:
  25              		.file 1 "rtu_modbus\\modbus_serial_ctrl.c"
   1:rtu_modbus/modbus_serial_ctrl.c **** /*
   2:rtu_modbus/modbus_serial_ctrl.c **** ** File: modbus_srial_ctrl.c
   3:rtu_modbus/modbus_serial_ctrl.c **** **
   4:rtu_modbus/modbus_serial_ctrl.c **** **
   5:rtu_modbus/modbus_serial_ctrl.c **** */
   6:rtu_modbus/modbus_serial_ctrl.c **** 
   7:rtu_modbus/modbus_serial_ctrl.c **** #include <project.h>
   8:rtu_modbus/modbus_serial_ctrl.c **** #include "modbus_serial_ctrl.h"
   9:rtu_modbus/modbus_serial_ctrl.c **** #include "process_modbus_message.h"
  10:rtu_modbus/modbus_serial_ctrl.c **** #include "cf_events.h"
  11:rtu_modbus/modbus_serial_ctrl.c **** #include "cf_status_bit.h"
  12:rtu_modbus/modbus_serial_ctrl.c **** 
  13:rtu_modbus/modbus_serial_ctrl.c **** 
  14:rtu_modbus/modbus_serial_ctrl.c **** 
  15:rtu_modbus/modbus_serial_ctrl.c **** #define UART_RX_IDLE           0
  16:rtu_modbus/modbus_serial_ctrl.c **** #define UART_RX_ACTIVE_RECEIVE 1
  17:rtu_modbus/modbus_serial_ctrl.c **** #define UART_RX_BAD_ADDRESS    2
  18:rtu_modbus/modbus_serial_ctrl.c **** #define UART_RX_DUMP_STATE     3
  19:rtu_modbus/modbus_serial_ctrl.c **** 
  20:rtu_modbus/modbus_serial_ctrl.c **** #define UART_TX_STATE_IDLE              0
  21:rtu_modbus/modbus_serial_ctrl.c **** #define UART_TX_STATE_TRANSMITTING      1
  22:rtu_modbus/modbus_serial_ctrl.c **** #define UART_TX_STATE_WAIT_FOR_EOT      2
  23:rtu_modbus/modbus_serial_ctrl.c **** 
  24:rtu_modbus/modbus_serial_ctrl.c **** 
  25:rtu_modbus/modbus_serial_ctrl.c **** #define UART_TIMER_IDLE 0
  26:rtu_modbus/modbus_serial_ctrl.c **** #define UART_TIMER_BAD_ADDRESS 1
  27:rtu_modbus/modbus_serial_ctrl.c **** #define UART_TIMER_RX  2
  28:rtu_modbus/modbus_serial_ctrl.c **** 
  29:rtu_modbus/modbus_serial_ctrl.c **** #define RX_FIFO_SIZE 16
  30:rtu_modbus/modbus_serial_ctrl.c **** #define TX_FIFO_SIZE 16
  31:rtu_modbus/modbus_serial_ctrl.c **** #define MODBUS_BUFFER_SIZE 256
  32:rtu_modbus/modbus_serial_ctrl.c **** 
ARM GAS  C:\Users\glenn\AppData\Local\Temp\cc0Bw9qB.s 			page 2


  33:rtu_modbus/modbus_serial_ctrl.c **** static int uart_timer_state;
  34:rtu_modbus/modbus_serial_ctrl.c **** static int uart_rx_state;
  35:rtu_modbus/modbus_serial_ctrl.c **** static int uart_tx_state;
  36:rtu_modbus/modbus_serial_ctrl.c **** // process_rtu_message waits on CF_USB_RTU_EVENT event sent by rx interrupt handler
  37:rtu_modbus/modbus_serial_ctrl.c **** 
  38:rtu_modbus/modbus_serial_ctrl.c **** static int rx_interval_count;
  39:rtu_modbus/modbus_serial_ctrl.c **** 
  40:rtu_modbus/modbus_serial_ctrl.c **** 
  41:rtu_modbus/modbus_serial_ctrl.c **** static uint16 modbus_address;
  42:rtu_modbus/modbus_serial_ctrl.c **** static int modbus_rx_index;
  43:rtu_modbus/modbus_serial_ctrl.c **** static uint8 modbus_in_buffer[MODBUS_BUFFER_SIZE];
  44:rtu_modbus/modbus_serial_ctrl.c **** 
  45:rtu_modbus/modbus_serial_ctrl.c **** static int modbus_tx_index;
  46:rtu_modbus/modbus_serial_ctrl.c **** static int modbus_tx_message_count;
  47:rtu_modbus/modbus_serial_ctrl.c **** static uint8 modbus_out_buffer[MODBUS_BUFFER_SIZE];
  48:rtu_modbus/modbus_serial_ctrl.c **** 
  49:rtu_modbus/modbus_serial_ctrl.c **** static void init_rx_state( void );
  50:rtu_modbus/modbus_serial_ctrl.c **** static void init_processing_state( void );
  51:rtu_modbus/modbus_serial_ctrl.c **** static void init_tx_state( int tx_count );
  52:rtu_modbus/modbus_serial_ctrl.c **** static void abort_rx_state( void );
  53:rtu_modbus/modbus_serial_ctrl.c **** static volatile int read_status_value;
  54:rtu_modbus/modbus_serial_ctrl.c **** 
  55:rtu_modbus/modbus_serial_ctrl.c **** static inline int empty_rx_uart( void )
  56:rtu_modbus/modbus_serial_ctrl.c **** {
  57:rtu_modbus/modbus_serial_ctrl.c ****     int i;
  58:rtu_modbus/modbus_serial_ctrl.c ****     int return_value;
  59:rtu_modbus/modbus_serial_ctrl.c ****     
  60:rtu_modbus/modbus_serial_ctrl.c ****     return_value = 0;
  61:rtu_modbus/modbus_serial_ctrl.c ****     for( i = 0; i < RX_FIFO_SIZE; i++ )
  62:rtu_modbus/modbus_serial_ctrl.c ****     {
  63:rtu_modbus/modbus_serial_ctrl.c ****         read_status_value = UART_1_ReadRxStatus();
  64:rtu_modbus/modbus_serial_ctrl.c ****         if(  read_status_value & UART_1_RX_STS_FIFO_NOTEMPTY )
  65:rtu_modbus/modbus_serial_ctrl.c ****         {
  66:rtu_modbus/modbus_serial_ctrl.c ****             return_value += 1;
  67:rtu_modbus/modbus_serial_ctrl.c ****             modbus_in_buffer[ modbus_rx_index ] = UART_1_ReadRxData();
  68:rtu_modbus/modbus_serial_ctrl.c ****             if( modbus_rx_index > MODBUS_BUFFER_SIZE )
  69:rtu_modbus/modbus_serial_ctrl.c ****             {
  70:rtu_modbus/modbus_serial_ctrl.c ****                 abort_rx_state();
  71:rtu_modbus/modbus_serial_ctrl.c ****             }
  72:rtu_modbus/modbus_serial_ctrl.c ****             else
  73:rtu_modbus/modbus_serial_ctrl.c ****             {
  74:rtu_modbus/modbus_serial_ctrl.c ****                 modbus_rx_index += 1;
  75:rtu_modbus/modbus_serial_ctrl.c ****             }
  76:rtu_modbus/modbus_serial_ctrl.c ****         
  77:rtu_modbus/modbus_serial_ctrl.c ****         }
  78:rtu_modbus/modbus_serial_ctrl.c ****     }
  79:rtu_modbus/modbus_serial_ctrl.c ****     return return_value;
  80:rtu_modbus/modbus_serial_ctrl.c **** }
  81:rtu_modbus/modbus_serial_ctrl.c **** 
  82:rtu_modbus/modbus_serial_ctrl.c **** static inline void dump_rx_uart( void )
  83:rtu_modbus/modbus_serial_ctrl.c **** {
  84:rtu_modbus/modbus_serial_ctrl.c ****     int i;
  85:rtu_modbus/modbus_serial_ctrl.c ****    
  86:rtu_modbus/modbus_serial_ctrl.c ****     for( i = 0; i < RX_FIFO_SIZE; i++ )
  87:rtu_modbus/modbus_serial_ctrl.c ****     {
  88:rtu_modbus/modbus_serial_ctrl.c ****         read_status_value = UART_1_ReadRxStatus();
  89:rtu_modbus/modbus_serial_ctrl.c ****         if(  read_status_value & UART_1_RX_STS_FIFO_NOTEMPTY )
ARM GAS  C:\Users\glenn\AppData\Local\Temp\cc0Bw9qB.s 			page 3


  90:rtu_modbus/modbus_serial_ctrl.c ****         {
  91:rtu_modbus/modbus_serial_ctrl.c ****              UART_1_ReadRxData();
  92:rtu_modbus/modbus_serial_ctrl.c ****          
  93:rtu_modbus/modbus_serial_ctrl.c ****         }
  94:rtu_modbus/modbus_serial_ctrl.c ****         else
  95:rtu_modbus/modbus_serial_ctrl.c ****         {
  96:rtu_modbus/modbus_serial_ctrl.c ****             break;
  97:rtu_modbus/modbus_serial_ctrl.c ****         }
  98:rtu_modbus/modbus_serial_ctrl.c ****     }
  99:rtu_modbus/modbus_serial_ctrl.c ****     
 100:rtu_modbus/modbus_serial_ctrl.c **** }
 101:rtu_modbus/modbus_serial_ctrl.c **** 
 102:rtu_modbus/modbus_serial_ctrl.c **** static inline int check_modbus_address( void )
 103:rtu_modbus/modbus_serial_ctrl.c **** {
 104:rtu_modbus/modbus_serial_ctrl.c ****     int return_value;
 105:rtu_modbus/modbus_serial_ctrl.c ****     if( modbus_in_buffer[0] == modbus_address )
 106:rtu_modbus/modbus_serial_ctrl.c ****     {
 107:rtu_modbus/modbus_serial_ctrl.c ****         return_value = 1;
 108:rtu_modbus/modbus_serial_ctrl.c ****     }
 109:rtu_modbus/modbus_serial_ctrl.c ****     else
 110:rtu_modbus/modbus_serial_ctrl.c ****     {
 111:rtu_modbus/modbus_serial_ctrl.c ****         return_value = 0;
 112:rtu_modbus/modbus_serial_ctrl.c ****     }
 113:rtu_modbus/modbus_serial_ctrl.c ****     return return_value;
 114:rtu_modbus/modbus_serial_ctrl.c ****     
 115:rtu_modbus/modbus_serial_ctrl.c **** }
 116:rtu_modbus/modbus_serial_ctrl.c **** 
 117:rtu_modbus/modbus_serial_ctrl.c **** 
 118:rtu_modbus/modbus_serial_ctrl.c **** CY_ISR_PROTO( rx_interrupt )
 119:rtu_modbus/modbus_serial_ctrl.c **** {
 120:rtu_modbus/modbus_serial_ctrl.c ****    
 121:rtu_modbus/modbus_serial_ctrl.c ****     switch( uart_rx_state )
 122:rtu_modbus/modbus_serial_ctrl.c ****     {
 123:rtu_modbus/modbus_serial_ctrl.c ****         case UART_RX_IDLE:
 124:rtu_modbus/modbus_serial_ctrl.c ****            rx_interval_count = empty_rx_uart();
 125:rtu_modbus/modbus_serial_ctrl.c ****            if( rx_interval_count > 0 )
 126:rtu_modbus/modbus_serial_ctrl.c ****            {
 127:rtu_modbus/modbus_serial_ctrl.c ****               
 128:rtu_modbus/modbus_serial_ctrl.c ****               if( check_modbus_address() > 0 )
 129:rtu_modbus/modbus_serial_ctrl.c ****               {
 130:rtu_modbus/modbus_serial_ctrl.c ****                  uart_rx_state     = UART_RX_ACTIVE_RECEIVE;
 131:rtu_modbus/modbus_serial_ctrl.c ****                  uart_timer_state  = UART_TIMER_RX;
 132:rtu_modbus/modbus_serial_ctrl.c ****               }
 133:rtu_modbus/modbus_serial_ctrl.c ****               else
 134:rtu_modbus/modbus_serial_ctrl.c ****               {
 135:rtu_modbus/modbus_serial_ctrl.c ****                 uart_rx_state = UART_RX_BAD_ADDRESS;
 136:rtu_modbus/modbus_serial_ctrl.c ****                 uart_timer_state = UART_TIMER_BAD_ADDRESS;
 137:rtu_modbus/modbus_serial_ctrl.c ****                
 138:rtu_modbus/modbus_serial_ctrl.c ****               }
 139:rtu_modbus/modbus_serial_ctrl.c ****            }     
 140:rtu_modbus/modbus_serial_ctrl.c ****            break;
 141:rtu_modbus/modbus_serial_ctrl.c ****         
 142:rtu_modbus/modbus_serial_ctrl.c ****         case UART_RX_ACTIVE_RECEIVE:
 143:rtu_modbus/modbus_serial_ctrl.c ****             rx_interval_count = empty_rx_uart();
 144:rtu_modbus/modbus_serial_ctrl.c ****             break;
 145:rtu_modbus/modbus_serial_ctrl.c ****         
 146:rtu_modbus/modbus_serial_ctrl.c ****         case UART_RX_BAD_ADDRESS:
ARM GAS  C:\Users\glenn\AppData\Local\Temp\cc0Bw9qB.s 			page 4


 147:rtu_modbus/modbus_serial_ctrl.c ****             rx_interval_count = empty_rx_uart();
 148:rtu_modbus/modbus_serial_ctrl.c ****             
 149:rtu_modbus/modbus_serial_ctrl.c ****             modbus_rx_index = 0;
 150:rtu_modbus/modbus_serial_ctrl.c ****             break;
 151:rtu_modbus/modbus_serial_ctrl.c ****             
 152:rtu_modbus/modbus_serial_ctrl.c ****        case UART_RX_DUMP_STATE:
 153:rtu_modbus/modbus_serial_ctrl.c ****             dump_rx_uart();
 154:rtu_modbus/modbus_serial_ctrl.c ****             break;
 155:rtu_modbus/modbus_serial_ctrl.c ****             
 156:rtu_modbus/modbus_serial_ctrl.c ****     }
 157:rtu_modbus/modbus_serial_ctrl.c **** 
 158:rtu_modbus/modbus_serial_ctrl.c ****     
 159:rtu_modbus/modbus_serial_ctrl.c **** }
 160:rtu_modbus/modbus_serial_ctrl.c **** 
 161:rtu_modbus/modbus_serial_ctrl.c **** static inline int fill_transmitter( void )
 162:rtu_modbus/modbus_serial_ctrl.c **** { 
 163:rtu_modbus/modbus_serial_ctrl.c ****     while( ( UART_1_ReadTxStatus() & UART_1_TX_STS_FIFO_NOT_FULL ) && ( modbus_tx_message_count > 0
 164:rtu_modbus/modbus_serial_ctrl.c ****     {
 165:rtu_modbus/modbus_serial_ctrl.c ****         UART_1_WriteTxData(modbus_out_buffer[modbus_tx_index]);
 166:rtu_modbus/modbus_serial_ctrl.c ****         modbus_tx_index +=1;
 167:rtu_modbus/modbus_serial_ctrl.c ****         modbus_tx_message_count -= 1;
 168:rtu_modbus/modbus_serial_ctrl.c ****     }
 169:rtu_modbus/modbus_serial_ctrl.c ****     return modbus_tx_message_count;
 170:rtu_modbus/modbus_serial_ctrl.c **** }
 171:rtu_modbus/modbus_serial_ctrl.c **** 
 172:rtu_modbus/modbus_serial_ctrl.c **** CY_ISR_PROTO( tx_interrupt )
 173:rtu_modbus/modbus_serial_ctrl.c **** {
  26              		.loc 1 173 0
  27              		.cfi_startproc
  28 0000 70B5     		push	{r4, r5, r6, lr}
  29              		.cfi_def_cfa_offset 16
  30              		.cfi_offset 4, -16
  31              		.cfi_offset 5, -12
  32              		.cfi_offset 6, -8
  33              		.cfi_offset 14, -4
 174:rtu_modbus/modbus_serial_ctrl.c ****     int status;
 175:rtu_modbus/modbus_serial_ctrl.c ****     switch( uart_tx_state )
  34              		.loc 1 175 0
  35 0002 204D     		ldr	r5, .L15
  36 0004 2B68     		ldr	r3, [r5]
  37 0006 012B     		cmp	r3, #1
  38 0008 1CD0     		beq	.L12
  39 000a 022B     		cmp	r3, #2
  40 000c 06D0     		beq	.L4
  41 000e 002B     		cmp	r3, #0
  42 0010 00D0     		beq	.L13
  43              	.L1:
 176:rtu_modbus/modbus_serial_ctrl.c ****     {
 177:rtu_modbus/modbus_serial_ctrl.c ****         case UART_TX_STATE_IDLE:
 178:rtu_modbus/modbus_serial_ctrl.c ****             UART_1_SetTxInterruptMode( 0   );
 179:rtu_modbus/modbus_serial_ctrl.c ****             break;
 180:rtu_modbus/modbus_serial_ctrl.c ****         
 181:rtu_modbus/modbus_serial_ctrl.c ****         case UART_TX_STATE_TRANSMITTING:
 182:rtu_modbus/modbus_serial_ctrl.c ****             status = fill_transmitter();
 183:rtu_modbus/modbus_serial_ctrl.c ****             if( status == 0 )
 184:rtu_modbus/modbus_serial_ctrl.c ****             {
 185:rtu_modbus/modbus_serial_ctrl.c ****                 uart_tx_state = UART_TX_STATE_WAIT_FOR_EOT;
ARM GAS  C:\Users\glenn\AppData\Local\Temp\cc0Bw9qB.s 			page 5


 186:rtu_modbus/modbus_serial_ctrl.c ****                  UART_1_SetTxInterruptMode( UART_1_TX_STS_COMPLETE   );
 187:rtu_modbus/modbus_serial_ctrl.c ****                 UART_1_SetTxInterruptMode(UART_1_TX_STS_COMPLETE );
 188:rtu_modbus/modbus_serial_ctrl.c ****             }
 189:rtu_modbus/modbus_serial_ctrl.c ****             break;
 190:rtu_modbus/modbus_serial_ctrl.c ****         
 191:rtu_modbus/modbus_serial_ctrl.c ****         case UART_TX_STATE_WAIT_FOR_EOT:
 192:rtu_modbus/modbus_serial_ctrl.c ****               UART_1_Stop();
 193:rtu_modbus/modbus_serial_ctrl.c ****               UART_1_Start();
 194:rtu_modbus/modbus_serial_ctrl.c ****              UART_1_SetTxInterruptMode( 0   );
 195:rtu_modbus/modbus_serial_ctrl.c ****               init_rx_state();
 196:rtu_modbus/modbus_serial_ctrl.c ****               break;
 197:rtu_modbus/modbus_serial_ctrl.c ****     }
 198:rtu_modbus/modbus_serial_ctrl.c **** }
  44              		.loc 1 198 0
  45              		@ sp needed
  46 0012 70BD     		pop	{r4, r5, r6, pc}
  47              	.L13:
 178:rtu_modbus/modbus_serial_ctrl.c ****             break;
  48              		.loc 1 178 0
  49 0014 0020     		mov	r0, #0
  50 0016 FFF7FEFF 		bl	UART_1_SetTxInterruptMode
  51              	.LVL0:
 179:rtu_modbus/modbus_serial_ctrl.c ****         
  52              		.loc 1 179 0
  53 001a FAE7     		b	.L1
  54              	.L4:
 192:rtu_modbus/modbus_serial_ctrl.c ****               UART_1_Start();
  55              		.loc 1 192 0
  56 001c FFF7FEFF 		bl	UART_1_Stop
  57              	.LVL1:
 193:rtu_modbus/modbus_serial_ctrl.c ****              UART_1_SetTxInterruptMode( 0   );
  58              		.loc 1 193 0
  59 0020 FFF7FEFF 		bl	UART_1_Start
  60              	.LVL2:
 194:rtu_modbus/modbus_serial_ctrl.c ****               init_rx_state();
  61              		.loc 1 194 0
  62 0024 0020     		mov	r0, #0
  63 0026 FFF7FEFF 		bl	UART_1_SetTxInterruptMode
  64              	.LVL3:
  65              	.LBB22:
  66              	.LBB23:
 199:rtu_modbus/modbus_serial_ctrl.c **** 
 200:rtu_modbus/modbus_serial_ctrl.c **** void modbus_timer_interrupt( void )
 201:rtu_modbus/modbus_serial_ctrl.c **** {
 202:rtu_modbus/modbus_serial_ctrl.c ****     
 203:rtu_modbus/modbus_serial_ctrl.c ****     switch( uart_timer_state )
 204:rtu_modbus/modbus_serial_ctrl.c ****     {
 205:rtu_modbus/modbus_serial_ctrl.c ****        case UART_TIMER_IDLE:
 206:rtu_modbus/modbus_serial_ctrl.c ****            break; 
 207:rtu_modbus/modbus_serial_ctrl.c ****         
 208:rtu_modbus/modbus_serial_ctrl.c ****        case UART_TIMER_BAD_ADDRESS:  // wait for link to become idle and then reenable modbus rx
 209:rtu_modbus/modbus_serial_ctrl.c ****             if( rx_interval_count == 0 )
 210:rtu_modbus/modbus_serial_ctrl.c ****             {
 211:rtu_modbus/modbus_serial_ctrl.c ****                 init_rx_state();
 212:rtu_modbus/modbus_serial_ctrl.c ****             }
 213:rtu_modbus/modbus_serial_ctrl.c ****             else
 214:rtu_modbus/modbus_serial_ctrl.c ****             {
ARM GAS  C:\Users\glenn\AppData\Local\Temp\cc0Bw9qB.s 			page 6


 215:rtu_modbus/modbus_serial_ctrl.c ****                 rx_interval_count = 0;
 216:rtu_modbus/modbus_serial_ctrl.c ****             }
 217:rtu_modbus/modbus_serial_ctrl.c ****             break;
 218:rtu_modbus/modbus_serial_ctrl.c ****             
 219:rtu_modbus/modbus_serial_ctrl.c ****        case UART_TIMER_RX:
 220:rtu_modbus/modbus_serial_ctrl.c ****             if( rx_interval_count == 0 )
 221:rtu_modbus/modbus_serial_ctrl.c ****             {
 222:rtu_modbus/modbus_serial_ctrl.c ****                 init_processing_state();
 223:rtu_modbus/modbus_serial_ctrl.c ****             }
 224:rtu_modbus/modbus_serial_ctrl.c ****             else
 225:rtu_modbus/modbus_serial_ctrl.c ****             {
 226:rtu_modbus/modbus_serial_ctrl.c ****                 rx_interval_count = 0;
 227:rtu_modbus/modbus_serial_ctrl.c ****             }
 228:rtu_modbus/modbus_serial_ctrl.c ****             break;
 229:rtu_modbus/modbus_serial_ctrl.c ****     }
 230:rtu_modbus/modbus_serial_ctrl.c **** }
 231:rtu_modbus/modbus_serial_ctrl.c **** 
 232:rtu_modbus/modbus_serial_ctrl.c **** static inline void abort_rx_state( void )
 233:rtu_modbus/modbus_serial_ctrl.c **** {
 234:rtu_modbus/modbus_serial_ctrl.c ****      uart_rx_state     =  UART_RX_BAD_ADDRESS;
 235:rtu_modbus/modbus_serial_ctrl.c ****      uart_timer_state  =  UART_RX_IDLE;
 236:rtu_modbus/modbus_serial_ctrl.c ****      modbus_rx_index   = 0;
 237:rtu_modbus/modbus_serial_ctrl.c ****      uart_tx_state     =  UART_TX_STATE_IDLE;
 238:rtu_modbus/modbus_serial_ctrl.c **** }
 239:rtu_modbus/modbus_serial_ctrl.c **** 
 240:rtu_modbus/modbus_serial_ctrl.c **** static inline void init_rx_state( void )
 241:rtu_modbus/modbus_serial_ctrl.c **** {
 242:rtu_modbus/modbus_serial_ctrl.c ****     
 243:rtu_modbus/modbus_serial_ctrl.c ****    rx_interval_count  = 0;
  67              		.loc 1 243 0
  68 002a 0023     		mov	r3, #0
  69 002c 164A     		ldr	r2, .L15+4
 244:rtu_modbus/modbus_serial_ctrl.c ****    modbus_rx_index    = 0;
 245:rtu_modbus/modbus_serial_ctrl.c ****    uart_rx_state      =  UART_RX_IDLE;
 246:rtu_modbus/modbus_serial_ctrl.c ****    uart_timer_state   =  UART_TIMER_IDLE;
 247:rtu_modbus/modbus_serial_ctrl.c ****    uart_tx_state      =  UART_TX_STATE_IDLE;
 248:rtu_modbus/modbus_serial_ctrl.c ****    UART_1_SetTxInterruptMode(  0 );
  70              		.loc 1 248 0
  71 002e 0020     		mov	r0, #0
 243:rtu_modbus/modbus_serial_ctrl.c ****    modbus_rx_index    = 0;
  72              		.loc 1 243 0
  73 0030 D360     		str	r3, [r2, #12]
 244:rtu_modbus/modbus_serial_ctrl.c ****    modbus_rx_index    = 0;
  74              		.loc 1 244 0
  75 0032 1361     		str	r3, [r2, #16]
 245:rtu_modbus/modbus_serial_ctrl.c ****    uart_timer_state   =  UART_TIMER_IDLE;
  76              		.loc 1 245 0
  77 0034 5361     		str	r3, [r2, #20]
 246:rtu_modbus/modbus_serial_ctrl.c ****    uart_tx_state      =  UART_TX_STATE_IDLE;
  78              		.loc 1 246 0
  79 0036 9361     		str	r3, [r2, #24]
 247:rtu_modbus/modbus_serial_ctrl.c ****    UART_1_SetTxInterruptMode(  0 );
  80              		.loc 1 247 0
  81 0038 2B60     		str	r3, [r5]
  82              		.loc 1 248 0
  83 003a FFF7FEFF 		bl	UART_1_SetTxInterruptMode
  84              	.LVL4:
ARM GAS  C:\Users\glenn\AppData\Local\Temp\cc0Bw9qB.s 			page 7


 249:rtu_modbus/modbus_serial_ctrl.c ****    UART_1_ClearTxBuffer(); 
  85              		.loc 1 249 0
  86 003e FFF7FEFF 		bl	UART_1_ClearTxBuffer
  87              	.LVL5:
  88 0042 E6E7     		b	.L1
  89              	.L12:
  90 0044 104C     		ldr	r4, .L15+4
  91              	.LBE23:
  92              	.LBE22:
  93              	.LBB24:
  94              	.LBB25:
 163:rtu_modbus/modbus_serial_ctrl.c ****     {
  95              		.loc 1 163 0
  96 0046 0826     		mov	r6, #8
  97 0048 0CE0     		b	.L3
  98              	.L14:
  99 004a 002B     		cmp	r3, #0
 100 004c 0FDD     		ble	.L7
 165:rtu_modbus/modbus_serial_ctrl.c ****         modbus_tx_index +=1;
 101              		.loc 1 165 0
 102 004e 6368     		ldr	r3, [r4, #4]
 103 0050 EB18     		add	r3, r5, r3
 104 0052 1879     		ldrb	r0, [r3, #4]
 105 0054 FFF7FEFF 		bl	UART_1_WriteTxData
 106              	.LVL6:
 166:rtu_modbus/modbus_serial_ctrl.c ****         modbus_tx_message_count -= 1;
 107              		.loc 1 166 0
 108 0058 6368     		ldr	r3, [r4, #4]
 109 005a 0133     		add	r3, r3, #1
 110 005c 6360     		str	r3, [r4, #4]
 167:rtu_modbus/modbus_serial_ctrl.c ****     }
 111              		.loc 1 167 0
 112 005e A368     		ldr	r3, [r4, #8]
 113 0060 013B     		sub	r3, r3, #1
 114 0062 A360     		str	r3, [r4, #8]
 115              	.L3:
 163:rtu_modbus/modbus_serial_ctrl.c ****     {
 116              		.loc 1 163 0
 117 0064 FFF7FEFF 		bl	UART_1_ReadTxStatus
 118              	.LVL7:
 119 0068 A368     		ldr	r3, [r4, #8]
 120 006a 0642     		tst	r6, r0
 121 006c EDD1     		bne	.L14
 122              	.L7:
 123              	.LBE25:
 124              	.LBE24:
 183:rtu_modbus/modbus_serial_ctrl.c ****             {
 125              		.loc 1 183 0
 126 006e 002B     		cmp	r3, #0
 127 0070 CFD1     		bne	.L1
 128              	.LBB26:
 129              	.LBB27:
 185:rtu_modbus/modbus_serial_ctrl.c ****                  UART_1_SetTxInterruptMode( UART_1_TX_STS_COMPLETE   );
 130              		.loc 1 185 0
 131 0072 0233     		add	r3, r3, #2
 186:rtu_modbus/modbus_serial_ctrl.c ****                 UART_1_SetTxInterruptMode(UART_1_TX_STS_COMPLETE );
 132              		.loc 1 186 0
ARM GAS  C:\Users\glenn\AppData\Local\Temp\cc0Bw9qB.s 			page 8


 133 0074 0120     		mov	r0, #1
 185:rtu_modbus/modbus_serial_ctrl.c ****                  UART_1_SetTxInterruptMode( UART_1_TX_STS_COMPLETE   );
 134              		.loc 1 185 0
 135 0076 2B60     		str	r3, [r5]
 186:rtu_modbus/modbus_serial_ctrl.c ****                 UART_1_SetTxInterruptMode(UART_1_TX_STS_COMPLETE );
 136              		.loc 1 186 0
 137 0078 FFF7FEFF 		bl	UART_1_SetTxInterruptMode
 138              	.LVL8:
 187:rtu_modbus/modbus_serial_ctrl.c ****             }
 139              		.loc 1 187 0
 140 007c 0120     		mov	r0, #1
 141 007e FFF7FEFF 		bl	UART_1_SetTxInterruptMode
 142              	.LVL9:
 143 0082 C6E7     		b	.L1
 144              	.L16:
 145              		.align	2
 146              	.L15:
 147 0084 00000000 		.word	.LANCHOR0
 148 0088 00010000 		.word	.LANCHOR1
 149              	.LBE27:
 150              	.LBE26:
 151              		.cfi_endproc
 152              	.LFE69:
 153              		.size	tx_interrupt, .-tx_interrupt
 154              		.section	.text.rx_interrupt,"ax",%progbits
 155              		.align	2
 156              		.global	rx_interrupt
 157              		.code	16
 158              		.thumb_func
 159              		.type	rx_interrupt, %function
 160              	rx_interrupt:
 161              	.LFB67:
 119:rtu_modbus/modbus_serial_ctrl.c ****    
 162              		.loc 1 119 0
 163              		.cfi_startproc
 164 0000 F0B5     		push	{r4, r5, r6, r7, lr}
 165              		.cfi_def_cfa_offset 20
 166              		.cfi_offset 4, -20
 167              		.cfi_offset 5, -16
 168              		.cfi_offset 6, -12
 169              		.cfi_offset 7, -8
 170              		.cfi_offset 14, -4
 171 0002 5746     		mov	r7, r10
 172 0004 4E46     		mov	r6, r9
 173 0006 4546     		mov	r5, r8
 121:rtu_modbus/modbus_serial_ctrl.c ****     {
 174              		.loc 1 121 0
 175 0008 614C     		ldr	r4, .L62
 119:rtu_modbus/modbus_serial_ctrl.c ****    
 176              		.loc 1 119 0
 177 000a E0B4     		push	{r5, r6, r7}
 178              		.cfi_def_cfa_offset 32
 179              		.cfi_offset 8, -32
 180              		.cfi_offset 9, -28
 181              		.cfi_offset 10, -24
 121:rtu_modbus/modbus_serial_ctrl.c ****     {
 182              		.loc 1 121 0
ARM GAS  C:\Users\glenn\AppData\Local\Temp\cc0Bw9qB.s 			page 9


 183 000c 6369     		ldr	r3, [r4, #20]
 184 000e 012B     		cmp	r3, #1
 185 0010 00D1     		bne	.LCB144
 186 0012 86E0     		b	.L35	@long jump
 187              	.LCB144:
 188 0014 46DD     		ble	.L57
 189 0016 1025     		mov	r5, #16
 190 0018 022B     		cmp	r3, #2
 191 001a 12D0     		beq	.L36
 192              	.LBB46:
 193              	.LBB47:
  89:rtu_modbus/modbus_serial_ctrl.c ****         {
 194              		.loc 1 89 0
 195 001c 2026     		mov	r6, #32
 196              	.LBE47:
 197              	.LBE46:
 121:rtu_modbus/modbus_serial_ctrl.c ****     {
 198              		.loc 1 121 0
 199 001e 032B     		cmp	r3, #3
 200 0020 0AD1     		bne	.L17
 201              	.L46:
 202              	.LVL10:
 203              	.LBB49:
 204              	.LBB48:
  88:rtu_modbus/modbus_serial_ctrl.c ****         if(  read_status_value & UART_1_RX_STS_FIFO_NOTEMPTY )
 205              		.loc 1 88 0
 206 0022 FFF7FEFF 		bl	UART_1_ReadRxStatus
 207              	.LVL11:
 208 0026 E061     		str	r0, [r4, #28]
  89:rtu_modbus/modbus_serial_ctrl.c ****         {
 209              		.loc 1 89 0
 210 0028 E369     		ldr	r3, [r4, #28]
 211 002a 1E42     		tst	r6, r3
 212 002c 04D0     		beq	.L17
 213 002e 013D     		sub	r5, r5, #1
 214              	.LVL12:
  91:rtu_modbus/modbus_serial_ctrl.c ****          
 215              		.loc 1 91 0
 216 0030 FFF7FEFF 		bl	UART_1_ReadRxData
 217              	.LVL13:
  86:rtu_modbus/modbus_serial_ctrl.c ****     {
 218              		.loc 1 86 0
 219 0034 002D     		cmp	r5, #0
 220 0036 F4D1     		bne	.L46
 221              	.L17:
 222              	.LBE48:
 223              	.LBE49:
 159:rtu_modbus/modbus_serial_ctrl.c **** 
 224              		.loc 1 159 0
 225              		@ sp needed
 226 0038 1CBC     		pop	{r2, r3, r4}
 227 003a 9046     		mov	r8, r2
 228 003c 9946     		mov	r9, r3
 229 003e A246     		mov	r10, r4
 230 0040 F0BD     		pop	{r4, r5, r6, r7, pc}
 231              	.L36:
 121:rtu_modbus/modbus_serial_ctrl.c ****     {
ARM GAS  C:\Users\glenn\AppData\Local\Temp\cc0Bw9qB.s 			page 10


 232              		.loc 1 121 0
 233 0042 0023     		mov	r3, #0
 234 0044 9846     		mov	r8, r3
 235              	.LBB50:
 236              	.LBB51:
 237              	.LBB52:
 238              	.LBB53:
 237:rtu_modbus/modbus_serial_ctrl.c **** }
 239              		.loc 1 237 0
 240 0046 534B     		ldr	r3, .L62+4
 241              	.LBE53:
 242              	.LBE52:
  63:rtu_modbus/modbus_serial_ctrl.c ****         if(  read_status_value & UART_1_RX_STS_FIFO_NOTEMPTY )
 243              		.loc 1 63 0
 244 0048 261C     		mov	r6, r4
  64:rtu_modbus/modbus_serial_ctrl.c ****         {
 245              		.loc 1 64 0
 246 004a 2027     		mov	r7, #32
 247              	.LBB56:
 248              	.LBB54:
 237:rtu_modbus/modbus_serial_ctrl.c **** }
 249              		.loc 1 237 0
 250 004c 9946     		mov	r9, r3
 251 004e 02E0     		b	.L22
 252              	.LVL14:
 253              	.L31:
 254 0050 013D     		sub	r5, r5, #1
 255              	.LVL15:
 256              	.LBE54:
 257              	.LBE56:
  61:rtu_modbus/modbus_serial_ctrl.c ****     {
 258              		.loc 1 61 0
 259 0052 002D     		cmp	r5, #0
 260 0054 1FD0     		beq	.L58
 261              	.LVL16:
 262              	.L22:
  63:rtu_modbus/modbus_serial_ctrl.c ****         if(  read_status_value & UART_1_RX_STS_FIFO_NOTEMPTY )
 263              		.loc 1 63 0
 264 0056 FFF7FEFF 		bl	UART_1_ReadRxStatus
 265              	.LVL17:
 266 005a E061     		str	r0, [r4, #28]
  64:rtu_modbus/modbus_serial_ctrl.c ****         {
 267              		.loc 1 64 0
 268 005c E369     		ldr	r3, [r4, #28]
 269 005e 1F42     		tst	r7, r3
 270 0060 F6D0     		beq	.L31
  66:rtu_modbus/modbus_serial_ctrl.c ****             modbus_in_buffer[ modbus_rx_index ] = UART_1_ReadRxData();
 271              		.loc 1 66 0
 272 0062 0123     		mov	r3, #1
 273 0064 9C46     		mov	ip, r3
  67:rtu_modbus/modbus_serial_ctrl.c ****             if( modbus_rx_index > MODBUS_BUFFER_SIZE )
 274              		.loc 1 67 0
 275 0066 3369     		ldr	r3, [r6, #16]
  66:rtu_modbus/modbus_serial_ctrl.c ****             modbus_in_buffer[ modbus_rx_index ] = UART_1_ReadRxData();
 276              		.loc 1 66 0
 277 0068 E044     		add	r8, r8, ip
 278              	.LVL18:
ARM GAS  C:\Users\glenn\AppData\Local\Temp\cc0Bw9qB.s 			page 11


  67:rtu_modbus/modbus_serial_ctrl.c ****             if( modbus_rx_index > MODBUS_BUFFER_SIZE )
 279              		.loc 1 67 0
 280 006a 9A46     		mov	r10, r3
 281 006c FFF7FEFF 		bl	UART_1_ReadRxData
 282              	.LVL19:
 283 0070 331C     		mov	r3, r6
 284 0072 5246     		mov	r2, r10
 285 0074 2033     		add	r3, r3, #32
 286 0076 9854     		strb	r0, [r3, r2]
  68:rtu_modbus/modbus_serial_ctrl.c ****             {
 287              		.loc 1 68 0
 288 0078 8022     		mov	r2, #128
 289 007a 3369     		ldr	r3, [r6, #16]
 290 007c 5200     		lsl	r2, r2, #1
 291 007e 9342     		cmp	r3, r2
 292 0080 0DDD     		ble	.L32
 293              	.LBB57:
 294              	.LBB55:
 234:rtu_modbus/modbus_serial_ctrl.c ****      uart_timer_state  =  UART_RX_IDLE;
 295              		.loc 1 234 0
 296 0082 0223     		mov	r3, #2
 237:rtu_modbus/modbus_serial_ctrl.c **** }
 297              		.loc 1 237 0
 298 0084 4A46     		mov	r2, r9
 234:rtu_modbus/modbus_serial_ctrl.c ****      uart_timer_state  =  UART_RX_IDLE;
 299              		.loc 1 234 0
 300 0086 7361     		str	r3, [r6, #20]
 235:rtu_modbus/modbus_serial_ctrl.c ****      modbus_rx_index   = 0;
 301              		.loc 1 235 0
 302 0088 0023     		mov	r3, #0
 303 008a 013D     		sub	r5, r5, #1
 304              	.LVL20:
 305 008c B361     		str	r3, [r6, #24]
 236:rtu_modbus/modbus_serial_ctrl.c ****      uart_tx_state     =  UART_TX_STATE_IDLE;
 306              		.loc 1 236 0
 307 008e 3361     		str	r3, [r6, #16]
 237:rtu_modbus/modbus_serial_ctrl.c **** }
 308              		.loc 1 237 0
 309 0090 1360     		str	r3, [r2]
 310              	.LVL21:
 311              	.LBE55:
 312              	.LBE57:
  61:rtu_modbus/modbus_serial_ctrl.c ****     {
 313              		.loc 1 61 0
 314 0092 002D     		cmp	r5, #0
 315 0094 DFD1     		bne	.L22
 316              	.L58:
 317              	.LBE51:
 318              	.LBE50:
 147:rtu_modbus/modbus_serial_ctrl.c ****             
 319              		.loc 1 147 0
 320 0096 4346     		mov	r3, r8
 149:rtu_modbus/modbus_serial_ctrl.c ****             break;
 321              		.loc 1 149 0
 322 0098 2561     		str	r5, [r4, #16]
 147:rtu_modbus/modbus_serial_ctrl.c ****             
 323              		.loc 1 147 0
ARM GAS  C:\Users\glenn\AppData\Local\Temp\cc0Bw9qB.s 			page 12


 324 009a E360     		str	r3, [r4, #12]
 150:rtu_modbus/modbus_serial_ctrl.c ****             
 325              		.loc 1 150 0
 326 009c CCE7     		b	.L17
 327              	.LVL22:
 328              	.L32:
 329              	.LBB59:
 330              	.LBB58:
  74:rtu_modbus/modbus_serial_ctrl.c ****             }
 331              		.loc 1 74 0
 332 009e 0133     		add	r3, r3, #1
 333 00a0 3361     		str	r3, [r6, #16]
 334 00a2 D5E7     		b	.L31
 335              	.LVL23:
 336              	.L57:
 337              	.LBE58:
 338              	.LBE59:
 121:rtu_modbus/modbus_serial_ctrl.c ****     {
 339              		.loc 1 121 0
 340 00a4 002B     		cmp	r3, #0
 341 00a6 C7D1     		bne	.L17
 342 00a8 0023     		mov	r3, #0
 343 00aa 9846     		mov	r8, r3
 344              	.LBB60:
 345              	.LBB61:
 346              	.LBB62:
 347              	.LBB63:
 237:rtu_modbus/modbus_serial_ctrl.c **** }
 348              		.loc 1 237 0
 349 00ac 394B     		ldr	r3, .L62+4
 350              	.LBE63:
 351              	.LBE62:
 352              	.LBE61:
 353              	.LBE60:
 121:rtu_modbus/modbus_serial_ctrl.c ****     {
 354              		.loc 1 121 0
 355 00ae 1025     		mov	r5, #16
 356              	.LBB70:
 357              	.LBB68:
  63:rtu_modbus/modbus_serial_ctrl.c ****         if(  read_status_value & UART_1_RX_STS_FIFO_NOTEMPTY )
 358              		.loc 1 63 0
 359 00b0 261C     		mov	r6, r4
  64:rtu_modbus/modbus_serial_ctrl.c ****         {
 360              		.loc 1 64 0
 361 00b2 2027     		mov	r7, #32
 362              	.LBB66:
 363              	.LBB64:
 237:rtu_modbus/modbus_serial_ctrl.c **** }
 364              		.loc 1 237 0
 365 00b4 9946     		mov	r9, r3
 366 00b6 02E0     		b	.L21
 367              	.LVL24:
 368              	.L24:
 369 00b8 013D     		sub	r5, r5, #1
 370              	.LVL25:
 371              	.LBE64:
 372              	.LBE66:
ARM GAS  C:\Users\glenn\AppData\Local\Temp\cc0Bw9qB.s 			page 13


  61:rtu_modbus/modbus_serial_ctrl.c ****     {
 373              		.loc 1 61 0
 374 00ba 002D     		cmp	r5, #0
 375 00bc 1FD0     		beq	.L59
 376              	.LVL26:
 377              	.L21:
  63:rtu_modbus/modbus_serial_ctrl.c ****         if(  read_status_value & UART_1_RX_STS_FIFO_NOTEMPTY )
 378              		.loc 1 63 0
 379 00be FFF7FEFF 		bl	UART_1_ReadRxStatus
 380              	.LVL27:
 381 00c2 E061     		str	r0, [r4, #28]
  64:rtu_modbus/modbus_serial_ctrl.c ****         {
 382              		.loc 1 64 0
 383 00c4 E369     		ldr	r3, [r4, #28]
 384 00c6 1F42     		tst	r7, r3
 385 00c8 F6D0     		beq	.L24
  66:rtu_modbus/modbus_serial_ctrl.c ****             modbus_in_buffer[ modbus_rx_index ] = UART_1_ReadRxData();
 386              		.loc 1 66 0
 387 00ca 0123     		mov	r3, #1
 388 00cc 9C46     		mov	ip, r3
  67:rtu_modbus/modbus_serial_ctrl.c ****             if( modbus_rx_index > MODBUS_BUFFER_SIZE )
 389              		.loc 1 67 0
 390 00ce 3369     		ldr	r3, [r6, #16]
  66:rtu_modbus/modbus_serial_ctrl.c ****             modbus_in_buffer[ modbus_rx_index ] = UART_1_ReadRxData();
 391              		.loc 1 66 0
 392 00d0 E044     		add	r8, r8, ip
 393              	.LVL28:
  67:rtu_modbus/modbus_serial_ctrl.c ****             if( modbus_rx_index > MODBUS_BUFFER_SIZE )
 394              		.loc 1 67 0
 395 00d2 9A46     		mov	r10, r3
 396 00d4 FFF7FEFF 		bl	UART_1_ReadRxData
 397              	.LVL29:
 398 00d8 331C     		mov	r3, r6
 399 00da 5246     		mov	r2, r10
 400 00dc 2033     		add	r3, r3, #32
 401 00de 9854     		strb	r0, [r3, r2]
  68:rtu_modbus/modbus_serial_ctrl.c ****             {
 402              		.loc 1 68 0
 403 00e0 8022     		mov	r2, #128
 404 00e2 3369     		ldr	r3, [r6, #16]
 405 00e4 5200     		lsl	r2, r2, #1
 406 00e6 9342     		cmp	r3, r2
 407 00e8 18DD     		ble	.L25
 408              	.LBB67:
 409              	.LBB65:
 234:rtu_modbus/modbus_serial_ctrl.c ****      uart_timer_state  =  UART_RX_IDLE;
 410              		.loc 1 234 0
 411 00ea 0223     		mov	r3, #2
 237:rtu_modbus/modbus_serial_ctrl.c **** }
 412              		.loc 1 237 0
 413 00ec 4A46     		mov	r2, r9
 234:rtu_modbus/modbus_serial_ctrl.c ****      uart_timer_state  =  UART_RX_IDLE;
 414              		.loc 1 234 0
 415 00ee 7361     		str	r3, [r6, #20]
 235:rtu_modbus/modbus_serial_ctrl.c ****      modbus_rx_index   = 0;
 416              		.loc 1 235 0
 417 00f0 0023     		mov	r3, #0
ARM GAS  C:\Users\glenn\AppData\Local\Temp\cc0Bw9qB.s 			page 14


 418 00f2 013D     		sub	r5, r5, #1
 419              	.LVL30:
 420 00f4 B361     		str	r3, [r6, #24]
 236:rtu_modbus/modbus_serial_ctrl.c ****      uart_tx_state     =  UART_TX_STATE_IDLE;
 421              		.loc 1 236 0
 422 00f6 3361     		str	r3, [r6, #16]
 237:rtu_modbus/modbus_serial_ctrl.c **** }
 423              		.loc 1 237 0
 424 00f8 1360     		str	r3, [r2]
 425              	.LVL31:
 426              	.LBE65:
 427              	.LBE67:
  61:rtu_modbus/modbus_serial_ctrl.c ****     {
 428              		.loc 1 61 0
 429 00fa 002D     		cmp	r5, #0
 430 00fc DFD1     		bne	.L21
 431              	.L59:
 432              	.LBE68:
 433              	.LBE70:
 124:rtu_modbus/modbus_serial_ctrl.c ****            if( rx_interval_count > 0 )
 434              		.loc 1 124 0
 435 00fe 4346     		mov	r3, r8
 436 0100 E360     		str	r3, [r4, #12]
 125:rtu_modbus/modbus_serial_ctrl.c ****            {
 437              		.loc 1 125 0
 438 0102 002B     		cmp	r3, #0
 439 0104 98D0     		beq	.L17
 440              	.LVL32:
 441              	.LBB71:
 442              	.LBB72:
 443              	.LBB73:
 105:rtu_modbus/modbus_serial_ctrl.c ****     {
 444              		.loc 1 105 0
 445 0106 2023     		mov	r3, #32
 446              	.LVL33:
 447 0108 E25C     		ldrb	r2, [r4, r3]
 448 010a 234B     		ldr	r3, .L62+8
 449 010c 1B8C     		ldrh	r3, [r3, #32]
 450 010e 9A42     		cmp	r2, r3
 451 0110 38D0     		beq	.L60
 452              	.LVL34:
 453              	.LBE73:
 454              	.LBE72:
 135:rtu_modbus/modbus_serial_ctrl.c ****                 uart_timer_state = UART_TIMER_BAD_ADDRESS;
 455              		.loc 1 135 0
 456 0112 0223     		mov	r3, #2
 457 0114 6361     		str	r3, [r4, #20]
 136:rtu_modbus/modbus_serial_ctrl.c ****                
 458              		.loc 1 136 0
 459 0116 013B     		sub	r3, r3, #1
 460 0118 A361     		str	r3, [r4, #24]
 461 011a 8DE7     		b	.L17
 462              	.LVL35:
 463              	.L25:
 464              	.LBE71:
 465              	.LBB74:
 466              	.LBB69:
ARM GAS  C:\Users\glenn\AppData\Local\Temp\cc0Bw9qB.s 			page 15


  74:rtu_modbus/modbus_serial_ctrl.c ****             }
 467              		.loc 1 74 0
 468 011c 0133     		add	r3, r3, #1
 469 011e 3361     		str	r3, [r6, #16]
 470 0120 CAE7     		b	.L24
 471              	.LVL36:
 472              	.L35:
 473              	.LBE69:
 474              	.LBE74:
 121:rtu_modbus/modbus_serial_ctrl.c ****     {
 475              		.loc 1 121 0
 476 0122 0023     		mov	r3, #0
 477 0124 9846     		mov	r8, r3
 478              	.LBB75:
 479              	.LBB76:
 480              	.LBB77:
 481              	.LBB78:
 237:rtu_modbus/modbus_serial_ctrl.c **** }
 482              		.loc 1 237 0
 483 0126 1B4B     		ldr	r3, .L62+4
 484              	.LBE78:
 485              	.LBE77:
 486              	.LBE76:
 487              	.LBE75:
 121:rtu_modbus/modbus_serial_ctrl.c ****     {
 488              		.loc 1 121 0
 489 0128 1025     		mov	r5, #16
 490              	.LBB85:
 491              	.LBB83:
  63:rtu_modbus/modbus_serial_ctrl.c ****         if(  read_status_value & UART_1_RX_STS_FIFO_NOTEMPTY )
 492              		.loc 1 63 0
 493 012a 261C     		mov	r6, r4
  64:rtu_modbus/modbus_serial_ctrl.c ****         {
 494              		.loc 1 64 0
 495 012c 2027     		mov	r7, #32
 496              	.LBB81:
 497              	.LBB79:
 237:rtu_modbus/modbus_serial_ctrl.c **** }
 498              		.loc 1 237 0
 499 012e 9946     		mov	r9, r3
 500 0130 02E0     		b	.L19
 501              	.LVL37:
 502              	.L29:
 503 0132 013D     		sub	r5, r5, #1
 504              	.LVL38:
 505              	.LBE79:
 506              	.LBE81:
  61:rtu_modbus/modbus_serial_ctrl.c ****     {
 507              		.loc 1 61 0
 508 0134 002D     		cmp	r5, #0
 509 0136 1FD0     		beq	.L61
 510              	.LVL39:
 511              	.L19:
  63:rtu_modbus/modbus_serial_ctrl.c ****         if(  read_status_value & UART_1_RX_STS_FIFO_NOTEMPTY )
 512              		.loc 1 63 0
 513 0138 FFF7FEFF 		bl	UART_1_ReadRxStatus
 514              	.LVL40:
ARM GAS  C:\Users\glenn\AppData\Local\Temp\cc0Bw9qB.s 			page 16


 515 013c E061     		str	r0, [r4, #28]
  64:rtu_modbus/modbus_serial_ctrl.c ****         {
 516              		.loc 1 64 0
 517 013e E369     		ldr	r3, [r4, #28]
 518 0140 1F42     		tst	r7, r3
 519 0142 F6D0     		beq	.L29
  66:rtu_modbus/modbus_serial_ctrl.c ****             modbus_in_buffer[ modbus_rx_index ] = UART_1_ReadRxData();
 520              		.loc 1 66 0
 521 0144 0123     		mov	r3, #1
 522 0146 9C46     		mov	ip, r3
  67:rtu_modbus/modbus_serial_ctrl.c ****             if( modbus_rx_index > MODBUS_BUFFER_SIZE )
 523              		.loc 1 67 0
 524 0148 3369     		ldr	r3, [r6, #16]
  66:rtu_modbus/modbus_serial_ctrl.c ****             modbus_in_buffer[ modbus_rx_index ] = UART_1_ReadRxData();
 525              		.loc 1 66 0
 526 014a E044     		add	r8, r8, ip
 527              	.LVL41:
  67:rtu_modbus/modbus_serial_ctrl.c ****             if( modbus_rx_index > MODBUS_BUFFER_SIZE )
 528              		.loc 1 67 0
 529 014c 9A46     		mov	r10, r3
 530 014e FFF7FEFF 		bl	UART_1_ReadRxData
 531              	.LVL42:
 532 0152 331C     		mov	r3, r6
 533 0154 5246     		mov	r2, r10
 534 0156 2033     		add	r3, r3, #32
 535 0158 9854     		strb	r0, [r3, r2]
  68:rtu_modbus/modbus_serial_ctrl.c ****             {
 536              		.loc 1 68 0
 537 015a 8022     		mov	r2, #128
 538 015c 3369     		ldr	r3, [r6, #16]
 539 015e 5200     		lsl	r2, r2, #1
 540 0160 9342     		cmp	r3, r2
 541 0162 0CDD     		ble	.L30
 542              	.LBB82:
 543              	.LBB80:
 234:rtu_modbus/modbus_serial_ctrl.c ****      uart_timer_state  =  UART_RX_IDLE;
 544              		.loc 1 234 0
 545 0164 0223     		mov	r3, #2
 237:rtu_modbus/modbus_serial_ctrl.c **** }
 546              		.loc 1 237 0
 547 0166 4A46     		mov	r2, r9
 234:rtu_modbus/modbus_serial_ctrl.c ****      uart_timer_state  =  UART_RX_IDLE;
 548              		.loc 1 234 0
 549 0168 7361     		str	r3, [r6, #20]
 235:rtu_modbus/modbus_serial_ctrl.c ****      modbus_rx_index   = 0;
 550              		.loc 1 235 0
 551 016a 0023     		mov	r3, #0
 552 016c 013D     		sub	r5, r5, #1
 553              	.LVL43:
 554 016e B361     		str	r3, [r6, #24]
 236:rtu_modbus/modbus_serial_ctrl.c ****      uart_tx_state     =  UART_TX_STATE_IDLE;
 555              		.loc 1 236 0
 556 0170 3361     		str	r3, [r6, #16]
 237:rtu_modbus/modbus_serial_ctrl.c **** }
 557              		.loc 1 237 0
 558 0172 1360     		str	r3, [r2]
 559              	.LVL44:
ARM GAS  C:\Users\glenn\AppData\Local\Temp\cc0Bw9qB.s 			page 17


 560              	.LBE80:
 561              	.LBE82:
  61:rtu_modbus/modbus_serial_ctrl.c ****     {
 562              		.loc 1 61 0
 563 0174 002D     		cmp	r5, #0
 564 0176 DFD1     		bne	.L19
 565              	.L61:
 566              	.LBE83:
 567              	.LBE85:
 143:rtu_modbus/modbus_serial_ctrl.c ****             break;
 568              		.loc 1 143 0
 569 0178 4346     		mov	r3, r8
 570 017a E360     		str	r3, [r4, #12]
 144:rtu_modbus/modbus_serial_ctrl.c ****         
 571              		.loc 1 144 0
 572 017c 5CE7     		b	.L17
 573              	.LVL45:
 574              	.L30:
 575              	.LBB86:
 576              	.LBB84:
  74:rtu_modbus/modbus_serial_ctrl.c ****             }
 577              		.loc 1 74 0
 578 017e 0133     		add	r3, r3, #1
 579 0180 3361     		str	r3, [r6, #16]
 580 0182 D6E7     		b	.L29
 581              	.LVL46:
 582              	.L60:
 583              	.LBE84:
 584              	.LBE86:
 585              	.LBB87:
 130:rtu_modbus/modbus_serial_ctrl.c ****                  uart_timer_state  = UART_TIMER_RX;
 586              		.loc 1 130 0
 587 0184 0123     		mov	r3, #1
 588 0186 6361     		str	r3, [r4, #20]
 131:rtu_modbus/modbus_serial_ctrl.c ****               }
 589              		.loc 1 131 0
 590 0188 0133     		add	r3, r3, #1
 591 018a A361     		str	r3, [r4, #24]
 592 018c 54E7     		b	.L17
 593              	.L63:
 594 018e C046     		.align	2
 595              	.L62:
 596 0190 00010000 		.word	.LANCHOR1
 597 0194 00000000 		.word	.LANCHOR0
 598 0198 00020000 		.word	.LANCHOR2
 599              	.LBE87:
 600              		.cfi_endproc
 601              	.LFE67:
 602              		.size	rx_interrupt, .-rx_interrupt
 603              		.section	.text.modbus_timer_interrupt,"ax",%progbits
 604              		.align	2
 605              		.global	modbus_timer_interrupt
 606              		.code	16
 607              		.thumb_func
 608              		.type	modbus_timer_interrupt, %function
 609              	modbus_timer_interrupt:
 610              	.LFB70:
ARM GAS  C:\Users\glenn\AppData\Local\Temp\cc0Bw9qB.s 			page 18


 201:rtu_modbus/modbus_serial_ctrl.c ****     
 611              		.loc 1 201 0
 612              		.cfi_startproc
 613 0000 38B5     		push	{r3, r4, r5, lr}
 614              		.cfi_def_cfa_offset 16
 615              		.cfi_offset 3, -16
 616              		.cfi_offset 4, -12
 617              		.cfi_offset 5, -8
 618              		.cfi_offset 14, -4
 203:rtu_modbus/modbus_serial_ctrl.c ****     {
 619              		.loc 1 203 0
 620 0002 104C     		ldr	r4, .L70
 621 0004 A369     		ldr	r3, [r4, #24]
 622 0006 012B     		cmp	r3, #1
 623 0008 07D0     		beq	.L66
 624 000a 022B     		cmp	r3, #2
 625 000c 04D1     		bne	.L64
 220:rtu_modbus/modbus_serial_ctrl.c ****             {
 626              		.loc 1 220 0
 627 000e E568     		ldr	r5, [r4, #12]
 628 0010 002D     		cmp	r5, #0
 629 0012 10D0     		beq	.L69
 630              	.L68:
 215:rtu_modbus/modbus_serial_ctrl.c ****             }
 631              		.loc 1 215 0
 632 0014 0023     		mov	r3, #0
 633 0016 E360     		str	r3, [r4, #12]
 634              	.L64:
 230:rtu_modbus/modbus_serial_ctrl.c **** 
 635              		.loc 1 230 0
 636              		@ sp needed
 637 0018 38BD     		pop	{r3, r4, r5, pc}
 638              	.L66:
 209:rtu_modbus/modbus_serial_ctrl.c ****             {
 639              		.loc 1 209 0
 640 001a E368     		ldr	r3, [r4, #12]
 641 001c 002B     		cmp	r3, #0
 642 001e F9D1     		bne	.L68
 643              	.LBB92:
 644              	.LBB93:
 247:rtu_modbus/modbus_serial_ctrl.c ****    UART_1_SetTxInterruptMode(  0 );
 645              		.loc 1 247 0
 646 0020 094A     		ldr	r2, .L70+4
 248:rtu_modbus/modbus_serial_ctrl.c ****    UART_1_ClearTxBuffer(); 
 647              		.loc 1 248 0
 648 0022 0020     		mov	r0, #0
 244:rtu_modbus/modbus_serial_ctrl.c ****    uart_rx_state      =  UART_RX_IDLE;
 649              		.loc 1 244 0
 650 0024 2361     		str	r3, [r4, #16]
 245:rtu_modbus/modbus_serial_ctrl.c ****    uart_timer_state   =  UART_TIMER_IDLE;
 651              		.loc 1 245 0
 652 0026 6361     		str	r3, [r4, #20]
 246:rtu_modbus/modbus_serial_ctrl.c ****    uart_tx_state      =  UART_TX_STATE_IDLE;
 653              		.loc 1 246 0
 654 0028 A361     		str	r3, [r4, #24]
 247:rtu_modbus/modbus_serial_ctrl.c ****    UART_1_SetTxInterruptMode(  0 );
 655              		.loc 1 247 0
ARM GAS  C:\Users\glenn\AppData\Local\Temp\cc0Bw9qB.s 			page 19


 656 002a 1360     		str	r3, [r2]
 248:rtu_modbus/modbus_serial_ctrl.c ****    UART_1_ClearTxBuffer(); 
 657              		.loc 1 248 0
 658 002c FFF7FEFF 		bl	UART_1_SetTxInterruptMode
 659              	.LVL47:
 660              		.loc 1 249 0
 661 0030 FFF7FEFF 		bl	UART_1_ClearTxBuffer
 662              	.LVL48:
 663 0034 F0E7     		b	.L64
 664              	.L69:
 665              	.LBE93:
 666              	.LBE92:
 667              	.LBB94:
 668              	.LBB95:
 250:rtu_modbus/modbus_serial_ctrl.c ****   
 251:rtu_modbus/modbus_serial_ctrl.c ****    
 252:rtu_modbus/modbus_serial_ctrl.c **** }
 253:rtu_modbus/modbus_serial_ctrl.c **** 
 254:rtu_modbus/modbus_serial_ctrl.c **** static inline void init_processing_state( void )
 255:rtu_modbus/modbus_serial_ctrl.c **** {
 256:rtu_modbus/modbus_serial_ctrl.c ****     cf_set_interrupt_status_bit( CF_PROCESS_MODBUS );
 669              		.loc 1 256 0
 670 0036 0220     		mov	r0, #2
 671 0038 FFF7FEFF 		bl	cf_set_interrupt_status_bit
 672              	.LVL49:
 257:rtu_modbus/modbus_serial_ctrl.c ****     uart_rx_state      =  UART_RX_DUMP_STATE;
 673              		.loc 1 257 0
 674 003c 0323     		mov	r3, #3
 258:rtu_modbus/modbus_serial_ctrl.c ****     uart_timer_state   = UART_TIMER_IDLE;
 675              		.loc 1 258 0
 676 003e A561     		str	r5, [r4, #24]
 257:rtu_modbus/modbus_serial_ctrl.c ****     uart_rx_state      =  UART_RX_DUMP_STATE;
 677              		.loc 1 257 0
 678 0040 6361     		str	r3, [r4, #20]
 679 0042 E9E7     		b	.L64
 680              	.L71:
 681              		.align	2
 682              	.L70:
 683 0044 00010000 		.word	.LANCHOR1
 684 0048 00000000 		.word	.LANCHOR0
 685              	.LBE95:
 686              	.LBE94:
 687              		.cfi_endproc
 688              	.LFE70:
 689              		.size	modbus_timer_interrupt, .-modbus_timer_interrupt
 690              		.section	.text.initialize_modbus_rtu,"ax",%progbits
 691              		.align	2
 692              		.global	initialize_modbus_rtu
 693              		.code	16
 694              		.thumb_func
 695              		.type	initialize_modbus_rtu, %function
 696              	initialize_modbus_rtu:
 697              	.LFB75:
 259:rtu_modbus/modbus_serial_ctrl.c **** }
 260:rtu_modbus/modbus_serial_ctrl.c **** 
 261:rtu_modbus/modbus_serial_ctrl.c **** 
 262:rtu_modbus/modbus_serial_ctrl.c **** static inline void init_tx_state( int out_count )
ARM GAS  C:\Users\glenn\AppData\Local\Temp\cc0Bw9qB.s 			page 20


 263:rtu_modbus/modbus_serial_ctrl.c **** {
 264:rtu_modbus/modbus_serial_ctrl.c ****    if( out_count > 200)
 265:rtu_modbus/modbus_serial_ctrl.c ****    {
 266:rtu_modbus/modbus_serial_ctrl.c ****      CYASSERT(0);  // this should not happen
 267:rtu_modbus/modbus_serial_ctrl.c ****    }
 268:rtu_modbus/modbus_serial_ctrl.c ****    modbus_tx_index  = 0;
 269:rtu_modbus/modbus_serial_ctrl.c ****    modbus_tx_message_count = out_count;
 270:rtu_modbus/modbus_serial_ctrl.c ****    uart_timer_state   = UART_TIMER_IDLE;
 271:rtu_modbus/modbus_serial_ctrl.c ****    uart_tx_state     =  UART_TX_STATE_TRANSMITTING;
 272:rtu_modbus/modbus_serial_ctrl.c ****    UART_1_SetTxInterruptMode(  UART_1_TX_STS_FIFO_NOT_FULL  );
 273:rtu_modbus/modbus_serial_ctrl.c ****    
 274:rtu_modbus/modbus_serial_ctrl.c ****    fill_transmitter();
 275:rtu_modbus/modbus_serial_ctrl.c **** }
 276:rtu_modbus/modbus_serial_ctrl.c **** 
 277:rtu_modbus/modbus_serial_ctrl.c **** 
 278:rtu_modbus/modbus_serial_ctrl.c **** 
 279:rtu_modbus/modbus_serial_ctrl.c **** int initialize_modbus_rtu(void)
 280:rtu_modbus/modbus_serial_ctrl.c **** {
 698              		.loc 1 280 0
 699              		.cfi_startproc
 700 0000 38B5     		push	{r3, r4, r5, lr}
 701              		.cfi_def_cfa_offset 16
 702              		.cfi_offset 3, -16
 703              		.cfi_offset 4, -12
 704              		.cfi_offset 5, -8
 705              		.cfi_offset 14, -4
 281:rtu_modbus/modbus_serial_ctrl.c ****     uart_timer_state = UART_TIMER_IDLE;
 706              		.loc 1 281 0
 707 0002 0024     		mov	r4, #0
 708 0004 104D     		ldr	r5, .L73
 282:rtu_modbus/modbus_serial_ctrl.c ****     uart_rx_state    = UART_RX_IDLE;
 283:rtu_modbus/modbus_serial_ctrl.c ****     uart_timer_state = UART_TIMER_IDLE;
 284:rtu_modbus/modbus_serial_ctrl.c ****     UART_1_Start();
 285:rtu_modbus/modbus_serial_ctrl.c ****     UART_1_SetRxInterruptMode(UART_1_RX_STS_FIFO_NOTEMPTY );
 286:rtu_modbus/modbus_serial_ctrl.c ****  
 287:rtu_modbus/modbus_serial_ctrl.c **** 
 288:rtu_modbus/modbus_serial_ctrl.c ****     modbus_rx_interrupt_StartEx(rx_interrupt); 
 289:rtu_modbus/modbus_serial_ctrl.c ****     UART_1_SetTxInterruptMode(  0 );
 290:rtu_modbus/modbus_serial_ctrl.c ****     modbus_tx_interrupt_StartEx(tx_interrupt); 
 291:rtu_modbus/modbus_serial_ctrl.c ****   
 292:rtu_modbus/modbus_serial_ctrl.c ****  
 293:rtu_modbus/modbus_serial_ctrl.c ****     // find modbus address
 294:rtu_modbus/modbus_serial_ctrl.c ****     modbus_address = get_modbus_address();
 295:rtu_modbus/modbus_serial_ctrl.c **** 
 296:rtu_modbus/modbus_serial_ctrl.c ****     init_rx_state();
 297:rtu_modbus/modbus_serial_ctrl.c ****       
 298:rtu_modbus/modbus_serial_ctrl.c ****     return CF_DISABLE; // TBD Right now
 299:rtu_modbus/modbus_serial_ctrl.c **** }
 709              		.loc 1 299 0
 710              		@ sp needed
 281:rtu_modbus/modbus_serial_ctrl.c ****     uart_timer_state = UART_TIMER_IDLE;
 711              		.loc 1 281 0
 712 0006 AC61     		str	r4, [r5, #24]
 282:rtu_modbus/modbus_serial_ctrl.c ****     uart_rx_state    = UART_RX_IDLE;
 713              		.loc 1 282 0
 714 0008 6C61     		str	r4, [r5, #20]
 284:rtu_modbus/modbus_serial_ctrl.c ****     UART_1_SetRxInterruptMode(UART_1_RX_STS_FIFO_NOTEMPTY );
ARM GAS  C:\Users\glenn\AppData\Local\Temp\cc0Bw9qB.s 			page 21


 715              		.loc 1 284 0
 716 000a FFF7FEFF 		bl	UART_1_Start
 717              	.LVL50:
 285:rtu_modbus/modbus_serial_ctrl.c ****  
 718              		.loc 1 285 0
 719 000e 2020     		mov	r0, #32
 720 0010 FFF7FEFF 		bl	UART_1_SetRxInterruptMode
 721              	.LVL51:
 288:rtu_modbus/modbus_serial_ctrl.c ****     UART_1_SetTxInterruptMode(  0 );
 722              		.loc 1 288 0
 723 0014 0D48     		ldr	r0, .L73+4
 724 0016 FFF7FEFF 		bl	modbus_rx_interrupt_StartEx
 725              	.LVL52:
 289:rtu_modbus/modbus_serial_ctrl.c ****     modbus_tx_interrupt_StartEx(tx_interrupt); 
 726              		.loc 1 289 0
 727 001a 0020     		mov	r0, #0
 728 001c FFF7FEFF 		bl	UART_1_SetTxInterruptMode
 729              	.LVL53:
 290:rtu_modbus/modbus_serial_ctrl.c ****   
 730              		.loc 1 290 0
 731 0020 0B48     		ldr	r0, .L73+8
 732 0022 FFF7FEFF 		bl	modbus_tx_interrupt_StartEx
 733              	.LVL54:
 734              	.LBB100:
 735              	.LBB101:
 736              		.file 2 "rtu_modbus\\process_modbus_message.h"
   1:rtu_modbus/process_modbus_message.h **** 
   2:rtu_modbus/process_modbus_message.h **** /*
   3:rtu_modbus/process_modbus_message.h **** **
   4:rtu_modbus/process_modbus_message.h **** ** File: process_modbus_message.h
   5:rtu_modbus/process_modbus_message.h **** **
   6:rtu_modbus/process_modbus_message.h **** **/
   7:rtu_modbus/process_modbus_message.h **** 
   8:rtu_modbus/process_modbus_message.h **** #ifndef _PROCESS_MODBUS_MESSAGE_H_
   9:rtu_modbus/process_modbus_message.h **** #define _PROCESS_MODBUS_MESSAGE_H_
  10:rtu_modbus/process_modbus_message.h ****     
  11:rtu_modbus/process_modbus_message.h **** #include <project.h>
  12:rtu_modbus/process_modbus_message.h **** 
  13:rtu_modbus/process_modbus_message.h ****     
  14:rtu_modbus/process_modbus_message.h **** #define MODBUS_REGISTER_LENGTH 256
  15:rtu_modbus/process_modbus_message.h **** 
  16:rtu_modbus/process_modbus_message.h **** /*
  17:rtu_modbus/process_modbus_message.h **** **
  18:rtu_modbus/process_modbus_message.h **** ** Modbus Register Definitions
  19:rtu_modbus/process_modbus_message.h **** **
  20:rtu_modbus/process_modbus_message.h **** */ 
  21:rtu_modbus/process_modbus_message.h **** 
  22:rtu_modbus/process_modbus_message.h **** 
  23:rtu_modbus/process_modbus_message.h ****     
  24:rtu_modbus/process_modbus_message.h **** // System Definitions
  25:rtu_modbus/process_modbus_message.h ****     
  26:rtu_modbus/process_modbus_message.h **** #define MOD_UNIT_ID                     0
  27:rtu_modbus/process_modbus_message.h **** 
  28:rtu_modbus/process_modbus_message.h **** #define MOD_RTU_WATCH_DOG_FLAG          1
  29:rtu_modbus/process_modbus_message.h **** #define MOD_CONTROLLER_WATCH_DOG_FLAG   2
  30:rtu_modbus/process_modbus_message.h **** #define MOD_COMMISSIONING_FLAG          3
  31:rtu_modbus/process_modbus_message.h **** #define MOD_POWER_UP_EVENT              4
ARM GAS  C:\Users\glenn\AppData\Local\Temp\cc0Bw9qB.s 			page 22


  32:rtu_modbus/process_modbus_message.h **** #define MOD_RESET_REASON                5
  33:rtu_modbus/process_modbus_message.h **** #define MOD_MINUTE_ROLLOVER             6
  34:rtu_modbus/process_modbus_message.h **** 
  35:rtu_modbus/process_modbus_message.h **** // contains 4 modbus registers 64 bit.
  36:rtu_modbus/process_modbus_message.h **** #define MOD_RTU_UNIX_TIME               8
  37:rtu_modbus/process_modbus_message.h **** 
  38:rtu_modbus/process_modbus_message.h **** 
  39:rtu_modbus/process_modbus_message.h **** #define ONE_WIRE_DEVICE_FOUND              13  
  40:rtu_modbus/process_modbus_message.h **** #define NEW_MOISTURE_DATA_FLAG             14
  41:rtu_modbus/process_modbus_message.h **** #define AIR_HUMIDITY_FLOAT                 15        
  42:rtu_modbus/process_modbus_message.h **** #define AIR_TEMP_FLOAT                     17
  43:rtu_modbus/process_modbus_message.h **** #define MOISTURE_SOIL_TEMP_FLOAT           19
  44:rtu_modbus/process_modbus_message.h **** #define RESISTOR_FLOAT                     21
  45:rtu_modbus/process_modbus_message.h **** 
  46:rtu_modbus/process_modbus_message.h ****   
  47:rtu_modbus/process_modbus_message.h ****     
  48:rtu_modbus/process_modbus_message.h **** #define RESISTIVE_SENSOR_1_FLOAT         30
  49:rtu_modbus/process_modbus_message.h **** #define RESISTIVE_SENSOR_2_FLOAT         32
  50:rtu_modbus/process_modbus_message.h **** #define RESISTIVE_SENSOR_3_FLOAT         34
  51:rtu_modbus/process_modbus_message.h **** #define RESISTIVE_SENSOR_4_FLOAT         36
  52:rtu_modbus/process_modbus_message.h **** #define RESISTIVE_SENSOR_5_FLOAT         38
  53:rtu_modbus/process_modbus_message.h **** #define RESISTIVE_SENSOR_6_FLOAT         40
  54:rtu_modbus/process_modbus_message.h **** #define RESISTIVE_SENSOR_7_FLOAT         42
  55:rtu_modbus/process_modbus_message.h **** #define RESISTIVE_SENSOR_8_FLOAT         44   
  56:rtu_modbus/process_modbus_message.h **** #define RESISTIVE_SENSOR_9_FLOAT         46
  57:rtu_modbus/process_modbus_message.h **** #define RESISTIVE_SENSOR_10_FLOAT        48
  58:rtu_modbus/process_modbus_message.h **** #define RESISTIVE_SENSOR_11_FLOAT        50
  59:rtu_modbus/process_modbus_message.h **** #define RESISTIVE_SENSOR_12_FLOAT        52
  60:rtu_modbus/process_modbus_message.h **** #define RESISTIVE_SENSOR_13_FLOAT        54
  61:rtu_modbus/process_modbus_message.h **** #define RESISTIVE_SENSOR_14_FLOAT        56
  62:rtu_modbus/process_modbus_message.h **** #define RESISTIVE_SENSOR_15_FLOAT        58
  63:rtu_modbus/process_modbus_message.h **** #define RESISTIVE_SENSOR_16_FLOAT        60   
  64:rtu_modbus/process_modbus_message.h **** 
  65:rtu_modbus/process_modbus_message.h **** #define RESISTIVE_VALUE_1_FLOAT         70
  66:rtu_modbus/process_modbus_message.h **** #define RESISTIVE_VALUE_2_FLOAT         72
  67:rtu_modbus/process_modbus_message.h **** #define RESISTIVE_VALUE_3_FLOAT         74
  68:rtu_modbus/process_modbus_message.h **** #define RESISTIVE_VALUE_4_FLOAT         76
  69:rtu_modbus/process_modbus_message.h **** #define RESISTIVE_VALUE_5_FLOAT         78
  70:rtu_modbus/process_modbus_message.h **** #define RESISTIVE_VALUE_6_FLOAT         80
  71:rtu_modbus/process_modbus_message.h **** #define RESISTIVE_VALUE_7_FLOAT         82
  72:rtu_modbus/process_modbus_message.h **** #define RESISTIVE_VALUE_8_FLOAT         84   
  73:rtu_modbus/process_modbus_message.h **** #define RESISTIVE_VALUE_9_FLOAT         86
  74:rtu_modbus/process_modbus_message.h **** #define RESISTIVE_VALUE_10_FLOAT        88
  75:rtu_modbus/process_modbus_message.h **** #define RESISTIVE_VALUE_11_FLOAT        90
  76:rtu_modbus/process_modbus_message.h **** #define RESISTIVE_VALUE_12_FLOAT        92
  77:rtu_modbus/process_modbus_message.h **** #define RESISTIVE_VALUE_13_FLOAT        94
  78:rtu_modbus/process_modbus_message.h **** #define RESISTIVE_VALUE_14_FLOAT        96
  79:rtu_modbus/process_modbus_message.h **** #define RESISTIVE_VALUE_15_FLOAT        98
  80:rtu_modbus/process_modbus_message.h **** #define RESISTIVE_VALUER_16_FLOAT      100   
  81:rtu_modbus/process_modbus_message.h **** 
  82:rtu_modbus/process_modbus_message.h ****     
  83:rtu_modbus/process_modbus_message.h ****    
  84:rtu_modbus/process_modbus_message.h ****     
  85:rtu_modbus/process_modbus_message.h **** 
  86:rtu_modbus/process_modbus_message.h **** // CONFIGURATION DATA
  87:rtu_modbus/process_modbus_message.h **** #define RESISTIVE_SENSOR_1_CONFIGURATION    110
  88:rtu_modbus/process_modbus_message.h **** #define RESISTIVE_SENSOR_2_CONFIGURATION    111
ARM GAS  C:\Users\glenn\AppData\Local\Temp\cc0Bw9qB.s 			page 23


  89:rtu_modbus/process_modbus_message.h **** #define RESISTIVE_SENSOR_3_CONFIGURATION    112 
  90:rtu_modbus/process_modbus_message.h **** #define RESISTIVE_SENSOR_4_CONFIGURATION    113
  91:rtu_modbus/process_modbus_message.h **** #define RESISTIVE_SENSOR_5_CONFIGURATION    114
  92:rtu_modbus/process_modbus_message.h **** #define RESISTIVE_SENSOR_6_CONFIGURATION    115
  93:rtu_modbus/process_modbus_message.h **** #define RESISTIVE_SENSOR_7_CONFIGURATION    116
  94:rtu_modbus/process_modbus_message.h **** #define RESISTIVE_SENSOR_8_CONFIGURATION    117
  95:rtu_modbus/process_modbus_message.h **** #define RESISTIVE_SENSOR_9_CONFIGURATION    118
  96:rtu_modbus/process_modbus_message.h **** #define RESISTIVE_SENSOR_10_CONFIGURATION   119
  97:rtu_modbus/process_modbus_message.h **** #define RESISTIVE_SENSOR_11_CONFIGURATION   120 
  98:rtu_modbus/process_modbus_message.h **** #define RESISTIVE_SENSOR_12_CONFIGURATION   121
  99:rtu_modbus/process_modbus_message.h **** #define RESISTIVE_SENSOR_13_CONFIGURATION   122
 100:rtu_modbus/process_modbus_message.h **** #define RESISTIVE_SENSOR_14_CONFIGURATION   123
 101:rtu_modbus/process_modbus_message.h **** #define RESISTIVE_SENSOR_15_CONFIGURATION   124
 102:rtu_modbus/process_modbus_message.h **** #define RESISTIVE_SENSOR_16_CONFIGURATION   125
 103:rtu_modbus/process_modbus_message.h **** 
 104:rtu_modbus/process_modbus_message.h **** 
 105:rtu_modbus/process_modbus_message.h ****     
 106:rtu_modbus/process_modbus_message.h **** 
 107:rtu_modbus/process_modbus_message.h **** 
 108:rtu_modbus/process_modbus_message.h **** 
 109:rtu_modbus/process_modbus_message.h **** #define MODBUS_ARRAY_LENGTH  sizeof( modbus_address_data)/sizeof(modbus_address_data)
 110:rtu_modbus/process_modbus_message.h **** 
 111:rtu_modbus/process_modbus_message.h **** 
 112:rtu_modbus/process_modbus_message.h **** extern uint16 modbus_address_data[2];
 113:rtu_modbus/process_modbus_message.h **** 
 114:rtu_modbus/process_modbus_message.h **** static inline uint16 get_modbus_address( void )
 115:rtu_modbus/process_modbus_message.h **** {
 116:rtu_modbus/process_modbus_message.h ****     return modbus_address_data[0];
 737              		.loc 2 116 0
 738 0026 0B4B     		ldr	r3, .L73+12
 739              	.LBE101:
 740              	.LBE100:
 741              	.LBB102:
 742              	.LBB103:
 248:rtu_modbus/modbus_serial_ctrl.c ****    UART_1_ClearTxBuffer(); 
 743              		.loc 1 248 0
 744 0028 0020     		mov	r0, #0
 745              	.LBE103:
 746              	.LBE102:
 294:rtu_modbus/modbus_serial_ctrl.c **** 
 747              		.loc 1 294 0
 748 002a 1A88     		ldrh	r2, [r3]
 749 002c 0A4B     		ldr	r3, .L73+16
 750              	.LBB106:
 751              	.LBB104:
 243:rtu_modbus/modbus_serial_ctrl.c ****    modbus_rx_index    = 0;
 752              		.loc 1 243 0
 753 002e EC60     		str	r4, [r5, #12]
 754              	.LBE104:
 755              	.LBE106:
 294:rtu_modbus/modbus_serial_ctrl.c **** 
 756              		.loc 1 294 0
 757 0030 1A84     		strh	r2, [r3, #32]
 758              	.LBB107:
 759              	.LBB105:
 247:rtu_modbus/modbus_serial_ctrl.c ****    UART_1_SetTxInterruptMode(  0 );
 760              		.loc 1 247 0
ARM GAS  C:\Users\glenn\AppData\Local\Temp\cc0Bw9qB.s 			page 24


 761 0032 0A4B     		ldr	r3, .L73+20
 244:rtu_modbus/modbus_serial_ctrl.c ****    uart_rx_state      =  UART_RX_IDLE;
 762              		.loc 1 244 0
 763 0034 2C61     		str	r4, [r5, #16]
 245:rtu_modbus/modbus_serial_ctrl.c ****    uart_timer_state   =  UART_TIMER_IDLE;
 764              		.loc 1 245 0
 765 0036 6C61     		str	r4, [r5, #20]
 246:rtu_modbus/modbus_serial_ctrl.c ****    uart_tx_state      =  UART_TX_STATE_IDLE;
 766              		.loc 1 246 0
 767 0038 AC61     		str	r4, [r5, #24]
 247:rtu_modbus/modbus_serial_ctrl.c ****    UART_1_SetTxInterruptMode(  0 );
 768              		.loc 1 247 0
 769 003a 1C60     		str	r4, [r3]
 248:rtu_modbus/modbus_serial_ctrl.c ****    UART_1_ClearTxBuffer(); 
 770              		.loc 1 248 0
 771 003c FFF7FEFF 		bl	UART_1_SetTxInterruptMode
 772              	.LVL55:
 249:rtu_modbus/modbus_serial_ctrl.c ****   
 773              		.loc 1 249 0
 774 0040 FFF7FEFF 		bl	UART_1_ClearTxBuffer
 775              	.LVL56:
 776              	.LBE105:
 777              	.LBE107:
 778              		.loc 1 299 0
 779 0044 0220     		mov	r0, #2
 780 0046 38BD     		pop	{r3, r4, r5, pc}
 781              	.L74:
 782              		.align	2
 783              	.L73:
 784 0048 00010000 		.word	.LANCHOR1
 785 004c 00000000 		.word	rx_interrupt
 786 0050 00000000 		.word	tx_interrupt
 787 0054 00000000 		.word	modbus_address_data
 788 0058 00020000 		.word	.LANCHOR2
 789 005c 00000000 		.word	.LANCHOR0
 790              		.cfi_endproc
 791              	.LFE75:
 792              		.size	initialize_modbus_rtu, .-initialize_modbus_rtu
 793              		.section	.text.process_rx_modbus_rtu_message,"ax",%progbits
 794              		.align	2
 795              		.global	process_rx_modbus_rtu_message
 796              		.code	16
 797              		.thumb_func
 798              		.type	process_rx_modbus_rtu_message, %function
 799              	process_rx_modbus_rtu_message:
 800              	.LFB76:
 300:rtu_modbus/modbus_serial_ctrl.c **** 
 301:rtu_modbus/modbus_serial_ctrl.c **** int process_rx_modbus_rtu_message(void )
 302:rtu_modbus/modbus_serial_ctrl.c **** {
 801              		.loc 1 302 0
 802              		.cfi_startproc
 803 0000 70B5     		push	{r4, r5, r6, lr}
 804              		.cfi_def_cfa_offset 16
 805              		.cfi_offset 4, -16
 806              		.cfi_offset 5, -12
 807              		.cfi_offset 6, -8
 808              		.cfi_offset 14, -4
ARM GAS  C:\Users\glenn\AppData\Local\Temp\cc0Bw9qB.s 			page 25


 303:rtu_modbus/modbus_serial_ctrl.c ****     int out_count;
 304:rtu_modbus/modbus_serial_ctrl.c ****     
 305:rtu_modbus/modbus_serial_ctrl.c ****     out_count =  process_modbus_message( modbus_rx_index, &modbus_in_buffer[0], sizeof(modbus_out_b
 809              		.loc 1 305 0
 810 0002 1E4C     		ldr	r4, .L86
 811 0004 8022     		mov	r2, #128
 812 0006 211C     		mov	r1, r4
 813 0008 1D4D     		ldr	r5, .L86+4
 814 000a 2031     		add	r1, r1, #32
 815 000c 2B1D     		add	r3, r5, #4
 816 000e 2069     		ldr	r0, [r4, #16]
 817 0010 5200     		lsl	r2, r2, #1
 818 0012 FFF7FEFF 		bl	process_modbus_message
 819              	.LVL57:
 820 0016 061E     		sub	r6, r0, #0
 821              	.LVL58:
 306:rtu_modbus/modbus_serial_ctrl.c ****                            
 307:rtu_modbus/modbus_serial_ctrl.c ****     
 308:rtu_modbus/modbus_serial_ctrl.c ****     if( out_count > 0 )
 822              		.loc 1 308 0
 823 0018 24DD     		ble	.L76
 824              	.LVL59:
 825              	.LBB114:
 826              	.LBB115:
 264:rtu_modbus/modbus_serial_ctrl.c ****    {
 827              		.loc 1 264 0
 828 001a C828     		cmp	r0, #200
 829 001c 1EDC     		bgt	.L84
 830              	.LVL60:
 831              	.L77:
 268:rtu_modbus/modbus_serial_ctrl.c ****    modbus_tx_message_count = out_count;
 832              		.loc 1 268 0
 833 001e 0023     		mov	r3, #0
 272:rtu_modbus/modbus_serial_ctrl.c ****    
 834              		.loc 1 272 0
 835 0020 0820     		mov	r0, #8
 268:rtu_modbus/modbus_serial_ctrl.c ****    modbus_tx_message_count = out_count;
 836              		.loc 1 268 0
 837 0022 6360     		str	r3, [r4, #4]
 270:rtu_modbus/modbus_serial_ctrl.c ****    uart_tx_state     =  UART_TX_STATE_TRANSMITTING;
 838              		.loc 1 270 0
 839 0024 A361     		str	r3, [r4, #24]
 271:rtu_modbus/modbus_serial_ctrl.c ****    UART_1_SetTxInterruptMode(  UART_1_TX_STS_FIFO_NOT_FULL  );
 840              		.loc 1 271 0
 841 0026 0133     		add	r3, r3, #1
 269:rtu_modbus/modbus_serial_ctrl.c ****    uart_timer_state   = UART_TIMER_IDLE;
 842              		.loc 1 269 0
 843 0028 A660     		str	r6, [r4, #8]
 271:rtu_modbus/modbus_serial_ctrl.c ****    UART_1_SetTxInterruptMode(  UART_1_TX_STS_FIFO_NOT_FULL  );
 844              		.loc 1 271 0
 845 002a 2B60     		str	r3, [r5]
 846              	.LBB116:
 847              	.LBB117:
 163:rtu_modbus/modbus_serial_ctrl.c ****     {
 848              		.loc 1 163 0
 849 002c 0826     		mov	r6, #8
 850              	.LVL61:
ARM GAS  C:\Users\glenn\AppData\Local\Temp\cc0Bw9qB.s 			page 26


 851              	.LBE117:
 852              	.LBE116:
 272:rtu_modbus/modbus_serial_ctrl.c ****    
 853              		.loc 1 272 0
 854 002e FFF7FEFF 		bl	UART_1_SetTxInterruptMode
 855              	.LVL62:
 856 0032 0DE0     		b	.L78
 857              	.L85:
 858              	.LBB119:
 859              	.LBB118:
 163:rtu_modbus/modbus_serial_ctrl.c ****     {
 860              		.loc 1 163 0
 861 0034 A368     		ldr	r3, [r4, #8]
 862 0036 002B     		cmp	r3, #0
 863 0038 0EDD     		ble	.L79
 165:rtu_modbus/modbus_serial_ctrl.c ****         modbus_tx_index +=1;
 864              		.loc 1 165 0
 865 003a 6368     		ldr	r3, [r4, #4]
 866 003c EB18     		add	r3, r5, r3
 867 003e 1879     		ldrb	r0, [r3, #4]
 868 0040 FFF7FEFF 		bl	UART_1_WriteTxData
 869              	.LVL63:
 166:rtu_modbus/modbus_serial_ctrl.c ****         modbus_tx_message_count -= 1;
 870              		.loc 1 166 0
 871 0044 6368     		ldr	r3, [r4, #4]
 872 0046 0133     		add	r3, r3, #1
 873 0048 6360     		str	r3, [r4, #4]
 167:rtu_modbus/modbus_serial_ctrl.c ****     }
 874              		.loc 1 167 0
 875 004a A368     		ldr	r3, [r4, #8]
 876 004c 013B     		sub	r3, r3, #1
 877 004e A360     		str	r3, [r4, #8]
 878              	.L78:
 163:rtu_modbus/modbus_serial_ctrl.c ****     {
 879              		.loc 1 163 0
 880 0050 FFF7FEFF 		bl	UART_1_ReadTxStatus
 881              	.LVL64:
 882 0054 0642     		tst	r6, r0
 883 0056 EDD1     		bne	.L85
 884              	.L79:
 885              	.LBE118:
 886              	.LBE119:
 887              	.LBE115:
 888              	.LBE114:
 309:rtu_modbus/modbus_serial_ctrl.c ****     {
 310:rtu_modbus/modbus_serial_ctrl.c ****         init_tx_state( out_count );
 311:rtu_modbus/modbus_serial_ctrl.c ****     }
 312:rtu_modbus/modbus_serial_ctrl.c ****     else
 313:rtu_modbus/modbus_serial_ctrl.c ****     {
 314:rtu_modbus/modbus_serial_ctrl.c ****         init_rx_state();
 315:rtu_modbus/modbus_serial_ctrl.c ****     }
 316:rtu_modbus/modbus_serial_ctrl.c ****     return CF_TERMINATE; // TBD Right now
 317:rtu_modbus/modbus_serial_ctrl.c **** }
 889              		.loc 1 317 0
 890 0058 0420     		mov	r0, #4
 891              		@ sp needed
 892 005a 70BD     		pop	{r4, r5, r6, pc}
ARM GAS  C:\Users\glenn\AppData\Local\Temp\cc0Bw9qB.s 			page 27


 893              	.LVL65:
 894              	.L84:
 895              	.LBB121:
 896              	.LBB120:
 266:rtu_modbus/modbus_serial_ctrl.c ****    }
 897              		.loc 1 266 0
 898 005c 0020     		mov	r0, #0
 899              	.LVL66:
 900 005e FFF7FEFF 		bl	CyHalt
 901              	.LVL67:
 902 0062 DCE7     		b	.L77
 903              	.LVL68:
 904              	.L76:
 905              	.LBE120:
 906              	.LBE121:
 907              	.LBB122:
 908              	.LBB123:
 243:rtu_modbus/modbus_serial_ctrl.c ****    modbus_rx_index    = 0;
 909              		.loc 1 243 0
 910 0064 0023     		mov	r3, #0
 248:rtu_modbus/modbus_serial_ctrl.c ****    UART_1_ClearTxBuffer(); 
 911              		.loc 1 248 0
 912 0066 0020     		mov	r0, #0
 913              	.LVL69:
 243:rtu_modbus/modbus_serial_ctrl.c ****    modbus_rx_index    = 0;
 914              		.loc 1 243 0
 915 0068 E360     		str	r3, [r4, #12]
 244:rtu_modbus/modbus_serial_ctrl.c ****    uart_rx_state      =  UART_RX_IDLE;
 916              		.loc 1 244 0
 917 006a 2361     		str	r3, [r4, #16]
 245:rtu_modbus/modbus_serial_ctrl.c ****    uart_timer_state   =  UART_TIMER_IDLE;
 918              		.loc 1 245 0
 919 006c 6361     		str	r3, [r4, #20]
 246:rtu_modbus/modbus_serial_ctrl.c ****    uart_tx_state      =  UART_TX_STATE_IDLE;
 920              		.loc 1 246 0
 921 006e A361     		str	r3, [r4, #24]
 247:rtu_modbus/modbus_serial_ctrl.c ****    UART_1_SetTxInterruptMode(  0 );
 922              		.loc 1 247 0
 923 0070 2B60     		str	r3, [r5]
 248:rtu_modbus/modbus_serial_ctrl.c ****    UART_1_ClearTxBuffer(); 
 924              		.loc 1 248 0
 925 0072 FFF7FEFF 		bl	UART_1_SetTxInterruptMode
 926              	.LVL70:
 249:rtu_modbus/modbus_serial_ctrl.c ****   
 927              		.loc 1 249 0
 928 0076 FFF7FEFF 		bl	UART_1_ClearTxBuffer
 929              	.LVL71:
 930 007a EDE7     		b	.L79
 931              	.L87:
 932              		.align	2
 933              	.L86:
 934 007c 00010000 		.word	.LANCHOR1
 935 0080 00000000 		.word	.LANCHOR0
 936              	.LBE123:
 937              	.LBE122:
 938              		.cfi_endproc
 939              	.LFE76:
ARM GAS  C:\Users\glenn\AppData\Local\Temp\cc0Bw9qB.s 			page 28


 940              		.size	process_rx_modbus_rtu_message, .-process_rx_modbus_rtu_message
 941              		.section	.text.set_normal_modbus_address,"ax",%progbits
 942              		.align	2
 943              		.global	set_normal_modbus_address
 944              		.code	16
 945              		.thumb_func
 946              		.type	set_normal_modbus_address, %function
 947              	set_normal_modbus_address:
 948              	.LFB77:
 318:rtu_modbus/modbus_serial_ctrl.c **** 
 319:rtu_modbus/modbus_serial_ctrl.c **** 
 320:rtu_modbus/modbus_serial_ctrl.c **** 
 321:rtu_modbus/modbus_serial_ctrl.c **** 
 322:rtu_modbus/modbus_serial_ctrl.c **** int set_normal_modbus_address(unsigned link_id, unsigned param_1,
 323:rtu_modbus/modbus_serial_ctrl.c ****   unsigned param_2, unsigned param_3, unsigned event, unsigned data)
 324:rtu_modbus/modbus_serial_ctrl.c **** {
 949              		.loc 1 324 0
 950              		.cfi_startproc
 951              	.LVL72:
 952 0000 00B5     		push	{lr}
 953              		.cfi_def_cfa_offset 4
 954              		.cfi_offset 14, -4
 955 0002 83B0     		sub	sp, sp, #12
 956              		.cfi_def_cfa_offset 16
 325:rtu_modbus/modbus_serial_ctrl.c ****       uint16 temp;
 326:rtu_modbus/modbus_serial_ctrl.c ****       temp = 0;
 957              		.loc 1 326 0
 958 0004 6B46     		mov	r3, sp
 959              	.LVL73:
 960 0006 9A1D     		add	r2, r3, #6
 961              	.LVL74:
 962 0008 0023     		mov	r3, #0
 327:rtu_modbus/modbus_serial_ctrl.c ****     
 328:rtu_modbus/modbus_serial_ctrl.c ****       store_modbus_data_registers( MOD_COMMISSIONING_FLAG, 1 , &temp );
 963              		.loc 1 328 0
 964 000a 0121     		mov	r1, #1
 965              	.LVL75:
 966 000c 0320     		mov	r0, #3
 967              	.LVL76:
 326:rtu_modbus/modbus_serial_ctrl.c ****     
 968              		.loc 1 326 0
 969 000e 1380     		strh	r3, [r2]
 970              		.loc 1 328 0
 971 0010 FFF7FEFF 		bl	store_modbus_data_registers
 972              	.LVL77:
 329:rtu_modbus/modbus_serial_ctrl.c ****       modbus_address = get_modbus_address();
 330:rtu_modbus/modbus_serial_ctrl.c ****       return 0;
 331:rtu_modbus/modbus_serial_ctrl.c **** }
 973              		.loc 1 331 0
 974 0014 0020     		mov	r0, #0
 975              	.LBB124:
 976              	.LBB125:
 977              		.loc 2 116 0
 978 0016 034B     		ldr	r3, .L89
 979              	.LBE125:
 980              	.LBE124:
 329:rtu_modbus/modbus_serial_ctrl.c ****       modbus_address = get_modbus_address();
ARM GAS  C:\Users\glenn\AppData\Local\Temp\cc0Bw9qB.s 			page 29


 981              		.loc 1 329 0
 982 0018 1A88     		ldrh	r2, [r3]
 983 001a 034B     		ldr	r3, .L89+4
 984 001c 1A84     		strh	r2, [r3, #32]
 985              		.loc 1 331 0
 986 001e 03B0     		add	sp, sp, #12
 987              		@ sp needed
 988 0020 00BD     		pop	{pc}
 989              	.L90:
 990 0022 C046     		.align	2
 991              	.L89:
 992 0024 00000000 		.word	modbus_address_data
 993 0028 00020000 		.word	.LANCHOR2
 994              		.cfi_endproc
 995              	.LFE77:
 996              		.size	set_normal_modbus_address, .-set_normal_modbus_address
 997              		.section	.text.set_commissiong_address,"ax",%progbits
 998              		.align	2
 999              		.global	set_commissiong_address
 1000              		.code	16
 1001              		.thumb_func
 1002              		.type	set_commissiong_address, %function
 1003              	set_commissiong_address:
 1004              	.LFB78:
 332:rtu_modbus/modbus_serial_ctrl.c **** 
 333:rtu_modbus/modbus_serial_ctrl.c **** int set_commissiong_address(unsigned link_id, unsigned param_1,
 334:rtu_modbus/modbus_serial_ctrl.c ****   unsigned param_2, unsigned param_3, unsigned event, unsigned data)
 335:rtu_modbus/modbus_serial_ctrl.c **** {
 1005              		.loc 1 335 0
 1006              		.cfi_startproc
 1007              	.LVL78:
 1008 0000 00B5     		push	{lr}
 1009              		.cfi_def_cfa_offset 4
 1010              		.cfi_offset 14, -4
 1011 0002 83B0     		sub	sp, sp, #12
 1012              		.cfi_def_cfa_offset 16
 336:rtu_modbus/modbus_serial_ctrl.c ****       uint16 temp;
 337:rtu_modbus/modbus_serial_ctrl.c ****       temp = 1;
 1013              		.loc 1 337 0
 1014 0004 6B46     		mov	r3, sp
 1015              	.LVL79:
 1016 0006 9A1D     		add	r2, r3, #6
 1017              	.LVL80:
 1018 0008 0123     		mov	r3, #1
 338:rtu_modbus/modbus_serial_ctrl.c ****     
 339:rtu_modbus/modbus_serial_ctrl.c ****        store_modbus_data_registers( MOD_COMMISSIONING_FLAG, 1 , &temp );
 1019              		.loc 1 339 0
 1020 000a 0121     		mov	r1, #1
 1021              	.LVL81:
 1022 000c 0320     		mov	r0, #3
 1023              	.LVL82:
 337:rtu_modbus/modbus_serial_ctrl.c ****     
 1024              		.loc 1 337 0
 1025 000e 1380     		strh	r3, [r2]
 1026              		.loc 1 339 0
 1027 0010 FFF7FEFF 		bl	store_modbus_data_registers
 1028              	.LVL83:
ARM GAS  C:\Users\glenn\AppData\Local\Temp\cc0Bw9qB.s 			page 30


 340:rtu_modbus/modbus_serial_ctrl.c ****        modbus_address = get_commissioning_address();
 341:rtu_modbus/modbus_serial_ctrl.c ****       
 342:rtu_modbus/modbus_serial_ctrl.c ****       return 0;
 343:rtu_modbus/modbus_serial_ctrl.c **** }...
 1029              		.loc 1 343 0
 1030 0014 0020     		mov	r0, #0
 1031              	.LBB126:
 1032              	.LBB127:
 117:rtu_modbus/process_modbus_message.h **** }
 118:rtu_modbus/process_modbus_message.h **** 
 119:rtu_modbus/process_modbus_message.h **** static inline uint16 get_commissioning_address( void )
 120:rtu_modbus/process_modbus_message.h **** {
 121:rtu_modbus/process_modbus_message.h ****     return modbus_address_data[1];
 1033              		.loc 2 121 0
 1034 0016 034B     		ldr	r3, .L92
 1035              	.LBE127:
 1036              	.LBE126:
 340:rtu_modbus/modbus_serial_ctrl.c ****        modbus_address = get_commissioning_address();
 1037              		.loc 1 340 0
 1038 0018 5A88     		ldrh	r2, [r3, #2]
 1039 001a 034B     		ldr	r3, .L92+4
 1040 001c 1A84     		strh	r2, [r3, #32]
 1041              		.loc 1 343 0
 1042 001e 03B0     		add	sp, sp, #12
 1043              		@ sp needed
 1044 0020 00BD     		pop	{pc}
 1045              	.L93:
 1046 0022 C046     		.align	2
 1047              	.L92:
 1048 0024 00000000 		.word	modbus_address_data
 1049 0028 00020000 		.word	.LANCHOR2
 1050              		.cfi_endproc
 1051              	.LFE78:
 1052              		.size	set_commissiong_address, .-set_commissiong_address
 1053              		.bss
 1054              		.align	2
 1055              		.set	.LANCHOR0,. + 0
 1056              		.set	.LANCHOR1,. + 256
 1057              		.set	.LANCHOR2,. + 512
 1058              		.type	uart_tx_state, %object
 1059              		.size	uart_tx_state, 4
 1060              	uart_tx_state:
 1061 0000 00000000 		.space	4
 1062              		.type	modbus_out_buffer, %object
 1063              		.size	modbus_out_buffer, 256
 1064              	modbus_out_buffer:
 1065 0004 00000000 		.space	256
 1065      00000000 
 1065      00000000 
 1065      00000000 
 1065      00000000 
 1066              		.type	modbus_tx_index, %object
 1067              		.size	modbus_tx_index, 4
 1068              	modbus_tx_index:
 1069 0104 00000000 		.space	4
 1070              		.type	modbus_tx_message_count, %object
 1071              		.size	modbus_tx_message_count, 4
ARM GAS  C:\Users\glenn\AppData\Local\Temp\cc0Bw9qB.s 			page 31


 1072              	modbus_tx_message_count:
 1073 0108 00000000 		.space	4
 1074              		.type	rx_interval_count, %object
 1075              		.size	rx_interval_count, 4
 1076              	rx_interval_count:
 1077 010c 00000000 		.space	4
 1078              		.type	modbus_rx_index, %object
 1079              		.size	modbus_rx_index, 4
 1080              	modbus_rx_index:
 1081 0110 00000000 		.space	4
 1082              		.type	uart_rx_state, %object
 1083              		.size	uart_rx_state, 4
 1084              	uart_rx_state:
 1085 0114 00000000 		.space	4
 1086              		.type	uart_timer_state, %object
 1087              		.size	uart_timer_state, 4
 1088              	uart_timer_state:
 1089 0118 00000000 		.space	4
 1090              		.type	read_status_value, %object
 1091              		.size	read_status_value, 4
 1092              	read_status_value:
 1093 011c 00000000 		.space	4
 1094              		.type	modbus_in_buffer, %object
 1095              		.size	modbus_in_buffer, 256
 1096              	modbus_in_buffer:
 1097 0120 00000000 		.space	256
 1097      00000000 
 1097      00000000 
 1097      00000000 
 1097      00000000 
 1098              		.type	modbus_address, %object
 1099              		.size	modbus_address, 2
 1100              	modbus_address:
 1101 0220 0000     		.space	2
 1102 0222 0000     		.text
 1103              	.Letext0:
 1104              		.file 3 "Generated_Source\\PSoC4/cytypes.h"
 1105              		.file 4 "Generated_Source\\PSoC4/UART_1.h"
 1106              		.file 5 ".\\chain_flow/cf_status_bit.h"
 1107              		.file 6 "Generated_Source\\PSoC4/modbus_rx_interrupt.h"
 1108              		.file 7 "Generated_Source\\PSoC4/modbus_tx_interrupt.h"
 1109              		.file 8 "Generated_Source\\PSoC4/CyLib.h"