ARM GAS  C:\Users\glenn\AppData\Local\Temp\ccLZPACk.s 			page 1


   1              		.cpu cortex-m0
   2              		.fpu softvfp
   3              		.eabi_attribute 20, 1
   4              		.eabi_attribute 21, 1
   5              		.eabi_attribute 23, 3
   6              		.eabi_attribute 24, 1
   7              		.eabi_attribute 25, 1
   8              		.eabi_attribute 26, 1
   9              		.eabi_attribute 30, 2
  10              		.eabi_attribute 34, 0
  11              		.eabi_attribute 18, 4
  12              		.code	16
  13              		.file	"modbus_tx_interrupt.c"
  14              		.text
  15              	.Ltext0:
  16              		.cfi_sections	.debug_frame
  17              		.section	.text.modbus_tx_interrupt_Interrupt,"ax",%progbits
  18              		.align	2
  19              		.global	modbus_tx_interrupt_Interrupt
  20              		.code	16
  21              		.thumb_func
  22              		.type	modbus_tx_interrupt_Interrupt, %function
  23              	modbus_tx_interrupt_Interrupt:
  24              	.LFB4:
  25              		.file 1 "Generated_Source\\PSoC4\\modbus_tx_interrupt.c"
   1:Generated_Source\PSoC4/modbus_tx_interrupt.c **** /*******************************************************************************
   2:Generated_Source\PSoC4/modbus_tx_interrupt.c **** * File Name: modbus_tx_interrupt.c  
   3:Generated_Source\PSoC4/modbus_tx_interrupt.c **** * Version 1.70
   4:Generated_Source\PSoC4/modbus_tx_interrupt.c **** *
   5:Generated_Source\PSoC4/modbus_tx_interrupt.c **** *  Description:
   6:Generated_Source\PSoC4/modbus_tx_interrupt.c **** *   API for controlling the state of an interrupt.
   7:Generated_Source\PSoC4/modbus_tx_interrupt.c **** *
   8:Generated_Source\PSoC4/modbus_tx_interrupt.c **** *
   9:Generated_Source\PSoC4/modbus_tx_interrupt.c **** *  Note:
  10:Generated_Source\PSoC4/modbus_tx_interrupt.c **** *
  11:Generated_Source\PSoC4/modbus_tx_interrupt.c **** ********************************************************************************
  12:Generated_Source\PSoC4/modbus_tx_interrupt.c **** * Copyright 2008-2015, Cypress Semiconductor Corporation.  All rights reserved.
  13:Generated_Source\PSoC4/modbus_tx_interrupt.c **** * You may use this file only in accordance with the license, terms, conditions, 
  14:Generated_Source\PSoC4/modbus_tx_interrupt.c **** * disclaimers, and limitations in the end user license agreement accompanying 
  15:Generated_Source\PSoC4/modbus_tx_interrupt.c **** * the software package with which this file was provided.
  16:Generated_Source\PSoC4/modbus_tx_interrupt.c **** *******************************************************************************/
  17:Generated_Source\PSoC4/modbus_tx_interrupt.c **** 
  18:Generated_Source\PSoC4/modbus_tx_interrupt.c **** 
  19:Generated_Source\PSoC4/modbus_tx_interrupt.c **** #include <cydevice_trm.h>
  20:Generated_Source\PSoC4/modbus_tx_interrupt.c **** #include <CyLib.h>
  21:Generated_Source\PSoC4/modbus_tx_interrupt.c **** #include <modbus_tx_interrupt.h>
  22:Generated_Source\PSoC4/modbus_tx_interrupt.c **** #include "cyapicallbacks.h"
  23:Generated_Source\PSoC4/modbus_tx_interrupt.c **** 
  24:Generated_Source\PSoC4/modbus_tx_interrupt.c **** #if !defined(modbus_tx_interrupt__REMOVED) /* Check for removal by optimization */
  25:Generated_Source\PSoC4/modbus_tx_interrupt.c **** 
  26:Generated_Source\PSoC4/modbus_tx_interrupt.c **** /*******************************************************************************
  27:Generated_Source\PSoC4/modbus_tx_interrupt.c **** *  Place your includes, defines and code here 
  28:Generated_Source\PSoC4/modbus_tx_interrupt.c **** ********************************************************************************/
  29:Generated_Source\PSoC4/modbus_tx_interrupt.c **** /* `#START modbus_tx_interrupt_intc` */
  30:Generated_Source\PSoC4/modbus_tx_interrupt.c **** 
  31:Generated_Source\PSoC4/modbus_tx_interrupt.c **** /* `#END` */
  32:Generated_Source\PSoC4/modbus_tx_interrupt.c **** 
ARM GAS  C:\Users\glenn\AppData\Local\Temp\ccLZPACk.s 			page 2


  33:Generated_Source\PSoC4/modbus_tx_interrupt.c **** extern cyisraddress CyRamVectors[CYINT_IRQ_BASE + CY_NUM_INTERRUPTS];
  34:Generated_Source\PSoC4/modbus_tx_interrupt.c **** 
  35:Generated_Source\PSoC4/modbus_tx_interrupt.c **** /* Declared in startup, used to set unused interrupts to. */
  36:Generated_Source\PSoC4/modbus_tx_interrupt.c **** CY_ISR_PROTO(IntDefaultHandler);
  37:Generated_Source\PSoC4/modbus_tx_interrupt.c **** 
  38:Generated_Source\PSoC4/modbus_tx_interrupt.c **** 
  39:Generated_Source\PSoC4/modbus_tx_interrupt.c **** /*******************************************************************************
  40:Generated_Source\PSoC4/modbus_tx_interrupt.c **** * Function Name: modbus_tx_interrupt_Start
  41:Generated_Source\PSoC4/modbus_tx_interrupt.c **** ********************************************************************************
  42:Generated_Source\PSoC4/modbus_tx_interrupt.c **** *
  43:Generated_Source\PSoC4/modbus_tx_interrupt.c **** * Summary:
  44:Generated_Source\PSoC4/modbus_tx_interrupt.c **** *  Set up the interrupt and enable it. This function disables the interrupt, 
  45:Generated_Source\PSoC4/modbus_tx_interrupt.c **** *  sets the default interrupt vector, sets the priority from the value in the
  46:Generated_Source\PSoC4/modbus_tx_interrupt.c **** *  Design Wide Resources Interrupt Editor, then enables the interrupt to the 
  47:Generated_Source\PSoC4/modbus_tx_interrupt.c **** *  interrupt controller.
  48:Generated_Source\PSoC4/modbus_tx_interrupt.c **** *
  49:Generated_Source\PSoC4/modbus_tx_interrupt.c **** * Parameters:  
  50:Generated_Source\PSoC4/modbus_tx_interrupt.c **** *   None
  51:Generated_Source\PSoC4/modbus_tx_interrupt.c **** *
  52:Generated_Source\PSoC4/modbus_tx_interrupt.c **** * Return:
  53:Generated_Source\PSoC4/modbus_tx_interrupt.c **** *   None
  54:Generated_Source\PSoC4/modbus_tx_interrupt.c **** *
  55:Generated_Source\PSoC4/modbus_tx_interrupt.c **** *******************************************************************************/
  56:Generated_Source\PSoC4/modbus_tx_interrupt.c **** void modbus_tx_interrupt_Start(void)
  57:Generated_Source\PSoC4/modbus_tx_interrupt.c **** {
  58:Generated_Source\PSoC4/modbus_tx_interrupt.c ****     /* For all we know the interrupt is active. */
  59:Generated_Source\PSoC4/modbus_tx_interrupt.c ****     modbus_tx_interrupt_Disable();
  60:Generated_Source\PSoC4/modbus_tx_interrupt.c **** 
  61:Generated_Source\PSoC4/modbus_tx_interrupt.c ****     /* Set the ISR to point to the modbus_tx_interrupt Interrupt. */
  62:Generated_Source\PSoC4/modbus_tx_interrupt.c ****     modbus_tx_interrupt_SetVector(&modbus_tx_interrupt_Interrupt);
  63:Generated_Source\PSoC4/modbus_tx_interrupt.c **** 
  64:Generated_Source\PSoC4/modbus_tx_interrupt.c ****     /* Set the priority. */
  65:Generated_Source\PSoC4/modbus_tx_interrupt.c ****     modbus_tx_interrupt_SetPriority((uint8)modbus_tx_interrupt_INTC_PRIOR_NUMBER);
  66:Generated_Source\PSoC4/modbus_tx_interrupt.c **** 
  67:Generated_Source\PSoC4/modbus_tx_interrupt.c ****     /* Enable it. */
  68:Generated_Source\PSoC4/modbus_tx_interrupt.c ****     modbus_tx_interrupt_Enable();
  69:Generated_Source\PSoC4/modbus_tx_interrupt.c **** }
  70:Generated_Source\PSoC4/modbus_tx_interrupt.c **** 
  71:Generated_Source\PSoC4/modbus_tx_interrupt.c **** 
  72:Generated_Source\PSoC4/modbus_tx_interrupt.c **** /*******************************************************************************
  73:Generated_Source\PSoC4/modbus_tx_interrupt.c **** * Function Name: modbus_tx_interrupt_StartEx
  74:Generated_Source\PSoC4/modbus_tx_interrupt.c **** ********************************************************************************
  75:Generated_Source\PSoC4/modbus_tx_interrupt.c **** *
  76:Generated_Source\PSoC4/modbus_tx_interrupt.c **** * Summary:
  77:Generated_Source\PSoC4/modbus_tx_interrupt.c **** *  Sets up the interrupt and enables it. This function disables the interrupt,
  78:Generated_Source\PSoC4/modbus_tx_interrupt.c **** *  sets the interrupt vector based on the address passed in, sets the priority 
  79:Generated_Source\PSoC4/modbus_tx_interrupt.c **** *  from the value in the Design Wide Resources Interrupt Editor, then enables 
  80:Generated_Source\PSoC4/modbus_tx_interrupt.c **** *  the interrupt to the interrupt controller.
  81:Generated_Source\PSoC4/modbus_tx_interrupt.c **** *  
  82:Generated_Source\PSoC4/modbus_tx_interrupt.c **** *  When defining ISR functions, the CY_ISR and CY_ISR_PROTO macros should be 
  83:Generated_Source\PSoC4/modbus_tx_interrupt.c **** *  used to provide consistent definition across compilers:
  84:Generated_Source\PSoC4/modbus_tx_interrupt.c **** *  
  85:Generated_Source\PSoC4/modbus_tx_interrupt.c **** *  Function definition example:
  86:Generated_Source\PSoC4/modbus_tx_interrupt.c **** *   CY_ISR(MyISR)
  87:Generated_Source\PSoC4/modbus_tx_interrupt.c **** *   {
  88:Generated_Source\PSoC4/modbus_tx_interrupt.c **** *   }
  89:Generated_Source\PSoC4/modbus_tx_interrupt.c **** *   Function prototype example:
ARM GAS  C:\Users\glenn\AppData\Local\Temp\ccLZPACk.s 			page 3


  90:Generated_Source\PSoC4/modbus_tx_interrupt.c **** *   CY_ISR_PROTO(MyISR);
  91:Generated_Source\PSoC4/modbus_tx_interrupt.c **** *
  92:Generated_Source\PSoC4/modbus_tx_interrupt.c **** * Parameters:  
  93:Generated_Source\PSoC4/modbus_tx_interrupt.c **** *   address: Address of the ISR to set in the interrupt vector table.
  94:Generated_Source\PSoC4/modbus_tx_interrupt.c **** *
  95:Generated_Source\PSoC4/modbus_tx_interrupt.c **** * Return:
  96:Generated_Source\PSoC4/modbus_tx_interrupt.c **** *   None
  97:Generated_Source\PSoC4/modbus_tx_interrupt.c **** *
  98:Generated_Source\PSoC4/modbus_tx_interrupt.c **** *******************************************************************************/
  99:Generated_Source\PSoC4/modbus_tx_interrupt.c **** void modbus_tx_interrupt_StartEx(cyisraddress address)
 100:Generated_Source\PSoC4/modbus_tx_interrupt.c **** {
 101:Generated_Source\PSoC4/modbus_tx_interrupt.c ****     /* For all we know the interrupt is active. */
 102:Generated_Source\PSoC4/modbus_tx_interrupt.c ****     modbus_tx_interrupt_Disable();
 103:Generated_Source\PSoC4/modbus_tx_interrupt.c **** 
 104:Generated_Source\PSoC4/modbus_tx_interrupt.c ****     /* Set the ISR to point to the modbus_tx_interrupt Interrupt. */
 105:Generated_Source\PSoC4/modbus_tx_interrupt.c ****     modbus_tx_interrupt_SetVector(address);
 106:Generated_Source\PSoC4/modbus_tx_interrupt.c **** 
 107:Generated_Source\PSoC4/modbus_tx_interrupt.c ****     /* Set the priority. */
 108:Generated_Source\PSoC4/modbus_tx_interrupt.c ****     modbus_tx_interrupt_SetPriority((uint8)modbus_tx_interrupt_INTC_PRIOR_NUMBER);
 109:Generated_Source\PSoC4/modbus_tx_interrupt.c **** 
 110:Generated_Source\PSoC4/modbus_tx_interrupt.c ****     /* Enable it. */
 111:Generated_Source\PSoC4/modbus_tx_interrupt.c ****     modbus_tx_interrupt_Enable();
 112:Generated_Source\PSoC4/modbus_tx_interrupt.c **** }
 113:Generated_Source\PSoC4/modbus_tx_interrupt.c **** 
 114:Generated_Source\PSoC4/modbus_tx_interrupt.c **** 
 115:Generated_Source\PSoC4/modbus_tx_interrupt.c **** /*******************************************************************************
 116:Generated_Source\PSoC4/modbus_tx_interrupt.c **** * Function Name: modbus_tx_interrupt_Stop
 117:Generated_Source\PSoC4/modbus_tx_interrupt.c **** ********************************************************************************
 118:Generated_Source\PSoC4/modbus_tx_interrupt.c **** *
 119:Generated_Source\PSoC4/modbus_tx_interrupt.c **** * Summary:
 120:Generated_Source\PSoC4/modbus_tx_interrupt.c **** *   Disables and removes the interrupt.
 121:Generated_Source\PSoC4/modbus_tx_interrupt.c **** *
 122:Generated_Source\PSoC4/modbus_tx_interrupt.c **** * Parameters:  
 123:Generated_Source\PSoC4/modbus_tx_interrupt.c **** *   None
 124:Generated_Source\PSoC4/modbus_tx_interrupt.c **** *
 125:Generated_Source\PSoC4/modbus_tx_interrupt.c **** * Return:
 126:Generated_Source\PSoC4/modbus_tx_interrupt.c **** *   None
 127:Generated_Source\PSoC4/modbus_tx_interrupt.c **** *
 128:Generated_Source\PSoC4/modbus_tx_interrupt.c **** *******************************************************************************/
 129:Generated_Source\PSoC4/modbus_tx_interrupt.c **** void modbus_tx_interrupt_Stop(void)
 130:Generated_Source\PSoC4/modbus_tx_interrupt.c **** {
 131:Generated_Source\PSoC4/modbus_tx_interrupt.c ****     /* Disable this interrupt. */
 132:Generated_Source\PSoC4/modbus_tx_interrupt.c ****     modbus_tx_interrupt_Disable();
 133:Generated_Source\PSoC4/modbus_tx_interrupt.c **** 
 134:Generated_Source\PSoC4/modbus_tx_interrupt.c ****     /* Set the ISR to point to the passive one. */
 135:Generated_Source\PSoC4/modbus_tx_interrupt.c ****     modbus_tx_interrupt_SetVector(&IntDefaultHandler);
 136:Generated_Source\PSoC4/modbus_tx_interrupt.c **** }
 137:Generated_Source\PSoC4/modbus_tx_interrupt.c **** 
 138:Generated_Source\PSoC4/modbus_tx_interrupt.c **** 
 139:Generated_Source\PSoC4/modbus_tx_interrupt.c **** /*******************************************************************************
 140:Generated_Source\PSoC4/modbus_tx_interrupt.c **** * Function Name: modbus_tx_interrupt_Interrupt
 141:Generated_Source\PSoC4/modbus_tx_interrupt.c **** ********************************************************************************
 142:Generated_Source\PSoC4/modbus_tx_interrupt.c **** *
 143:Generated_Source\PSoC4/modbus_tx_interrupt.c **** * Summary:
 144:Generated_Source\PSoC4/modbus_tx_interrupt.c **** *   The default Interrupt Service Routine for modbus_tx_interrupt.
 145:Generated_Source\PSoC4/modbus_tx_interrupt.c **** *
 146:Generated_Source\PSoC4/modbus_tx_interrupt.c **** *   Add custom code between the START and END comments to keep the next version
ARM GAS  C:\Users\glenn\AppData\Local\Temp\ccLZPACk.s 			page 4


 147:Generated_Source\PSoC4/modbus_tx_interrupt.c **** *   of this file from over-writing your code.
 148:Generated_Source\PSoC4/modbus_tx_interrupt.c **** *
 149:Generated_Source\PSoC4/modbus_tx_interrupt.c **** *   Note You may use either the default ISR by using this API, or you may define
 150:Generated_Source\PSoC4/modbus_tx_interrupt.c **** *   your own separate ISR through ISR_StartEx().
 151:Generated_Source\PSoC4/modbus_tx_interrupt.c **** *
 152:Generated_Source\PSoC4/modbus_tx_interrupt.c **** * Parameters:  
 153:Generated_Source\PSoC4/modbus_tx_interrupt.c **** *   None
 154:Generated_Source\PSoC4/modbus_tx_interrupt.c **** *
 155:Generated_Source\PSoC4/modbus_tx_interrupt.c **** * Return:
 156:Generated_Source\PSoC4/modbus_tx_interrupt.c **** *   None
 157:Generated_Source\PSoC4/modbus_tx_interrupt.c **** *
 158:Generated_Source\PSoC4/modbus_tx_interrupt.c **** *******************************************************************************/
 159:Generated_Source\PSoC4/modbus_tx_interrupt.c **** CY_ISR(modbus_tx_interrupt_Interrupt)
 160:Generated_Source\PSoC4/modbus_tx_interrupt.c **** {
  26              		.loc 1 160 0
  27              		.cfi_startproc
 161:Generated_Source\PSoC4/modbus_tx_interrupt.c ****     #ifdef modbus_tx_interrupt_INTERRUPT_INTERRUPT_CALLBACK
 162:Generated_Source\PSoC4/modbus_tx_interrupt.c ****         modbus_tx_interrupt_Interrupt_InterruptCallback();
 163:Generated_Source\PSoC4/modbus_tx_interrupt.c ****     #endif /* modbus_tx_interrupt_INTERRUPT_INTERRUPT_CALLBACK */ 
 164:Generated_Source\PSoC4/modbus_tx_interrupt.c **** 
 165:Generated_Source\PSoC4/modbus_tx_interrupt.c ****     /*  Place your Interrupt code here. */
 166:Generated_Source\PSoC4/modbus_tx_interrupt.c ****     /* `#START modbus_tx_interrupt_Interrupt` */
 167:Generated_Source\PSoC4/modbus_tx_interrupt.c **** 
 168:Generated_Source\PSoC4/modbus_tx_interrupt.c ****     /* `#END` */
 169:Generated_Source\PSoC4/modbus_tx_interrupt.c **** }
  28              		.loc 1 169 0
  29              		@ sp needed
  30 0000 7047     		bx	lr
  31              		.cfi_endproc
  32              	.LFE4:
  33              		.size	modbus_tx_interrupt_Interrupt, .-modbus_tx_interrupt_Interrupt
  34 0002 C046     		.section	.text.modbus_tx_interrupt_Start,"ax",%progbits
  35              		.align	2
  36              		.global	modbus_tx_interrupt_Start
  37              		.code	16
  38              		.thumb_func
  39              		.type	modbus_tx_interrupt_Start, %function
  40              	modbus_tx_interrupt_Start:
  41              	.LFB1:
  57:Generated_Source\PSoC4/modbus_tx_interrupt.c ****     /* For all we know the interrupt is active. */
  42              		.loc 1 57 0
  43              		.cfi_startproc
  44 0000 10B5     		push	{r4, lr}
  45              		.cfi_def_cfa_offset 8
  46              		.cfi_offset 4, -8
  47              		.cfi_offset 14, -4
  48              	.LBB26:
  49              	.LBB27:
 170:Generated_Source\PSoC4/modbus_tx_interrupt.c **** 
 171:Generated_Source\PSoC4/modbus_tx_interrupt.c **** 
 172:Generated_Source\PSoC4/modbus_tx_interrupt.c **** /*******************************************************************************
 173:Generated_Source\PSoC4/modbus_tx_interrupt.c **** * Function Name: modbus_tx_interrupt_SetVector
 174:Generated_Source\PSoC4/modbus_tx_interrupt.c **** ********************************************************************************
 175:Generated_Source\PSoC4/modbus_tx_interrupt.c **** *
 176:Generated_Source\PSoC4/modbus_tx_interrupt.c **** * Summary:
 177:Generated_Source\PSoC4/modbus_tx_interrupt.c **** *   Change the ISR vector for the Interrupt. Note calling modbus_tx_interrupt_Start
 178:Generated_Source\PSoC4/modbus_tx_interrupt.c **** *   will override any effect this method would have had. To set the vector 
ARM GAS  C:\Users\glenn\AppData\Local\Temp\ccLZPACk.s 			page 5


 179:Generated_Source\PSoC4/modbus_tx_interrupt.c **** *   before the component has been started use modbus_tx_interrupt_StartEx instead.
 180:Generated_Source\PSoC4/modbus_tx_interrupt.c **** * 
 181:Generated_Source\PSoC4/modbus_tx_interrupt.c **** *   When defining ISR functions, the CY_ISR and CY_ISR_PROTO macros should be 
 182:Generated_Source\PSoC4/modbus_tx_interrupt.c **** *   used to provide consistent definition across compilers:
 183:Generated_Source\PSoC4/modbus_tx_interrupt.c **** *
 184:Generated_Source\PSoC4/modbus_tx_interrupt.c **** *   Function definition example:
 185:Generated_Source\PSoC4/modbus_tx_interrupt.c **** *   CY_ISR(MyISR)
 186:Generated_Source\PSoC4/modbus_tx_interrupt.c **** *   {
 187:Generated_Source\PSoC4/modbus_tx_interrupt.c **** *   }
 188:Generated_Source\PSoC4/modbus_tx_interrupt.c **** *
 189:Generated_Source\PSoC4/modbus_tx_interrupt.c **** *   Function prototype example:
 190:Generated_Source\PSoC4/modbus_tx_interrupt.c **** *     CY_ISR_PROTO(MyISR);
 191:Generated_Source\PSoC4/modbus_tx_interrupt.c **** *
 192:Generated_Source\PSoC4/modbus_tx_interrupt.c **** * Parameters:
 193:Generated_Source\PSoC4/modbus_tx_interrupt.c **** *   address: Address of the ISR to set in the interrupt vector table.
 194:Generated_Source\PSoC4/modbus_tx_interrupt.c **** *
 195:Generated_Source\PSoC4/modbus_tx_interrupt.c **** * Return:
 196:Generated_Source\PSoC4/modbus_tx_interrupt.c **** *   None
 197:Generated_Source\PSoC4/modbus_tx_interrupt.c **** *
 198:Generated_Source\PSoC4/modbus_tx_interrupt.c **** *******************************************************************************/
 199:Generated_Source\PSoC4/modbus_tx_interrupt.c **** void modbus_tx_interrupt_SetVector(cyisraddress address)
 200:Generated_Source\PSoC4/modbus_tx_interrupt.c **** {
 201:Generated_Source\PSoC4/modbus_tx_interrupt.c ****     CyRamVectors[CYINT_IRQ_BASE + modbus_tx_interrupt__INTC_NUMBER] = address;
 202:Generated_Source\PSoC4/modbus_tx_interrupt.c **** }
 203:Generated_Source\PSoC4/modbus_tx_interrupt.c **** 
 204:Generated_Source\PSoC4/modbus_tx_interrupt.c **** 
 205:Generated_Source\PSoC4/modbus_tx_interrupt.c **** /*******************************************************************************
 206:Generated_Source\PSoC4/modbus_tx_interrupt.c **** * Function Name: modbus_tx_interrupt_GetVector
 207:Generated_Source\PSoC4/modbus_tx_interrupt.c **** ********************************************************************************
 208:Generated_Source\PSoC4/modbus_tx_interrupt.c **** *
 209:Generated_Source\PSoC4/modbus_tx_interrupt.c **** * Summary:
 210:Generated_Source\PSoC4/modbus_tx_interrupt.c **** *   Gets the "address" of the current ISR vector for the Interrupt.
 211:Generated_Source\PSoC4/modbus_tx_interrupt.c **** *
 212:Generated_Source\PSoC4/modbus_tx_interrupt.c **** * Parameters:
 213:Generated_Source\PSoC4/modbus_tx_interrupt.c **** *   None
 214:Generated_Source\PSoC4/modbus_tx_interrupt.c **** *
 215:Generated_Source\PSoC4/modbus_tx_interrupt.c **** * Return:
 216:Generated_Source\PSoC4/modbus_tx_interrupt.c **** *   Address of the ISR in the interrupt vector table.
 217:Generated_Source\PSoC4/modbus_tx_interrupt.c **** *
 218:Generated_Source\PSoC4/modbus_tx_interrupt.c **** *******************************************************************************/
 219:Generated_Source\PSoC4/modbus_tx_interrupt.c **** cyisraddress modbus_tx_interrupt_GetVector(void)
 220:Generated_Source\PSoC4/modbus_tx_interrupt.c **** {
 221:Generated_Source\PSoC4/modbus_tx_interrupt.c ****     return CyRamVectors[CYINT_IRQ_BASE + modbus_tx_interrupt__INTC_NUMBER];
 222:Generated_Source\PSoC4/modbus_tx_interrupt.c **** }
 223:Generated_Source\PSoC4/modbus_tx_interrupt.c **** 
 224:Generated_Source\PSoC4/modbus_tx_interrupt.c **** 
 225:Generated_Source\PSoC4/modbus_tx_interrupt.c **** /*******************************************************************************
 226:Generated_Source\PSoC4/modbus_tx_interrupt.c **** * Function Name: modbus_tx_interrupt_SetPriority
 227:Generated_Source\PSoC4/modbus_tx_interrupt.c **** ********************************************************************************
 228:Generated_Source\PSoC4/modbus_tx_interrupt.c **** *
 229:Generated_Source\PSoC4/modbus_tx_interrupt.c **** * Summary:
 230:Generated_Source\PSoC4/modbus_tx_interrupt.c **** *   Sets the Priority of the Interrupt. 
 231:Generated_Source\PSoC4/modbus_tx_interrupt.c **** *
 232:Generated_Source\PSoC4/modbus_tx_interrupt.c **** *   Note calling modbus_tx_interrupt_Start or modbus_tx_interrupt_StartEx will 
 233:Generated_Source\PSoC4/modbus_tx_interrupt.c **** *   override any effect this API would have had. This API should only be called
 234:Generated_Source\PSoC4/modbus_tx_interrupt.c **** *   after modbus_tx_interrupt_Start or modbus_tx_interrupt_StartEx has been called. 
 235:Generated_Source\PSoC4/modbus_tx_interrupt.c **** *   To set the initial priority for the component, use the Design-Wide Resources
ARM GAS  C:\Users\glenn\AppData\Local\Temp\ccLZPACk.s 			page 6


 236:Generated_Source\PSoC4/modbus_tx_interrupt.c **** *   Interrupt Editor.
 237:Generated_Source\PSoC4/modbus_tx_interrupt.c **** *
 238:Generated_Source\PSoC4/modbus_tx_interrupt.c **** *   Note This API has no effect on Non-maskable interrupt NMI).
 239:Generated_Source\PSoC4/modbus_tx_interrupt.c **** *
 240:Generated_Source\PSoC4/modbus_tx_interrupt.c **** * Parameters:
 241:Generated_Source\PSoC4/modbus_tx_interrupt.c **** *   priority: Priority of the interrupt, 0 being the highest priority
 242:Generated_Source\PSoC4/modbus_tx_interrupt.c **** *             PSoC 3 and PSoC 5LP: Priority is from 0 to 7.
 243:Generated_Source\PSoC4/modbus_tx_interrupt.c **** *             PSoC 4: Priority is from 0 to 3.
 244:Generated_Source\PSoC4/modbus_tx_interrupt.c **** *
 245:Generated_Source\PSoC4/modbus_tx_interrupt.c **** * Return:
 246:Generated_Source\PSoC4/modbus_tx_interrupt.c **** *   None
 247:Generated_Source\PSoC4/modbus_tx_interrupt.c **** *
 248:Generated_Source\PSoC4/modbus_tx_interrupt.c **** *******************************************************************************/
 249:Generated_Source\PSoC4/modbus_tx_interrupt.c **** void modbus_tx_interrupt_SetPriority(uint8 priority)
 250:Generated_Source\PSoC4/modbus_tx_interrupt.c **** {
 251:Generated_Source\PSoC4/modbus_tx_interrupt.c **** 	uint8 interruptState;
 252:Generated_Source\PSoC4/modbus_tx_interrupt.c ****     uint32 priorityOffset = ((modbus_tx_interrupt__INTC_NUMBER % 4u) * 8u) + 6u;
 253:Generated_Source\PSoC4/modbus_tx_interrupt.c ****     
 254:Generated_Source\PSoC4/modbus_tx_interrupt.c **** 	interruptState = CyEnterCriticalSection();
 255:Generated_Source\PSoC4/modbus_tx_interrupt.c ****     *modbus_tx_interrupt_INTC_PRIOR = (*modbus_tx_interrupt_INTC_PRIOR & (uint32)(~modbus_tx_interr
 256:Generated_Source\PSoC4/modbus_tx_interrupt.c ****                                     ((uint32)priority << priorityOffset);
 257:Generated_Source\PSoC4/modbus_tx_interrupt.c **** 	CyExitCriticalSection(interruptState);
 258:Generated_Source\PSoC4/modbus_tx_interrupt.c **** }
 259:Generated_Source\PSoC4/modbus_tx_interrupt.c **** 
 260:Generated_Source\PSoC4/modbus_tx_interrupt.c **** 
 261:Generated_Source\PSoC4/modbus_tx_interrupt.c **** /*******************************************************************************
 262:Generated_Source\PSoC4/modbus_tx_interrupt.c **** * Function Name: modbus_tx_interrupt_GetPriority
 263:Generated_Source\PSoC4/modbus_tx_interrupt.c **** ********************************************************************************
 264:Generated_Source\PSoC4/modbus_tx_interrupt.c **** *
 265:Generated_Source\PSoC4/modbus_tx_interrupt.c **** * Summary:
 266:Generated_Source\PSoC4/modbus_tx_interrupt.c **** *   Gets the Priority of the Interrupt.
 267:Generated_Source\PSoC4/modbus_tx_interrupt.c **** *
 268:Generated_Source\PSoC4/modbus_tx_interrupt.c **** * Parameters:
 269:Generated_Source\PSoC4/modbus_tx_interrupt.c **** *   None
 270:Generated_Source\PSoC4/modbus_tx_interrupt.c **** *
 271:Generated_Source\PSoC4/modbus_tx_interrupt.c **** * Return:
 272:Generated_Source\PSoC4/modbus_tx_interrupt.c **** *   Priority of the interrupt, 0 being the highest priority
 273:Generated_Source\PSoC4/modbus_tx_interrupt.c **** *    PSoC 3 and PSoC 5LP: Priority is from 0 to 7.
 274:Generated_Source\PSoC4/modbus_tx_interrupt.c **** *    PSoC 4: Priority is from 0 to 3.
 275:Generated_Source\PSoC4/modbus_tx_interrupt.c **** *
 276:Generated_Source\PSoC4/modbus_tx_interrupt.c **** *******************************************************************************/
 277:Generated_Source\PSoC4/modbus_tx_interrupt.c **** uint8 modbus_tx_interrupt_GetPriority(void)
 278:Generated_Source\PSoC4/modbus_tx_interrupt.c **** {
 279:Generated_Source\PSoC4/modbus_tx_interrupt.c ****     uint32 priority;
 280:Generated_Source\PSoC4/modbus_tx_interrupt.c **** 	uint32 priorityOffset = ((modbus_tx_interrupt__INTC_NUMBER % 4u) * 8u) + 6u;
 281:Generated_Source\PSoC4/modbus_tx_interrupt.c **** 
 282:Generated_Source\PSoC4/modbus_tx_interrupt.c ****     priority = (*modbus_tx_interrupt_INTC_PRIOR & modbus_tx_interrupt__INTC_PRIOR_MASK) >> priority
 283:Generated_Source\PSoC4/modbus_tx_interrupt.c **** 
 284:Generated_Source\PSoC4/modbus_tx_interrupt.c ****     return (uint8)priority;
 285:Generated_Source\PSoC4/modbus_tx_interrupt.c **** }
 286:Generated_Source\PSoC4/modbus_tx_interrupt.c **** 
 287:Generated_Source\PSoC4/modbus_tx_interrupt.c **** 
 288:Generated_Source\PSoC4/modbus_tx_interrupt.c **** /*******************************************************************************
 289:Generated_Source\PSoC4/modbus_tx_interrupt.c **** * Function Name: modbus_tx_interrupt_Enable
 290:Generated_Source\PSoC4/modbus_tx_interrupt.c **** ********************************************************************************
 291:Generated_Source\PSoC4/modbus_tx_interrupt.c **** *
 292:Generated_Source\PSoC4/modbus_tx_interrupt.c **** * Summary:
ARM GAS  C:\Users\glenn\AppData\Local\Temp\ccLZPACk.s 			page 7


 293:Generated_Source\PSoC4/modbus_tx_interrupt.c **** *   Enables the interrupt to the interrupt controller. Do not call this function
 294:Generated_Source\PSoC4/modbus_tx_interrupt.c **** *   unless ISR_Start() has been called or the functionality of the ISR_Start() 
 295:Generated_Source\PSoC4/modbus_tx_interrupt.c **** *   function, which sets the vector and the priority, has been called.
 296:Generated_Source\PSoC4/modbus_tx_interrupt.c **** *
 297:Generated_Source\PSoC4/modbus_tx_interrupt.c **** * Parameters:
 298:Generated_Source\PSoC4/modbus_tx_interrupt.c **** *   None
 299:Generated_Source\PSoC4/modbus_tx_interrupt.c **** *
 300:Generated_Source\PSoC4/modbus_tx_interrupt.c **** * Return:
 301:Generated_Source\PSoC4/modbus_tx_interrupt.c **** *   None
 302:Generated_Source\PSoC4/modbus_tx_interrupt.c **** *
 303:Generated_Source\PSoC4/modbus_tx_interrupt.c **** *******************************************************************************/
 304:Generated_Source\PSoC4/modbus_tx_interrupt.c **** void modbus_tx_interrupt_Enable(void)
 305:Generated_Source\PSoC4/modbus_tx_interrupt.c **** {
 306:Generated_Source\PSoC4/modbus_tx_interrupt.c ****     /* Enable the general interrupt. */
 307:Generated_Source\PSoC4/modbus_tx_interrupt.c ****     *modbus_tx_interrupt_INTC_SET_EN = modbus_tx_interrupt__INTC_MASK;
 308:Generated_Source\PSoC4/modbus_tx_interrupt.c **** }
 309:Generated_Source\PSoC4/modbus_tx_interrupt.c **** 
 310:Generated_Source\PSoC4/modbus_tx_interrupt.c **** 
 311:Generated_Source\PSoC4/modbus_tx_interrupt.c **** /*******************************************************************************
 312:Generated_Source\PSoC4/modbus_tx_interrupt.c **** * Function Name: modbus_tx_interrupt_GetState
 313:Generated_Source\PSoC4/modbus_tx_interrupt.c **** ********************************************************************************
 314:Generated_Source\PSoC4/modbus_tx_interrupt.c **** *
 315:Generated_Source\PSoC4/modbus_tx_interrupt.c **** * Summary:
 316:Generated_Source\PSoC4/modbus_tx_interrupt.c **** *   Gets the state (enabled, disabled) of the Interrupt.
 317:Generated_Source\PSoC4/modbus_tx_interrupt.c **** *
 318:Generated_Source\PSoC4/modbus_tx_interrupt.c **** * Parameters:
 319:Generated_Source\PSoC4/modbus_tx_interrupt.c **** *   None
 320:Generated_Source\PSoC4/modbus_tx_interrupt.c **** *
 321:Generated_Source\PSoC4/modbus_tx_interrupt.c **** * Return:
 322:Generated_Source\PSoC4/modbus_tx_interrupt.c **** *   1 if enabled, 0 if disabled.
 323:Generated_Source\PSoC4/modbus_tx_interrupt.c **** *
 324:Generated_Source\PSoC4/modbus_tx_interrupt.c **** *******************************************************************************/
 325:Generated_Source\PSoC4/modbus_tx_interrupt.c **** uint8 modbus_tx_interrupt_GetState(void)
 326:Generated_Source\PSoC4/modbus_tx_interrupt.c **** {
 327:Generated_Source\PSoC4/modbus_tx_interrupt.c ****     /* Get the state of the general interrupt. */
 328:Generated_Source\PSoC4/modbus_tx_interrupt.c ****     return ((*modbus_tx_interrupt_INTC_SET_EN & (uint32)modbus_tx_interrupt__INTC_MASK) != 0u) ? 1u
 329:Generated_Source\PSoC4/modbus_tx_interrupt.c **** }
 330:Generated_Source\PSoC4/modbus_tx_interrupt.c **** 
 331:Generated_Source\PSoC4/modbus_tx_interrupt.c **** 
 332:Generated_Source\PSoC4/modbus_tx_interrupt.c **** /*******************************************************************************
 333:Generated_Source\PSoC4/modbus_tx_interrupt.c **** * Function Name: modbus_tx_interrupt_Disable
 334:Generated_Source\PSoC4/modbus_tx_interrupt.c **** ********************************************************************************
 335:Generated_Source\PSoC4/modbus_tx_interrupt.c **** *
 336:Generated_Source\PSoC4/modbus_tx_interrupt.c **** * Summary:
 337:Generated_Source\PSoC4/modbus_tx_interrupt.c **** *   Disables the Interrupt in the interrupt controller.
 338:Generated_Source\PSoC4/modbus_tx_interrupt.c **** *
 339:Generated_Source\PSoC4/modbus_tx_interrupt.c **** * Parameters:
 340:Generated_Source\PSoC4/modbus_tx_interrupt.c **** *   None
 341:Generated_Source\PSoC4/modbus_tx_interrupt.c **** *
 342:Generated_Source\PSoC4/modbus_tx_interrupt.c **** * Return:
 343:Generated_Source\PSoC4/modbus_tx_interrupt.c **** *   None
 344:Generated_Source\PSoC4/modbus_tx_interrupt.c **** *
 345:Generated_Source\PSoC4/modbus_tx_interrupt.c **** *******************************************************************************/
 346:Generated_Source\PSoC4/modbus_tx_interrupt.c **** void modbus_tx_interrupt_Disable(void)
 347:Generated_Source\PSoC4/modbus_tx_interrupt.c **** {
 348:Generated_Source\PSoC4/modbus_tx_interrupt.c ****     /* Disable the general interrupt. */
 349:Generated_Source\PSoC4/modbus_tx_interrupt.c ****     *modbus_tx_interrupt_INTC_CLR_EN = modbus_tx_interrupt__INTC_MASK;
ARM GAS  C:\Users\glenn\AppData\Local\Temp\ccLZPACk.s 			page 8


  50              		.loc 1 349 0
  51 0002 0224     		mov	r4, #2
  52 0004 084B     		ldr	r3, .L3
  53              	.LBE27:
  54              	.LBE26:
  55              	.LBB29:
  56              	.LBB30:
 201:Generated_Source\PSoC4/modbus_tx_interrupt.c **** }
  57              		.loc 1 201 0
  58 0006 094A     		ldr	r2, .L3+4
  59              	.LBE30:
  60              	.LBE29:
  61              	.LBB33:
  62              	.LBB28:
  63              		.loc 1 349 0
  64 0008 1C60     		str	r4, [r3]
  65              	.LVL0:
  66              	.LBE28:
  67              	.LBE33:
  68              	.LBB34:
  69              	.LBB31:
 201:Generated_Source\PSoC4/modbus_tx_interrupt.c **** }
  70              		.loc 1 201 0
  71 000a 094B     		ldr	r3, .L3+8
  72              	.LBE31:
  73              	.LBE34:
  69:Generated_Source\PSoC4/modbus_tx_interrupt.c **** 
  74              		.loc 1 69 0
  75              		@ sp needed
  76              	.LBB35:
  77              	.LBB32:
 201:Generated_Source\PSoC4/modbus_tx_interrupt.c **** }
  78              		.loc 1 201 0
  79 000c 5A64     		str	r2, [r3, #68]
  80              	.LVL1:
  81              	.LBE32:
  82              	.LBE35:
  83              	.LBB36:
  84              	.LBB37:
 254:Generated_Source\PSoC4/modbus_tx_interrupt.c ****     *modbus_tx_interrupt_INTC_PRIOR = (*modbus_tx_interrupt_INTC_PRIOR & (uint32)(~modbus_tx_interr
  85              		.loc 1 254 0
  86 000e FFF7FEFF 		bl	CyEnterCriticalSection
  87              	.LVL2:
 255:Generated_Source\PSoC4/modbus_tx_interrupt.c ****                                     ((uint32)priority << priorityOffset);
  88              		.loc 1 255 0
  89 0012 C023     		mov	r3, #192
  90 0014 074A     		ldr	r2, .L3+12
  91 0016 1B02     		lsl	r3, r3, #8
  92 0018 1168     		ldr	r1, [r2]
  93 001a 0B43     		orr	r3, r1
  94 001c 1360     		str	r3, [r2]
 257:Generated_Source\PSoC4/modbus_tx_interrupt.c **** }
  95              		.loc 1 257 0
  96 001e FFF7FEFF 		bl	CyExitCriticalSection
  97              	.LVL3:
  98              	.LBE37:
  99              	.LBE36:
ARM GAS  C:\Users\glenn\AppData\Local\Temp\ccLZPACk.s 			page 9


 100              	.LBB38:
 101              	.LBB39:
 307:Generated_Source\PSoC4/modbus_tx_interrupt.c **** }
 102              		.loc 1 307 0
 103 0022 054B     		ldr	r3, .L3+16
 104 0024 1C60     		str	r4, [r3]
 105              	.LBE39:
 106              	.LBE38:
  69:Generated_Source\PSoC4/modbus_tx_interrupt.c **** 
 107              		.loc 1 69 0
 108 0026 10BD     		pop	{r4, pc}
 109              	.L4:
 110              		.align	2
 111              	.L3:
 112 0028 80E100E0 		.word	-536813184
 113 002c 00000000 		.word	modbus_tx_interrupt_Interrupt
 114 0030 00000000 		.word	CyRamVectors
 115 0034 00E400E0 		.word	-536812544
 116 0038 00E100E0 		.word	-536813312
 117              		.cfi_endproc
 118              	.LFE1:
 119              		.size	modbus_tx_interrupt_Start, .-modbus_tx_interrupt_Start
 120              		.section	.text.modbus_tx_interrupt_StartEx,"ax",%progbits
 121              		.align	2
 122              		.global	modbus_tx_interrupt_StartEx
 123              		.code	16
 124              		.thumb_func
 125              		.type	modbus_tx_interrupt_StartEx, %function
 126              	modbus_tx_interrupt_StartEx:
 127              	.LFB2:
 100:Generated_Source\PSoC4/modbus_tx_interrupt.c ****     /* For all we know the interrupt is active. */
 128              		.loc 1 100 0
 129              		.cfi_startproc
 130              	.LVL4:
 131 0000 10B5     		push	{r4, lr}
 132              		.cfi_def_cfa_offset 8
 133              		.cfi_offset 4, -8
 134              		.cfi_offset 14, -4
 135              	.LBB48:
 136              	.LBB49:
 137              		.loc 1 349 0
 138 0002 0224     		mov	r4, #2
 139 0004 084B     		ldr	r3, .L6
 140              	.LBE49:
 141              	.LBE48:
 112:Generated_Source\PSoC4/modbus_tx_interrupt.c **** 
 142              		.loc 1 112 0
 143              		@ sp needed
 144              	.LBB51:
 145              	.LBB50:
 146              		.loc 1 349 0
 147 0006 1C60     		str	r4, [r3]
 148              	.LVL5:
 149              	.LBE50:
 150              	.LBE51:
 151              	.LBB52:
 152              	.LBB53:
ARM GAS  C:\Users\glenn\AppData\Local\Temp\ccLZPACk.s 			page 10


 201:Generated_Source\PSoC4/modbus_tx_interrupt.c **** }
 153              		.loc 1 201 0
 154 0008 084B     		ldr	r3, .L6+4
 155 000a 5864     		str	r0, [r3, #68]
 156              	.LVL6:
 157              	.LBE53:
 158              	.LBE52:
 159              	.LBB54:
 160              	.LBB55:
 254:Generated_Source\PSoC4/modbus_tx_interrupt.c ****     *modbus_tx_interrupt_INTC_PRIOR = (*modbus_tx_interrupt_INTC_PRIOR & (uint32)(~modbus_tx_interr
 161              		.loc 1 254 0
 162 000c FFF7FEFF 		bl	CyEnterCriticalSection
 163              	.LVL7:
 255:Generated_Source\PSoC4/modbus_tx_interrupt.c ****                                     ((uint32)priority << priorityOffset);
 164              		.loc 1 255 0
 165 0010 C023     		mov	r3, #192
 166 0012 074A     		ldr	r2, .L6+8
 167 0014 1B02     		lsl	r3, r3, #8
 168 0016 1168     		ldr	r1, [r2]
 169 0018 0B43     		orr	r3, r1
 170 001a 1360     		str	r3, [r2]
 257:Generated_Source\PSoC4/modbus_tx_interrupt.c **** }
 171              		.loc 1 257 0
 172 001c FFF7FEFF 		bl	CyExitCriticalSection
 173              	.LVL8:
 174              	.LBE55:
 175              	.LBE54:
 176              	.LBB56:
 177              	.LBB57:
 307:Generated_Source\PSoC4/modbus_tx_interrupt.c **** }
 178              		.loc 1 307 0
 179 0020 044B     		ldr	r3, .L6+12
 180 0022 1C60     		str	r4, [r3]
 181              	.LBE57:
 182              	.LBE56:
 112:Generated_Source\PSoC4/modbus_tx_interrupt.c **** 
 183              		.loc 1 112 0
 184 0024 10BD     		pop	{r4, pc}
 185              	.L7:
 186 0026 C046     		.align	2
 187              	.L6:
 188 0028 80E100E0 		.word	-536813184
 189 002c 00000000 		.word	CyRamVectors
 190 0030 00E400E0 		.word	-536812544
 191 0034 00E100E0 		.word	-536813312
 192              		.cfi_endproc
 193              	.LFE2:
 194              		.size	modbus_tx_interrupt_StartEx, .-modbus_tx_interrupt_StartEx
 195              		.section	.text.modbus_tx_interrupt_Stop,"ax",%progbits
 196              		.align	2
 197              		.global	modbus_tx_interrupt_Stop
 198              		.code	16
 199              		.thumb_func
 200              		.type	modbus_tx_interrupt_Stop, %function
 201              	modbus_tx_interrupt_Stop:
 202              	.LFB3:
 130:Generated_Source\PSoC4/modbus_tx_interrupt.c ****     /* Disable this interrupt. */
ARM GAS  C:\Users\glenn\AppData\Local\Temp\ccLZPACk.s 			page 11


 203              		.loc 1 130 0
 204              		.cfi_startproc
 205              	.LBB58:
 206              	.LBB59:
 207              		.loc 1 349 0
 208 0000 0222     		mov	r2, #2
 209 0002 034B     		ldr	r3, .L9
 210              	.LBE59:
 211              	.LBE58:
 136:Generated_Source\PSoC4/modbus_tx_interrupt.c **** 
 212              		.loc 1 136 0
 213              		@ sp needed
 214              	.LBB61:
 215              	.LBB60:
 216              		.loc 1 349 0
 217 0004 1A60     		str	r2, [r3]
 218              	.LVL9:
 219              	.LBE60:
 220              	.LBE61:
 221              	.LBB62:
 222              	.LBB63:
 201:Generated_Source\PSoC4/modbus_tx_interrupt.c **** }
 223              		.loc 1 201 0
 224 0006 034A     		ldr	r2, .L9+4
 225 0008 034B     		ldr	r3, .L9+8
 226 000a 5A64     		str	r2, [r3, #68]
 227              	.LBE63:
 228              	.LBE62:
 136:Generated_Source\PSoC4/modbus_tx_interrupt.c **** 
 229              		.loc 1 136 0
 230 000c 7047     		bx	lr
 231              	.L10:
 232 000e C046     		.align	2
 233              	.L9:
 234 0010 80E100E0 		.word	-536813184
 235 0014 00000000 		.word	IntDefaultHandler
 236 0018 00000000 		.word	CyRamVectors
 237              		.cfi_endproc
 238              	.LFE3:
 239              		.size	modbus_tx_interrupt_Stop, .-modbus_tx_interrupt_Stop
 240              		.section	.text.modbus_tx_interrupt_SetVector,"ax",%progbits
 241              		.align	2
 242              		.global	modbus_tx_interrupt_SetVector
 243              		.code	16
 244              		.thumb_func
 245              		.type	modbus_tx_interrupt_SetVector, %function
 246              	modbus_tx_interrupt_SetVector:
 247              	.LFB5:
 200:Generated_Source\PSoC4/modbus_tx_interrupt.c ****     CyRamVectors[CYINT_IRQ_BASE + modbus_tx_interrupt__INTC_NUMBER] = address;
 248              		.loc 1 200 0
 249              		.cfi_startproc
 250              	.LVL10:
 201:Generated_Source\PSoC4/modbus_tx_interrupt.c **** }
 251              		.loc 1 201 0
 252 0000 014B     		ldr	r3, .L12
 202:Generated_Source\PSoC4/modbus_tx_interrupt.c **** 
 253              		.loc 1 202 0
ARM GAS  C:\Users\glenn\AppData\Local\Temp\ccLZPACk.s 			page 12


 254              		@ sp needed
 201:Generated_Source\PSoC4/modbus_tx_interrupt.c **** }
 255              		.loc 1 201 0
 256 0002 5864     		str	r0, [r3, #68]
 202:Generated_Source\PSoC4/modbus_tx_interrupt.c **** 
 257              		.loc 1 202 0
 258 0004 7047     		bx	lr
 259              	.L13:
 260 0006 C046     		.align	2
 261              	.L12:
 262 0008 00000000 		.word	CyRamVectors
 263              		.cfi_endproc
 264              	.LFE5:
 265              		.size	modbus_tx_interrupt_SetVector, .-modbus_tx_interrupt_SetVector
 266              		.section	.text.modbus_tx_interrupt_GetVector,"ax",%progbits
 267              		.align	2
 268              		.global	modbus_tx_interrupt_GetVector
 269              		.code	16
 270              		.thumb_func
 271              		.type	modbus_tx_interrupt_GetVector, %function
 272              	modbus_tx_interrupt_GetVector:
 273              	.LFB6:
 220:Generated_Source\PSoC4/modbus_tx_interrupt.c ****     return CyRamVectors[CYINT_IRQ_BASE + modbus_tx_interrupt__INTC_NUMBER];
 274              		.loc 1 220 0
 275              		.cfi_startproc
 221:Generated_Source\PSoC4/modbus_tx_interrupt.c **** }
 276              		.loc 1 221 0
 277 0000 014B     		ldr	r3, .L15
 222:Generated_Source\PSoC4/modbus_tx_interrupt.c **** 
 278              		.loc 1 222 0
 279              		@ sp needed
 221:Generated_Source\PSoC4/modbus_tx_interrupt.c **** }
 280              		.loc 1 221 0
 281 0002 586C     		ldr	r0, [r3, #68]
 222:Generated_Source\PSoC4/modbus_tx_interrupt.c **** 
 282              		.loc 1 222 0
 283 0004 7047     		bx	lr
 284              	.L16:
 285 0006 C046     		.align	2
 286              	.L15:
 287 0008 00000000 		.word	CyRamVectors
 288              		.cfi_endproc
 289              	.LFE6:
 290              		.size	modbus_tx_interrupt_GetVector, .-modbus_tx_interrupt_GetVector
 291              		.section	.text.modbus_tx_interrupt_SetPriority,"ax",%progbits
 292              		.align	2
 293              		.global	modbus_tx_interrupt_SetPriority
 294              		.code	16
 295              		.thumb_func
 296              		.type	modbus_tx_interrupt_SetPriority, %function
 297              	modbus_tx_interrupt_SetPriority:
 298              	.LFB7:
 250:Generated_Source\PSoC4/modbus_tx_interrupt.c **** 	uint8 interruptState;
 299              		.loc 1 250 0
 300              		.cfi_startproc
 301              	.LVL11:
 302 0000 10B5     		push	{r4, lr}
ARM GAS  C:\Users\glenn\AppData\Local\Temp\ccLZPACk.s 			page 13


 303              		.cfi_def_cfa_offset 8
 304              		.cfi_offset 4, -8
 305              		.cfi_offset 14, -4
 250:Generated_Source\PSoC4/modbus_tx_interrupt.c **** 	uint8 interruptState;
 306              		.loc 1 250 0
 307 0002 041C     		mov	r4, r0
 254:Generated_Source\PSoC4/modbus_tx_interrupt.c ****     *modbus_tx_interrupt_INTC_PRIOR = (*modbus_tx_interrupt_INTC_PRIOR & (uint32)(~modbus_tx_interr
 308              		.loc 1 254 0
 309 0004 FFF7FEFF 		bl	CyEnterCriticalSection
 310              	.LVL12:
 255:Generated_Source\PSoC4/modbus_tx_interrupt.c ****                                     ((uint32)priority << priorityOffset);
 311              		.loc 1 255 0
 312 0008 0449     		ldr	r1, .L18
 313 000a 054A     		ldr	r2, .L18+4
 314 000c 0B68     		ldr	r3, [r1]
 256:Generated_Source\PSoC4/modbus_tx_interrupt.c **** 	CyExitCriticalSection(interruptState);
 315              		.loc 1 256 0
 316 000e A403     		lsl	r4, r4, #14
 255:Generated_Source\PSoC4/modbus_tx_interrupt.c ****                                     ((uint32)priority << priorityOffset);
 317              		.loc 1 255 0
 318 0010 1340     		and	r3, r2
 319 0012 2343     		orr	r3, r4
 320 0014 0B60     		str	r3, [r1]
 257:Generated_Source\PSoC4/modbus_tx_interrupt.c **** }
 321              		.loc 1 257 0
 322 0016 FFF7FEFF 		bl	CyExitCriticalSection
 323              	.LVL13:
 258:Generated_Source\PSoC4/modbus_tx_interrupt.c **** 
 324              		.loc 1 258 0
 325              		@ sp needed
 326 001a 10BD     		pop	{r4, pc}
 327              	.L19:
 328              		.align	2
 329              	.L18:
 330 001c 00E400E0 		.word	-536812544
 331 0020 FF3FFFFF 		.word	-49153
 332              		.cfi_endproc
 333              	.LFE7:
 334              		.size	modbus_tx_interrupt_SetPriority, .-modbus_tx_interrupt_SetPriority
 335              		.section	.text.modbus_tx_interrupt_GetPriority,"ax",%progbits
 336              		.align	2
 337              		.global	modbus_tx_interrupt_GetPriority
 338              		.code	16
 339              		.thumb_func
 340              		.type	modbus_tx_interrupt_GetPriority, %function
 341              	modbus_tx_interrupt_GetPriority:
 342              	.LFB8:
 278:Generated_Source\PSoC4/modbus_tx_interrupt.c ****     uint32 priority;
 343              		.loc 1 278 0
 344              		.cfi_startproc
 345              	.LVL14:
 282:Generated_Source\PSoC4/modbus_tx_interrupt.c **** 
 346              		.loc 1 282 0
 347 0000 024B     		ldr	r3, .L21
 285:Generated_Source\PSoC4/modbus_tx_interrupt.c **** 
 348              		.loc 1 285 0
 349              		@ sp needed
ARM GAS  C:\Users\glenn\AppData\Local\Temp\ccLZPACk.s 			page 14


 282:Generated_Source\PSoC4/modbus_tx_interrupt.c **** 
 350              		.loc 1 282 0
 351 0002 1868     		ldr	r0, [r3]
 352              	.LVL15:
 353 0004 0004     		lsl	r0, r0, #16
 354              	.LVL16:
 284:Generated_Source\PSoC4/modbus_tx_interrupt.c **** }
 355              		.loc 1 284 0
 356 0006 800F     		lsr	r0, r0, #30
 285:Generated_Source\PSoC4/modbus_tx_interrupt.c **** 
 357              		.loc 1 285 0
 358 0008 7047     		bx	lr
 359              	.L22:
 360 000a C046     		.align	2
 361              	.L21:
 362 000c 00E400E0 		.word	-536812544
 363              		.cfi_endproc
 364              	.LFE8:
 365              		.size	modbus_tx_interrupt_GetPriority, .-modbus_tx_interrupt_GetPriority
 366              		.section	.text.modbus_tx_interrupt_Enable,"ax",%progbits
 367              		.align	2
 368              		.global	modbus_tx_interrupt_Enable
 369              		.code	16
 370              		.thumb_func
 371              		.type	modbus_tx_interrupt_Enable, %function
 372              	modbus_tx_interrupt_Enable:
 373              	.LFB9:
 305:Generated_Source\PSoC4/modbus_tx_interrupt.c ****     /* Enable the general interrupt. */
 374              		.loc 1 305 0
 375              		.cfi_startproc
 307:Generated_Source\PSoC4/modbus_tx_interrupt.c **** }
 376              		.loc 1 307 0
 377 0000 0222     		mov	r2, #2
 378 0002 014B     		ldr	r3, .L24
 308:Generated_Source\PSoC4/modbus_tx_interrupt.c **** 
 379              		.loc 1 308 0
 380              		@ sp needed
 307:Generated_Source\PSoC4/modbus_tx_interrupt.c **** }
 381              		.loc 1 307 0
 382 0004 1A60     		str	r2, [r3]
 308:Generated_Source\PSoC4/modbus_tx_interrupt.c **** 
 383              		.loc 1 308 0
 384 0006 7047     		bx	lr
 385              	.L25:
 386              		.align	2
 387              	.L24:
 388 0008 00E100E0 		.word	-536813312
 389              		.cfi_endproc
 390              	.LFE9:
 391              		.size	modbus_tx_interrupt_Enable, .-modbus_tx_interrupt_Enable
 392              		.section	.text.modbus_tx_interrupt_GetState,"ax",%progbits
 393              		.align	2
 394              		.global	modbus_tx_interrupt_GetState
 395              		.code	16
 396              		.thumb_func
 397              		.type	modbus_tx_interrupt_GetState, %function
 398              	modbus_tx_interrupt_GetState:
ARM GAS  C:\Users\glenn\AppData\Local\Temp\ccLZPACk.s 			page 15


 399              	.LFB10:
 326:Generated_Source\PSoC4/modbus_tx_interrupt.c ****     /* Get the state of the general interrupt. */
 400              		.loc 1 326 0
 401              		.cfi_startproc
 328:Generated_Source\PSoC4/modbus_tx_interrupt.c **** }
 402              		.loc 1 328 0
 403 0000 024B     		ldr	r3, .L27
 329:Generated_Source\PSoC4/modbus_tx_interrupt.c **** 
 404              		.loc 1 329 0
 405              		@ sp needed
 328:Generated_Source\PSoC4/modbus_tx_interrupt.c **** }
 406              		.loc 1 328 0
 407 0002 1868     		ldr	r0, [r3]
 408 0004 8007     		lsl	r0, r0, #30
 409 0006 C00F     		lsr	r0, r0, #31
 329:Generated_Source\PSoC4/modbus_tx_interrupt.c **** 
 410              		.loc 1 329 0
 411 0008 7047     		bx	lr
 412              	.L28:
 413 000a C046     		.align	2
 414              	.L27:
 415 000c 00E100E0 		.word	-536813312
 416              		.cfi_endproc
 417              	.LFE10:
 418              		.size	modbus_tx_interrupt_GetState, .-modbus_tx_interrupt_GetState
 419              		.section	.text.modbus_tx_interrupt_Disable,"ax",%progbits
 420              		.align	2
 421              		.global	modbus_tx_interrupt_Disable
 422              		.code	16
 423              		.thumb_func
 424              		.type	modbus_tx_interrupt_Disable, %function
 425              	modbus_tx_interrupt_Disable:
 426              	.LFB11:
 347:Generated_Source\PSoC4/modbus_tx_interrupt.c ****     /* Disable the general interrupt. */
 427              		.loc 1 347 0
 428              		.cfi_startproc
 429              		.loc 1 349 0
 430 0000 0222     		mov	r2, #2
 431 0002 014B     		ldr	r3, .L30
 350:Generated_Source\PSoC4/modbus_tx_interrupt.c **** }
 432              		.loc 1 350 0
 433              		@ sp needed
 349:Generated_Source\PSoC4/modbus_tx_interrupt.c **** }
 434              		.loc 1 349 0
 435 0004 1A60     		str	r2, [r3]
 436              		.loc 1 350 0
 437 0006 7047     		bx	lr
 438              	.L31:
 439              		.align	2
 440              	.L30:
 441 0008 80E100E0 		.word	-536813184
 442              		.cfi_endproc
 443              	.LFE11:
 444              		.size	modbus_tx_interrupt_Disable, .-modbus_tx_interrupt_Disable
 445              		.section	.text.modbus_tx_interrupt_SetPending,"ax",%progbits
 446              		.align	2
 447              		.global	modbus_tx_interrupt_SetPending
ARM GAS  C:\Users\glenn\AppData\Local\Temp\ccLZPACk.s 			page 16


 448              		.code	16
 449              		.thumb_func
 450              		.type	modbus_tx_interrupt_SetPending, %function
 451              	modbus_tx_interrupt_SetPending:
 452              	.LFB12:
 351:Generated_Source\PSoC4/modbus_tx_interrupt.c **** 
 352:Generated_Source\PSoC4/modbus_tx_interrupt.c **** 
 353:Generated_Source\PSoC4/modbus_tx_interrupt.c **** /*******************************************************************************
 354:Generated_Source\PSoC4/modbus_tx_interrupt.c **** * Function Name: modbus_tx_interrupt_SetPending
 355:Generated_Source\PSoC4/modbus_tx_interrupt.c **** ********************************************************************************
 356:Generated_Source\PSoC4/modbus_tx_interrupt.c **** *
 357:Generated_Source\PSoC4/modbus_tx_interrupt.c **** * Summary:
 358:Generated_Source\PSoC4/modbus_tx_interrupt.c **** *   Causes the Interrupt to enter the pending state, a software method of
 359:Generated_Source\PSoC4/modbus_tx_interrupt.c **** *   generating the interrupt.
 360:Generated_Source\PSoC4/modbus_tx_interrupt.c **** *
 361:Generated_Source\PSoC4/modbus_tx_interrupt.c **** * Parameters:
 362:Generated_Source\PSoC4/modbus_tx_interrupt.c **** *   None
 363:Generated_Source\PSoC4/modbus_tx_interrupt.c **** *
 364:Generated_Source\PSoC4/modbus_tx_interrupt.c **** * Return:
 365:Generated_Source\PSoC4/modbus_tx_interrupt.c **** *   None
 366:Generated_Source\PSoC4/modbus_tx_interrupt.c **** *
 367:Generated_Source\PSoC4/modbus_tx_interrupt.c **** * Side Effects:
 368:Generated_Source\PSoC4/modbus_tx_interrupt.c **** *   If interrupts are enabled and the interrupt is set up properly, the ISR is
 369:Generated_Source\PSoC4/modbus_tx_interrupt.c **** *   entered (depending on the priority of this interrupt and other pending 
 370:Generated_Source\PSoC4/modbus_tx_interrupt.c **** *   interrupts).
 371:Generated_Source\PSoC4/modbus_tx_interrupt.c **** *
 372:Generated_Source\PSoC4/modbus_tx_interrupt.c **** *******************************************************************************/
 373:Generated_Source\PSoC4/modbus_tx_interrupt.c **** void modbus_tx_interrupt_SetPending(void)
 374:Generated_Source\PSoC4/modbus_tx_interrupt.c **** {
 453              		.loc 1 374 0
 454              		.cfi_startproc
 375:Generated_Source\PSoC4/modbus_tx_interrupt.c ****     *modbus_tx_interrupt_INTC_SET_PD = modbus_tx_interrupt__INTC_MASK;
 455              		.loc 1 375 0
 456 0000 0222     		mov	r2, #2
 457 0002 014B     		ldr	r3, .L33
 376:Generated_Source\PSoC4/modbus_tx_interrupt.c **** }
 458              		.loc 1 376 0
 459              		@ sp needed
 375:Generated_Source\PSoC4/modbus_tx_interrupt.c ****     *modbus_tx_interrupt_INTC_SET_PD = modbus_tx_interrupt__INTC_MASK;
 460              		.loc 1 375 0
 461 0004 1A60     		str	r2, [r3]
 462              		.loc 1 376 0
 463 0006 7047     		bx	lr
 464              	.L34:
 465              		.align	2
 466              	.L33:
 467 0008 00E200E0 		.word	-536813056
 468              		.cfi_endproc
 469              	.LFE12:
 470              		.size	modbus_tx_interrupt_SetPending, .-modbus_tx_interrupt_SetPending
 471              		.section	.text.modbus_tx_interrupt_ClearPending,"ax",%progbits
 472              		.align	2
 473              		.global	modbus_tx_interrupt_ClearPending
 474              		.code	16
 475              		.thumb_func
 476              		.type	modbus_tx_interrupt_ClearPending, %function
 477              	modbus_tx_interrupt_ClearPending:
ARM GAS  C:\Users\glenn\AppData\Local\Temp\ccLZPACk.s 			page 17


 478              	.LFB13:
 377:Generated_Source\PSoC4/modbus_tx_interrupt.c **** 
 378:Generated_Source\PSoC4/modbus_tx_interrupt.c **** 
 379:Generated_Source\PSoC4/modbus_tx_interrupt.c **** /*******************************************************************************
 380:Generated_Source\PSoC4/modbus_tx_interrupt.c **** * Function Name: modbus_tx_interrupt_ClearPending
 381:Generated_Source\PSoC4/modbus_tx_interrupt.c **** ********************************************************************************
 382:Generated_Source\PSoC4/modbus_tx_interrupt.c **** *
 383:Generated_Source\PSoC4/modbus_tx_interrupt.c **** * Summary:
 384:Generated_Source\PSoC4/modbus_tx_interrupt.c **** *   Clears a pending interrupt in the interrupt controller.
 385:Generated_Source\PSoC4/modbus_tx_interrupt.c **** *
 386:Generated_Source\PSoC4/modbus_tx_interrupt.c **** *   Note Some interrupt sources are clear-on-read and require the block 
 387:Generated_Source\PSoC4/modbus_tx_interrupt.c **** *   interrupt/status register to be read/cleared with the appropriate block API 
 388:Generated_Source\PSoC4/modbus_tx_interrupt.c **** *   (GPIO, UART, and so on). Otherwise the ISR will continue to remain in 
 389:Generated_Source\PSoC4/modbus_tx_interrupt.c **** *   pending state even though the interrupt itself is cleared using this API.
 390:Generated_Source\PSoC4/modbus_tx_interrupt.c **** *
 391:Generated_Source\PSoC4/modbus_tx_interrupt.c **** * Parameters:
 392:Generated_Source\PSoC4/modbus_tx_interrupt.c **** *   None
 393:Generated_Source\PSoC4/modbus_tx_interrupt.c **** *
 394:Generated_Source\PSoC4/modbus_tx_interrupt.c **** * Return:
 395:Generated_Source\PSoC4/modbus_tx_interrupt.c **** *   None
 396:Generated_Source\PSoC4/modbus_tx_interrupt.c **** *
 397:Generated_Source\PSoC4/modbus_tx_interrupt.c **** *******************************************************************************/
 398:Generated_Source\PSoC4/modbus_tx_interrupt.c **** void modbus_tx_interrupt_ClearPending(void)
 399:Generated_Source\PSoC4/modbus_tx_interrupt.c **** {
 479              		.loc 1 399 0
 480              		.cfi_startproc
 400:Generated_Source\PSoC4/modbus_tx_interrupt.c ****     *modbus_tx_interrupt_INTC_CLR_PD = modbus_tx_interrupt__INTC_MASK;
 481              		.loc 1 400 0
 482 0000 0222     		mov	r2, #2
 483 0002 014B     		ldr	r3, .L36
 401:Generated_Source\PSoC4/modbus_tx_interrupt.c **** }
 484              		.loc 1 401 0
 485              		@ sp needed
 400:Generated_Source\PSoC4/modbus_tx_interrupt.c ****     *modbus_tx_interrupt_INTC_CLR_PD = modbus_tx_interrupt__INTC_MASK;
 486              		.loc 1 400 0
 487 0004 1A60     		str	r2, [r3]
 488              		.loc 1 401 0
 489 0006 7047     		bx	lr
 490              	.L37:
 491              		.align	2
 492              	.L36:
 493 0008 80E200E0 		.word	-536812928
 494              		.cfi_endproc
 495              	.LFE13:
 496              		.size	modbus_tx_interrupt_ClearPending, .-modbus_tx_interrupt_ClearPending
 497              		.text
 498              	.Letext0:
 499              		.file 2 "Generated_Source\\PSoC4/cytypes.h"
 500              		.file 3 "Generated_Source\\PSoC4/CyLib.h"