ARM GAS  C:\Users\glenn\AppData\Local\Temp\cc8XdP2G.s 			page 1


   1              		.cpu cortex-m0
   2              		.fpu softvfp
   3              		.eabi_attribute 20, 1
   4              		.eabi_attribute 21, 1
   5              		.eabi_attribute 23, 3
   6              		.eabi_attribute 24, 1
   7              		.eabi_attribute 25, 1
   8              		.eabi_attribute 26, 1
   9              		.eabi_attribute 30, 6
  10              		.eabi_attribute 34, 0
  11              		.eabi_attribute 18, 4
  12              		.code	16
  13              		.file	"moisture_measurements.c"
  14              		.text
  15              	.Ltext0:
  16              		.cfi_sections	.debug_frame
  17              		.bss
  18              		.align	2
  19              	sink_measurement:
  20 0000 00000000 		.space	4
  21              		.align	2
  22              	source_measurement:
  23 0004 00000000 		.space	4
  24              		.align	2
  25              	voltage_measurements:
  26 0008 00000000 		.space	48
  26      00000000 
  26      00000000 
  26      00000000 
  26      00000000 
  27              		.align	2
  28              	resistance_array:
  29 0038 00000000 		.space	48
  29      00000000 
  29      00000000 
  29      00000000 
  29      00000000 
  30              		.global	__aeabi_fsub
  31              		.global	__aeabi_fcmplt
  32              		.global	__aeabi_fdiv
  33              		.section	.text.calculate_resistor_current,"ax",%progbits
  34              		.align	2
  35              		.code	16
  36              		.thumb_func
  37              		.type	calculate_resistor_current, %function
  38              	calculate_resistor_current:
  39              	.LFB64:
  40              		.file 1 "moisture_measurement\\moisture_measurements.c"
   1:moisture_measurement/moisture_measurements.c **** /*
   2:moisture_measurement/moisture_measurements.c **** **
   3:moisture_measurement/moisture_measurements.c **** ** File: moisture_measurements.c
   4:moisture_measurement/moisture_measurements.c **** **
   5:moisture_measurement/moisture_measurements.c **** **
   6:moisture_measurement/moisture_measurements.c **** **
   7:moisture_measurement/moisture_measurements.c **** */
   8:moisture_measurement/moisture_measurements.c **** 
   9:moisture_measurement/moisture_measurements.c **** #include <project.h>
ARM GAS  C:\Users\glenn\AppData\Local\Temp\cc8XdP2G.s 			page 2


  10:moisture_measurement/moisture_measurements.c **** #include "cf_external_functions.h"
  11:moisture_measurement/moisture_measurements.c **** #include "moisture_measurements.h"
  12:moisture_measurement/moisture_measurements.c **** #include "process_modbus_message.h"
  13:moisture_measurement/moisture_measurements.c **** #include "configuration_data.h"
  14:moisture_measurement/moisture_measurements.c **** #include "process_modbus_message.h"
  15:moisture_measurement/moisture_measurements.c **** #include "capsense_moisture.h"
  16:moisture_measurement/moisture_measurements.c **** 
  17:moisture_measurement/moisture_measurements.c **** #define DIE_CHANNEL      AMux_2_CHANNELS - 1
  18:moisture_measurement/moisture_measurements.c **** #define SOIL_CHANNEL     AMux_2_CHANNELS - 2
  19:moisture_measurement/moisture_measurements.c **** #define SOURCE_CHANNEL   AMux_2_CHANNELS - 4
  20:moisture_measurement/moisture_measurements.c **** #define SINK_CHANNEL     AMux_2_CHANNELS - 3
  21:moisture_measurement/moisture_measurements.c **** #define DELTA_LIMIT      5
  22:moisture_measurement/moisture_measurements.c **** #define COMPARISON_OP    >
  23:moisture_measurement/moisture_measurements.c **** 
  24:moisture_measurement/moisture_measurements.c **** static float sink_measurement;
  25:moisture_measurement/moisture_measurements.c **** static float source_measurement;
  26:moisture_measurement/moisture_measurements.c **** static volatile float voltage_measurements[ AMux_2_CHANNELS ]; 
  27:moisture_measurement/moisture_measurements.c **** static volatile float resistance_array[ AMux_2_CHANNELS ];
  28:moisture_measurement/moisture_measurements.c **** static float make_measurement( uint32 channel );
  29:moisture_measurement/moisture_measurements.c **** 
  30:moisture_measurement/moisture_measurements.c **** static float calculate_resistor_current( uint32 channel, CONFIGURATION_DATA *ptr )
  31:moisture_measurement/moisture_measurements.c **** {
  41              		.loc 1 31 0
  42              		.cfi_startproc
  43 0000 80B5     		push	{r7, lr}
  44              		.cfi_def_cfa_offset 8
  45              		.cfi_offset 7, -8
  46              		.cfi_offset 14, -4
  47 0002 84B0     		sub	sp, sp, #16
  48              		.cfi_def_cfa_offset 24
  49 0004 00AF     		add	r7, sp, #0
  50              		.cfi_def_cfa_register 7
  51 0006 7860     		str	r0, [r7, #4]
  52 0008 3960     		str	r1, [r7]
  32:moisture_measurement/moisture_measurements.c ****          float resistor_current;
  33:moisture_measurement/moisture_measurements.c ****          float delta_voltage;
  34:moisture_measurement/moisture_measurements.c ****     
  35:moisture_measurement/moisture_measurements.c ****          delta_voltage =      (source_measurement -  voltage_measurements[channel]);
  53              		.loc 1 35 0
  54 000a 104B     		ldr	r3, .L6
  55 000c 1968     		ldr	r1, [r3]
  56 000e 104B     		ldr	r3, .L6+4
  57 0010 7A68     		ldr	r2, [r7, #4]
  58 0012 9200     		lsl	r2, r2, #2
  59 0014 D358     		ldr	r3, [r2, r3]
  60 0016 081C     		add	r0, r1, #0
  61 0018 191C     		add	r1, r3, #0
  62 001a FFF7FEFF 		bl	__aeabi_fsub
  63 001e 031C     		add	r3, r0, #0
  64 0020 FB60     		str	r3, [r7, #12]
  36:moisture_measurement/moisture_measurements.c ****          if( delta_voltage < DELTA_LIMIT )
  65              		.loc 1 36 0
  66 0022 F868     		ldr	r0, [r7, #12]
  67 0024 0B49     		ldr	r1, .L6+8
  68 0026 FFF7FEFF 		bl	__aeabi_fcmplt
  69 002a 031E     		sub	r3, r0, #0
  70 002c 01D0     		beq	.L2
ARM GAS  C:\Users\glenn\AppData\Local\Temp\cc8XdP2G.s 			page 3


  37:moisture_measurement/moisture_measurements.c ****          {
  38:moisture_measurement/moisture_measurements.c ****             delta_voltage = DELTA_LIMIT;
  71              		.loc 1 38 0
  72 002e 094B     		ldr	r3, .L6+8
  73 0030 FB60     		str	r3, [r7, #12]
  74              	.L2:
  39:moisture_measurement/moisture_measurements.c ****          }
  40:moisture_measurement/moisture_measurements.c ****            resistor_current =  delta_voltage/ptr->resistance_value;
  75              		.loc 1 40 0
  76 0032 3B68     		ldr	r3, [r7]
  77 0034 9B68     		ldr	r3, [r3, #8]
  78 0036 F868     		ldr	r0, [r7, #12]
  79 0038 191C     		add	r1, r3, #0
  80 003a FFF7FEFF 		bl	__aeabi_fdiv
  81 003e 031C     		add	r3, r0, #0
  82 0040 BB60     		str	r3, [r7, #8]
  41:moisture_measurement/moisture_measurements.c **** 
  42:moisture_measurement/moisture_measurements.c ****           return resistor_current;
  83              		.loc 1 42 0
  84 0042 BB68     		ldr	r3, [r7, #8]
  43:moisture_measurement/moisture_measurements.c **** }
  85              		.loc 1 43 0
  86 0044 181C     		add	r0, r3, #0
  87 0046 BD46     		mov	sp, r7
  88 0048 04B0     		add	sp, sp, #16
  89              		@ sp needed
  90 004a 80BD     		pop	{r7, pc}
  91              	.L7:
  92              		.align	2
  93              	.L6:
  94 004c 04000000 		.word	source_measurement
  95 0050 08000000 		.word	voltage_measurements
  96 0054 0000A040 		.word	1084227584
  97              		.cfi_endproc
  98              	.LFE64:
  99              		.size	calculate_resistor_current, .-calculate_resistor_current
 100              		.global	__aeabi_i2f
 101              		.section	.text.make_measurement,"ax",%progbits
 102              		.align	2
 103              		.code	16
 104              		.thumb_func
 105              		.type	make_measurement, %function
 106              	make_measurement:
 107              	.LFB65:
  44:moisture_measurement/moisture_measurements.c ****     
  45:moisture_measurement/moisture_measurements.c **** static float make_measurement( uint32 channel )
  46:moisture_measurement/moisture_measurements.c **** {
 108              		.loc 1 46 0
 109              		.cfi_startproc
 110 0000 80B5     		push	{r7, lr}
 111              		.cfi_def_cfa_offset 8
 112              		.cfi_offset 7, -8
 113              		.cfi_offset 14, -4
 114 0002 82B0     		sub	sp, sp, #8
 115              		.cfi_def_cfa_offset 16
 116 0004 00AF     		add	r7, sp, #0
 117              		.cfi_def_cfa_register 7
ARM GAS  C:\Users\glenn\AppData\Local\Temp\cc8XdP2G.s 			page 4


 118 0006 7860     		str	r0, [r7, #4]
  47:moisture_measurement/moisture_measurements.c ****     AMux_2_FastSelect( channel );
 119              		.loc 1 47 0
 120 0008 7B68     		ldr	r3, [r7, #4]
 121 000a DBB2     		uxtb	r3, r3
 122 000c 181C     		mov	r0, r3
 123 000e FFF7FEFF 		bl	AMux_2_FastSelect
  48:moisture_measurement/moisture_measurements.c ****     
  49:moisture_measurement/moisture_measurements.c ****     ADC_SAR_Seq_1_StartConvert();
 124              		.loc 1 49 0
 125 0012 FFF7FEFF 		bl	ADC_SAR_Seq_1_StartConvert
  50:moisture_measurement/moisture_measurements.c ****     CyDelay(1);
 126              		.loc 1 50 0
 127 0016 0120     		mov	r0, #1
 128 0018 FFF7FEFF 		bl	CyDelay
  51:moisture_measurement/moisture_measurements.c ****     
  52:moisture_measurement/moisture_measurements.c ****     return (float )ADC_SAR_Seq_1_GetResult16(0);
 129              		.loc 1 52 0
 130 001c 0020     		mov	r0, #0
 131 001e FFF7FEFF 		bl	ADC_SAR_Seq_1_GetResult16
 132 0022 031C     		mov	r3, r0
 133 0024 181C     		mov	r0, r3
 134 0026 FFF7FEFF 		bl	__aeabi_i2f
 135 002a 031C     		add	r3, r0, #0
  53:moisture_measurement/moisture_measurements.c **** }
 136              		.loc 1 53 0
 137 002c 181C     		add	r0, r3, #0
 138 002e BD46     		mov	sp, r7
 139 0030 02B0     		add	sp, sp, #8
 140              		@ sp needed
 141 0032 80BD     		pop	{r7, pc}
 142              		.cfi_endproc
 143              	.LFE65:
 144              		.size	make_measurement, .-make_measurement
 145              		.section	.text.init_moisture_processing,"ax",%progbits
 146              		.align	2
 147              		.global	init_moisture_processing
 148              		.code	16
 149              		.thumb_func
 150              		.type	init_moisture_processing, %function
 151              	init_moisture_processing:
 152              	.LFB66:
  54:moisture_measurement/moisture_measurements.c **** 
  55:moisture_measurement/moisture_measurements.c **** 
  56:moisture_measurement/moisture_measurements.c **** int init_moisture_processing(unsigned link_id, unsigned param_1,
  57:moisture_measurement/moisture_measurements.c ****   unsigned param_2, unsigned param_3, unsigned event, unsigned data)
  58:moisture_measurement/moisture_measurements.c **** {
 153              		.loc 1 58 0
 154              		.cfi_startproc
 155 0000 90B5     		push	{r4, r7, lr}
 156              		.cfi_def_cfa_offset 12
 157              		.cfi_offset 4, -12
 158              		.cfi_offset 7, -8
 159              		.cfi_offset 14, -4
 160 0002 87B0     		sub	sp, sp, #28
 161              		.cfi_def_cfa_offset 40
 162 0004 02AF     		add	r7, sp, #8
ARM GAS  C:\Users\glenn\AppData\Local\Temp\cc8XdP2G.s 			page 5


 163              		.cfi_def_cfa 7, 32
 164 0006 F860     		str	r0, [r7, #12]
 165 0008 B960     		str	r1, [r7, #8]
 166 000a 7A60     		str	r2, [r7, #4]
 167 000c 3B60     		str	r3, [r7]
  59:moisture_measurement/moisture_measurements.c ****    remove_power(link_id, param_1,param_2,param_3,event,data);
 168              		.loc 1 59 0
 169 000e F868     		ldr	r0, [r7, #12]
 170 0010 B968     		ldr	r1, [r7, #8]
 171 0012 7A68     		ldr	r2, [r7, #4]
 172 0014 3C68     		ldr	r4, [r7]
 173 0016 3B6A     		ldr	r3, [r7, #32]
 174 0018 0093     		str	r3, [sp]
 175 001a 7B6A     		ldr	r3, [r7, #36]
 176 001c 0193     		str	r3, [sp, #4]
 177 001e 231C     		mov	r3, r4
 178 0020 FFF7FEFF 		bl	remove_power
  60:moisture_measurement/moisture_measurements.c ****    clear_new_moisture_measurement_flag(link_id, param_1,param_2,param_3,event,data);
 179              		.loc 1 60 0
 180 0024 F868     		ldr	r0, [r7, #12]
 181 0026 B968     		ldr	r1, [r7, #8]
 182 0028 7A68     		ldr	r2, [r7, #4]
 183 002a 3C68     		ldr	r4, [r7]
 184 002c 3B6A     		ldr	r3, [r7, #32]
 185 002e 0093     		str	r3, [sp]
 186 0030 7B6A     		ldr	r3, [r7, #36]
 187 0032 0193     		str	r3, [sp, #4]
 188 0034 231C     		mov	r3, r4
 189 0036 FFF7FEFF 		bl	clear_new_moisture_measurement_flag
  61:moisture_measurement/moisture_measurements.c ****    initialize_capacitance_measurements(link_id, param_1,param_2,param_3,event,data);
 190              		.loc 1 61 0
 191 003a F868     		ldr	r0, [r7, #12]
 192 003c B968     		ldr	r1, [r7, #8]
 193 003e 7A68     		ldr	r2, [r7, #4]
 194 0040 3C68     		ldr	r4, [r7]
 195 0042 3B6A     		ldr	r3, [r7, #32]
 196 0044 0093     		str	r3, [sp]
 197 0046 7B6A     		ldr	r3, [r7, #36]
 198 0048 0193     		str	r3, [sp, #4]
 199 004a 231C     		mov	r3, r4
 200 004c FFF7FEFF 		bl	initialize_capacitance_measurements
  62:moisture_measurement/moisture_measurements.c ****    return CF_DISABLE;
 201              		.loc 1 62 0
 202 0050 0223     		mov	r3, #2
  63:moisture_measurement/moisture_measurements.c **** }
 203              		.loc 1 63 0
 204 0052 181C     		mov	r0, r3
 205 0054 BD46     		mov	sp, r7
 206 0056 05B0     		add	sp, sp, #20
 207              		@ sp needed
 208 0058 90BD     		pop	{r4, r7, pc}
 209              		.cfi_endproc
 210              	.LFE66:
 211              		.size	init_moisture_processing, .-init_moisture_processing
 212 005a C046     		.section	.text.clear_new_moisture_measurement_flag,"ax",%progbits
 213              		.align	2
 214              		.global	clear_new_moisture_measurement_flag
ARM GAS  C:\Users\glenn\AppData\Local\Temp\cc8XdP2G.s 			page 6


 215              		.code	16
 216              		.thumb_func
 217              		.type	clear_new_moisture_measurement_flag, %function
 218              	clear_new_moisture_measurement_flag:
 219              	.LFB67:
  64:moisture_measurement/moisture_measurements.c **** 
  65:moisture_measurement/moisture_measurements.c **** 
  66:moisture_measurement/moisture_measurements.c **** int clear_new_moisture_measurement_flag(unsigned link_id, unsigned param_1,
  67:moisture_measurement/moisture_measurements.c ****   unsigned param_2, unsigned param_3, unsigned event, unsigned data)
  68:moisture_measurement/moisture_measurements.c **** {
 220              		.loc 1 68 0
 221              		.cfi_startproc
 222 0000 80B5     		push	{r7, lr}
 223              		.cfi_def_cfa_offset 8
 224              		.cfi_offset 7, -8
 225              		.cfi_offset 14, -4
 226 0002 86B0     		sub	sp, sp, #24
 227              		.cfi_def_cfa_offset 32
 228 0004 00AF     		add	r7, sp, #0
 229              		.cfi_def_cfa_register 7
 230 0006 F860     		str	r0, [r7, #12]
 231 0008 B960     		str	r1, [r7, #8]
 232 000a 7A60     		str	r2, [r7, #4]
 233 000c 3B60     		str	r3, [r7]
  69:moisture_measurement/moisture_measurements.c ****     uint16 temp;
  70:moisture_measurement/moisture_measurements.c ****     temp = 0;
 234              		.loc 1 70 0
 235 000e 1623     		mov	r3, #22
 236 0010 FB18     		add	r3, r7, r3
 237 0012 0022     		mov	r2, #0
 238 0014 1A80     		strh	r2, [r3]
  71:moisture_measurement/moisture_measurements.c ****     store_modbus_data_registers( NEW_MOISTURE_DATA_FLAG , 1, &temp);
 239              		.loc 1 71 0
 240 0016 1623     		mov	r3, #22
 241 0018 FB18     		add	r3, r7, r3
 242 001a 0E20     		mov	r0, #14
 243 001c 0121     		mov	r1, #1
 244 001e 1A1C     		mov	r2, r3
 245 0020 FFF7FEFF 		bl	store_modbus_data_registers
  72:moisture_measurement/moisture_measurements.c ****     return CF_DISABLE;
 246              		.loc 1 72 0
 247 0024 0223     		mov	r3, #2
  73:moisture_measurement/moisture_measurements.c **** 
  74:moisture_measurement/moisture_measurements.c **** }
 248              		.loc 1 74 0
 249 0026 181C     		mov	r0, r3
 250 0028 BD46     		mov	sp, r7
 251 002a 06B0     		add	sp, sp, #24
 252              		@ sp needed
 253 002c 80BD     		pop	{r7, pc}
 254              		.cfi_endproc
 255              	.LFE67:
 256              		.size	clear_new_moisture_measurement_flag, .-clear_new_moisture_measurement_flag
 257 002e C046     		.section	.text.set_new_moisture_measurement_flag,"ax",%progbits
 258              		.align	2
 259              		.global	set_new_moisture_measurement_flag
 260              		.code	16
ARM GAS  C:\Users\glenn\AppData\Local\Temp\cc8XdP2G.s 			page 7


 261              		.thumb_func
 262              		.type	set_new_moisture_measurement_flag, %function
 263              	set_new_moisture_measurement_flag:
 264              	.LFB68:
  75:moisture_measurement/moisture_measurements.c **** 
  76:moisture_measurement/moisture_measurements.c **** int set_new_moisture_measurement_flag(unsigned link_id, unsigned param_1,
  77:moisture_measurement/moisture_measurements.c ****   unsigned param_2, unsigned param_3, unsigned event, unsigned data)
  78:moisture_measurement/moisture_measurements.c **** {
 265              		.loc 1 78 0
 266              		.cfi_startproc
 267 0000 80B5     		push	{r7, lr}
 268              		.cfi_def_cfa_offset 8
 269              		.cfi_offset 7, -8
 270              		.cfi_offset 14, -4
 271 0002 86B0     		sub	sp, sp, #24
 272              		.cfi_def_cfa_offset 32
 273 0004 00AF     		add	r7, sp, #0
 274              		.cfi_def_cfa_register 7
 275 0006 F860     		str	r0, [r7, #12]
 276 0008 B960     		str	r1, [r7, #8]
 277 000a 7A60     		str	r2, [r7, #4]
 278 000c 3B60     		str	r3, [r7]
  79:moisture_measurement/moisture_measurements.c ****     uint16 temp;
  80:moisture_measurement/moisture_measurements.c ****     temp = 1;
 279              		.loc 1 80 0
 280 000e 1623     		mov	r3, #22
 281 0010 FB18     		add	r3, r7, r3
 282 0012 0122     		mov	r2, #1
 283 0014 1A80     		strh	r2, [r3]
  81:moisture_measurement/moisture_measurements.c ****     store_modbus_data_registers( NEW_MOISTURE_DATA_FLAG , 1, &temp);
 284              		.loc 1 81 0
 285 0016 1623     		mov	r3, #22
 286 0018 FB18     		add	r3, r7, r3
 287 001a 0E20     		mov	r0, #14
 288 001c 0121     		mov	r1, #1
 289 001e 1A1C     		mov	r2, r3
 290 0020 FFF7FEFF 		bl	store_modbus_data_registers
  82:moisture_measurement/moisture_measurements.c ****     return CF_DISABLE;
 291              		.loc 1 82 0
 292 0024 0223     		mov	r3, #2
  83:moisture_measurement/moisture_measurements.c **** 
  84:moisture_measurement/moisture_measurements.c **** }
 293              		.loc 1 84 0
 294 0026 181C     		mov	r0, r3
 295 0028 BD46     		mov	sp, r7
 296 002a 06B0     		add	sp, sp, #24
 297              		@ sp needed
 298 002c 80BD     		pop	{r7, pc}
 299              		.cfi_endproc
 300              	.LFE68:
 301              		.size	set_new_moisture_measurement_flag, .-set_new_moisture_measurement_flag
 302 002e C046     		.section	.text.set_source_channel,"ax",%progbits
 303              		.align	2
 304              		.global	set_source_channel
 305              		.code	16
 306              		.thumb_func
 307              		.type	set_source_channel, %function
ARM GAS  C:\Users\glenn\AppData\Local\Temp\cc8XdP2G.s 			page 8


 308              	set_source_channel:
 309              	.LFB69:
  85:moisture_measurement/moisture_measurements.c **** 
  86:moisture_measurement/moisture_measurements.c **** int set_source_channel(unsigned link_id, unsigned param_1,
  87:moisture_measurement/moisture_measurements.c ****   unsigned param_2, unsigned param_3, unsigned event, unsigned data)
  88:moisture_measurement/moisture_measurements.c **** {
 310              		.loc 1 88 0
 311              		.cfi_startproc
 312 0000 80B5     		push	{r7, lr}
 313              		.cfi_def_cfa_offset 8
 314              		.cfi_offset 7, -8
 315              		.cfi_offset 14, -4
 316 0002 84B0     		sub	sp, sp, #16
 317              		.cfi_def_cfa_offset 24
 318 0004 00AF     		add	r7, sp, #0
 319              		.cfi_def_cfa_register 7
 320 0006 F860     		str	r0, [r7, #12]
 321 0008 B960     		str	r1, [r7, #8]
 322 000a 7A60     		str	r2, [r7, #4]
 323 000c 3B60     		str	r3, [r7]
  89:moisture_measurement/moisture_measurements.c **** 
  90:moisture_measurement/moisture_measurements.c ****    Source_Pin_Write(1);
 324              		.loc 1 90 0
 325 000e 0120     		mov	r0, #1
 326 0010 FFF7FEFF 		bl	Source_Pin_Write
  91:moisture_measurement/moisture_measurements.c ****    Sink_Pin_Write(0);
 327              		.loc 1 91 0
 328 0014 0020     		mov	r0, #0
 329 0016 FFF7FEFF 		bl	Sink_Pin_Write
  92:moisture_measurement/moisture_measurements.c **** 
  93:moisture_measurement/moisture_measurements.c ****    return CF_DISABLE;
 330              		.loc 1 93 0
 331 001a 0223     		mov	r3, #2
  94:moisture_measurement/moisture_measurements.c **** }
 332              		.loc 1 94 0
 333 001c 181C     		mov	r0, r3
 334 001e BD46     		mov	sp, r7
 335 0020 04B0     		add	sp, sp, #16
 336              		@ sp needed
 337 0022 80BD     		pop	{r7, pc}
 338              		.cfi_endproc
 339              	.LFE69:
 340              		.size	set_source_channel, .-set_source_channel
 341              		.section	.text.make_source_measurement,"ax",%progbits
 342              		.align	2
 343              		.global	make_source_measurement
 344              		.code	16
 345              		.thumb_func
 346              		.type	make_source_measurement, %function
 347              	make_source_measurement:
 348              	.LFB70:
  95:moisture_measurement/moisture_measurements.c **** 
  96:moisture_measurement/moisture_measurements.c **** 
  97:moisture_measurement/moisture_measurements.c **** int make_source_measurement(unsigned link_id, unsigned param_1,
  98:moisture_measurement/moisture_measurements.c ****   unsigned param_2, unsigned param_3, unsigned event, unsigned data)
  99:moisture_measurement/moisture_measurements.c **** {
 349              		.loc 1 99 0
ARM GAS  C:\Users\glenn\AppData\Local\Temp\cc8XdP2G.s 			page 9


 350              		.cfi_startproc
 351 0000 80B5     		push	{r7, lr}
 352              		.cfi_def_cfa_offset 8
 353              		.cfi_offset 7, -8
 354              		.cfi_offset 14, -4
 355 0002 88B0     		sub	sp, sp, #32
 356              		.cfi_def_cfa_offset 40
 357 0004 00AF     		add	r7, sp, #0
 358              		.cfi_def_cfa_register 7
 359 0006 F860     		str	r0, [r7, #12]
 360 0008 B960     		str	r1, [r7, #8]
 361 000a 7A60     		str	r2, [r7, #4]
 362 000c 3B60     		str	r3, [r7]
 100:moisture_measurement/moisture_measurements.c ****    int i;
 101:moisture_measurement/moisture_measurements.c ****    CONFIGURATION_DATA *ptr;
 102:moisture_measurement/moisture_measurements.c ****    uint16             *resistor_ptr;
 103:moisture_measurement/moisture_measurements.c **** 
 104:moisture_measurement/moisture_measurements.c ****    ptr = get_configuration_data(); 
 363              		.loc 1 104 0
 364 000e FFF7FEFF 		bl	get_configuration_data
 365 0012 031C     		mov	r3, r0
 366 0014 7B61     		str	r3, [r7, #20]
 105:moisture_measurement/moisture_measurements.c ****    resistor_ptr = ptr->resistance_type;
 367              		.loc 1 105 0
 368 0016 7B69     		ldr	r3, [r7, #20]
 369 0018 0E33     		add	r3, r3, #14
 370 001a BB61     		str	r3, [r7, #24]
 106:moisture_measurement/moisture_measurements.c ****    memset( (void *)voltage_measurements,0 , sizeof( voltage_measurements));
 371              		.loc 1 106 0
 372 001c 174B     		ldr	r3, .L23
 373 001e 181C     		mov	r0, r3
 374 0020 0021     		mov	r1, #0
 375 0022 3022     		mov	r2, #48
 376 0024 FFF7FEFF 		bl	memset
 107:moisture_measurement/moisture_measurements.c ****    for( i = 0; i <RESISTIVE_SENSOR_NUMBER; i++)
 377              		.loc 1 107 0
 378 0028 0023     		mov	r3, #0
 379 002a FB61     		str	r3, [r7, #28]
 380 002c 12E0     		b	.L19
 381              	.L21:
 108:moisture_measurement/moisture_measurements.c ****    {
 109:moisture_measurement/moisture_measurements.c ****       if(  *resistor_ptr COMPARISON_OP NOT_POPULATED )
 382              		.loc 1 109 0
 383 002e BB69     		ldr	r3, [r7, #24]
 384 0030 1B88     		ldrh	r3, [r3]
 385 0032 002B     		cmp	r3, #0
 386 0034 08D0     		beq	.L20
 110:moisture_measurement/moisture_measurements.c ****       {
 111:moisture_measurement/moisture_measurements.c **** 
 112:moisture_measurement/moisture_measurements.c ****         voltage_measurements[i] =  make_measurement(i);
 387              		.loc 1 112 0
 388 0036 FB69     		ldr	r3, [r7, #28]
 389 0038 181C     		mov	r0, r3
 390 003a FFF7FEFF 		bl	make_measurement
 391 003e 011C     		add	r1, r0, #0
 392 0040 0E4B     		ldr	r3, .L23
 393 0042 FA69     		ldr	r2, [r7, #28]
ARM GAS  C:\Users\glenn\AppData\Local\Temp\cc8XdP2G.s 			page 10


 394 0044 9200     		lsl	r2, r2, #2
 395 0046 D150     		str	r1, [r2, r3]
 396              	.L20:
 113:moisture_measurement/moisture_measurements.c ****       }
 114:moisture_measurement/moisture_measurements.c ****       resistor_ptr++;
 397              		.loc 1 114 0 discriminator 2
 398 0048 BB69     		ldr	r3, [r7, #24]
 399 004a 0233     		add	r3, r3, #2
 400 004c BB61     		str	r3, [r7, #24]
 107:moisture_measurement/moisture_measurements.c ****    {
 401              		.loc 1 107 0 discriminator 2
 402 004e FB69     		ldr	r3, [r7, #28]
 403 0050 0133     		add	r3, r3, #1
 404 0052 FB61     		str	r3, [r7, #28]
 405              	.L19:
 107:moisture_measurement/moisture_measurements.c ****    {
 406              		.loc 1 107 0 is_stmt 0 discriminator 1
 407 0054 FB69     		ldr	r3, [r7, #28]
 408 0056 072B     		cmp	r3, #7
 409 0058 E9DD     		ble	.L21
 115:moisture_measurement/moisture_measurements.c ****    }
 116:moisture_measurement/moisture_measurements.c **** 
 117:moisture_measurement/moisture_measurements.c ****    sink_measurement = make_measurement( SINK_CHANNEL );
 410              		.loc 1 117 0 is_stmt 1
 411 005a 0920     		mov	r0, #9
 412 005c FFF7FEFF 		bl	make_measurement
 413 0060 021C     		add	r2, r0, #0
 414 0062 074B     		ldr	r3, .L23+4
 415 0064 1A60     		str	r2, [r3]
 118:moisture_measurement/moisture_measurements.c ****    source_measurement = make_measurement( SOURCE_CHANNEL );
 416              		.loc 1 118 0
 417 0066 0820     		mov	r0, #8
 418 0068 FFF7FEFF 		bl	make_measurement
 419 006c 021C     		add	r2, r0, #0
 420 006e 054B     		ldr	r3, .L23+8
 421 0070 1A60     		str	r2, [r3]
 119:moisture_measurement/moisture_measurements.c **** 
 120:moisture_measurement/moisture_measurements.c ****    return CF_DISABLE;
 422              		.loc 1 120 0
 423 0072 0223     		mov	r3, #2
 121:moisture_measurement/moisture_measurements.c **** }
 424              		.loc 1 121 0
 425 0074 181C     		mov	r0, r3
 426 0076 BD46     		mov	sp, r7
 427 0078 08B0     		add	sp, sp, #32
 428              		@ sp needed
 429 007a 80BD     		pop	{r7, pc}
 430              	.L24:
 431              		.align	2
 432              	.L23:
 433 007c 08000000 		.word	voltage_measurements
 434 0080 00000000 		.word	sink_measurement
 435 0084 04000000 		.word	source_measurement
 436              		.cfi_endproc
 437              	.LFE70:
 438              		.size	make_source_measurement, .-make_source_measurement
 439              		.section	.text.set_sink_channel,"ax",%progbits
ARM GAS  C:\Users\glenn\AppData\Local\Temp\cc8XdP2G.s 			page 11


 440              		.align	2
 441              		.global	set_sink_channel
 442              		.code	16
 443              		.thumb_func
 444              		.type	set_sink_channel, %function
 445              	set_sink_channel:
 446              	.LFB71:
 122:moisture_measurement/moisture_measurements.c **** 
 123:moisture_measurement/moisture_measurements.c **** int set_sink_channel(unsigned link_id, unsigned param_1,
 124:moisture_measurement/moisture_measurements.c ****   unsigned param_2, unsigned param_3, unsigned event, unsigned data)
 125:moisture_measurement/moisture_measurements.c **** {
 447              		.loc 1 125 0
 448              		.cfi_startproc
 449 0000 80B5     		push	{r7, lr}
 450              		.cfi_def_cfa_offset 8
 451              		.cfi_offset 7, -8
 452              		.cfi_offset 14, -4
 453 0002 84B0     		sub	sp, sp, #16
 454              		.cfi_def_cfa_offset 24
 455 0004 00AF     		add	r7, sp, #0
 456              		.cfi_def_cfa_register 7
 457 0006 F860     		str	r0, [r7, #12]
 458 0008 B960     		str	r1, [r7, #8]
 459 000a 7A60     		str	r2, [r7, #4]
 460 000c 3B60     		str	r3, [r7]
 126:moisture_measurement/moisture_measurements.c ****    Source_Pin_Write(0);
 461              		.loc 1 126 0
 462 000e 0020     		mov	r0, #0
 463 0010 FFF7FEFF 		bl	Source_Pin_Write
 127:moisture_measurement/moisture_measurements.c ****    Sink_Pin_Write(1);
 464              		.loc 1 127 0
 465 0014 0120     		mov	r0, #1
 466 0016 FFF7FEFF 		bl	Sink_Pin_Write
 128:moisture_measurement/moisture_measurements.c **** 
 129:moisture_measurement/moisture_measurements.c **** 
 130:moisture_measurement/moisture_measurements.c ****    return CF_DISABLE;
 467              		.loc 1 130 0
 468 001a 0223     		mov	r3, #2
 131:moisture_measurement/moisture_measurements.c **** }
 469              		.loc 1 131 0
 470 001c 181C     		mov	r0, r3
 471 001e BD46     		mov	sp, r7
 472 0020 04B0     		add	sp, sp, #16
 473              		@ sp needed
 474 0022 80BD     		pop	{r7, pc}
 475              		.cfi_endproc
 476              	.LFE71:
 477              		.size	set_sink_channel, .-set_sink_channel
 478              		.section	.text.make_dummy_measurement,"ax",%progbits
 479              		.align	2
 480              		.global	make_dummy_measurement
 481              		.code	16
 482              		.thumb_func
 483              		.type	make_dummy_measurement, %function
 484              	make_dummy_measurement:
 485              	.LFB72:
 132:moisture_measurement/moisture_measurements.c **** 
ARM GAS  C:\Users\glenn\AppData\Local\Temp\cc8XdP2G.s 			page 12


 133:moisture_measurement/moisture_measurements.c **** 
 134:moisture_measurement/moisture_measurements.c **** int make_dummy_measurement(unsigned link_id, unsigned param_1,
 135:moisture_measurement/moisture_measurements.c ****   unsigned param_2, unsigned param_3, unsigned event, unsigned data)
 136:moisture_measurement/moisture_measurements.c **** {
 486              		.loc 1 136 0
 487              		.cfi_startproc
 488 0000 80B5     		push	{r7, lr}
 489              		.cfi_def_cfa_offset 8
 490              		.cfi_offset 7, -8
 491              		.cfi_offset 14, -4
 492 0002 88B0     		sub	sp, sp, #32
 493              		.cfi_def_cfa_offset 40
 494 0004 00AF     		add	r7, sp, #0
 495              		.cfi_def_cfa_register 7
 496 0006 F860     		str	r0, [r7, #12]
 497 0008 B960     		str	r1, [r7, #8]
 498 000a 7A60     		str	r2, [r7, #4]
 499 000c 3B60     		str	r3, [r7]
 137:moisture_measurement/moisture_measurements.c ****    int i;
 138:moisture_measurement/moisture_measurements.c ****    CONFIGURATION_DATA *ptr;
 139:moisture_measurement/moisture_measurements.c ****    uint16             *resistor_ptr;
 140:moisture_measurement/moisture_measurements.c **** 
 141:moisture_measurement/moisture_measurements.c ****    ptr = get_configuration_data(); 
 500              		.loc 1 141 0
 501 000e FFF7FEFF 		bl	get_configuration_data
 502 0012 031C     		mov	r3, r0
 503 0014 7B61     		str	r3, [r7, #20]
 142:moisture_measurement/moisture_measurements.c ****    resistor_ptr = ptr->resistance_type;
 504              		.loc 1 142 0
 505 0016 7B69     		ldr	r3, [r7, #20]
 506 0018 0E33     		add	r3, r3, #14
 507 001a BB61     		str	r3, [r7, #24]
 143:moisture_measurement/moisture_measurements.c ****    for( i = 0; i <RESISTIVE_SENSOR_NUMBER; i++)
 508              		.loc 1 143 0
 509 001c 0023     		mov	r3, #0
 510 001e FB61     		str	r3, [r7, #28]
 511 0020 0DE0     		b	.L28
 512              	.L30:
 144:moisture_measurement/moisture_measurements.c ****    {
 145:moisture_measurement/moisture_measurements.c **** 
 146:moisture_measurement/moisture_measurements.c ****       if(  *resistor_ptr COMPARISON_OP NOT_POPULATED )
 513              		.loc 1 146 0
 514 0022 BB69     		ldr	r3, [r7, #24]
 515 0024 1B88     		ldrh	r3, [r3]
 516 0026 002B     		cmp	r3, #0
 517 0028 03D0     		beq	.L29
 147:moisture_measurement/moisture_measurements.c ****       {
 148:moisture_measurement/moisture_measurements.c **** 
 149:moisture_measurement/moisture_measurements.c ****         make_measurement(i);
 518              		.loc 1 149 0
 519 002a FB69     		ldr	r3, [r7, #28]
 520 002c 181C     		mov	r0, r3
 521 002e FFF7FEFF 		bl	make_measurement
 522              	.L29:
 150:moisture_measurement/moisture_measurements.c ****       }
 151:moisture_measurement/moisture_measurements.c ****       resistor_ptr++;
 523              		.loc 1 151 0 discriminator 2
ARM GAS  C:\Users\glenn\AppData\Local\Temp\cc8XdP2G.s 			page 13


 524 0032 BB69     		ldr	r3, [r7, #24]
 525 0034 0233     		add	r3, r3, #2
 526 0036 BB61     		str	r3, [r7, #24]
 143:moisture_measurement/moisture_measurements.c ****    {
 527              		.loc 1 143 0 discriminator 2
 528 0038 FB69     		ldr	r3, [r7, #28]
 529 003a 0133     		add	r3, r3, #1
 530 003c FB61     		str	r3, [r7, #28]
 531              	.L28:
 143:moisture_measurement/moisture_measurements.c ****    {
 532              		.loc 1 143 0 is_stmt 0 discriminator 1
 533 003e FB69     		ldr	r3, [r7, #28]
 534 0040 072B     		cmp	r3, #7
 535 0042 EEDD     		ble	.L30
 152:moisture_measurement/moisture_measurements.c ****    }
 153:moisture_measurement/moisture_measurements.c **** 
 154:moisture_measurement/moisture_measurements.c ****    make_measurement( SINK_CHANNEL );
 536              		.loc 1 154 0 is_stmt 1
 537 0044 0920     		mov	r0, #9
 538 0046 FFF7FEFF 		bl	make_measurement
 155:moisture_measurement/moisture_measurements.c ****    make_measurement( SOURCE_CHANNEL );
 539              		.loc 1 155 0
 540 004a 0820     		mov	r0, #8
 541 004c FFF7FEFF 		bl	make_measurement
 156:moisture_measurement/moisture_measurements.c **** 
 157:moisture_measurement/moisture_measurements.c **** 
 158:moisture_measurement/moisture_measurements.c ****    return CF_DISABLE;
 542              		.loc 1 158 0
 543 0050 0223     		mov	r3, #2
 159:moisture_measurement/moisture_measurements.c **** }
 544              		.loc 1 159 0
 545 0052 181C     		mov	r0, r3
 546 0054 BD46     		mov	sp, r7
 547 0056 08B0     		add	sp, sp, #32
 548              		@ sp needed
 549 0058 80BD     		pop	{r7, pc}
 550              		.cfi_endproc
 551              	.LFE72:
 552              		.size	make_dummy_measurement, .-make_dummy_measurement
 553 005a C046     		.section	.text.remove_power,"ax",%progbits
 554              		.align	2
 555              		.global	remove_power
 556              		.code	16
 557              		.thumb_func
 558              		.type	remove_power, %function
 559              	remove_power:
 560              	.LFB73:
 160:moisture_measurement/moisture_measurements.c **** 
 161:moisture_measurement/moisture_measurements.c **** 
 162:moisture_measurement/moisture_measurements.c **** int remove_power(unsigned link_id, unsigned param_1,
 163:moisture_measurement/moisture_measurements.c ****   unsigned param_2, unsigned param_3, unsigned event, unsigned data)
 164:moisture_measurement/moisture_measurements.c **** {
 561              		.loc 1 164 0
 562              		.cfi_startproc
 563 0000 80B5     		push	{r7, lr}
 564              		.cfi_def_cfa_offset 8
 565              		.cfi_offset 7, -8
ARM GAS  C:\Users\glenn\AppData\Local\Temp\cc8XdP2G.s 			page 14


 566              		.cfi_offset 14, -4
 567 0002 84B0     		sub	sp, sp, #16
 568              		.cfi_def_cfa_offset 24
 569 0004 00AF     		add	r7, sp, #0
 570              		.cfi_def_cfa_register 7
 571 0006 F860     		str	r0, [r7, #12]
 572 0008 B960     		str	r1, [r7, #8]
 573 000a 7A60     		str	r2, [r7, #4]
 574 000c 3B60     		str	r3, [r7]
 165:moisture_measurement/moisture_measurements.c ****    Source_Pin_Write(0);
 575              		.loc 1 165 0
 576 000e 0020     		mov	r0, #0
 577 0010 FFF7FEFF 		bl	Source_Pin_Write
 166:moisture_measurement/moisture_measurements.c ****    Sink_Pin_Write(0);
 578              		.loc 1 166 0
 579 0014 0020     		mov	r0, #0
 580 0016 FFF7FEFF 		bl	Sink_Pin_Write
 167:moisture_measurement/moisture_measurements.c **** 
 168:moisture_measurement/moisture_measurements.c **** 
 169:moisture_measurement/moisture_measurements.c ****    return CF_DISABLE;
 581              		.loc 1 169 0
 582 001a 0223     		mov	r3, #2
 170:moisture_measurement/moisture_measurements.c **** }
 583              		.loc 1 170 0
 584 001c 181C     		mov	r0, r3
 585 001e BD46     		mov	sp, r7
 586 0020 04B0     		add	sp, sp, #16
 587              		@ sp needed
 588 0022 80BD     		pop	{r7, pc}
 589              		.cfi_endproc
 590              	.LFE73:
 591              		.size	remove_power, .-remove_power
 592              		.global	__aeabi_f2d
 593              		.global	__aeabi_dmul
 594              		.global	__aeabi_dadd
 595              		.global	__aeabi_dsub
 596              		.global	__aeabi_ddiv
 597              		.global	__aeabi_d2f
 598              		.section	.text.update_new_measurement_available,"ax",%progbits
 599              		.align	2
 600              		.global	update_new_measurement_available
 601              		.code	16
 602              		.thumb_func
 603              		.type	update_new_measurement_available, %function
 604              	update_new_measurement_available:
 605              	.LFB74:
 171:moisture_measurement/moisture_measurements.c **** 
 172:moisture_measurement/moisture_measurements.c **** 
 173:moisture_measurement/moisture_measurements.c **** int update_new_measurement_available(unsigned link_id, unsigned param_1,
 174:moisture_measurement/moisture_measurements.c ****   unsigned param_2, unsigned param_3, unsigned event, unsigned data)
 175:moisture_measurement/moisture_measurements.c **** {
 606              		.loc 1 175 0
 607              		.cfi_startproc
 608 0000 F0B5     		push	{r4, r5, r6, r7, lr}
 609              		.cfi_def_cfa_offset 20
 610              		.cfi_offset 4, -20
 611              		.cfi_offset 5, -16
ARM GAS  C:\Users\glenn\AppData\Local\Temp\cc8XdP2G.s 			page 15


 612              		.cfi_offset 6, -12
 613              		.cfi_offset 7, -8
 614              		.cfi_offset 14, -4
 615 0002 8DB0     		sub	sp, sp, #52
 616              		.cfi_def_cfa_offset 72
 617 0004 00AF     		add	r7, sp, #0
 618              		.cfi_def_cfa_register 7
 619 0006 7861     		str	r0, [r7, #20]
 620 0008 3961     		str	r1, [r7, #16]
 621 000a FA60     		str	r2, [r7, #12]
 622 000c BB60     		str	r3, [r7, #8]
 176:moisture_measurement/moisture_measurements.c ****    int i;
 177:moisture_measurement/moisture_measurements.c ****    float              temp_value;
 178:moisture_measurement/moisture_measurements.c ****    uint16             *resistor_ptr;
 179:moisture_measurement/moisture_measurements.c ****    float              resistor_current;
 180:moisture_measurement/moisture_measurements.c ****    float              soil_temperature;
 181:moisture_measurement/moisture_measurements.c ****     
 182:moisture_measurement/moisture_measurements.c ****    CONFIGURATION_DATA *ptr;
 183:moisture_measurement/moisture_measurements.c ****    ptr = get_configuration_data(); 
 623              		.loc 1 183 0
 624 000e FFF7FEFF 		bl	get_configuration_data
 625 0012 031C     		mov	r3, r0
 626 0014 7B62     		str	r3, [r7, #36]
 184:moisture_measurement/moisture_measurements.c ****    resistor_ptr = ptr->resistance_type;
 627              		.loc 1 184 0
 628 0016 7B6A     		ldr	r3, [r7, #36]
 629 0018 0E33     		add	r3, r3, #14
 630 001a BB62     		str	r3, [r7, #40]
 185:moisture_measurement/moisture_measurements.c ****    for( i = 0; i < RESISTIVE_SENSOR_NUMBER; i++)
 631              		.loc 1 185 0
 632 001c 0023     		mov	r3, #0
 633 001e FB62     		str	r3, [r7, #44]
 634 0020 26E0     		b	.L35
 635              	.L37:
 186:moisture_measurement/moisture_measurements.c ****    {
 187:moisture_measurement/moisture_measurements.c ****       if( (  *resistor_ptr > NOT_POPULATED ) != 0 )
 636              		.loc 1 187 0
 637 0022 BB6A     		ldr	r3, [r7, #40]
 638 0024 1B88     		ldrh	r3, [r3]
 639 0026 002B     		cmp	r3, #0
 640 0028 1CD0     		beq	.L36
 188:moisture_measurement/moisture_measurements.c ****     
 189:moisture_measurement/moisture_measurements.c ****       {
 190:moisture_measurement/moisture_measurements.c ****          resistor_current = calculate_resistor_current(i, ptr );
 641              		.loc 1 190 0
 642 002a FA6A     		ldr	r2, [r7, #44]
 643 002c 7B6A     		ldr	r3, [r7, #36]
 644 002e 101C     		mov	r0, r2
 645 0030 191C     		mov	r1, r3
 646 0032 FFF7FEFF 		bl	calculate_resistor_current
 647 0036 031C     		add	r3, r0, #0
 648 0038 3B62     		str	r3, [r7, #32]
 191:moisture_measurement/moisture_measurements.c ****          resistance_array[i] =  ( voltage_measurements[i] - sink_measurement )/ resistor_current; 
 649              		.loc 1 191 0
 650 003a 5C4B     		ldr	r3, .L45
 651 003c FA6A     		ldr	r2, [r7, #44]
 652 003e 9200     		lsl	r2, r2, #2
ARM GAS  C:\Users\glenn\AppData\Local\Temp\cc8XdP2G.s 			page 16


 653 0040 D258     		ldr	r2, [r2, r3]
 654 0042 5B4B     		ldr	r3, .L45+4
 655 0044 1B68     		ldr	r3, [r3]
 656 0046 101C     		add	r0, r2, #0
 657 0048 191C     		add	r1, r3, #0
 658 004a FFF7FEFF 		bl	__aeabi_fsub
 659 004e 031C     		add	r3, r0, #0
 660 0050 181C     		add	r0, r3, #0
 661 0052 396A     		ldr	r1, [r7, #32]
 662 0054 FFF7FEFF 		bl	__aeabi_fdiv
 663 0058 031C     		add	r3, r0, #0
 664 005a 191C     		add	r1, r3, #0
 665 005c 554B     		ldr	r3, .L45+8
 666 005e FA6A     		ldr	r2, [r7, #44]
 667 0060 9200     		lsl	r2, r2, #2
 668 0062 D150     		str	r1, [r2, r3]
 669              	.L36:
 192:moisture_measurement/moisture_measurements.c ****         
 193:moisture_measurement/moisture_measurements.c ****       }
 194:moisture_measurement/moisture_measurements.c ****       resistor_ptr++;
 670              		.loc 1 194 0 discriminator 2
 671 0064 BB6A     		ldr	r3, [r7, #40]
 672 0066 0233     		add	r3, r3, #2
 673 0068 BB62     		str	r3, [r7, #40]
 185:moisture_measurement/moisture_measurements.c ****    {
 674              		.loc 1 185 0 discriminator 2
 675 006a FB6A     		ldr	r3, [r7, #44]
 676 006c 0133     		add	r3, r3, #1
 677 006e FB62     		str	r3, [r7, #44]
 678              	.L35:
 185:moisture_measurement/moisture_measurements.c ****    {
 679              		.loc 1 185 0 is_stmt 0 discriminator 1
 680 0070 FB6A     		ldr	r3, [r7, #44]
 681 0072 072B     		cmp	r3, #7
 682 0074 D5DD     		ble	.L37
 195:moisture_measurement/moisture_measurements.c **** 
 196:moisture_measurement/moisture_measurements.c ****    }
 197:moisture_measurement/moisture_measurements.c ****    resistor_ptr = ptr->resistance_type;
 683              		.loc 1 197 0 is_stmt 1
 684 0076 7B6A     		ldr	r3, [r7, #36]
 685 0078 0E33     		add	r3, r3, #14
 686 007a BB62     		str	r3, [r7, #40]
 198:moisture_measurement/moisture_measurements.c ****    for( i = 0; i< 16; i++)
 687              		.loc 1 198 0
 688 007c 0023     		mov	r3, #0
 689 007e FB62     		str	r3, [r7, #44]
 690 0080 8AE0     		b	.L38
 691              	.L43:
 199:moisture_measurement/moisture_measurements.c ****    {
 200:moisture_measurement/moisture_measurements.c ****       switch( *resistor_ptr )
 692              		.loc 1 200 0
 693 0082 BB6A     		ldr	r3, [r7, #40]
 694 0084 1B88     		ldrh	r3, [r3]
 695 0086 012B     		cmp	r3, #1
 696 0088 06D0     		beq	.L40
 697 008a 022B     		cmp	r3, #2
 698 008c 0AD0     		beq	.L41
ARM GAS  C:\Users\glenn\AppData\Local\Temp\cc8XdP2G.s 			page 17


 699 008e 002B     		cmp	r3, #0
 700 0090 71D1     		bne	.L39
 201:moisture_measurement/moisture_measurements.c ****       {
 202:moisture_measurement/moisture_measurements.c ****          case NOT_POPULATED:
 203:moisture_measurement/moisture_measurements.c ****              temp_value = 0;
 701              		.loc 1 203 0
 702 0092 0023     		mov	r3, #0
 703 0094 FB61     		str	r3, [r7, #28]
 204:moisture_measurement/moisture_measurements.c ****              break;
 704              		.loc 1 204 0
 705 0096 6EE0     		b	.L39
 706              	.L40:
 205:moisture_measurement/moisture_measurements.c ****          case RESISTOR:
 206:moisture_measurement/moisture_measurements.c ****              temp_value = resistance_array[i];
 707              		.loc 1 206 0
 708 0098 464B     		ldr	r3, .L45+8
 709 009a FA6A     		ldr	r2, [r7, #44]
 710 009c 9200     		lsl	r2, r2, #2
 711 009e D358     		ldr	r3, [r2, r3]
 712 00a0 FB61     		str	r3, [r7, #28]
 207:moisture_measurement/moisture_measurements.c ****              break;
 713              		.loc 1 207 0
 714 00a2 68E0     		b	.L39
 715              	.L41:
 208:moisture_measurement/moisture_measurements.c ****          case WATERMARK:
 209:moisture_measurement/moisture_measurements.c ****             get_modbus_data_registers( MOISTURE_SOIL_TEMP_FLOAT , 2, (uint16*) &soil_temperature );
 716              		.loc 1 209 0
 717 00a4 1023     		mov	r3, #16
 718 00a6 0822     		mov	r2, #8
 719 00a8 9446     		mov	ip, r2
 720 00aa BC44     		add	ip, ip, r7
 721 00ac 6344     		add	r3, r3, ip
 722 00ae 1320     		mov	r0, #19
 723 00b0 0221     		mov	r1, #2
 724 00b2 1A1C     		mov	r2, r3
 725 00b4 FFF7FEFF 		bl	get_modbus_data_registers
 210:moisture_measurement/moisture_measurements.c ****             temp_value = resistance_array[i]/1000.;
 726              		.loc 1 210 0
 727 00b8 3E4B     		ldr	r3, .L45+8
 728 00ba FA6A     		ldr	r2, [r7, #44]
 729 00bc 9200     		lsl	r2, r2, #2
 730 00be D358     		ldr	r3, [r2, r3]
 731 00c0 181C     		add	r0, r3, #0
 732 00c2 3D49     		ldr	r1, .L45+12
 733 00c4 FFF7FEFF 		bl	__aeabi_fdiv
 734 00c8 031C     		add	r3, r0, #0
 735 00ca FB61     		str	r3, [r7, #28]
 211:moisture_measurement/moisture_measurements.c ****             //kPa=(4.093+3.213*R)/(1-0.009733*R-0.01205*T)
 212:moisture_measurement/moisture_measurements.c ****             temp_value = ( 4.093 + 3.213* temp_value  )/( 1. - .009733*temp_value - .01205* soil_te
 736              		.loc 1 212 0
 737 00cc FB69     		ldr	r3, [r7, #28]
 738 00ce 181C     		add	r0, r3, #0
 739 00d0 FFF7FEFF 		bl	__aeabi_f2d
 740 00d4 031C     		mov	r3, r0
 741 00d6 0C1C     		mov	r4, r1
 742 00d8 181C     		mov	r0, r3
 743 00da 211C     		mov	r1, r4
ARM GAS  C:\Users\glenn\AppData\Local\Temp\cc8XdP2G.s 			page 18


 744 00dc 374A     		ldr	r2, .L45+16
 745 00de 384B     		ldr	r3, .L45+20
 746 00e0 FFF7FEFF 		bl	__aeabi_dmul
 747 00e4 031C     		mov	r3, r0
 748 00e6 0C1C     		mov	r4, r1
 749 00e8 181C     		mov	r0, r3
 750 00ea 211C     		mov	r1, r4
 751 00ec 354A     		ldr	r2, .L45+24
 752 00ee 364B     		ldr	r3, .L45+28
 753 00f0 FFF7FEFF 		bl	__aeabi_dadd
 754 00f4 031C     		mov	r3, r0
 755 00f6 0C1C     		mov	r4, r1
 756 00f8 1D1C     		mov	r5, r3
 757 00fa 261C     		mov	r6, r4
 758 00fc FB69     		ldr	r3, [r7, #28]
 759 00fe 181C     		add	r0, r3, #0
 760 0100 FFF7FEFF 		bl	__aeabi_f2d
 761 0104 031C     		mov	r3, r0
 762 0106 0C1C     		mov	r4, r1
 763 0108 181C     		mov	r0, r3
 764 010a 211C     		mov	r1, r4
 765 010c 2F4A     		ldr	r2, .L45+32
 766 010e 304B     		ldr	r3, .L45+36
 767 0110 FFF7FEFF 		bl	__aeabi_dmul
 768 0114 031C     		mov	r3, r0
 769 0116 0C1C     		mov	r4, r1
 770 0118 0020     		mov	r0, #0
 771 011a 2E49     		ldr	r1, .L45+40
 772 011c 1A1C     		mov	r2, r3
 773 011e 231C     		mov	r3, r4
 774 0120 FFF7FEFF 		bl	__aeabi_dsub
 775 0124 031C     		mov	r3, r0
 776 0126 0C1C     		mov	r4, r1
 777 0128 3B60     		str	r3, [r7]
 778 012a 7C60     		str	r4, [r7, #4]
 779 012c BB69     		ldr	r3, [r7, #24]
 780 012e 181C     		add	r0, r3, #0
 781 0130 FFF7FEFF 		bl	__aeabi_f2d
 782 0134 031C     		mov	r3, r0
 783 0136 0C1C     		mov	r4, r1
 784 0138 181C     		mov	r0, r3
 785 013a 211C     		mov	r1, r4
 786 013c 264A     		ldr	r2, .L45+44
 787 013e 274B     		ldr	r3, .L45+48
 788 0140 FFF7FEFF 		bl	__aeabi_dmul
 789 0144 031C     		mov	r3, r0
 790 0146 0C1C     		mov	r4, r1
 791 0148 3868     		ldr	r0, [r7]
 792 014a 7968     		ldr	r1, [r7, #4]
 793 014c 1A1C     		mov	r2, r3
 794 014e 231C     		mov	r3, r4
 795 0150 FFF7FEFF 		bl	__aeabi_dsub
 796 0154 031C     		mov	r3, r0
 797 0156 0C1C     		mov	r4, r1
 798 0158 281C     		mov	r0, r5
 799 015a 311C     		mov	r1, r6
 800 015c 1A1C     		mov	r2, r3
ARM GAS  C:\Users\glenn\AppData\Local\Temp\cc8XdP2G.s 			page 19


 801 015e 231C     		mov	r3, r4
 802 0160 FFF7FEFF 		bl	__aeabi_ddiv
 803 0164 031C     		mov	r3, r0
 804 0166 0C1C     		mov	r4, r1
 805 0168 181C     		mov	r0, r3
 806 016a 211C     		mov	r1, r4
 807 016c FFF7FEFF 		bl	__aeabi_d2f
 808 0170 031C     		add	r3, r0, #0
 809 0172 FB61     		str	r3, [r7, #28]
 213:moisture_measurement/moisture_measurements.c ****             break;
 810              		.loc 1 213 0
 811 0174 C046     		mov	r8, r8
 812              	.L39:
 214:moisture_measurement/moisture_measurements.c ****       }
 215:moisture_measurement/moisture_measurements.c ****       store_modbus_data_registers( RESISTIVE_SENSOR_1_FLOAT +(2*i), 2, (uint16 *) &temp_value);
 813              		.loc 1 215 0 discriminator 2
 814 0176 FB6A     		ldr	r3, [r7, #44]
 815 0178 0F33     		add	r3, r3, #15
 816 017a 5B00     		lsl	r3, r3, #1
 817 017c 1A1C     		mov	r2, r3
 818 017e 1423     		mov	r3, #20
 819 0180 0821     		mov	r1, #8
 820 0182 8C46     		mov	ip, r1
 821 0184 BC44     		add	ip, ip, r7
 822 0186 6344     		add	r3, r3, ip
 823 0188 101C     		mov	r0, r2
 824 018a 0221     		mov	r1, #2
 825 018c 1A1C     		mov	r2, r3
 826 018e FFF7FEFF 		bl	store_modbus_data_registers
 198:moisture_measurement/moisture_measurements.c ****    {
 827              		.loc 1 198 0 discriminator 2
 828 0192 FB6A     		ldr	r3, [r7, #44]
 829 0194 0133     		add	r3, r3, #1
 830 0196 FB62     		str	r3, [r7, #44]
 831              	.L38:
 198:moisture_measurement/moisture_measurements.c ****    {
 832              		.loc 1 198 0 is_stmt 0 discriminator 1
 833 0198 FB6A     		ldr	r3, [r7, #44]
 834 019a 0F2B     		cmp	r3, #15
 835 019c 00DC     		bgt	.LCB702
 836 019e 70E7     		b	.L43	@long jump
 837              	.LCB702:
 216:moisture_measurement/moisture_measurements.c ****   }
 217:moisture_measurement/moisture_measurements.c **** 
 218:moisture_measurement/moisture_measurements.c ****    // compute high level functions
 219:moisture_measurement/moisture_measurements.c ****    return CF_DISABLE;
 838              		.loc 1 219 0 is_stmt 1
 839 01a0 0223     		mov	r3, #2
 220:moisture_measurement/moisture_measurements.c **** }
 840              		.loc 1 220 0
 841 01a2 181C     		mov	r0, r3
 842 01a4 BD46     		mov	sp, r7
 843 01a6 0DB0     		add	sp, sp, #52
 844              		@ sp needed
 845 01a8 F0BD     		pop	{r4, r5, r6, r7, pc}
 846              	.L46:
 847 01aa C046     		.align	2
ARM GAS  C:\Users\glenn\AppData\Local\Temp\cc8XdP2G.s 			page 20


 848              	.L45:
 849 01ac 08000000 		.word	voltage_measurements
 850 01b0 00000000 		.word	sink_measurement
 851 01b4 38000000 		.word	resistance_array
 852 01b8 00007A44 		.word	1148846080
 853 01bc 4E621058 		.word	1477468750
 854 01c0 39B40940 		.word	1074377785
 855 01c4 AC1C5A64 		.word	1683627180
 856 01c8 3B5F1040 		.word	1074814779
 857 01cc 85268925 		.word	629745285
 858 01d0 E5EE833F 		.word	1065610981
 859 01d4 0000F03F 		.word	1072693248
 860 01d8 3D9B559F 		.word	-1621779651
 861 01dc ABAD883F 		.word	1065921963
 862              		.cfi_endproc
 863              	.LFE74:
 864              		.size	update_new_measurement_available, .-update_new_measurement_available
 865              		.text
 866              	.Letext0:
 867              		.file 2 "Generated_Source\\PSoC4/cytypes.h"
 868              		.file 3 "./configuration_data.h"
 869              		.file 4 ".\\rtu_modbus/process_modbus_message.h"