ARM GAS  C:\Users\glenn\AppData\Local\Temp\cc4GUrPL.s 			page 1


   1              		.cpu cortex-m0
   2              		.fpu softvfp
   3              		.eabi_attribute 20, 1
   4              		.eabi_attribute 21, 1
   5              		.eabi_attribute 23, 3
   6              		.eabi_attribute 24, 1
   7              		.eabi_attribute 25, 1
   8              		.eabi_attribute 26, 1
   9              		.eabi_attribute 30, 2
  10              		.eabi_attribute 34, 0
  11              		.eabi_attribute 18, 4
  12              		.code	16
  13              		.file	"one_wire.c"
  14              		.text
  15              	.Ltext0:
  16              		.cfi_sections	.debug_frame
  17              		.section	.text.find_one_wire_devices,"ax",%progbits
  18              		.align	2
  19              		.global	find_one_wire_devices
  20              		.code	16
  21              		.thumb_func
  22              		.type	find_one_wire_devices, %function
  23              	find_one_wire_devices:
  24              	.LFB64:
  25              		.file 1 "one_wire\\one_wire.c"
   1:one_wire/one_wire.c **** /*
   2:one_wire/one_wire.c **** **
   3:one_wire/one_wire.c **** ** File: one_wire.c
   4:one_wire/one_wire.c **** **
   5:one_wire/one_wire.c **** **
   6:one_wire/one_wire.c **** **
   7:one_wire/one_wire.c **** */
   8:one_wire/one_wire.c **** 
   9:one_wire/one_wire.c **** #include <project.h>
  10:one_wire/one_wire.c **** #include "one_wire.h"
  11:one_wire/one_wire.c **** #include "cf_external_functions.h"
  12:one_wire/one_wire.c **** #include "DS18B20.h"
  13:one_wire/one_wire.c **** #include "process_modbus_message.h"
  14:one_wire/one_wire.c **** 
  15:one_wire/one_wire.c **** #define DEFAULT_TEMPERATURE 60.
  16:one_wire/one_wire.c **** static uint16 one_wire_device_found;
  17:one_wire/one_wire.c **** 
  18:one_wire/one_wire.c **** #define NUMBER_OF_ONE_WIRE_DEVICES 1
  19:one_wire/one_wire.c **** 
  20:one_wire/one_wire.c **** const ONE_WIRE_IO one_wire_io[ NUMBER_OF_ONE_WIRE_DEVICES] = 
  21:one_wire/one_wire.c **** {
  22:one_wire/one_wire.c ****     { One_Wire_Pin_Read, One_Wire_Pin_Write },
  23:one_wire/one_wire.c ****     
  24:one_wire/one_wire.c **** };
  25:one_wire/one_wire.c **** 
  26:one_wire/one_wire.c **** ONE_WIRE_ADDRESS one_wire_addresses[ NUMBER_OF_ONE_WIRE_DEVICES];
  27:one_wire/one_wire.c **** 
  28:one_wire/one_wire.c **** 
  29:one_wire/one_wire.c **** 
  30:one_wire/one_wire.c **** 
  31:one_wire/one_wire.c **** int find_one_wire_devices(unsigned link_id, unsigned param_1,
  32:one_wire/one_wire.c ****   unsigned param_2, unsigned param_3, unsigned event, unsigned data)
ARM GAS  C:\Users\glenn\AppData\Local\Temp\cc4GUrPL.s 			page 2


  33:one_wire/one_wire.c **** {
  26              		.loc 1 33 0
  27              		.cfi_startproc
  28              	.LVL0:
  29 0000 08B5     		push	{r3, lr}
  30              		.cfi_def_cfa_offset 8
  31              		.cfi_offset 3, -8
  32              		.cfi_offset 14, -4
  34:one_wire/one_wire.c ****     if( param_1 >= NUMBER_OF_ONE_WIRE_DEVICES )
  35:one_wire/one_wire.c ****     {
  36:one_wire/one_wire.c ****         param_1 = NUMBER_OF_ONE_WIRE_DEVICES -1;
  37:one_wire/one_wire.c ****     }
  38:one_wire/one_wire.c ****     one_wire_device_found = DS1820_FindFirstDevice(&one_wire_io[param_1], &one_wire_addresses[param
  33              		.loc 1 38 0
  34 0002 0649     		ldr	r1, .L2
  35 0004 0648     		ldr	r0, .L2+4
  36              	.LVL1:
  37 0006 FFF7FEFF 		bl	DS1820_FindFirstDevice
  38              	.LVL2:
  39 000a 064A     		ldr	r2, .L2+8
  39:one_wire/one_wire.c ****     store_modbus_data_registers( ONE_WIRE_DEVICE_FOUND , 1, &one_wire_device_found );
  40              		.loc 1 39 0
  41 000c 0121     		mov	r1, #1
  38:one_wire/one_wire.c ****     store_modbus_data_registers( ONE_WIRE_DEVICE_FOUND , 1, &one_wire_device_found );
  42              		.loc 1 38 0
  43 000e 1080     		strh	r0, [r2]
  44              		.loc 1 39 0
  45 0010 0D20     		mov	r0, #13
  46 0012 FFF7FEFF 		bl	store_modbus_data_registers
  47              	.LVL3:
  40:one_wire/one_wire.c ****      
  41:one_wire/one_wire.c ****     return CF_DISABLE;
  42:one_wire/one_wire.c **** }
  48              		.loc 1 42 0
  49              		@ sp needed
  50 0016 0220     		mov	r0, #2
  51 0018 08BD     		pop	{r3, pc}
  52              	.L3:
  53 001a C046     		.align	2
  54              	.L2:
  55 001c 00000000 		.word	one_wire_addresses
  56 0020 00000000 		.word	.LANCHOR0
  57 0024 00000000 		.word	.LANCHOR1
  58              		.cfi_endproc
  59              	.LFE64:
  60              		.size	find_one_wire_devices, .-find_one_wire_devices
  61              		.section	.text.start_ds18B20_temperature_measurement,"ax",%progbits
  62              		.align	2
  63              		.global	start_ds18B20_temperature_measurement
  64              		.code	16
  65              		.thumb_func
  66              		.type	start_ds18B20_temperature_measurement, %function
  67              	start_ds18B20_temperature_measurement:
  68              	.LFB65:
  43:one_wire/one_wire.c **** 
  44:one_wire/one_wire.c **** int start_ds18B20_temperature_measurement(unsigned link_id, unsigned param_1,
  45:one_wire/one_wire.c ****   unsigned param_2, unsigned param_3, unsigned event, unsigned data)
ARM GAS  C:\Users\glenn\AppData\Local\Temp\cc4GUrPL.s 			page 3


  46:one_wire/one_wire.c **** {
  69              		.loc 1 46 0
  70              		.cfi_startproc
  71              	.LVL4:
  72 0000 08B5     		push	{r3, lr}
  73              		.cfi_def_cfa_offset 8
  74              		.cfi_offset 3, -8
  75              		.cfi_offset 14, -4
  47:one_wire/one_wire.c ****     if( param_1 >= NUMBER_OF_ONE_WIRE_DEVICES )
  48:one_wire/one_wire.c ****     {
  49:one_wire/one_wire.c ****         param_1 = NUMBER_OF_ONE_WIRE_DEVICES -1;
  50:one_wire/one_wire.c ****     }
  51:one_wire/one_wire.c **** 
  52:one_wire/one_wire.c ****     if( one_wire_device_found != 0)
  76              		.loc 1 52 0
  77 0002 054B     		ldr	r3, .L10
  78              	.LVL5:
  79 0004 1B88     		ldrh	r3, [r3]
  80 0006 002B     		cmp	r3, #0
  81 0008 03D0     		beq	.L5
  53:one_wire/one_wire.c ****     {
  54:one_wire/one_wire.c ****        DS1820_StartTemp_Reading(&one_wire_io[param_1], &one_wire_addresses[param_1]);
  82              		.loc 1 54 0
  83 000a 0448     		ldr	r0, .L10+4
  84              	.LVL6:
  85 000c 0449     		ldr	r1, .L10+8
  86 000e FFF7FEFF 		bl	DS1820_StartTemp_Reading
  87              	.LVL7:
  88              	.L5:
  55:one_wire/one_wire.c ****     }
  56:one_wire/one_wire.c ****     return CF_DISABLE;
  57:one_wire/one_wire.c **** }
  89              		.loc 1 57 0
  90 0012 0220     		mov	r0, #2
  91              		@ sp needed
  92 0014 08BD     		pop	{r3, pc}
  93              	.L11:
  94 0016 C046     		.align	2
  95              	.L10:
  96 0018 00000000 		.word	.LANCHOR1
  97 001c 00000000 		.word	.LANCHOR0
  98 0020 00000000 		.word	one_wire_addresses
  99              		.cfi_endproc
 100              	.LFE65:
 101              		.size	start_ds18B20_temperature_measurement, .-start_ds18B20_temperature_measurement
 102              		.global	__aeabi_i2f
 103              		.global	__aeabi_f2d
 104              		.global	__aeabi_dmul
 105              		.global	__aeabi_ddiv
 106              		.global	__aeabi_dadd
 107              		.global	__aeabi_d2f
 108              		.section	.text.read_ds18B20_temperature_measurement,"ax",%progbits
 109              		.align	2
 110              		.global	read_ds18B20_temperature_measurement
 111              		.code	16
 112              		.thumb_func
 113              		.type	read_ds18B20_temperature_measurement, %function
ARM GAS  C:\Users\glenn\AppData\Local\Temp\cc4GUrPL.s 			page 4


 114              	read_ds18B20_temperature_measurement:
 115              	.LFB66:
  58:one_wire/one_wire.c **** 
  59:one_wire/one_wire.c **** int read_ds18B20_temperature_measurement(unsigned link_id, unsigned param_1,
  60:one_wire/one_wire.c ****   unsigned param_2, unsigned param_3, unsigned event, unsigned data)
  61:one_wire/one_wire.c **** {
 116              		.loc 1 61 0
 117              		.cfi_startproc
 118              	.LVL8:
 119 0000 00B5     		push	{lr}
 120              		.cfi_def_cfa_offset 4
 121              		.cfi_offset 14, -4
  62:one_wire/one_wire.c ****     float temperature;
  63:one_wire/one_wire.c ****     if( param_1 >= NUMBER_OF_ONE_WIRE_DEVICES )
  64:one_wire/one_wire.c ****     {
  65:one_wire/one_wire.c ****         param_1 = NUMBER_OF_ONE_WIRE_DEVICES -1;
  66:one_wire/one_wire.c ****     }
  67:one_wire/one_wire.c **** 
  68:one_wire/one_wire.c ****     if( one_wire_device_found != 0)
 122              		.loc 1 68 0
 123 0002 184B     		ldr	r3, .L16
 124              	.LVL9:
  61:one_wire/one_wire.c ****     float temperature;
 125              		.loc 1 61 0
 126 0004 83B0     		sub	sp, sp, #12
 127              		.cfi_def_cfa_offset 16
 128              		.loc 1 68 0
 129 0006 1B88     		ldrh	r3, [r3]
 130 0008 002B     		cmp	r3, #0
 131 000a 09D1     		bne	.L15
  69:one_wire/one_wire.c ****     {
  70:one_wire/one_wire.c ****        temperature = DS1820_GetTempRaw(&one_wire_io[param_1], &one_wire_addresses[param_1]);
  71:one_wire/one_wire.c ****        temperature = (((temperature/256.)*9.)/5.0)+32;
  72:one_wire/one_wire.c ****        store_modbus_data_registers( MOISTURE_SOIL_TEMP_FLOAT , 2,(uint16*) &temperature );
  73:one_wire/one_wire.c ****     }
  74:one_wire/one_wire.c ****     else
  75:one_wire/one_wire.c ****     {
  76:one_wire/one_wire.c ****        temperature = DEFAULT_TEMPERATURE;
 132              		.loc 1 76 0
 133 000c 164B     		ldr	r3, .L16+4
  77:one_wire/one_wire.c ****        store_modbus_data_registers( MOISTURE_SOIL_TEMP_FLOAT , 2,(uint16*) &temperature );
 134              		.loc 1 77 0
 135 000e 1320     		mov	r0, #19
 136              	.LVL10:
 137 0010 0221     		mov	r1, #2
 138 0012 01AA     		add	r2, sp, #4
 139              	.LVL11:
  76:one_wire/one_wire.c ****        store_modbus_data_registers( MOISTURE_SOIL_TEMP_FLOAT , 2,(uint16*) &temperature );
 140              		.loc 1 76 0
 141 0014 0193     		str	r3, [sp, #4]
 142              		.loc 1 77 0
 143 0016 FFF7FEFF 		bl	store_modbus_data_registers
 144              	.LVL12:
 145              	.L14:
  78:one_wire/one_wire.c ****     }
  79:one_wire/one_wire.c ****     return CF_DISABLE;
  80:one_wire/one_wire.c **** }
ARM GAS  C:\Users\glenn\AppData\Local\Temp\cc4GUrPL.s 			page 5


 146              		.loc 1 80 0
 147 001a 0220     		mov	r0, #2
 148 001c 03B0     		add	sp, sp, #12
 149              		@ sp needed
 150 001e 00BD     		pop	{pc}
 151              	.LVL13:
 152              	.L15:
  70:one_wire/one_wire.c ****        temperature = (((temperature/256.)*9.)/5.0)+32;
 153              		.loc 1 70 0
 154 0020 1249     		ldr	r1, .L16+8
 155 0022 1348     		ldr	r0, .L16+12
 156              	.LVL14:
 157 0024 FFF7FEFF 		bl	DS1820_GetTempRaw
 158              	.LVL15:
 159 0028 FFF7FEFF 		bl	__aeabi_i2f
 160              	.LVL16:
  71:one_wire/one_wire.c ****        store_modbus_data_registers( MOISTURE_SOIL_TEMP_FLOAT , 2,(uint16*) &temperature );
 161              		.loc 1 71 0
 162 002c FFF7FEFF 		bl	__aeabi_f2d
 163              	.LVL17:
 164 0030 0022     		mov	r2, #0
 165 0032 104B     		ldr	r3, .L16+16
 166 0034 FFF7FEFF 		bl	__aeabi_dmul
 167              	.LVL18:
 168 0038 0022     		mov	r2, #0
 169 003a 0F4B     		ldr	r3, .L16+20
 170 003c FFF7FEFF 		bl	__aeabi_dmul
 171              	.LVL19:
 172 0040 0022     		mov	r2, #0
 173 0042 0E4B     		ldr	r3, .L16+24
 174 0044 FFF7FEFF 		bl	__aeabi_ddiv
 175              	.LVL20:
 176 0048 0022     		mov	r2, #0
 177 004a 0D4B     		ldr	r3, .L16+28
 178 004c FFF7FEFF 		bl	__aeabi_dadd
 179              	.LVL21:
 180 0050 FFF7FEFF 		bl	__aeabi_d2f
 181              	.LVL22:
  72:one_wire/one_wire.c ****     }
 182              		.loc 1 72 0
 183 0054 0221     		mov	r1, #2
  71:one_wire/one_wire.c ****        store_modbus_data_registers( MOISTURE_SOIL_TEMP_FLOAT , 2,(uint16*) &temperature );
 184              		.loc 1 71 0
 185 0056 0190     		str	r0, [sp, #4]
  72:one_wire/one_wire.c ****     }
 186              		.loc 1 72 0
 187 0058 01AA     		add	r2, sp, #4
 188 005a 1320     		mov	r0, #19
 189 005c FFF7FEFF 		bl	store_modbus_data_registers
 190              	.LVL23:
 191 0060 DBE7     		b	.L14
 192              	.L17:
 193 0062 C046     		.align	2
 194              	.L16:
 195 0064 00000000 		.word	.LANCHOR1
 196 0068 00007042 		.word	1114636288
 197 006c 00000000 		.word	one_wire_addresses
ARM GAS  C:\Users\glenn\AppData\Local\Temp\cc4GUrPL.s 			page 6


 198 0070 00000000 		.word	.LANCHOR0
 199 0074 0000703F 		.word	1064304640
 200 0078 00002240 		.word	1075970048
 201 007c 00001440 		.word	1075052544
 202 0080 00004040 		.word	1077936128
 203              		.cfi_endproc
 204              	.LFE66:
 205              		.size	read_ds18B20_temperature_measurement, .-read_ds18B20_temperature_measurement
 206              		.comm	one_wire_addresses,8,4
 207              		.global	one_wire_io
 208              		.section	.rodata
 209              		.align	2
 210              		.set	.LANCHOR0,. + 0
 211              		.type	one_wire_io, %object
 212              		.size	one_wire_io, 8
 213              	one_wire_io:
 214 0000 00000000 		.word	One_Wire_Pin_Read
 215 0004 00000000 		.word	One_Wire_Pin_Write
 216              		.bss
 217              		.align	1
 218              		.set	.LANCHOR1,. + 0
 219              		.type	one_wire_device_found, %object
 220              		.size	one_wire_device_found, 2
 221              	one_wire_device_found:
 222 0000 0000     		.space	2
 223              		.text
 224              	.Letext0:
 225              		.file 2 "Generated_Source\\PSoC4/cytypes.h"
 226              		.file 3 "one_wire\\DS18B20.h"
 227              		.file 4 ".\\rtu_modbus/process_modbus_message.h"