ARM GAS  C:\Users\glenn\AppData\Local\Temp\cccR1cMe.s 			page 1


   1              		.cpu cortex-m0
   2              		.fpu softvfp
   3              		.eabi_attribute 20, 1
   4              		.eabi_attribute 21, 1
   5              		.eabi_attribute 23, 3
   6              		.eabi_attribute 24, 1
   7              		.eabi_attribute 25, 1
   8              		.eabi_attribute 26, 1
   9              		.eabi_attribute 30, 2
  10              		.eabi_attribute 34, 0
  11              		.eabi_attribute 18, 4
  12              		.code	16
  13              		.file	"process_type_16_message.c"
  14              		.text
  15              	.Ltext0:
  16              		.cfi_sections	.debug_frame
  17              		.section	.text.clear_moisture_flag,"ax",%progbits
  18              		.align	2
  19              		.code	16
  20              		.thumb_func
  21              		.type	clear_moisture_flag, %function
  22              	clear_moisture_flag:
  23              	.LFB78:
  24              		.file 1 "rtu_modbus\\process_type_16_message.c"
   1:rtu_modbus/process_type_16_message.c **** /*
   2:rtu_modbus/process_type_16_message.c **** **
   3:rtu_modbus/process_type_16_message.c **** ** File: process_type_16_message.c
   4:rtu_modbus/process_type_16_message.c **** **
   5:rtu_modbus/process_type_16_message.c **** **
   6:rtu_modbus/process_type_16_message.c **** Query
   7:rtu_modbus/process_type_16_message.c **** Slave Address 11
   8:rtu_modbus/process_type_16_message.c **** Function 10
   9:rtu_modbus/process_type_16_message.c **** Starting Address Hi 00
  10:rtu_modbus/process_type_16_message.c **** Starting Address Lo 01
  11:rtu_modbus/process_type_16_message.c **** No. of Registers Hi 00
  12:rtu_modbus/process_type_16_message.c **** No. of Registers Lo 02
  13:rtu_modbus/process_type_16_message.c **** Byte Count 04
  14:rtu_modbus/process_type_16_message.c **** Data Hi 00
  15:rtu_modbus/process_type_16_message.c **** Data Lo 0A
  16:rtu_modbus/process_type_16_message.c **** Data Hi 01
  17:rtu_modbus/process_type_16_message.c **** Data Lo 02
  18:rtu_modbus/process_type_16_message.c **** Error Check (LRC or CRC) ––    
  19:rtu_modbus/process_type_16_message.c ****     
  20:rtu_modbus/process_type_16_message.c **** Response
  21:rtu_modbus/process_type_16_message.c **** Slave Address 11
  22:rtu_modbus/process_type_16_message.c **** Function 10
  23:rtu_modbus/process_type_16_message.c **** Starting Address Hi 00
  24:rtu_modbus/process_type_16_message.c **** Starting Address Lo 01
  25:rtu_modbus/process_type_16_message.c **** No. of Registers Hi 00
  26:rtu_modbus/process_type_16_message.c **** No. of Registers Lo 02
  27:rtu_modbus/process_type_16_message.c **** Error Check (LRC or CRC) ––    
  28:rtu_modbus/process_type_16_message.c ****     
  29:rtu_modbus/process_type_16_message.c **** 
  30:rtu_modbus/process_type_16_message.c **** 
  31:rtu_modbus/process_type_16_message.c **** 
  32:rtu_modbus/process_type_16_message.c **** 
  33:rtu_modbus/process_type_16_message.c **** **
ARM GAS  C:\Users\glenn\AppData\Local\Temp\cccR1cMe.s 			page 2


  34:rtu_modbus/process_type_16_message.c **** **
  35:rtu_modbus/process_type_16_message.c **** */
  36:rtu_modbus/process_type_16_message.c **** 
  37:rtu_modbus/process_type_16_message.c **** 
  38:rtu_modbus/process_type_16_message.c **** 
  39:rtu_modbus/process_type_16_message.c **** 
  40:rtu_modbus/process_type_16_message.c **** #include <project.h>
  41:rtu_modbus/process_type_16_message.c **** #include "process_modbus_message.h"
  42:rtu_modbus/process_type_16_message.c **** #include "process_type_16_message.h" 
  43:rtu_modbus/process_type_16_message.c **** 
  44:rtu_modbus/process_type_16_message.c **** #include "modbus_utilities.h"
  45:rtu_modbus/process_type_16_message.c **** #include "configuration_data.h"
  46:rtu_modbus/process_type_16_message.c **** 
  47:rtu_modbus/process_type_16_message.c **** #include "cf_events.h"
  48:rtu_modbus/process_type_16_message.c **** 
  49:rtu_modbus/process_type_16_message.c **** 
  50:rtu_modbus/process_type_16_message.c **** 
  51:rtu_modbus/process_type_16_message.c **** #define SWAP_16 0
  52:rtu_modbus/process_type_16_message.c **** #define SWAP_32 1
  53:rtu_modbus/process_type_16_message.c **** 
  54:rtu_modbus/process_type_16_message.c **** 
  55:rtu_modbus/process_type_16_message.c **** typedef uint16 (*FN_16)( uint8 *buffer );
  56:rtu_modbus/process_type_16_message.c **** 
  57:rtu_modbus/process_type_16_message.c **** typedef struct
  58:rtu_modbus/process_type_16_message.c **** {
  59:rtu_modbus/process_type_16_message.c ****     unsigned start_register;
  60:rtu_modbus/process_type_16_message.c ****     unsigned register_count;
  61:rtu_modbus/process_type_16_message.c ****     unsigned swap_type;
  62:rtu_modbus/process_type_16_message.c ****     FN_16   access;
  63:rtu_modbus/process_type_16_message.c ****     
  64:rtu_modbus/process_type_16_message.c **** }TYPE_16_STRUCT;      
  65:rtu_modbus/process_type_16_message.c **** 
  66:rtu_modbus/process_type_16_message.c **** 
  67:rtu_modbus/process_type_16_message.c **** static uint16 check_one_wire_presence( uint8 *buffer)
  68:rtu_modbus/process_type_16_message.c **** {
  69:rtu_modbus/process_type_16_message.c ****     
  70:rtu_modbus/process_type_16_message.c ****     cf_send_event( CF_CHECK_ONE_WIRE_PRESENCE, *buffer);
  71:rtu_modbus/process_type_16_message.c ****     return 1;
  72:rtu_modbus/process_type_16_message.c **** }
  73:rtu_modbus/process_type_16_message.c **** 
  74:rtu_modbus/process_type_16_message.c **** 
  75:rtu_modbus/process_type_16_message.c **** static uint16 make_soil_temperature( uint8 *buffer )
  76:rtu_modbus/process_type_16_message.c **** {
  77:rtu_modbus/process_type_16_message.c ****     cf_send_event( CF_MAKE_SOIL_TEMP_MEASUREMENT, *buffer  );
  78:rtu_modbus/process_type_16_message.c ****     return 1;
  79:rtu_modbus/process_type_16_message.c **** }
  80:rtu_modbus/process_type_16_message.c **** 
  81:rtu_modbus/process_type_16_message.c **** 
  82:rtu_modbus/process_type_16_message.c **** static uint16 make_air_temp_humidity( uint8 *buffer )
  83:rtu_modbus/process_type_16_message.c **** {
  84:rtu_modbus/process_type_16_message.c ****     cf_send_event( CF_MEASURE_AIR_TEMP_HUMIDITY, *buffer );
  85:rtu_modbus/process_type_16_message.c ****     return 1;
  86:rtu_modbus/process_type_16_message.c **** }
  87:rtu_modbus/process_type_16_message.c **** 
  88:rtu_modbus/process_type_16_message.c **** 
  89:rtu_modbus/process_type_16_message.c **** 
  90:rtu_modbus/process_type_16_message.c **** 
ARM GAS  C:\Users\glenn\AppData\Local\Temp\cccR1cMe.s 			page 3


  91:rtu_modbus/process_type_16_message.c **** 
  92:rtu_modbus/process_type_16_message.c **** 
  93:rtu_modbus/process_type_16_message.c **** static uint16 clear_watch_dog_flags( uint8 * buffer )
  94:rtu_modbus/process_type_16_message.c **** {
  95:rtu_modbus/process_type_16_message.c ****     uint16 temp;
  96:rtu_modbus/process_type_16_message.c ****     
  97:rtu_modbus/process_type_16_message.c ****     temp =  0;
  98:rtu_modbus/process_type_16_message.c ****     store_modbus_data_registers( MOD_RTU_WATCH_DOG_FLAG, 1 , &temp);
  99:rtu_modbus/process_type_16_message.c **** 
 100:rtu_modbus/process_type_16_message.c ****     return 1;
 101:rtu_modbus/process_type_16_message.c **** }
 102:rtu_modbus/process_type_16_message.c **** 
 103:rtu_modbus/process_type_16_message.c **** 
 104:rtu_modbus/process_type_16_message.c **** 
 105:rtu_modbus/process_type_16_message.c **** 
 106:rtu_modbus/process_type_16_message.c **** 
 107:rtu_modbus/process_type_16_message.c **** static uint16 clear_power_up_event( uint8 *buffer )
 108:rtu_modbus/process_type_16_message.c **** {
 109:rtu_modbus/process_type_16_message.c ****     uint16 temp;
 110:rtu_modbus/process_type_16_message.c ****     
 111:rtu_modbus/process_type_16_message.c ****     temp = 0;
 112:rtu_modbus/process_type_16_message.c ****     store_modbus_data_registers( MOD_POWER_UP_EVENT, 1 , &temp);
 113:rtu_modbus/process_type_16_message.c ****     return 1;
 114:rtu_modbus/process_type_16_message.c **** }
 115:rtu_modbus/process_type_16_message.c **** 
 116:rtu_modbus/process_type_16_message.c **** 
 117:rtu_modbus/process_type_16_message.c **** static uint16 clear_minute_rollover( uint8 *buffer )
 118:rtu_modbus/process_type_16_message.c **** {
 119:rtu_modbus/process_type_16_message.c ****     uint16 temp;
 120:rtu_modbus/process_type_16_message.c ****     
 121:rtu_modbus/process_type_16_message.c ****     temp = 0;
 122:rtu_modbus/process_type_16_message.c ****     store_modbus_data_registers( MOD_MINUTE_ROLLOVER, 1 , &temp);
 123:rtu_modbus/process_type_16_message.c ****     return 1;
 124:rtu_modbus/process_type_16_message.c **** }
 125:rtu_modbus/process_type_16_message.c **** 
 126:rtu_modbus/process_type_16_message.c **** static uint16 set_controller_watch_dog_flags( uint8 * buffer )
 127:rtu_modbus/process_type_16_message.c **** {
 128:rtu_modbus/process_type_16_message.c ****     uint16 temp;
 129:rtu_modbus/process_type_16_message.c ****     
 130:rtu_modbus/process_type_16_message.c ****     temp =  1;
 131:rtu_modbus/process_type_16_message.c ****     store_modbus_data_registers( MOD_CONTROLLER_WATCH_DOG_FLAG, 1 , &temp);
 132:rtu_modbus/process_type_16_message.c **** 
 133:rtu_modbus/process_type_16_message.c ****     return 1;
 134:rtu_modbus/process_type_16_message.c **** }
 135:rtu_modbus/process_type_16_message.c **** 
 136:rtu_modbus/process_type_16_message.c **** 
 137:rtu_modbus/process_type_16_message.c **** 
 138:rtu_modbus/process_type_16_message.c **** 
 139:rtu_modbus/process_type_16_message.c **** static uint16 change_time( uint8 *buffer )
 140:rtu_modbus/process_type_16_message.c **** {
 141:rtu_modbus/process_type_16_message.c ****     int     i;
 142:rtu_modbus/process_type_16_message.c ****     uint8*  temp_ptr;
 143:rtu_modbus/process_type_16_message.c ****     uint64 time;
 144:rtu_modbus/process_type_16_message.c ****    
 145:rtu_modbus/process_type_16_message.c ****     temp_ptr = (uint8 *)&time;
 146:rtu_modbus/process_type_16_message.c ****     for( i = 0; i < 8; i++)
 147:rtu_modbus/process_type_16_message.c ****     {
ARM GAS  C:\Users\glenn\AppData\Local\Temp\cccR1cMe.s 			page 4


 148:rtu_modbus/process_type_16_message.c ****         *temp_ptr++ = *buffer++;
 149:rtu_modbus/process_type_16_message.c ****     }
 150:rtu_modbus/process_type_16_message.c ****     
 151:rtu_modbus/process_type_16_message.c ****     RTC_1_SetUnixTime(time );
 152:rtu_modbus/process_type_16_message.c ****     store_modbus_data_registers( MOD_RTU_UNIX_TIME, 4 ,(uint16*) &time);
 153:rtu_modbus/process_type_16_message.c ****     return 1;
 154:rtu_modbus/process_type_16_message.c **** }
 155:rtu_modbus/process_type_16_message.c **** 
 156:rtu_modbus/process_type_16_message.c **** 
 157:rtu_modbus/process_type_16_message.c **** 
 158:rtu_modbus/process_type_16_message.c **** 
 159:rtu_modbus/process_type_16_message.c **** static uint16 update_moisture_sensor_configuration( uint8 *buffer )
 160:rtu_modbus/process_type_16_message.c **** {
 161:rtu_modbus/process_type_16_message.c **** 
 162:rtu_modbus/process_type_16_message.c ****    
 163:rtu_modbus/process_type_16_message.c ****     CONFIGURATION_DATA *ptr;
 164:rtu_modbus/process_type_16_message.c ****     
 165:rtu_modbus/process_type_16_message.c ****     ptr = get_configuration_data();
 166:rtu_modbus/process_type_16_message.c **** 
 167:rtu_modbus/process_type_16_message.c ****     store_modbus_data_registers( RESISTIVE_SENSOR_1_CONFIGURATION , RESISTIVE_SENSOR_NUMBER,(uint16
 168:rtu_modbus/process_type_16_message.c ****     memcpy( ptr->resistance_type, buffer, sizeof(ptr->resistance_type));
 169:rtu_modbus/process_type_16_message.c ****     return 1;
 170:rtu_modbus/process_type_16_message.c **** 
 171:rtu_modbus/process_type_16_message.c **** }
 172:rtu_modbus/process_type_16_message.c **** 
 173:rtu_modbus/process_type_16_message.c **** 
 174:rtu_modbus/process_type_16_message.c **** 
 175:rtu_modbus/process_type_16_message.c **** static uint16 force_moisture_reading( uint8 *buffer )
 176:rtu_modbus/process_type_16_message.c **** {
 177:rtu_modbus/process_type_16_message.c ****     cf_send_event( CF_START_MOISTURE_READING, 0 );
 178:rtu_modbus/process_type_16_message.c ****     return 1;
 179:rtu_modbus/process_type_16_message.c **** }
 180:rtu_modbus/process_type_16_message.c **** 
 181:rtu_modbus/process_type_16_message.c **** static uint16 update_flash( uint8 *buffer )
 182:rtu_modbus/process_type_16_message.c **** {
 183:rtu_modbus/process_type_16_message.c ****     cf_send_event( CF_UPDATE_FLASH, 0 );
 184:rtu_modbus/process_type_16_message.c ****     return 1;
 185:rtu_modbus/process_type_16_message.c **** }
 186:rtu_modbus/process_type_16_message.c **** 
 187:rtu_modbus/process_type_16_message.c **** static uint16 change_modbus_address( uint8 *buffer )
 188:rtu_modbus/process_type_16_message.c **** {
 189:rtu_modbus/process_type_16_message.c ****     uint16 mod_commission_flag;
 190:rtu_modbus/process_type_16_message.c ****     uint16 return_value;
 191:rtu_modbus/process_type_16_message.c ****     CONFIGURATION_DATA *ptr;
 192:rtu_modbus/process_type_16_message.c ****     
 193:rtu_modbus/process_type_16_message.c ****     get_modbus_data_registers( MOD_COMMISSIONING_FLAG, 1, &mod_commission_flag );
 194:rtu_modbus/process_type_16_message.c ****     
 195:rtu_modbus/process_type_16_message.c ****     if( mod_commission_flag != 0  )
 196:rtu_modbus/process_type_16_message.c ****     {
 197:rtu_modbus/process_type_16_message.c ****         return_value = 1;
 198:rtu_modbus/process_type_16_message.c ****         ptr = get_configuration_data();
 199:rtu_modbus/process_type_16_message.c ****         memcpy( &ptr->modbus_address, buffer, sizeof(ptr->modbus_address));
 200:rtu_modbus/process_type_16_message.c ****         memcpy( modbus_address_data , buffer,  sizeof(modbus_address_data));
 201:rtu_modbus/process_type_16_message.c ****         cf_send_event( CF_UPDATE_FLASH, 0 );
 202:rtu_modbus/process_type_16_message.c ****         cf_send_event(  CF_COMMISSIONING_DONE, 0 );
 203:rtu_modbus/process_type_16_message.c ****     }
 204:rtu_modbus/process_type_16_message.c ****     else
ARM GAS  C:\Users\glenn\AppData\Local\Temp\cccR1cMe.s 			page 5


 205:rtu_modbus/process_type_16_message.c ****     {
 206:rtu_modbus/process_type_16_message.c ****         return_value = 0;
 207:rtu_modbus/process_type_16_message.c ****     }    
 208:rtu_modbus/process_type_16_message.c ****     return return_value;
 209:rtu_modbus/process_type_16_message.c **** }
 210:rtu_modbus/process_type_16_message.c **** 
 211:rtu_modbus/process_type_16_message.c **** static uint16  clear_moisture_flag( uint8 *buffer )
 212:rtu_modbus/process_type_16_message.c **** {
  25              		.loc 1 212 0
  26              		.cfi_startproc
  27              	.LVL0:
  28 0000 00B5     		push	{lr}
  29              		.cfi_def_cfa_offset 4
  30              		.cfi_offset 14, -4
  31 0002 83B0     		sub	sp, sp, #12
  32              		.cfi_def_cfa_offset 16
 213:rtu_modbus/process_type_16_message.c ****     uint16 new_moisture_data_flag;
 214:rtu_modbus/process_type_16_message.c ****     
 215:rtu_modbus/process_type_16_message.c ****     new_moisture_data_flag = 0;
  33              		.loc 1 215 0
  34 0004 6B46     		mov	r3, sp
  35 0006 9A1D     		add	r2, r3, #6
  36 0008 0023     		mov	r3, #0
 216:rtu_modbus/process_type_16_message.c ****     store_modbus_data_registers( NEW_MOISTURE_DATA_FLAG, 1, &new_moisture_data_flag );
  37              		.loc 1 216 0
  38 000a 0121     		mov	r1, #1
  39 000c 0E20     		mov	r0, #14
  40              	.LVL1:
 215:rtu_modbus/process_type_16_message.c ****     store_modbus_data_registers( NEW_MOISTURE_DATA_FLAG, 1, &new_moisture_data_flag );
  41              		.loc 1 215 0
  42 000e 1380     		strh	r3, [r2]
  43              		.loc 1 216 0
  44 0010 FFF7FEFF 		bl	store_modbus_data_registers
  45              	.LVL2:
 217:rtu_modbus/process_type_16_message.c ****     return 1;
 218:rtu_modbus/process_type_16_message.c **** }    
  46              		.loc 1 218 0
  47 0014 0120     		mov	r0, #1
  48 0016 03B0     		add	sp, sp, #12
  49              		@ sp needed
  50 0018 00BD     		pop	{pc}
  51              		.cfi_endproc
  52              	.LFE78:
  53              		.size	clear_moisture_flag, .-clear_moisture_flag
  54 001a C046     		.section	.text.set_controller_watch_dog_flags,"ax",%progbits
  55              		.align	2
  56              		.code	16
  57              		.thumb_func
  58              		.type	set_controller_watch_dog_flags, %function
  59              	set_controller_watch_dog_flags:
  60              	.LFB72:
 127:rtu_modbus/process_type_16_message.c ****     uint16 temp;
  61              		.loc 1 127 0
  62              		.cfi_startproc
  63              	.LVL3:
  64 0000 00B5     		push	{lr}
  65              		.cfi_def_cfa_offset 4
ARM GAS  C:\Users\glenn\AppData\Local\Temp\cccR1cMe.s 			page 6


  66              		.cfi_offset 14, -4
  67 0002 83B0     		sub	sp, sp, #12
  68              		.cfi_def_cfa_offset 16
 130:rtu_modbus/process_type_16_message.c ****     store_modbus_data_registers( MOD_CONTROLLER_WATCH_DOG_FLAG, 1 , &temp);
  69              		.loc 1 130 0
  70 0004 6B46     		mov	r3, sp
  71 0006 9A1D     		add	r2, r3, #6
  72 0008 0123     		mov	r3, #1
 131:rtu_modbus/process_type_16_message.c **** 
  73              		.loc 1 131 0
  74 000a 0121     		mov	r1, #1
  75 000c 0220     		mov	r0, #2
  76              	.LVL4:
 130:rtu_modbus/process_type_16_message.c ****     store_modbus_data_registers( MOD_CONTROLLER_WATCH_DOG_FLAG, 1 , &temp);
  77              		.loc 1 130 0
  78 000e 1380     		strh	r3, [r2]
 131:rtu_modbus/process_type_16_message.c **** 
  79              		.loc 1 131 0
  80 0010 FFF7FEFF 		bl	store_modbus_data_registers
  81              	.LVL5:
 134:rtu_modbus/process_type_16_message.c **** 
  82              		.loc 1 134 0
  83 0014 0120     		mov	r0, #1
  84 0016 03B0     		add	sp, sp, #12
  85              		@ sp needed
  86 0018 00BD     		pop	{pc}
  87              		.cfi_endproc
  88              	.LFE72:
  89              		.size	set_controller_watch_dog_flags, .-set_controller_watch_dog_flags
  90 001a C046     		.section	.text.clear_minute_rollover,"ax",%progbits
  91              		.align	2
  92              		.code	16
  93              		.thumb_func
  94              		.type	clear_minute_rollover, %function
  95              	clear_minute_rollover:
  96              	.LFB71:
 118:rtu_modbus/process_type_16_message.c ****     uint16 temp;
  97              		.loc 1 118 0
  98              		.cfi_startproc
  99              	.LVL6:
 100 0000 00B5     		push	{lr}
 101              		.cfi_def_cfa_offset 4
 102              		.cfi_offset 14, -4
 103 0002 83B0     		sub	sp, sp, #12
 104              		.cfi_def_cfa_offset 16
 121:rtu_modbus/process_type_16_message.c ****     store_modbus_data_registers( MOD_MINUTE_ROLLOVER, 1 , &temp);
 105              		.loc 1 121 0
 106 0004 6B46     		mov	r3, sp
 107 0006 9A1D     		add	r2, r3, #6
 108 0008 0023     		mov	r3, #0
 122:rtu_modbus/process_type_16_message.c ****     return 1;
 109              		.loc 1 122 0
 110 000a 0121     		mov	r1, #1
 111 000c 0620     		mov	r0, #6
 112              	.LVL7:
 121:rtu_modbus/process_type_16_message.c ****     store_modbus_data_registers( MOD_MINUTE_ROLLOVER, 1 , &temp);
 113              		.loc 1 121 0
ARM GAS  C:\Users\glenn\AppData\Local\Temp\cccR1cMe.s 			page 7


 114 000e 1380     		strh	r3, [r2]
 122:rtu_modbus/process_type_16_message.c ****     return 1;
 115              		.loc 1 122 0
 116 0010 FFF7FEFF 		bl	store_modbus_data_registers
 117              	.LVL8:
 124:rtu_modbus/process_type_16_message.c **** 
 118              		.loc 1 124 0
 119 0014 0120     		mov	r0, #1
 120 0016 03B0     		add	sp, sp, #12
 121              		@ sp needed
 122 0018 00BD     		pop	{pc}
 123              		.cfi_endproc
 124              	.LFE71:
 125              		.size	clear_minute_rollover, .-clear_minute_rollover
 126 001a C046     		.section	.text.clear_power_up_event,"ax",%progbits
 127              		.align	2
 128              		.code	16
 129              		.thumb_func
 130              		.type	clear_power_up_event, %function
 131              	clear_power_up_event:
 132              	.LFB70:
 108:rtu_modbus/process_type_16_message.c ****     uint16 temp;
 133              		.loc 1 108 0
 134              		.cfi_startproc
 135              	.LVL9:
 136 0000 00B5     		push	{lr}
 137              		.cfi_def_cfa_offset 4
 138              		.cfi_offset 14, -4
 139 0002 83B0     		sub	sp, sp, #12
 140              		.cfi_def_cfa_offset 16
 111:rtu_modbus/process_type_16_message.c ****     store_modbus_data_registers( MOD_POWER_UP_EVENT, 1 , &temp);
 141              		.loc 1 111 0
 142 0004 6B46     		mov	r3, sp
 143 0006 9A1D     		add	r2, r3, #6
 144 0008 0023     		mov	r3, #0
 112:rtu_modbus/process_type_16_message.c ****     return 1;
 145              		.loc 1 112 0
 146 000a 0121     		mov	r1, #1
 147 000c 0420     		mov	r0, #4
 148              	.LVL10:
 111:rtu_modbus/process_type_16_message.c ****     store_modbus_data_registers( MOD_POWER_UP_EVENT, 1 , &temp);
 149              		.loc 1 111 0
 150 000e 1380     		strh	r3, [r2]
 112:rtu_modbus/process_type_16_message.c ****     return 1;
 151              		.loc 1 112 0
 152 0010 FFF7FEFF 		bl	store_modbus_data_registers
 153              	.LVL11:
 114:rtu_modbus/process_type_16_message.c **** 
 154              		.loc 1 114 0
 155 0014 0120     		mov	r0, #1
 156 0016 03B0     		add	sp, sp, #12
 157              		@ sp needed
 158 0018 00BD     		pop	{pc}
 159              		.cfi_endproc
 160              	.LFE70:
 161              		.size	clear_power_up_event, .-clear_power_up_event
 162 001a C046     		.section	.text.clear_watch_dog_flags,"ax",%progbits
ARM GAS  C:\Users\glenn\AppData\Local\Temp\cccR1cMe.s 			page 8


 163              		.align	2
 164              		.code	16
 165              		.thumb_func
 166              		.type	clear_watch_dog_flags, %function
 167              	clear_watch_dog_flags:
 168              	.LFB69:
  94:rtu_modbus/process_type_16_message.c ****     uint16 temp;
 169              		.loc 1 94 0
 170              		.cfi_startproc
 171              	.LVL12:
 172 0000 00B5     		push	{lr}
 173              		.cfi_def_cfa_offset 4
 174              		.cfi_offset 14, -4
 175 0002 83B0     		sub	sp, sp, #12
 176              		.cfi_def_cfa_offset 16
  97:rtu_modbus/process_type_16_message.c ****     store_modbus_data_registers( MOD_RTU_WATCH_DOG_FLAG, 1 , &temp);
 177              		.loc 1 97 0
 178 0004 6B46     		mov	r3, sp
 179 0006 9A1D     		add	r2, r3, #6
 180 0008 0023     		mov	r3, #0
  98:rtu_modbus/process_type_16_message.c **** 
 181              		.loc 1 98 0
 182 000a 0121     		mov	r1, #1
 183 000c 0120     		mov	r0, #1
 184              	.LVL13:
  97:rtu_modbus/process_type_16_message.c ****     store_modbus_data_registers( MOD_RTU_WATCH_DOG_FLAG, 1 , &temp);
 185              		.loc 1 97 0
 186 000e 1380     		strh	r3, [r2]
  98:rtu_modbus/process_type_16_message.c **** 
 187              		.loc 1 98 0
 188 0010 FFF7FEFF 		bl	store_modbus_data_registers
 189              	.LVL14:
 101:rtu_modbus/process_type_16_message.c **** 
 190              		.loc 1 101 0
 191 0014 0120     		mov	r0, #1
 192 0016 03B0     		add	sp, sp, #12
 193              		@ sp needed
 194 0018 00BD     		pop	{pc}
 195              		.cfi_endproc
 196              	.LFE69:
 197              		.size	clear_watch_dog_flags, .-clear_watch_dog_flags
 198 001a C046     		.section	.text.update_flash,"ax",%progbits
 199              		.align	2
 200              		.code	16
 201              		.thumb_func
 202              		.type	update_flash, %function
 203              	update_flash:
 204              	.LFB76:
 182:rtu_modbus/process_type_16_message.c ****     cf_send_event( CF_UPDATE_FLASH, 0 );
 205              		.loc 1 182 0
 206              		.cfi_startproc
 207              	.LVL15:
 208 0000 08B5     		push	{r3, lr}
 209              		.cfi_def_cfa_offset 8
 210              		.cfi_offset 3, -8
 211              		.cfi_offset 14, -4
 183:rtu_modbus/process_type_16_message.c ****     return 1;
ARM GAS  C:\Users\glenn\AppData\Local\Temp\cccR1cMe.s 			page 9


 212              		.loc 1 183 0
 213 0002 0F20     		mov	r0, #15
 214              	.LVL16:
 215 0004 0021     		mov	r1, #0
 216 0006 FFF7FEFF 		bl	cf_send_event
 217              	.LVL17:
 185:rtu_modbus/process_type_16_message.c **** 
 218              		.loc 1 185 0
 219              		@ sp needed
 220 000a 0120     		mov	r0, #1
 221 000c 08BD     		pop	{r3, pc}
 222              		.cfi_endproc
 223              	.LFE76:
 224              		.size	update_flash, .-update_flash
 225 000e C046     		.section	.text.force_moisture_reading,"ax",%progbits
 226              		.align	2
 227              		.code	16
 228              		.thumb_func
 229              		.type	force_moisture_reading, %function
 230              	force_moisture_reading:
 231              	.LFB75:
 176:rtu_modbus/process_type_16_message.c ****     cf_send_event( CF_START_MOISTURE_READING, 0 );
 232              		.loc 1 176 0
 233              		.cfi_startproc
 234              	.LVL18:
 235 0000 08B5     		push	{r3, lr}
 236              		.cfi_def_cfa_offset 8
 237              		.cfi_offset 3, -8
 238              		.cfi_offset 14, -4
 177:rtu_modbus/process_type_16_message.c ****     return 1;
 239              		.loc 1 177 0
 240 0002 0920     		mov	r0, #9
 241              	.LVL19:
 242 0004 0021     		mov	r1, #0
 243 0006 FFF7FEFF 		bl	cf_send_event
 244              	.LVL20:
 179:rtu_modbus/process_type_16_message.c **** 
 245              		.loc 1 179 0
 246              		@ sp needed
 247 000a 0120     		mov	r0, #1
 248 000c 08BD     		pop	{r3, pc}
 249              		.cfi_endproc
 250              	.LFE75:
 251              		.size	force_moisture_reading, .-force_moisture_reading
 252 000e C046     		.section	.text.make_air_temp_humidity,"ax",%progbits
 253              		.align	2
 254              		.code	16
 255              		.thumb_func
 256              		.type	make_air_temp_humidity, %function
 257              	make_air_temp_humidity:
 258              	.LFB68:
  83:rtu_modbus/process_type_16_message.c ****     cf_send_event( CF_MEASURE_AIR_TEMP_HUMIDITY, *buffer );
 259              		.loc 1 83 0
 260              		.cfi_startproc
 261              	.LVL21:
 262 0000 08B5     		push	{r3, lr}
 263              		.cfi_def_cfa_offset 8
ARM GAS  C:\Users\glenn\AppData\Local\Temp\cccR1cMe.s 			page 10


 264              		.cfi_offset 3, -8
 265              		.cfi_offset 14, -4
  84:rtu_modbus/process_type_16_message.c ****     return 1;
 266              		.loc 1 84 0
 267 0002 0178     		ldrb	r1, [r0]
 268 0004 1220     		mov	r0, #18
 269              	.LVL22:
 270 0006 FFF7FEFF 		bl	cf_send_event
 271              	.LVL23:
  86:rtu_modbus/process_type_16_message.c **** 
 272              		.loc 1 86 0
 273              		@ sp needed
 274 000a 0120     		mov	r0, #1
 275 000c 08BD     		pop	{r3, pc}
 276              		.cfi_endproc
 277              	.LFE68:
 278              		.size	make_air_temp_humidity, .-make_air_temp_humidity
 279 000e C046     		.section	.text.make_soil_temperature,"ax",%progbits
 280              		.align	2
 281              		.code	16
 282              		.thumb_func
 283              		.type	make_soil_temperature, %function
 284              	make_soil_temperature:
 285              	.LFB67:
  76:rtu_modbus/process_type_16_message.c ****     cf_send_event( CF_MAKE_SOIL_TEMP_MEASUREMENT, *buffer  );
 286              		.loc 1 76 0
 287              		.cfi_startproc
 288              	.LVL24:
 289 0000 08B5     		push	{r3, lr}
 290              		.cfi_def_cfa_offset 8
 291              		.cfi_offset 3, -8
 292              		.cfi_offset 14, -4
  77:rtu_modbus/process_type_16_message.c ****     return 1;
 293              		.loc 1 77 0
 294 0002 0178     		ldrb	r1, [r0]
 295 0004 1120     		mov	r0, #17
 296              	.LVL25:
 297 0006 FFF7FEFF 		bl	cf_send_event
 298              	.LVL26:
  79:rtu_modbus/process_type_16_message.c **** 
 299              		.loc 1 79 0
 300              		@ sp needed
 301 000a 0120     		mov	r0, #1
 302 000c 08BD     		pop	{r3, pc}
 303              		.cfi_endproc
 304              	.LFE67:
 305              		.size	make_soil_temperature, .-make_soil_temperature
 306 000e C046     		.section	.text.check_one_wire_presence,"ax",%progbits
 307              		.align	2
 308              		.code	16
 309              		.thumb_func
 310              		.type	check_one_wire_presence, %function
 311              	check_one_wire_presence:
 312              	.LFB66:
  68:rtu_modbus/process_type_16_message.c ****     
 313              		.loc 1 68 0
 314              		.cfi_startproc
ARM GAS  C:\Users\glenn\AppData\Local\Temp\cccR1cMe.s 			page 11


 315              	.LVL27:
 316 0000 08B5     		push	{r3, lr}
 317              		.cfi_def_cfa_offset 8
 318              		.cfi_offset 3, -8
 319              		.cfi_offset 14, -4
  70:rtu_modbus/process_type_16_message.c ****     return 1;
 320              		.loc 1 70 0
 321 0002 0178     		ldrb	r1, [r0]
 322 0004 1020     		mov	r0, #16
 323              	.LVL28:
 324 0006 FFF7FEFF 		bl	cf_send_event
 325              	.LVL29:
  72:rtu_modbus/process_type_16_message.c **** 
 326              		.loc 1 72 0
 327              		@ sp needed
 328 000a 0120     		mov	r0, #1
 329 000c 08BD     		pop	{r3, pc}
 330              		.cfi_endproc
 331              	.LFE66:
 332              		.size	check_one_wire_presence, .-check_one_wire_presence
 333 000e C046     		.section	.text.update_moisture_sensor_configuration,"ax",%progbits
 334              		.align	2
 335              		.code	16
 336              		.thumb_func
 337              		.type	update_moisture_sensor_configuration, %function
 338              	update_moisture_sensor_configuration:
 339              	.LFB74:
 160:rtu_modbus/process_type_16_message.c **** 
 340              		.loc 1 160 0
 341              		.cfi_startproc
 342              	.LVL30:
 343 0000 38B5     		push	{r3, r4, r5, lr}
 344              		.cfi_def_cfa_offset 16
 345              		.cfi_offset 3, -16
 346              		.cfi_offset 4, -12
 347              		.cfi_offset 5, -8
 348              		.cfi_offset 14, -4
 160:rtu_modbus/process_type_16_message.c **** 
 349              		.loc 1 160 0
 350 0002 051C     		mov	r5, r0
 165:rtu_modbus/process_type_16_message.c **** 
 351              		.loc 1 165 0
 352 0004 FFF7FEFF 		bl	get_configuration_data
 353              	.LVL31:
 354 0008 041C     		mov	r4, r0
 355              	.LVL32:
 167:rtu_modbus/process_type_16_message.c ****     memcpy( ptr->resistance_type, buffer, sizeof(ptr->resistance_type));
 356              		.loc 1 167 0
 357 000a 2A1C     		mov	r2, r5
 358 000c 1021     		mov	r1, #16
 359 000e 6E20     		mov	r0, #110
 360              	.LVL33:
 361 0010 FFF7FEFF 		bl	store_modbus_data_registers
 362              	.LVL34:
 168:rtu_modbus/process_type_16_message.c ****     return 1;
 363              		.loc 1 168 0
 364 0014 201C     		mov	r0, r4
ARM GAS  C:\Users\glenn\AppData\Local\Temp\cccR1cMe.s 			page 12


 365 0016 291C     		mov	r1, r5
 366 0018 2022     		mov	r2, #32
 367 001a 0E30     		add	r0, r0, #14
 368 001c FFF7FEFF 		bl	memcpy
 369              	.LVL35:
 171:rtu_modbus/process_type_16_message.c **** 
 370              		.loc 1 171 0
 371              		@ sp needed
 372 0020 0120     		mov	r0, #1
 373              	.LVL36:
 374              	.LVL37:
 375 0022 38BD     		pop	{r3, r4, r5, pc}
 376              		.cfi_endproc
 377              	.LFE74:
 378              		.size	update_moisture_sensor_configuration, .-update_moisture_sensor_configuration
 379              		.section	.text.change_time,"ax",%progbits
 380              		.align	2
 381              		.code	16
 382              		.thumb_func
 383              		.type	change_time, %function
 384              	change_time:
 385              	.LFB73:
 140:rtu_modbus/process_type_16_message.c ****     int     i;
 386              		.loc 1 140 0
 387              		.cfi_startproc
 388              	.LVL38:
 146:rtu_modbus/process_type_16_message.c ****     {
 389              		.loc 1 146 0
 390 0000 0023     		mov	r3, #0
 140:rtu_modbus/process_type_16_message.c ****     int     i;
 391              		.loc 1 140 0
 392 0002 00B5     		push	{lr}
 393              		.cfi_def_cfa_offset 4
 394              		.cfi_offset 14, -4
 395 0004 83B0     		sub	sp, sp, #12
 396              		.cfi_def_cfa_offset 16
 397              	.LVL39:
 398              	.L13:
 148:rtu_modbus/process_type_16_message.c ****     }
 399              		.loc 1 148 0 discriminator 3
 400 0006 6946     		mov	r1, sp
 401 0008 C25C     		ldrb	r2, [r0, r3]
 402 000a CA54     		strb	r2, [r1, r3]
 146:rtu_modbus/process_type_16_message.c ****     {
 403              		.loc 1 146 0 discriminator 3
 404 000c 0133     		add	r3, r3, #1
 405              	.LVL40:
 406 000e 082B     		cmp	r3, #8
 407 0010 F9D1     		bne	.L13
 151:rtu_modbus/process_type_16_message.c ****     store_modbus_data_registers( MOD_RTU_UNIX_TIME, 4 ,(uint16*) &time);
 408              		.loc 1 151 0
 409 0012 0098     		ldr	r0, [sp]
 410 0014 0199     		ldr	r1, [sp, #4]
 411              	.LVL41:
 412 0016 FFF7FEFF 		bl	RTC_1_SetUnixTime
 413              	.LVL42:
 152:rtu_modbus/process_type_16_message.c ****     return 1;
ARM GAS  C:\Users\glenn\AppData\Local\Temp\cccR1cMe.s 			page 13


 414              		.loc 1 152 0
 415 001a 0421     		mov	r1, #4
 416 001c 6A46     		mov	r2, sp
 417 001e 0820     		mov	r0, #8
 418 0020 FFF7FEFF 		bl	store_modbus_data_registers
 419              	.LVL43:
 154:rtu_modbus/process_type_16_message.c **** 
 420              		.loc 1 154 0
 421 0024 0120     		mov	r0, #1
 422 0026 03B0     		add	sp, sp, #12
 423              		@ sp needed
 424 0028 00BD     		pop	{pc}
 425              		.cfi_endproc
 426              	.LFE73:
 427              		.size	change_time, .-change_time
 428 002a C046     		.section	.text.change_modbus_address,"ax",%progbits
 429              		.align	2
 430              		.code	16
 431              		.thumb_func
 432              		.type	change_modbus_address, %function
 433              	change_modbus_address:
 434              	.LFB77:
 188:rtu_modbus/process_type_16_message.c ****     uint16 mod_commission_flag;
 435              		.loc 1 188 0
 436              		.cfi_startproc
 437              	.LVL44:
 438 0000 30B5     		push	{r4, r5, lr}
 439              		.cfi_def_cfa_offset 12
 440              		.cfi_offset 4, -12
 441              		.cfi_offset 5, -8
 442              		.cfi_offset 14, -4
 443 0002 83B0     		sub	sp, sp, #12
 444              		.cfi_def_cfa_offset 24
 193:rtu_modbus/process_type_16_message.c ****     
 445              		.loc 1 193 0
 446 0004 6B46     		mov	r3, sp
 447 0006 9C1D     		add	r4, r3, #6
 188:rtu_modbus/process_type_16_message.c ****     uint16 mod_commission_flag;
 448              		.loc 1 188 0
 449 0008 051C     		mov	r5, r0
 193:rtu_modbus/process_type_16_message.c ****     
 450              		.loc 1 193 0
 451 000a 0121     		mov	r1, #1
 452 000c 0320     		mov	r0, #3
 453              	.LVL45:
 454 000e 221C     		mov	r2, r4
 455 0010 FFF7FEFF 		bl	get_modbus_data_registers
 456              	.LVL46:
 195:rtu_modbus/process_type_16_message.c ****     {
 457              		.loc 1 195 0
 458 0014 2388     		ldrh	r3, [r4]
 206:rtu_modbus/process_type_16_message.c ****     }    
 459              		.loc 1 206 0
 460 0016 0020     		mov	r0, #0
 195:rtu_modbus/process_type_16_message.c ****     {
 461              		.loc 1 195 0
 462 0018 002B     		cmp	r3, #0
ARM GAS  C:\Users\glenn\AppData\Local\Temp\cccR1cMe.s 			page 14


 463 001a 14D0     		beq	.L17
 464              	.LVL47:
 465              	.LBB10:
 466              	.LBB11:
 198:rtu_modbus/process_type_16_message.c ****         memcpy( &ptr->modbus_address, buffer, sizeof(ptr->modbus_address));
 467              		.loc 1 198 0
 468 001c FFF7FEFF 		bl	get_configuration_data
 469              	.LVL48:
 199:rtu_modbus/process_type_16_message.c ****         memcpy( modbus_address_data , buffer,  sizeof(modbus_address_data));
 470              		.loc 1 199 0
 471 0020 291C     		mov	r1, r5
 472 0022 0422     		mov	r2, #4
 473 0024 0230     		add	r0, r0, #2
 474              	.LVL49:
 475 0026 FFF7FEFF 		bl	memcpy
 476              	.LVL50:
 200:rtu_modbus/process_type_16_message.c ****         cf_send_event( CF_UPDATE_FLASH, 0 );
 477              		.loc 1 200 0
 478 002a 0422     		mov	r2, #4
 479 002c 291C     		mov	r1, r5
 480 002e 0748     		ldr	r0, .L20
 481 0030 FFF7FEFF 		bl	memcpy
 482              	.LVL51:
 201:rtu_modbus/process_type_16_message.c ****         cf_send_event(  CF_COMMISSIONING_DONE, 0 );
 483              		.loc 1 201 0
 484 0034 0F20     		mov	r0, #15
 485 0036 0021     		mov	r1, #0
 486 0038 FFF7FEFF 		bl	cf_send_event
 487              	.LVL52:
 202:rtu_modbus/process_type_16_message.c ****     }
 488              		.loc 1 202 0
 489 003c 0820     		mov	r0, #8
 490 003e 0021     		mov	r1, #0
 491 0040 FFF7FEFF 		bl	cf_send_event
 492              	.LVL53:
 493 0044 0120     		mov	r0, #1
 494              	.LVL54:
 495              	.L17:
 496              	.LBE11:
 497              	.LBE10:
 209:rtu_modbus/process_type_16_message.c **** 
 498              		.loc 1 209 0
 499 0046 03B0     		add	sp, sp, #12
 500              		@ sp needed
 501              	.LVL55:
 502 0048 30BD     		pop	{r4, r5, pc}
 503              	.L21:
 504 004a C046     		.align	2
 505              	.L20:
 506 004c 00000000 		.word	modbus_address_data
 507              		.cfi_endproc
 508              	.LFE77:
 509              		.size	change_modbus_address, .-change_modbus_address
 510              		.section	.text.process_type_16_message,"ax",%progbits
 511              		.align	2
 512              		.global	process_type_16_message
 513              		.code	16
ARM GAS  C:\Users\glenn\AppData\Local\Temp\cccR1cMe.s 			page 15


 514              		.thumb_func
 515              		.type	process_type_16_message, %function
 516              	process_type_16_message:
 517              	.LFB79:
 219:rtu_modbus/process_type_16_message.c **** 
 220:rtu_modbus/process_type_16_message.c **** 
 221:rtu_modbus/process_type_16_message.c **** 
 222:rtu_modbus/process_type_16_message.c **** 
 223:rtu_modbus/process_type_16_message.c **** #define TABLE_LENGTH 14
 224:rtu_modbus/process_type_16_message.c **** static const TYPE_16_STRUCT type_16_access_functions[TABLE_LENGTH] = 
 225:rtu_modbus/process_type_16_message.c **** {
 226:rtu_modbus/process_type_16_message.c ****     // System Level Writes
 227:rtu_modbus/process_type_16_message.c ****     { 20,    4,                                                 SWAP_16,  change_time              
 228:rtu_modbus/process_type_16_message.c ****     { 21,    2,                                                 SWAP_16,  change_modbus_address    
 229:rtu_modbus/process_type_16_message.c ****     { 22,    1,                                                 SWAP_16,  clear_watch_dog_flags    
 230:rtu_modbus/process_type_16_message.c ****     { 23,    1,                                                 SWAP_16,  clear_power_up_event     
 231:rtu_modbus/process_type_16_message.c ****     { 25,    1,                                                 SWAP_16,  clear_minute_rollover    
 232:rtu_modbus/process_type_16_message.c ****     { 26,    1,                                                 SWAP_16,  set_controller_watch_dog_
 233:rtu_modbus/process_type_16_message.c ****     { 27,    1,                                                 SWAP_16,  check_one_wire_presence  
 234:rtu_modbus/process_type_16_message.c ****     { 28,    1,                                                 SWAP_16,  make_soil_temperature    
 235:rtu_modbus/process_type_16_message.c ****     { 29,    1,                                                 SWAP_16,  make_air_temp_humidity   
 236:rtu_modbus/process_type_16_message.c **** 
 237:rtu_modbus/process_type_16_message.c ****     { 30,    1,                                                 SWAP_16, force_moisture_reading    
 238:rtu_modbus/process_type_16_message.c ****     { 31,    RESISTIVE_SENSOR_NUMBER,                           SWAP_16,  update_moisture_sensor_co
 239:rtu_modbus/process_type_16_message.c ****     
 240:rtu_modbus/process_type_16_message.c ****     { 33,    1,                                                 SWAP_16,  update_flash   },
 241:rtu_modbus/process_type_16_message.c ****     { 34,    1,                                                 SWAP_16,  clear_moisture_flag }
 242:rtu_modbus/process_type_16_message.c ****    
 243:rtu_modbus/process_type_16_message.c ****     
 244:rtu_modbus/process_type_16_message.c ****    
 245:rtu_modbus/process_type_16_message.c **** };
 246:rtu_modbus/process_type_16_message.c ****         
 247:rtu_modbus/process_type_16_message.c **** 
 248:rtu_modbus/process_type_16_message.c **** 
 249:rtu_modbus/process_type_16_message.c **** static  const TYPE_16_STRUCT *find_access_function( unsigned start_register, unsigned number );
 250:rtu_modbus/process_type_16_message.c **** 
 251:rtu_modbus/process_type_16_message.c **** 
 252:rtu_modbus/process_type_16_message.c **** int process_type_16_message( int in_length, uint8 *in, int out_length, uint8 *out )
 253:rtu_modbus/process_type_16_message.c **** {
 518              		.loc 1 253 0
 519              		.cfi_startproc
 520              	.LVL56:
 521 0000 F8B5     		push	{r3, r4, r5, r6, r7, lr}
 522              		.cfi_def_cfa_offset 24
 523              		.cfi_offset 3, -24
 524              		.cfi_offset 4, -20
 525              		.cfi_offset 5, -16
 526              		.cfi_offset 6, -12
 527              		.cfi_offset 7, -8
 528              		.cfi_offset 14, -4
 254:rtu_modbus/process_type_16_message.c ****     int       return_value;
 255:rtu_modbus/process_type_16_message.c ****     unsigned working_register;
 256:rtu_modbus/process_type_16_message.c ****     unsigned number_of_registers;
 257:rtu_modbus/process_type_16_message.c ****     unsigned count;
 258:rtu_modbus/process_type_16_message.c ****     unsigned i;
 259:rtu_modbus/process_type_16_message.c ****     unsigned swap_inc;
 260:rtu_modbus/process_type_16_message.c ****     unsigned swap_type;
ARM GAS  C:\Users\glenn\AppData\Local\Temp\cccR1cMe.s 			page 16


 261:rtu_modbus/process_type_16_message.c ****     const TYPE_16_STRUCT     *acc_struct;
 262:rtu_modbus/process_type_16_message.c ****     uint8                    *ref_pointer;
 263:rtu_modbus/process_type_16_message.c **** 
 264:rtu_modbus/process_type_16_message.c ****     
 265:rtu_modbus/process_type_16_message.c ****     
 266:rtu_modbus/process_type_16_message.c ****     return_value = 0;
 267:rtu_modbus/process_type_16_message.c ****     *out++           = *in;
 529              		.loc 1 267 0
 530 0002 0A78     		ldrb	r2, [r1]
 531              	.LVL57:
 532 0004 1A70     		strb	r2, [r3]
 533              	.LVL58:
 268:rtu_modbus/process_type_16_message.c ****     working_register = (*in++)*256;
 269:rtu_modbus/process_type_16_message.c ****     *out++           = *in;
 534              		.loc 1 269 0
 535 0006 4878     		ldrb	r0, [r1, #1]
 536              	.LVL59:
 268:rtu_modbus/process_type_16_message.c ****     working_register = (*in++)*256;
 537              		.loc 1 268 0
 538 0008 0A78     		ldrb	r2, [r1]
 539              		.loc 1 269 0
 540 000a 5870     		strb	r0, [r3, #1]
 270:rtu_modbus/process_type_16_message.c ****     working_register += (*in++);
 271:rtu_modbus/process_type_16_message.c ****     *out++           = *in;
 541              		.loc 1 271 0
 542 000c 8878     		ldrb	r0, [r1, #2]
 270:rtu_modbus/process_type_16_message.c ****     working_register += (*in++);
 543              		.loc 1 270 0
 544 000e 4C78     		ldrb	r4, [r1, #1]
 268:rtu_modbus/process_type_16_message.c ****     working_register = (*in++)*256;
 545              		.loc 1 268 0
 546 0010 1202     		lsl	r2, r2, #8
 547              	.LVL60:
 548              		.loc 1 271 0
 549 0012 9870     		strb	r0, [r3, #2]
 270:rtu_modbus/process_type_16_message.c ****     working_register += (*in++);
 550              		.loc 1 270 0
 551 0014 1219     		add	r2, r2, r4
 552              	.LVL61:
 272:rtu_modbus/process_type_16_message.c ****     number_of_registers = (*in++)*256;
 273:rtu_modbus/process_type_16_message.c ****     *out++           = *in;
 553              		.loc 1 273 0
 554 0016 CC78     		ldrb	r4, [r1, #3]
 272:rtu_modbus/process_type_16_message.c ****     number_of_registers = (*in++)*256;
 555              		.loc 1 272 0
 556 0018 8878     		ldrb	r0, [r1, #2]
 557              		.loc 1 273 0
 558 001a DC70     		strb	r4, [r3, #3]
 274:rtu_modbus/process_type_16_message.c ****     number_of_registers += (*in++);
 559              		.loc 1 274 0
 560 001c CB78     		ldrb	r3, [r1, #3]
 561              	.LVL62:
 272:rtu_modbus/process_type_16_message.c ****     number_of_registers = (*in++)*256;
 562              		.loc 1 272 0
 563 001e 0002     		lsl	r0, r0, #8
 564              	.LVL63:
 565              		.loc 1 274 0
ARM GAS  C:\Users\glenn\AppData\Local\Temp\cccR1cMe.s 			page 17


 566 0020 C018     		add	r0, r0, r3
 567              	.LVL64:
 568              	.LBB12:
 569              	.LBB13:
 275:rtu_modbus/process_type_16_message.c ****     count       = 4;
 276:rtu_modbus/process_type_16_message.c ****     in++;   // skip byte count;
 277:rtu_modbus/process_type_16_message.c **** 
 278:rtu_modbus/process_type_16_message.c ****     ref_pointer =  in;
 279:rtu_modbus/process_type_16_message.c ****     acc_struct = find_access_function( working_register, number_of_registers );
 280:rtu_modbus/process_type_16_message.c ****     
 281:rtu_modbus/process_type_16_message.c ****     if( acc_struct != NULL )
 282:rtu_modbus/process_type_16_message.c ****     {
 283:rtu_modbus/process_type_16_message.c ****         swap_type = acc_struct->swap_type;
 284:rtu_modbus/process_type_16_message.c ****     }
 285:rtu_modbus/process_type_16_message.c ****     else
 286:rtu_modbus/process_type_16_message.c ****     {
 287:rtu_modbus/process_type_16_message.c ****         swap_type = SWAP_16;
 288:rtu_modbus/process_type_16_message.c ****     }
 289:rtu_modbus/process_type_16_message.c ****         
 290:rtu_modbus/process_type_16_message.c ****     switch( swap_type)
 291:rtu_modbus/process_type_16_message.c ****     {
 292:rtu_modbus/process_type_16_message.c ****             case SWAP_16:
 293:rtu_modbus/process_type_16_message.c ****                 swap_inc = 2;
 294:rtu_modbus/process_type_16_message.c ****                 break;
 295:rtu_modbus/process_type_16_message.c ****             case SWAP_32:
 296:rtu_modbus/process_type_16_message.c ****                 swap_inc = 4;
 297:rtu_modbus/process_type_16_message.c ****                 break;
 298:rtu_modbus/process_type_16_message.c ****             default:
 299:rtu_modbus/process_type_16_message.c ****                 // should not happen
 300:rtu_modbus/process_type_16_message.c ****                 count = 0;
 301:rtu_modbus/process_type_16_message.c ****                 return 0;
 302:rtu_modbus/process_type_16_message.c ****     }
 303:rtu_modbus/process_type_16_message.c ****     for( i = 0; i< number_of_registers*2; i+= swap_inc )
 304:rtu_modbus/process_type_16_message.c ****     {
 305:rtu_modbus/process_type_16_message.c ****             switch( swap_type)
 306:rtu_modbus/process_type_16_message.c ****             {
 307:rtu_modbus/process_type_16_message.c ****                case SWAP_16:
 308:rtu_modbus/process_type_16_message.c ****                   swap_16( in );
 309:rtu_modbus/process_type_16_message.c ****                   break;
 310:rtu_modbus/process_type_16_message.c ****                case SWAP_32:
 311:rtu_modbus/process_type_16_message.c ****                  swap_32( in);
 312:rtu_modbus/process_type_16_message.c ****                  break;
 313:rtu_modbus/process_type_16_message.c ****             default:
 314:rtu_modbus/process_type_16_message.c ****                 // should not happen
 315:rtu_modbus/process_type_16_message.c ****                 count = 0;
 316:rtu_modbus/process_type_16_message.c ****                 return 0;
 317:rtu_modbus/process_type_16_message.c ****              }
 318:rtu_modbus/process_type_16_message.c ****              in += swap_inc;
 319:rtu_modbus/process_type_16_message.c ****      }
 320:rtu_modbus/process_type_16_message.c ****          
 321:rtu_modbus/process_type_16_message.c ****      if( acc_struct != NULL )
 322:rtu_modbus/process_type_16_message.c ****      {
 323:rtu_modbus/process_type_16_message.c ****         if( acc_struct->access( ref_pointer ) )
 324:rtu_modbus/process_type_16_message.c ****         {
 325:rtu_modbus/process_type_16_message.c ****             return_value = count;
 326:rtu_modbus/process_type_16_message.c ****         }
 327:rtu_modbus/process_type_16_message.c ****         else
ARM GAS  C:\Users\glenn\AppData\Local\Temp\cccR1cMe.s 			page 18


 328:rtu_modbus/process_type_16_message.c ****         {
 329:rtu_modbus/process_type_16_message.c ****            return_value = 0;
 330:rtu_modbus/process_type_16_message.c ****         }
 331:rtu_modbus/process_type_16_message.c ****     }
 332:rtu_modbus/process_type_16_message.c ****     else
 333:rtu_modbus/process_type_16_message.c ****     {
 334:rtu_modbus/process_type_16_message.c ****         return_value = 0;
 335:rtu_modbus/process_type_16_message.c ****  #if 0
 336:rtu_modbus/process_type_16_message.c ****       if( store_modbus_data_registers( working_register, number_of_registers, (uint16 *) ref_pointe
 337:rtu_modbus/process_type_16_message.c ****       {
 338:rtu_modbus/process_type_16_message.c ****         return_value = count;
 339:rtu_modbus/process_type_16_message.c ****       }
 340:rtu_modbus/process_type_16_message.c ****       else
 341:rtu_modbus/process_type_16_message.c ****       {
 342:rtu_modbus/process_type_16_message.c ****         return_value = 0;
 343:rtu_modbus/process_type_16_message.c ****       }
 344:rtu_modbus/process_type_16_message.c **** #endif
 345:rtu_modbus/process_type_16_message.c ****     }
 346:rtu_modbus/process_type_16_message.c ****     if( return_value > 200 )
 347:rtu_modbus/process_type_16_message.c ****     {
 348:rtu_modbus/process_type_16_message.c ****         CYASSERT(0);
 349:rtu_modbus/process_type_16_message.c ****     }
 350:rtu_modbus/process_type_16_message.c ****     return return_value;
 351:rtu_modbus/process_type_16_message.c ****    
 352:rtu_modbus/process_type_16_message.c **** }    
 353:rtu_modbus/process_type_16_message.c ****                                                     
 354:rtu_modbus/process_type_16_message.c **** const TYPE_16_STRUCT * find_access_function( unsigned start_register, unsigned number )
 355:rtu_modbus/process_type_16_message.c **** {
 356:rtu_modbus/process_type_16_message.c ****    unsigned i;
 357:rtu_modbus/process_type_16_message.c ****    const TYPE_16_STRUCT *access_ptr;
 358:rtu_modbus/process_type_16_message.c ****    
 359:rtu_modbus/process_type_16_message.c ****    access_ptr = &type_16_access_functions[0];
 570              		.loc 1 359 0
 571 0022 1C4B     		ldr	r3, .L46
 360:rtu_modbus/process_type_16_message.c ****    for( i = 0; i < TABLE_LENGTH; i++ )
 572              		.loc 1 360 0
 573 0024 1C1C     		mov	r4, r3
 574 0026 E034     		add	r4, r4, #224
 575 0028 02E0     		b	.L27
 576              	.LVL65:
 577              	.L23:
 361:rtu_modbus/process_type_16_message.c ****    {
 362:rtu_modbus/process_type_16_message.c ****        if( (  access_ptr->start_register == start_register ) && (access_ptr->register_count == numb
 363:rtu_modbus/process_type_16_message.c ****        {
 364:rtu_modbus/process_type_16_message.c ****           return access_ptr;
 365:rtu_modbus/process_type_16_message.c ****        }
 366:rtu_modbus/process_type_16_message.c ****        else
 367:rtu_modbus/process_type_16_message.c ****        {
 368:rtu_modbus/process_type_16_message.c ****           access_ptr++;
 578              		.loc 1 368 0
 579 002a 1033     		add	r3, r3, #16
 580              	.LVL66:
 360:rtu_modbus/process_type_16_message.c ****    for( i = 0; i < TABLE_LENGTH; i++ )
 581              		.loc 1 360 0
 582 002c A342     		cmp	r3, r4
 583 002e 11D0     		beq	.L44
 584              	.LVL67:
ARM GAS  C:\Users\glenn\AppData\Local\Temp\cccR1cMe.s 			page 19


 585              	.L27:
 362:rtu_modbus/process_type_16_message.c ****        {
 586              		.loc 1 362 0
 587 0030 1D68     		ldr	r5, [r3]
 588 0032 AA42     		cmp	r2, r5
 589 0034 F9D1     		bne	.L23
 590 0036 5D68     		ldr	r5, [r3, #4]
 591 0038 A842     		cmp	r0, r5
 592 003a F6D1     		bne	.L23
 593              	.LBE13:
 594              	.LBE12:
 283:rtu_modbus/process_type_16_message.c ****     }
 595              		.loc 1 283 0
 596 003c 9C68     		ldr	r4, [r3, #8]
 597              	.LVL68:
 290:rtu_modbus/process_type_16_message.c ****     {
 598              		.loc 1 290 0
 599 003e 002C     		cmp	r4, #0
 600 0040 09D0     		beq	.L25
 601 0042 012C     		cmp	r4, #1
 602 0044 24D1     		bne	.L42
 276:rtu_modbus/process_type_16_message.c **** 
 603              		.loc 1 276 0
 604 0046 0531     		add	r1, r1, #5
 605              	.LVL69:
 296:rtu_modbus/process_type_16_message.c ****                 break;
 606              		.loc 1 296 0
 607 0048 0427     		mov	r7, #4
 303:rtu_modbus/process_type_16_message.c ****     {
 608              		.loc 1 303 0
 609 004a 4000     		lsl	r0, r0, #1
 610              	.LVL70:
 276:rtu_modbus/process_type_16_message.c **** 
 611              		.loc 1 276 0
 612 004c 0A1C     		mov	r2, r1
 613              	.LVL71:
 303:rtu_modbus/process_type_16_message.c ****     {
 614              		.loc 1 303 0
 615 004e 0028     		cmp	r0, #0
 616 0050 07D1     		bne	.L33
 617 0052 11E0     		b	.L29
 618              	.LVL72:
 619              	.L44:
 620              	.LBB15:
 621              	.LBB14:
 369:rtu_modbus/process_type_16_message.c ****        }
 370:rtu_modbus/process_type_16_message.c ****     }
 371:rtu_modbus/process_type_16_message.c ****     return NULL;
 622              		.loc 1 371 0
 623 0054 0023     		mov	r3, #0
 624              	.LVL73:
 625              	.L25:
 626              	.LBE14:
 627              	.LBE15:
 276:rtu_modbus/process_type_16_message.c **** 
 628              		.loc 1 276 0
 629 0056 0531     		add	r1, r1, #5
ARM GAS  C:\Users\glenn\AppData\Local\Temp\cccR1cMe.s 			page 20


 630              	.LVL74:
 303:rtu_modbus/process_type_16_message.c ****     {
 631              		.loc 1 303 0
 632 0058 4000     		lsl	r0, r0, #1
 633              	.LVL75:
 634 005a 0BD0     		beq	.L34
 276:rtu_modbus/process_type_16_message.c **** 
 635              		.loc 1 276 0
 636 005c 0A1C     		mov	r2, r1
 637              	.LVL76:
 303:rtu_modbus/process_type_16_message.c ****     {
 638              		.loc 1 303 0
 639 005e 0024     		mov	r4, #0
 293:rtu_modbus/process_type_16_message.c ****                 break;
 640              		.loc 1 293 0
 641 0060 0227     		mov	r7, #2
 642              	.LVL77:
 643              	.L33:
 305:rtu_modbus/process_type_16_message.c ****             {
 644              		.loc 1 305 0
 645 0062 012C     		cmp	r4, #1
 646 0064 0FD1     		bne	.L45
 647              	.LVL78:
 648 0066 1568     		ldr	r5, [r2]
 649 0068 2DBA     		rev	r5, r5
 650              	.LVL79:
 651              	.LBB16:
 652              	.LBB17:
 653              		.file 2 "rtu_modbus\\modbus_utilities.h"
   1:rtu_modbus/modbus_utilities.h **** /*
   2:rtu_modbus/modbus_utilities.h **** **
   3:rtu_modbus/modbus_utilities.h **** ** File: modbus_utilities.h
   4:rtu_modbus/modbus_utilities.h **** ** File for shuffling bytes for network ordering
   5:rtu_modbus/modbus_utilities.h **** **
   6:rtu_modbus/modbus_utilities.h **** **
   7:rtu_modbus/modbus_utilities.h **** **
   8:rtu_modbus/modbus_utilities.h **** */
   9:rtu_modbus/modbus_utilities.h **** 
  10:rtu_modbus/modbus_utilities.h **** #ifndef _MODBUS_UTILITES_H_
  11:rtu_modbus/modbus_utilities.h **** #define _MODBUS_UTILITES_H_
  12:rtu_modbus/modbus_utilities.h **** 
  13:rtu_modbus/modbus_utilities.h **** #include <project.h>
  14:rtu_modbus/modbus_utilities.h ****   
  15:rtu_modbus/modbus_utilities.h **** 
  16:rtu_modbus/modbus_utilities.h **** 
  17:rtu_modbus/modbus_utilities.h ****     
  18:rtu_modbus/modbus_utilities.h **** static inline void swap_16( uint8 *input )
  19:rtu_modbus/modbus_utilities.h **** {
  20:rtu_modbus/modbus_utilities.h ****     uint8 temp;
  21:rtu_modbus/modbus_utilities.h ****     uint8 *swap_ptr;
  22:rtu_modbus/modbus_utilities.h ****     
  23:rtu_modbus/modbus_utilities.h ****     swap_ptr = input+1;
  24:rtu_modbus/modbus_utilities.h ****     temp     = *input;
  25:rtu_modbus/modbus_utilities.h ****     *input   = *swap_ptr;
  26:rtu_modbus/modbus_utilities.h ****     *swap_ptr = temp;
  27:rtu_modbus/modbus_utilities.h **** 
  28:rtu_modbus/modbus_utilities.h ****       
ARM GAS  C:\Users\glenn\AppData\Local\Temp\cccR1cMe.s 			page 21


  29:rtu_modbus/modbus_utilities.h ****    
  30:rtu_modbus/modbus_utilities.h **** }
  31:rtu_modbus/modbus_utilities.h **** // probably is buggy
  32:rtu_modbus/modbus_utilities.h **** static inline void swap_32( uint8 *input )
  33:rtu_modbus/modbus_utilities.h **** {
  34:rtu_modbus/modbus_utilities.h ****     uint32 *temp_ptr;
  35:rtu_modbus/modbus_utilities.h ****     uint32 temp;
  36:rtu_modbus/modbus_utilities.h ****     
  37:rtu_modbus/modbus_utilities.h ****     temp_ptr = (uint32*)input;
  38:rtu_modbus/modbus_utilities.h ****     temp = *temp_ptr;   
  39:rtu_modbus/modbus_utilities.h ****   
  40:rtu_modbus/modbus_utilities.h ****     temp =  ((temp&0xff000000)>>24)|((temp&0x00ff0000)>>8)|((temp&0xff00)<<8)|((temp&0xff)<<24 );
  41:rtu_modbus/modbus_utilities.h ****      *temp_ptr = temp;
 654              		.loc 2 41 0
 655 006a 1560     		str	r5, [r2]
 656              	.LVL80:
 657              	.L32:
 658              	.LBE17:
 659              	.LBE16:
 318:rtu_modbus/process_type_16_message.c ****      }
 660              		.loc 1 318 0 discriminator 2
 661 006c D219     		add	r2, r2, r7
 662              	.LVL81:
 663 006e 551A     		sub	r5, r2, r1
 664              	.LVL82:
 303:rtu_modbus/process_type_16_message.c ****     {
 665              		.loc 1 303 0 discriminator 2
 666 0070 8542     		cmp	r5, r0
 667 0072 F6D3     		bcc	.L33
 668              	.LVL83:
 669              	.L34:
 321:rtu_modbus/process_type_16_message.c ****      {
 670              		.loc 1 321 0
 671 0074 002B     		cmp	r3, #0
 672 0076 0BD0     		beq	.L42
 673              	.L29:
 323:rtu_modbus/process_type_16_message.c ****         {
 674              		.loc 1 323 0
 675 0078 DB68     		ldr	r3, [r3, #12]
 676 007a 081C     		mov	r0, r1
 677 007c 9847     		blx	r3
 678              	.LVL84:
 329:rtu_modbus/process_type_16_message.c ****         }
 679              		.loc 1 329 0
 680 007e 431E     		sub	r3, r0, #1
 681 0080 9841     		sbc	r0, r0, r3
 682 0082 8000     		lsl	r0, r0, #2
 683              	.L43:
 352:rtu_modbus/process_type_16_message.c ****                                                     
 684              		.loc 1 352 0
 685              		@ sp needed
 686 0084 F8BD     		pop	{r3, r4, r5, r6, r7, pc}
 687              	.LVL85:
 688              	.L45:
 689              	.LBB18:
 690              	.LBB19:
  24:rtu_modbus/modbus_utilities.h ****     *input   = *swap_ptr;
ARM GAS  C:\Users\glenn\AppData\Local\Temp\cccR1cMe.s 			page 22


 691              		.loc 2 24 0
 692 0086 1578     		ldrb	r5, [r2]
 693              	.LVL86:
  25:rtu_modbus/modbus_utilities.h ****     *swap_ptr = temp;
 694              		.loc 2 25 0
 695 0088 5678     		ldrb	r6, [r2, #1]
  26:rtu_modbus/modbus_utilities.h **** 
 696              		.loc 2 26 0
 697 008a 5570     		strb	r5, [r2, #1]
  25:rtu_modbus/modbus_utilities.h ****     *swap_ptr = temp;
 698              		.loc 2 25 0
 699 008c 1670     		strb	r6, [r2]
 700 008e EDE7     		b	.L32
 701              	.LVL87:
 702              	.L42:
 703              	.LBE19:
 704              	.LBE18:
 301:rtu_modbus/process_type_16_message.c ****     }
 705              		.loc 1 301 0
 706 0090 0020     		mov	r0, #0
 707 0092 F7E7     		b	.L43
 708              	.L47:
 709              		.align	2
 710              	.L46:
 711 0094 00000000 		.word	.LANCHOR0
 712              		.cfi_endproc
 713              	.LFE79:
 714              		.size	process_type_16_message, .-process_type_16_message
 715              		.section	.rodata
 716              		.align	2
 717              		.set	.LANCHOR0,. + 0
 718              		.type	type_16_access_functions, %object
 719              		.size	type_16_access_functions, 224
 720              	type_16_access_functions:
 721 0000 14000000 		.word	20
 722 0004 04000000 		.word	4
 723 0008 00000000 		.word	0
 724 000c 00000000 		.word	change_time
 725 0010 15000000 		.word	21
 726 0014 02000000 		.word	2
 727 0018 00000000 		.word	0
 728 001c 00000000 		.word	change_modbus_address
 729 0020 16000000 		.word	22
 730 0024 01000000 		.word	1
 731 0028 00000000 		.word	0
 732 002c 00000000 		.word	clear_watch_dog_flags
 733 0030 17000000 		.word	23
 734 0034 01000000 		.word	1
 735 0038 00000000 		.word	0
 736 003c 00000000 		.word	clear_power_up_event
 737 0040 19000000 		.word	25
 738 0044 01000000 		.word	1
 739 0048 00000000 		.word	0
 740 004c 00000000 		.word	clear_minute_rollover
 741 0050 1A000000 		.word	26
 742 0054 01000000 		.word	1
 743 0058 00000000 		.word	0
ARM GAS  C:\Users\glenn\AppData\Local\Temp\cccR1cMe.s 			page 23


 744 005c 00000000 		.word	set_controller_watch_dog_flags
 745 0060 1B000000 		.word	27
 746 0064 01000000 		.word	1
 747 0068 00000000 		.word	0
 748 006c 00000000 		.word	check_one_wire_presence
 749 0070 1C000000 		.word	28
 750 0074 01000000 		.word	1
 751 0078 00000000 		.word	0
 752 007c 00000000 		.word	make_soil_temperature
 753 0080 1D000000 		.word	29
 754 0084 01000000 		.word	1
 755 0088 00000000 		.word	0
 756 008c 00000000 		.word	make_air_temp_humidity
 757 0090 1E000000 		.word	30
 758 0094 01000000 		.word	1
 759 0098 00000000 		.word	0
 760 009c 00000000 		.word	force_moisture_reading
 761 00a0 1F000000 		.word	31
 762 00a4 10000000 		.word	16
 763 00a8 00000000 		.word	0
 764 00ac 00000000 		.word	update_moisture_sensor_configuration
 765 00b0 21000000 		.word	33
 766 00b4 01000000 		.word	1
 767 00b8 00000000 		.word	0
 768 00bc 00000000 		.word	update_flash
 769 00c0 22000000 		.word	34
 770 00c4 01000000 		.word	1
 771 00c8 00000000 		.word	0
 772 00cc 00000000 		.word	clear_moisture_flag
 773 00d0 00000000 		.space	16
 773      00000000 
 773      00000000 
 773      00000000 
 774              		.text
 775              	.Letext0:
 776              		.file 3 "Generated_Source\\PSoC4/cytypes.h"
 777              		.file 4 "./configuration_data.h"
 778              		.file 5 ".\\chain_flow/cf_events.h"
 779              		.file 6 "Generated_Source\\PSoC4/RTC_1.h"
 780              		.file 7 "rtu_modbus\\process_modbus_message.h"