ARM GAS  C:\Users\glenn\AppData\Local\Temp\ccUNoMJJ.s 			page 1


   1              		.cpu cortex-m0
   2              		.fpu softvfp
   3              		.eabi_attribute 20, 1
   4              		.eabi_attribute 21, 1
   5              		.eabi_attribute 23, 3
   6              		.eabi_attribute 24, 1
   7              		.eabi_attribute 25, 1
   8              		.eabi_attribute 26, 1
   9              		.eabi_attribute 30, 6
  10              		.eabi_attribute 34, 0
  11              		.eabi_attribute 18, 4
  12              		.code	16
  13              		.file	"process_modbus_message.c"
  14              		.text
  15              	.Ltext0:
  16              		.cfi_sections	.debug_frame
  17              		.bss
  18              		.align	2
  19              	modbus_registers:
  20 0000 00000000 		.space	512
  20      00000000 
  20      00000000 
  20      00000000 
  20      00000000 
  21              		.comm	modbus_address_data,4,4
  22              		.section	.text.get_modbus_register_address,"ax",%progbits
  23              		.align	2
  24              		.global	get_modbus_register_address
  25              		.code	16
  26              		.thumb_func
  27              		.type	get_modbus_register_address, %function
  28              	get_modbus_register_address:
  29              	.LFB64:
  30              		.file 1 "rtu_modbus\\process_modbus_message.c"
   1:rtu_modbus/process_modbus_message.c **** /*
   2:rtu_modbus/process_modbus_message.c **** **
   3:rtu_modbus/process_modbus_message.c **** ** File: process_modbus_message.c
   4:rtu_modbus/process_modbus_message.c **** ** This file processes the modbus message from
   5:rtu_modbus/process_modbus_message.c **** ** either the usb or serial handler
   6:rtu_modbus/process_modbus_message.c **** **
   7:rtu_modbus/process_modbus_message.c **** */
   8:rtu_modbus/process_modbus_message.c **** 
   9:rtu_modbus/process_modbus_message.c **** 
  10:rtu_modbus/process_modbus_message.c **** #include <project.h>
  11:rtu_modbus/process_modbus_message.c **** #include <assert.h>
  12:rtu_modbus/process_modbus_message.c **** 
  13:rtu_modbus/process_modbus_message.c **** #include "process_crc.h"
  14:rtu_modbus/process_modbus_message.c **** #include "process_type_3_message.h"
  15:rtu_modbus/process_modbus_message.c **** #include "process_type_16_message.h"
  16:rtu_modbus/process_modbus_message.c **** #include "process_type_24_message.h"
  17:rtu_modbus/process_modbus_message.c **** 
  18:rtu_modbus/process_modbus_message.c **** #include "process_modbus_message.h"
  19:rtu_modbus/process_modbus_message.c **** 
  20:rtu_modbus/process_modbus_message.c **** 
  21:rtu_modbus/process_modbus_message.c **** 
  22:rtu_modbus/process_modbus_message.c **** // logging interval is in minutes
  23:rtu_modbus/process_modbus_message.c **** // default sampling Interval is one hour
ARM GAS  C:\Users\glenn\AppData\Local\Temp\ccUNoMJJ.s 			page 2


  24:rtu_modbus/process_modbus_message.c **** 
  25:rtu_modbus/process_modbus_message.c **** #define SAMPLING_INTERVAL   60 
  26:rtu_modbus/process_modbus_message.c **** 
  27:rtu_modbus/process_modbus_message.c **** static uint16 modbus_registers[ MODBUS_REGISTER_LENGTH ];
  28:rtu_modbus/process_modbus_message.c **** 
  29:rtu_modbus/process_modbus_message.c **** 
  30:rtu_modbus/process_modbus_message.c **** 
  31:rtu_modbus/process_modbus_message.c **** 
  32:rtu_modbus/process_modbus_message.c **** 
  33:rtu_modbus/process_modbus_message.c **** uint16 modbus_address_data[2];
  34:rtu_modbus/process_modbus_message.c **** 
  35:rtu_modbus/process_modbus_message.c **** 
  36:rtu_modbus/process_modbus_message.c **** uint16 *get_modbus_register_address( void )
  37:rtu_modbus/process_modbus_message.c **** {
  31              		.loc 1 37 0
  32              		.cfi_startproc
  33 0000 80B5     		push	{r7, lr}
  34              		.cfi_def_cfa_offset 8
  35              		.cfi_offset 7, -8
  36              		.cfi_offset 14, -4
  37 0002 00AF     		add	r7, sp, #0
  38              		.cfi_def_cfa_register 7
  38:rtu_modbus/process_modbus_message.c ****     return modbus_registers;
  39              		.loc 1 38 0
  40 0004 014B     		ldr	r3, .L3
  39:rtu_modbus/process_modbus_message.c **** }
  41              		.loc 1 39 0
  42 0006 181C     		mov	r0, r3
  43 0008 BD46     		mov	sp, r7
  44              		@ sp needed
  45 000a 80BD     		pop	{r7, pc}
  46              	.L4:
  47              		.align	2
  48              	.L3:
  49 000c 00000000 		.word	modbus_registers
  50              		.cfi_endproc
  51              	.LFE64:
  52              		.size	get_modbus_register_address, .-get_modbus_register_address
  53              		.section	.text.initialize_modbus_registers,"ax",%progbits
  54              		.align	2
  55              		.global	initialize_modbus_registers
  56              		.code	16
  57              		.thumb_func
  58              		.type	initialize_modbus_registers, %function
  59              	initialize_modbus_registers:
  60              	.LFB65:
  40:rtu_modbus/process_modbus_message.c **** 
  41:rtu_modbus/process_modbus_message.c **** void initialize_modbus_registers( void )
  42:rtu_modbus/process_modbus_message.c **** {
  61              		.loc 1 42 0
  62              		.cfi_startproc
  63 0000 80B5     		push	{r7, lr}
  64              		.cfi_def_cfa_offset 8
  65              		.cfi_offset 7, -8
  66              		.cfi_offset 14, -4
  67 0002 82B0     		sub	sp, sp, #8
  68              		.cfi_def_cfa_offset 16
ARM GAS  C:\Users\glenn\AppData\Local\Temp\ccUNoMJJ.s 			page 3


  69 0004 00AF     		add	r7, sp, #0
  70              		.cfi_def_cfa_register 7
  43:rtu_modbus/process_modbus_message.c ****     uint16 temp;
  44:rtu_modbus/process_modbus_message.c **** 
  45:rtu_modbus/process_modbus_message.c ****  
  46:rtu_modbus/process_modbus_message.c ****     memset( modbus_registers, 0, sizeof(modbus_registers));
  71              		.loc 1 46 0
  72 0006 0A4A     		ldr	r2, .L6
  73 0008 8023     		mov	r3, #128
  74 000a 9B00     		lsl	r3, r3, #2
  75 000c 101C     		mov	r0, r2
  76 000e 0021     		mov	r1, #0
  77 0010 1A1C     		mov	r2, r3
  78 0012 FFF7FEFF 		bl	memset
  47:rtu_modbus/process_modbus_message.c **** 
  48:rtu_modbus/process_modbus_message.c ****     temp = 1;
  79              		.loc 1 48 0
  80 0016 BB1D     		add	r3, r7, #6
  81 0018 0122     		mov	r2, #1
  82 001a 1A80     		strh	r2, [r3]
  49:rtu_modbus/process_modbus_message.c ****     store_modbus_data_registers( MOD_RTU_WATCH_DOG_FLAG, 1, &temp);
  83              		.loc 1 49 0
  84 001c BB1D     		add	r3, r7, #6
  85 001e 0120     		mov	r0, #1
  86 0020 0121     		mov	r1, #1
  87 0022 1A1C     		mov	r2, r3
  88 0024 FFF7FEFF 		bl	store_modbus_data_registers
  50:rtu_modbus/process_modbus_message.c ****     
  51:rtu_modbus/process_modbus_message.c ****     
  52:rtu_modbus/process_modbus_message.c **** }
  89              		.loc 1 52 0
  90 0028 BD46     		mov	sp, r7
  91 002a 02B0     		add	sp, sp, #8
  92              		@ sp needed
  93 002c 80BD     		pop	{r7, pc}
  94              	.L7:
  95 002e C046     		.align	2
  96              	.L6:
  97 0030 00000000 		.word	modbus_registers
  98              		.cfi_endproc
  99              	.LFE65:
 100              		.size	initialize_modbus_registers, .-initialize_modbus_registers
 101              		.section	.text.store_modbus_data_registers,"ax",%progbits
 102              		.align	2
 103              		.global	store_modbus_data_registers
 104              		.code	16
 105              		.thumb_func
 106              		.type	store_modbus_data_registers, %function
 107              	store_modbus_data_registers:
 108              	.LFB66:
  53:rtu_modbus/process_modbus_message.c ****   
  54:rtu_modbus/process_modbus_message.c **** 
  55:rtu_modbus/process_modbus_message.c **** 
  56:rtu_modbus/process_modbus_message.c **** int store_modbus_data_registers( unsigned index, unsigned length, uint16 *buffer)
  57:rtu_modbus/process_modbus_message.c **** {
 109              		.loc 1 57 0
 110              		.cfi_startproc
ARM GAS  C:\Users\glenn\AppData\Local\Temp\ccUNoMJJ.s 			page 4


 111 0000 80B5     		push	{r7, lr}
 112              		.cfi_def_cfa_offset 8
 113              		.cfi_offset 7, -8
 114              		.cfi_offset 14, -4
 115 0002 86B0     		sub	sp, sp, #24
 116              		.cfi_def_cfa_offset 32
 117 0004 00AF     		add	r7, sp, #0
 118              		.cfi_def_cfa_register 7
 119 0006 F860     		str	r0, [r7, #12]
 120 0008 B960     		str	r1, [r7, #8]
 121 000a 7A60     		str	r2, [r7, #4]
  58:rtu_modbus/process_modbus_message.c ****     int return_value;
  59:rtu_modbus/process_modbus_message.c ****     if( (index + length ) < MODBUS_REGISTER_LENGTH )
 122              		.loc 1 59 0
 123 000c FA68     		ldr	r2, [r7, #12]
 124 000e BB68     		ldr	r3, [r7, #8]
 125 0010 D318     		add	r3, r2, r3
 126 0012 FF2B     		cmp	r3, #255
 127 0014 0ED8     		bhi	.L9
  60:rtu_modbus/process_modbus_message.c ****     {
  61:rtu_modbus/process_modbus_message.c ****         memcpy(  modbus_registers+index,buffer, length*sizeof(uint16));
 128              		.loc 1 61 0
 129 0016 FB68     		ldr	r3, [r7, #12]
 130 0018 5A00     		lsl	r2, r3, #1
 131 001a 0A4B     		ldr	r3, .L12
 132 001c D118     		add	r1, r2, r3
 133 001e BB68     		ldr	r3, [r7, #8]
 134 0020 5B00     		lsl	r3, r3, #1
 135 0022 7A68     		ldr	r2, [r7, #4]
 136 0024 081C     		mov	r0, r1
 137 0026 111C     		mov	r1, r2
 138 0028 1A1C     		mov	r2, r3
 139 002a FFF7FEFF 		bl	memcpy
  62:rtu_modbus/process_modbus_message.c ****         return_value = 1;
 140              		.loc 1 62 0
 141 002e 0123     		mov	r3, #1
 142 0030 7B61     		str	r3, [r7, #20]
 143 0032 01E0     		b	.L10
 144              	.L9:
  63:rtu_modbus/process_modbus_message.c ****     }
  64:rtu_modbus/process_modbus_message.c ****     else
  65:rtu_modbus/process_modbus_message.c ****     {
  66:rtu_modbus/process_modbus_message.c ****         return_value = 0;
 145              		.loc 1 66 0
 146 0034 0023     		mov	r3, #0
 147 0036 7B61     		str	r3, [r7, #20]
 148              	.L10:
  67:rtu_modbus/process_modbus_message.c ****     }
  68:rtu_modbus/process_modbus_message.c ****     return return_value;
 149              		.loc 1 68 0
 150 0038 7B69     		ldr	r3, [r7, #20]
  69:rtu_modbus/process_modbus_message.c **** }
 151              		.loc 1 69 0
 152 003a 181C     		mov	r0, r3
 153 003c BD46     		mov	sp, r7
 154 003e 06B0     		add	sp, sp, #24
 155              		@ sp needed
ARM GAS  C:\Users\glenn\AppData\Local\Temp\ccUNoMJJ.s 			page 5


 156 0040 80BD     		pop	{r7, pc}
 157              	.L13:
 158 0042 C046     		.align	2
 159              	.L12:
 160 0044 00000000 		.word	modbus_registers
 161              		.cfi_endproc
 162              	.LFE66:
 163              		.size	store_modbus_data_registers, .-store_modbus_data_registers
 164              		.section	.text.get_modbus_data_registers,"ax",%progbits
 165              		.align	2
 166              		.global	get_modbus_data_registers
 167              		.code	16
 168              		.thumb_func
 169              		.type	get_modbus_data_registers, %function
 170              	get_modbus_data_registers:
 171              	.LFB67:
  70:rtu_modbus/process_modbus_message.c ****     
  71:rtu_modbus/process_modbus_message.c ****     
  72:rtu_modbus/process_modbus_message.c **** int get_modbus_data_registers( unsigned index, unsigned length, uint16 *buffer )
  73:rtu_modbus/process_modbus_message.c **** {
 172              		.loc 1 73 0
 173              		.cfi_startproc
 174 0000 80B5     		push	{r7, lr}
 175              		.cfi_def_cfa_offset 8
 176              		.cfi_offset 7, -8
 177              		.cfi_offset 14, -4
 178 0002 86B0     		sub	sp, sp, #24
 179              		.cfi_def_cfa_offset 32
 180 0004 00AF     		add	r7, sp, #0
 181              		.cfi_def_cfa_register 7
 182 0006 F860     		str	r0, [r7, #12]
 183 0008 B960     		str	r1, [r7, #8]
 184 000a 7A60     		str	r2, [r7, #4]
  74:rtu_modbus/process_modbus_message.c ****     int return_value;
  75:rtu_modbus/process_modbus_message.c ****     if( (index + length ) < MODBUS_REGISTER_LENGTH )
 185              		.loc 1 75 0
 186 000c FA68     		ldr	r2, [r7, #12]
 187 000e BB68     		ldr	r3, [r7, #8]
 188 0010 D318     		add	r3, r2, r3
 189 0012 FF2B     		cmp	r3, #255
 190 0014 0ED8     		bhi	.L15
  76:rtu_modbus/process_modbus_message.c ****     {
  77:rtu_modbus/process_modbus_message.c ****         memcpy( buffer, modbus_registers+index, length*sizeof(uint16));
 191              		.loc 1 77 0
 192 0016 FB68     		ldr	r3, [r7, #12]
 193 0018 5A00     		lsl	r2, r3, #1
 194 001a 0A4B     		ldr	r3, .L18
 195 001c D218     		add	r2, r2, r3
 196 001e BB68     		ldr	r3, [r7, #8]
 197 0020 5B00     		lsl	r3, r3, #1
 198 0022 7968     		ldr	r1, [r7, #4]
 199 0024 081C     		mov	r0, r1
 200 0026 111C     		mov	r1, r2
 201 0028 1A1C     		mov	r2, r3
 202 002a FFF7FEFF 		bl	memcpy
  78:rtu_modbus/process_modbus_message.c ****         return_value = 1;
 203              		.loc 1 78 0
ARM GAS  C:\Users\glenn\AppData\Local\Temp\ccUNoMJJ.s 			page 6


 204 002e 0123     		mov	r3, #1
 205 0030 7B61     		str	r3, [r7, #20]
 206 0032 01E0     		b	.L16
 207              	.L15:
  79:rtu_modbus/process_modbus_message.c ****         
  80:rtu_modbus/process_modbus_message.c ****     }
  81:rtu_modbus/process_modbus_message.c ****     else
  82:rtu_modbus/process_modbus_message.c ****     {
  83:rtu_modbus/process_modbus_message.c ****         return_value = 0;
 208              		.loc 1 83 0
 209 0034 0023     		mov	r3, #0
 210 0036 7B61     		str	r3, [r7, #20]
 211              	.L16:
  84:rtu_modbus/process_modbus_message.c ****     }
  85:rtu_modbus/process_modbus_message.c ****     return return_value;
 212              		.loc 1 85 0
 213 0038 7B69     		ldr	r3, [r7, #20]
  86:rtu_modbus/process_modbus_message.c **** }
 214              		.loc 1 86 0
 215 003a 181C     		mov	r0, r3
 216 003c BD46     		mov	sp, r7
 217 003e 06B0     		add	sp, sp, #24
 218              		@ sp needed
 219 0040 80BD     		pop	{r7, pc}
 220              	.L19:
 221 0042 C046     		.align	2
 222              	.L18:
 223 0044 00000000 		.word	modbus_registers
 224              		.cfi_endproc
 225              	.LFE67:
 226              		.size	get_modbus_data_registers, .-get_modbus_data_registers
 227              		.section	.text.process_modbus_message,"ax",%progbits
 228              		.align	2
 229              		.global	process_modbus_message
 230              		.code	16
 231              		.thumb_func
 232              		.type	process_modbus_message, %function
 233              	process_modbus_message:
 234              	.LFB68:
  87:rtu_modbus/process_modbus_message.c **** 
  88:rtu_modbus/process_modbus_message.c **** 
  89:rtu_modbus/process_modbus_message.c **** 
  90:rtu_modbus/process_modbus_message.c **** int process_modbus_message( int in_length, uint8 *in_buffer, 
  91:rtu_modbus/process_modbus_message.c ****                             int out_buffer_length, uint8 *out_buffer )
  92:rtu_modbus/process_modbus_message.c **** {
 235              		.loc 1 92 0
 236              		.cfi_startproc
 237 0000 80B5     		push	{r7, lr}
 238              		.cfi_def_cfa_offset 8
 239              		.cfi_offset 7, -8
 240              		.cfi_offset 14, -4
 241 0002 88B0     		sub	sp, sp, #32
 242              		.cfi_def_cfa_offset 40
 243 0004 00AF     		add	r7, sp, #0
 244              		.cfi_def_cfa_register 7
 245 0006 F860     		str	r0, [r7, #12]
 246 0008 B960     		str	r1, [r7, #8]
ARM GAS  C:\Users\glenn\AppData\Local\Temp\ccUNoMJJ.s 			page 7


 247 000a 7A60     		str	r2, [r7, #4]
 248 000c 3B60     		str	r3, [r7]
  93:rtu_modbus/process_modbus_message.c **** 	
  94:rtu_modbus/process_modbus_message.c **** 	int function_code    = 0;
 249              		.loc 1 94 0
 250 000e 0023     		mov	r3, #0
 251 0010 BB61     		str	r3, [r7, #24]
  95:rtu_modbus/process_modbus_message.c ****     int crc_ok           = 0;
 252              		.loc 1 95 0
 253 0012 0023     		mov	r3, #0
 254 0014 7B61     		str	r3, [r7, #20]
  96:rtu_modbus/process_modbus_message.c ****     int out_length       = 0;
 255              		.loc 1 96 0
 256 0016 0023     		mov	r3, #0
 257 0018 FB61     		str	r3, [r7, #28]
  97:rtu_modbus/process_modbus_message.c **** 
  98:rtu_modbus/process_modbus_message.c ****     if( in_length < 5 ){ return 0; }
 258              		.loc 1 98 0
 259 001a FB68     		ldr	r3, [r7, #12]
 260 001c 042B     		cmp	r3, #4
 261 001e 01DC     		bgt	.L21
 262              		.loc 1 98 0 is_stmt 0 discriminator 1
 263 0020 0023     		mov	r3, #0
 264 0022 63E0     		b	.L22
 265              	.L21:
  99:rtu_modbus/process_modbus_message.c ****     
 100:rtu_modbus/process_modbus_message.c **** 	
 101:rtu_modbus/process_modbus_message.c ****     crc_ok =  compute_crc( in_length, in_buffer);
 266              		.loc 1 101 0 is_stmt 1
 267 0024 FA68     		ldr	r2, [r7, #12]
 268 0026 BB68     		ldr	r3, [r7, #8]
 269 0028 101C     		mov	r0, r2
 270 002a 191C     		mov	r1, r3
 271 002c FFF7FEFF 		bl	compute_crc
 272 0030 031C     		mov	r3, r0
 273 0032 7B61     		str	r3, [r7, #20]
 102:rtu_modbus/process_modbus_message.c **** 
 103:rtu_modbus/process_modbus_message.c **** 	if( crc_ok != 0)
 274              		.loc 1 103 0
 275 0034 7B69     		ldr	r3, [r7, #20]
 276 0036 002B     		cmp	r3, #0
 277 0038 40D0     		beq	.L23
 104:rtu_modbus/process_modbus_message.c **** 	{
 105:rtu_modbus/process_modbus_message.c **** 		function_code = in_buffer[1];
 278              		.loc 1 105 0
 279 003a BB68     		ldr	r3, [r7, #8]
 280 003c 0133     		add	r3, r3, #1
 281 003e 1B78     		ldrb	r3, [r3]
 282 0040 BB61     		str	r3, [r7, #24]
 106:rtu_modbus/process_modbus_message.c ****         out_buffer[0] = in_buffer[0];  // returning slave address
 283              		.loc 1 106 0
 284 0042 BB68     		ldr	r3, [r7, #8]
 285 0044 1A78     		ldrb	r2, [r3]
 286 0046 3B68     		ldr	r3, [r7]
 287 0048 1A70     		strb	r2, [r3]
 107:rtu_modbus/process_modbus_message.c ****         out_buffer[1] = in_buffer[1]; // returning function code
 288              		.loc 1 107 0
ARM GAS  C:\Users\glenn\AppData\Local\Temp\ccUNoMJJ.s 			page 8


 289 004a 3B68     		ldr	r3, [r7]
 290 004c 0133     		add	r3, r3, #1
 291 004e BA68     		ldr	r2, [r7, #8]
 292 0050 5278     		ldrb	r2, [r2, #1]
 293 0052 1A70     		strb	r2, [r3]
 108:rtu_modbus/process_modbus_message.c ****         out_buffer_length -=2;
 294              		.loc 1 108 0
 295 0054 7B68     		ldr	r3, [r7, #4]
 296 0056 023B     		sub	r3, r3, #2
 297 0058 7B60     		str	r3, [r7, #4]
 109:rtu_modbus/process_modbus_message.c ****         in_length         -=4;  // removing slave address, function code and 16 bit crc
 298              		.loc 1 109 0
 299 005a FB68     		ldr	r3, [r7, #12]
 300 005c 043B     		sub	r3, r3, #4
 301 005e FB60     		str	r3, [r7, #12]
 110:rtu_modbus/process_modbus_message.c **** 		// extract function code
 111:rtu_modbus/process_modbus_message.c **** 		switch( function_code )
 302              		.loc 1 111 0
 303 0060 BB69     		ldr	r3, [r7, #24]
 304 0062 102B     		cmp	r3, #16
 305 0064 0FD0     		beq	.L25
 306 0066 182B     		cmp	r3, #24
 307 0068 19D0     		beq	.L26
 308 006a 032B     		cmp	r3, #3
 309 006c 22D1     		bne	.L32
 112:rtu_modbus/process_modbus_message.c **** 		{
 113:rtu_modbus/process_modbus_message.c ****             case 3:
 114:rtu_modbus/process_modbus_message.c ****                     out_length = process_type_3_message(in_length, &in_buffer[2], out_buffer_length
 310              		.loc 1 114 0
 311 006e BB68     		ldr	r3, [r7, #8]
 312 0070 991C     		add	r1, r3, #2
 313 0072 7B68     		ldr	r3, [r7, #4]
 314 0074 9A1E     		sub	r2, r3, #2
 315 0076 3B68     		ldr	r3, [r7]
 316 0078 0233     		add	r3, r3, #2
 317 007a F868     		ldr	r0, [r7, #12]
 318 007c FFF7FEFF 		bl	process_type_3_message
 319 0080 031C     		mov	r3, r0
 320 0082 FB61     		str	r3, [r7, #28]
 115:rtu_modbus/process_modbus_message.c ****                                                      &out_buffer[2]);
 116:rtu_modbus/process_modbus_message.c ****                     break;
 321              		.loc 1 116 0
 322 0084 19E0     		b	.L28
 323              	.L25:
 117:rtu_modbus/process_modbus_message.c ****             
 118:rtu_modbus/process_modbus_message.c ****             case 16:
 119:rtu_modbus/process_modbus_message.c ****                     out_length = process_type_16_message( in_length, &in_buffer[2],out_buffer_lengt
 324              		.loc 1 119 0
 325 0086 BB68     		ldr	r3, [r7, #8]
 326 0088 991C     		add	r1, r3, #2
 327 008a 7B68     		ldr	r3, [r7, #4]
 328 008c 9A1E     		sub	r2, r3, #2
 329 008e 3B68     		ldr	r3, [r7]
 330 0090 0233     		add	r3, r3, #2
 331 0092 F868     		ldr	r0, [r7, #12]
 332 0094 FFF7FEFF 		bl	process_type_16_message
 333 0098 031C     		mov	r3, r0
ARM GAS  C:\Users\glenn\AppData\Local\Temp\ccUNoMJJ.s 			page 9


 334 009a FB61     		str	r3, [r7, #28]
 120:rtu_modbus/process_modbus_message.c ****                                                      &out_buffer[2]);
 121:rtu_modbus/process_modbus_message.c ****                     
 122:rtu_modbus/process_modbus_message.c ****                     break;
 335              		.loc 1 122 0
 336 009c 0DE0     		b	.L28
 337              	.L26:
 123:rtu_modbus/process_modbus_message.c ****             
 124:rtu_modbus/process_modbus_message.c ****             case 24:
 125:rtu_modbus/process_modbus_message.c ****                     out_length = process_type_24_message( in_length, &in_buffer[2], out_buffer_leng
 338              		.loc 1 125 0
 339 009e BB68     		ldr	r3, [r7, #8]
 340 00a0 991C     		add	r1, r3, #2
 341 00a2 3B68     		ldr	r3, [r7]
 342 00a4 0233     		add	r3, r3, #2
 343 00a6 F868     		ldr	r0, [r7, #12]
 344 00a8 7A68     		ldr	r2, [r7, #4]
 345 00aa FFF7FEFF 		bl	process_type_24_message
 346 00ae 031C     		mov	r3, r0
 347 00b0 FB61     		str	r3, [r7, #28]
 126:rtu_modbus/process_modbus_message.c ****                                    &out_buffer[2]);
 127:rtu_modbus/process_modbus_message.c ****                     break;
 348              		.loc 1 127 0
 349 00b2 02E0     		b	.L28
 350              	.L32:
 128:rtu_modbus/process_modbus_message.c ****                     
 129:rtu_modbus/process_modbus_message.c ****                      
 130:rtu_modbus/process_modbus_message.c ****             default:
 131:rtu_modbus/process_modbus_message.c ****                     out_length = 0; // unrecognized function code
 351              		.loc 1 131 0
 352 00b4 0023     		mov	r3, #0
 353 00b6 FB61     		str	r3, [r7, #28]
 354 00b8 02E0     		b	.L29
 355              	.L28:
 356 00ba 01E0     		b	.L29
 357              	.L23:
 132:rtu_modbus/process_modbus_message.c ****      
 133:rtu_modbus/process_modbus_message.c ****            }         
 134:rtu_modbus/process_modbus_message.c ****         
 135:rtu_modbus/process_modbus_message.c ****         }
 136:rtu_modbus/process_modbus_message.c ****         else
 137:rtu_modbus/process_modbus_message.c ****         {
 138:rtu_modbus/process_modbus_message.c ****             out_length = 0; // bad crc
 358              		.loc 1 138 0
 359 00bc 0023     		mov	r3, #0
 360 00be FB61     		str	r3, [r7, #28]
 361              	.L29:
 139:rtu_modbus/process_modbus_message.c ****         }
 140:rtu_modbus/process_modbus_message.c ****         if( out_length > 200 )
 362              		.loc 1 140 0
 363 00c0 FB69     		ldr	r3, [r7, #28]
 364 00c2 C82B     		cmp	r3, #200
 365 00c4 02DD     		ble	.L30
 141:rtu_modbus/process_modbus_message.c ****          {
 142:rtu_modbus/process_modbus_message.c ****             CYASSERT(0);
 366              		.loc 1 142 0 discriminator 1
 367 00c6 0020     		mov	r0, #0
ARM GAS  C:\Users\glenn\AppData\Local\Temp\ccUNoMJJ.s 			page 10


 368 00c8 FFF7FEFF 		bl	CyHalt
 369              	.L30:
 143:rtu_modbus/process_modbus_message.c ****          }
 144:rtu_modbus/process_modbus_message.c **** 
 145:rtu_modbus/process_modbus_message.c ****         if(  out_length > 0 )
 370              		.loc 1 145 0
 371 00cc FB69     		ldr	r3, [r7, #28]
 372 00ce 002B     		cmp	r3, #0
 373 00d0 0BDD     		ble	.L31
 146:rtu_modbus/process_modbus_message.c ****         {
 147:rtu_modbus/process_modbus_message.c ****             out_length += 2; // putting back slave and function id into count
 374              		.loc 1 147 0
 375 00d2 FB69     		ldr	r3, [r7, #28]
 376 00d4 0233     		add	r3, r3, #2
 377 00d6 FB61     		str	r3, [r7, #28]
 148:rtu_modbus/process_modbus_message.c ****             append_crc( out_length,out_buffer);
 378              		.loc 1 148 0
 379 00d8 FA69     		ldr	r2, [r7, #28]
 380 00da 3B68     		ldr	r3, [r7]
 381 00dc 101C     		mov	r0, r2
 382 00de 191C     		mov	r1, r3
 383 00e0 FFF7FEFF 		bl	append_crc
 149:rtu_modbus/process_modbus_message.c ****             out_length += 2; // adding crc
 384              		.loc 1 149 0
 385 00e4 FB69     		ldr	r3, [r7, #28]
 386 00e6 0233     		add	r3, r3, #2
 387 00e8 FB61     		str	r3, [r7, #28]
 388              	.L31:
 150:rtu_modbus/process_modbus_message.c ****         }
 151:rtu_modbus/process_modbus_message.c ****         
 152:rtu_modbus/process_modbus_message.c ****         
 153:rtu_modbus/process_modbus_message.c ****     
 154:rtu_modbus/process_modbus_message.c **** 
 155:rtu_modbus/process_modbus_message.c ****          return out_length;
 389              		.loc 1 155 0
 390 00ea FB69     		ldr	r3, [r7, #28]
 391              	.L22:
 156:rtu_modbus/process_modbus_message.c ****     
 157:rtu_modbus/process_modbus_message.c **** }    
 392              		.loc 1 157 0
 393 00ec 181C     		mov	r0, r3
 394 00ee BD46     		mov	sp, r7
 395 00f0 08B0     		add	sp, sp, #32
 396              		@ sp needed
 397 00f2 80BD     		pop	{r7, pc}
 398              		.cfi_endproc
 399              	.LFE68:
 400              		.size	process_modbus_message, .-process_modbus_message
 401              		.text
 402              	.Letext0:
 403              		.file 2 "Generated_Source\\PSoC4/cytypes.h"