ARM GAS  C:\Users\glenn\AppData\Local\Temp\ccUNoMJJ.s 			page 1


   1              		.cpu cortex-m0
   2              		.fpu softvfp
   3              		.eabi_attribute 20, 1
   4              		.eabi_attribute 21, 1
   5              		.eabi_attribute 23, 3
   6              		.eabi_attribute 24, 1
   7              		.eabi_attribute 25, 1
   8              		.eabi_attribute 26, 1
   9              		.eabi_attribute 30, 6
  10              		.eabi_attribute 34, 0
  11              		.eabi_attribute 18, 4
  12              		.code	16
  13              		.file	"process_modbus_message.c"
  14              		.text
  15              	.Ltext0:
  16              		.cfi_sections	.debug_frame
  17              		.bss
  18              		.align	2
  19              	modbus_registers:
  20 0000 00000000 		.space	512
  20      00000000 
  20      00000000 
  20      00000000 
  20      00000000 
  21              		.comm	modbus_address_data,4,4
  22              		.section	.text.get_modbus_register_address,"ax",%progbits
  23              		.align	2
  24              		.global	get_modbus_register_address
  25              		.code	16
  26              		.thumb_func
  27              		.type	get_modbus_register_address, %function
  28              	get_modbus_register_address:
  29              	.LFB64:
  30              		.file 1 "rtu_modbus\\process_modbus_message.c"
   1:rtu_modbus/process_modbus_message.c **** /*
   2:rtu_modbus/process_modbus_message.c **** **
   3:rtu_modbus/process_modbus_message.c **** ** File: process_modbus_message.c
   4:rtu_modbus/process_modbus_message.c **** ** This file processes the modbus message from
   5:rtu_modbus/process_modbus_message.c **** ** either the usb or serial handler
   6:rtu_modbus/process_modbus_message.c **** **
   7:rtu_modbus/process_modbus_message.c **** */
   8:rtu_modbus/process_modbus_message.c **** 
   9:rtu_modbus/process_modbus_message.c **** 
  10:rtu_modbus/process_modbus_message.c **** #include <project.h>
  11:rtu_modbus/process_modbus_message.c **** #include <assert.h>
  12:rtu_modbus/process_modbus_message.c **** 
  13:rtu_modbus/process_modbus_message.c **** #include "process_crc.h"
  14:rtu_modbus/process_modbus_message.c **** #include "process_type_3_message.h"
  15:rtu_modbus/process_modbus_message.c **** #include "process_type_16_message.h"
  16:rtu_modbus/process_modbus_message.c **** #include "process_type_24_message.h"
  17:rtu_modbus/process_modbus_message.c **** 
  18:rtu_modbus/process_modbus_message.c **** #include "process_modbus_message.h"
  19:rtu_modbus/process_modbus_message.c **** 
  20:rtu_modbus/process_modbus_message.c **** 
  21:rtu_modbus/process_modbus_message.c **** 
  22:rtu_modbus/process_modbus_message.c **** // logging interval is in minutes
  23:rtu_modbus/process_modbus_message.c **** // default sampling Interval is one hour
ARM GAS  C:\Users\glenn\AppData\Local\Temp\ccUNoMJJ.s 			page 2


  24:rtu_modbus/process_modbus_message.c **** 
  25:rtu_modbus/process_modbus_message.c **** #define SAMPLING_INTERVAL   60 
  26:rtu_modbus/process_modbus_message.c **** 
  27:rtu_modbus/process_modbus_message.c **** static uint16 modbus_registers[ MODBUS_REGISTER_LENGTH ];
  28:rtu_modbus/process_modbus_message.c **** 
  29:rtu_modbus/process_modbus_message.c **** 
  30:rtu_modbus/process_modbus_message.c **** 
  31:rtu_modbus/process_modbus_message.c **** 
  32:rtu_modbus/process_modbus_message.c **** 
  33:rtu_modbus/process_modbus_message.c **** uint16 modbus_address_data[2];
  34:rtu_modbus/process_modbus_message.c **** 
  35:rtu_modbus/process_modbus_message.c **** 
  36:rtu_modbus/process_modbus_message.c **** uint16 *get_modbus_register_address( void )
  37:rtu_modbus/process_modbus_message.c **** {
  31              		.loc 1 37 0
  32              		.cfi_startproc
  33 0000 80B5     		push	{r7, lr}
  34              		.cfi_def_cfa_offset 8
  35              		.cfi_offset 7, -8
  36              		.cfi_offset 14, -4
  37 0002 00AF     		add	r7, sp, #0
  38              		.cfi_def_cfa_register 7
  38:rtu_modbus/process_modbus_message.c ****     return modbus_registers;
  39              		.loc 1 38 0
  40 0004 014B     		ldr	r3, .L3
  39:rtu_modbus/process_modbus_message.c **** }
  41              		.loc 1 39 0
  42 0006 181C     		mov	r0, r3
  43 0008 BD46     		mov	sp, r7
  44              		@ sp needed
  45 000a 80BD     		pop	{r7, pc}
  46              	.L4:
  47              		.align	2
  48              	.L3:
  49 000c 00000000 		.word	modbus_registers
  50              		.cfi_endproc
  51              	.LFE64:
  52              		.size	get_modbus_register_address, .-get_modbus_register_address
  53              		.section	.text.initialize_modbus_registers,"ax",%progbits
  54              		.align	2
  55              		.global	initialize_modbus_registers
  56              		.code	16
  57              		.thumb_func
  58              		.type	initialize_modbus_registers, %function
  59              	initialize_modbus_registers:
  60              	.LFB65:
  40:rtu_modbus/process_modbus_message.c **** 
  41:rtu_modbus/process_modbus_message.c **** void initialize_modbus_registers( void )
  42:rtu_modbus/process_modbus_message.c **** {
  61              		.loc 1 42 0
  62              		.cfi_startproc
  63 0000 80B5     		push	{r7, lr}
  64              		.cfi_def_cfa_offset 8
  65              		.cfi_offset 7, -8
  66              		.cfi_offset 14, -4
  67 0002 82B0     		sub	sp, sp, #8
  68              		.cfi_def_cfa_offset 16
ARM GAS  C:\Users\glenn\AppData\Local\Temp\ccUNoMJJ.s 			page 3


  69 0004 00AF     		add	r7, sp, #0
  70              		.cfi_def_cfa_register 7
  43:rtu_modbus/process_modbus_message.c ****     uint16 temp;
  44:rtu_modbus/process_modbus_message.c **** 
  45:rtu_modbus/process_modbus_message.c ****  
  46:rtu_modbus/process_modbus_message.c ****     memset( modbus_registers, 0, sizeof(modbus_registers));
  71              		.loc 1 46 0
  72 0006 0A4A     		ldr	r2, .L6
  73 0008 8023     		mov	r3, #128
  74 000a 9B00     		lsl	r3, r3, #2
  75 000c 101C     		mov	r0, r2
  76 000e 0021     		mov	r1, #0
  77 0010 1A1C     		mov	r2, r3
  78 0012 FFF7FEFF 		bl	memset
  47:rtu_modbus/process_modbus_message.c **** 
  48:rtu_modbus/process_modbus_message.c ****     temp = 1;
  79              		.loc 1 48 0
  80 0016 BB1D     		add	r3, r7, #6
  81 0018 0122     		mov	r2, #1
  82 001a 1A80     		strh	r2, [r3]
  49:rtu_modbus/process_modbus_message.c ****     store_modbus_data_registers( MOD_RTU_WATCH_DOG_FLAG, 1, &temp);
  83              		.loc 1 49 0
  84 001c BB1D     		add	r3, r7, #6
  85 001e 0120     		mov	r0, #1
  86 0020 0121     		mov	r1, #1
  87 0022 1A1C     		mov	r2, r3
  88 0024 FFF7FEFF 		bl	store_modbus_data_registers
  50:rtu_modbus/process_modbus_message.c ****     
  51:rtu_modbus/process_modbus_message.c ****     
  52:rtu_modbus/process_modbus_message.c **** }
  89              		.loc 1 52 0
  90 0028 BD46     		mov	sp, r7
  91 002a 02B0     		add	sp, sp, #8
  92              		@ sp needed
  93 002c 80BD     		pop	{r7, pc}
  94              	.L7:
  95 002e C046     		.align	2
  96              	.L6:
  97 0030 00000000 		.word	modbus_registers
  98              		.cfi_endproc
  99              	.LFE65:
 100              		.size	initialize_modbus_registers, .-initialize_modbus_registers
 101              		.section	.text.store_modbus_data_registers,"ax",%progbits
 102              		.align	2
 103              		.global	store_modbus_data_registers
 104              		.code	16
 105              		.thumb_func
 106              		.type	store_modbus_data_registers, %function
 107              	store_modbus_data_registers:
 108              	.LFB66:
  53:rtu_modbus/process_modbus_message.c ****   
  54:rtu_modbus/process_modbus_message.c **** 
  55:rtu_modbus/process_modbus_message.c **** 
  56:rtu_modbus/process_modbus_message.c **** int store_modbus_data_registers( unsigned index, unsigned length, uint16 *buffer)
  57:rtu_modbus/process_modbus_message.c **** {
 109              		.loc 1 57 0
 110              		.cfi_startproc
ARM GAS  C:\Users\glenn\AppData\Local\Temp\ccUNoMJJ.s 			page 4


 111 0000 80B5     		push	{r7, lr}
 112              		.cfi_def_cfa_offset 8
 113              		.cfi_offset 7, -8
 114              		.cfi_offset 14, -4
 115 0002 86B0     		sub	sp, sp, #24
 116              		.cfi_def_cfa_offset 32
 117 0004 00AF     		add	r7, sp, #0
 118              		.cfi_def_cfa_register 7
 119 0006 F860     		str	r0, [r7, #12]
 120 0008 B960     		str	r1, [r7, #8]
 121 000a 7A60     		str	r2, [r7, #4]
  58:rtu_modbus/process_modbus_message.c ****     int return_value;
  59:rtu_modbus/process_modbus_message.c ****     if( (index + length ) < MODBUS_REGISTER_LENGTH )
 122              		.loc 1 59 0
 123 000c FA68     		ldr	r2, [r7, #12]
 124 000e BB68     		ldr	r3, [r7, #8]
 125 0010 D318     		add	r3, r2, r3
 126 0012 FF2B     		cmp	r3, #255
 127 0014 0ED8     		bhi	.L9
  60:rtu_modbus/process_modbus_message.c ****     {
  61:rtu_modbus/process_modbus_message.c ****         memcpy(  modbus_registers+index,buffer, length*sizeof(uint16));
 128              		.loc 1 61 0
 129 0016 FB68     		ldr	r3, [r7, #12]
 130 0018 5A00     		lsl	r2, r3, #1
 131 001a 0A4B     		ldr	r3, .L12
 132 001c D118     		add	r1, r2, r3
 133 001e BB68     		ldr	r3, [r7, #8]
 134 0020 5B00     		lsl	r3, r3, #1
 135 0022 7A68     		ldr	r2, [r7, #4]
 136 0024 081C     		mov	r0, r1
 137 0026 111C     		mov	r1, r2
 138 0028 1A1C     		mov	r2, r3
 139 002a FFF7FEFF 		bl	memcpy
  62:rtu_modbus/process_modbus_message.c ****         return_value = 1;
 140              		.loc 1 62 0
 141 002e 0123     		mov	r3, #1
 142 0030 7B61     		str	r3, [r7, #20]
 143 0032 01E0     		b	.L10
 144              	.L9:
  63:rtu_modbus/process_modbus_message.c ****     }
  64:rtu_modbus/process_modbus_message.c ****     else
  65:rtu_modbus/process_modbus_message.c ****     {
  66:rtu_modbus/process_modbus_message.c ****         return_value = 0;
 145              		.loc 1 66 0
 146 0034 0023     		mov	r3, #0
 147 0036 7B61     		str	r3, [r7, #20]
 148              	.L10:
  67:rtu_modbus/process_modbus_message.c ****     }
  68:rtu_modbus/process_modbus_message.c ****     return return_value;
 149              		.loc 1 68 0
 150 0038 7B69     		ldr	r3, [r7, #20]
  69:rtu_modbus/process_modbus_message.c **** }
 151              		.loc 1 69 0
 152 003a 181C     		mov	r0, r3
 153 003c BD46     		mov	sp, r7
 154 003e 06B0     		add	sp, sp, #24
 155              		@ sp needed
ARM GAS  C:\Users\glenn\AppData\Local\Temp\ccUNoMJJ.s 			page 5


 156 0040 80BD     		pop	{r7, pc}
 157              	.L13:
 158 0042 C046     		.align	2
 159              	.L12:
 160 0044 00000000 		.word	modbus_registers
 161              		.cfi_endproc
 162              	.LFE66:
 163              		.size	store_modbus_data_registers, .-store_modbus_data_registers
 164              		.section	.text.get_modbus_data_registers,"ax",%progbits
 165              		.align	2
 166              		.global	get_modbus_data_registers
 167              		.code	16
 168              		.thumb_func
 169              		.type	get_modbus_data_registers, %function
 170              	get_modbus_data_registers:
 171              	.LFB67:
  70:rtu_modbus/process_modbus_message.c ****     
  71:rtu_modbus/process_modbus_message.c ****     
  72:rtu_modbus/process_modbus_message.c **** int get_modbus_data_registers( unsigned index, unsigned length, uint16 *buffer )
  73:rtu_modbus/process_modbus_message.c **** {
 172              		.loc 1 73 0
 173              		.cfi_startproc
 174 0000 80B5     		push	{r7, lr}
 175              		.cfi_def_cfa_offset 8
 176              		.cfi_offset 7, -8
 177              		.cfi_offset 14, -4
 178 0002 86B0     		sub	sp, sp, #24
 179              		.cfi_def_cfa_offset 32
 180 0004 00AF     		add	r7, sp, #0
 181              		.cfi_def_cfa_register 7
 182 0006 F860     		str	r0, [r7, #12]
 183 0008 B960     		str	r1, [r7, #8]
 184 000a 7A60     		str	r2, [r7, #4]
  74:rtu_modbus/process_modbus_message.c ****     int return_value;
  75:rtu_modbus/process_modbus_message.c ****     if( (index + length ) < MODBUS_REGISTER_LENGTH )
 185              		.loc 1 75 0
 186 000c FA68     		ldr	r2, [r7, #12]
 187 000e BB68     		ldr	r3, [r7, #8]
 188 0010 D318     		add	r3, r2, r3
 189 0012 FF2B     		cmp	r3, #255
 190 0014 0ED8     		bhi	.L15
  76:rtu_modbus/process_modbus_message.c ****     {
  77:rtu_modbus/process_modbus_message.c ****         memcpy( buffer, modbus_registers+index, length*sizeof(uint16));
 191              		.loc 1 77 0
 192 0016 FB68     		ldr	r3, [r7, #12]
 193 0018 5A00     		lsl	r2, r3, #1
 194 001a 0A4B     		ldr	r3, .L18
 195 001c D218     		add	r2, r2, r3
 196 001e BB68     		ldr	r3, [r7, #8]
 197 0020 5B00     		lsl	r3, r3, #1
 198 0022 7968     		ldr	r1, [r7, #4]
 199 0024 081C     		mov	r0, r1
 200 0026 111C     		mov	r1, r2
 201 0028 1A1C     		mov	r2, r3
 202 002a FFF7FEFF 		bl	memcpy
  78:rtu_modbus/process_modbus_message.c ****         return_value = 1;
 203              		.loc 1 78 0
ARM GAS  C:\Users\glenn\AppData\Local\Temp\ccUNoMJJ.s 			page 6


 204 002e 0123     		mov	r3, #1
 205 0030 7B61     		str	r3, [r7, #20]
 206 0032 01E0     		b	.L16
 207              	.L15:
  79:rtu_modbus/process_modbus_message.c ****         
  80:rtu_modbus/process_modbus_message.c ****     }
  81:rtu_modbus/process_modbus_message.c ****     else
  82:rtu_modbus/process_modbus_message.c ****     {
  83:rtu_modbus/process_modbus_message.c ****         return_value = 0;
 208              		.loc 1 83 0
 209 0034 0023     		mov	r3, #0
 210 0036 7B61     		str	r3, [r7, #20]
 211              	.L16:
  84:rtu_modbus/process_modbus_message.c ****     }
  85:rtu_modbus/process_modbus_message.c ****     return return_value;
 212              		.loc 1 85 0
 213 0038 7B69     		ldr	r3, [r7, #20]
  86:rtu_modbus/process_modbus_message.c **** }
 214              		.loc 1 86 0
 215 003a 181C     		mov	r0, r3
 216 003c BD46     		mov	sp, r7
 217 003e 06B0     		add	sp, sp, #24
 218              		@ sp needed
 219 0040 80BD     		pop	{r7, pc}
 220              	.L19:
 221 0042 C046     		.align	2
 222              	.L18:
 223 0044 00000000 		.word	modbus_registers
 224              		.cfi_endproc
 225              	.LFE67:
 226              		.size	get_modbus_data_registers, .-get_modbus_data_registers
 227              		.section	.text.process_modbus_message,"ax",%progbits
 228              		.align	2
 229              		.global	process_modbus_message
 230              		.code	16
 231              		.thumb_func
 232              		.type	process_modbus_message, %function
 233              	process_modbus_message:
 234              	.LFB68:
  87:rtu_modbus/process_modbus_message.c **** 
  88:rtu_modbus/process_modbus_message.c **** 
  89:rtu_modbus/process_modbus_message.c **** 
  90:rtu_modbus/process_modbus_message.c **** int process_modbus_message( int in_length, uint8 *in_buffer, 
  91:rtu_modbus/process_modbus_message.c ****                             int out_buffer_length, uint8 *out_buffer )
  92:rtu_modbus/process_modbus_message.c **** {
 235              		.loc 1 92 0
 236              		.cfi_startproc
 237 0000 80B5     		push	{r7, lr}
 238              		.cfi_def_cfa_offset 8
 239              		.cfi_offset 7, -8
 240              		.cfi_offset 14, -4
 241 0002 88B0     		sub	sp, sp, #32
 242              		.cfi_def_cfa_offset 40
 243 0004 00AF     		add	r7, sp, #0
 244              		.cfi_def_cfa_register 7
 245 0006 F860     		str	r0, [r7, #12]
 246 0008 B960     		str	r1, [r7, #8]
ARM GAS  C:\Users\glenn\AppData\Local\Temp\ccUNoMJJ.s 			page 7


 247 000a 7A60     		str	r2, [r7, #4]
 248 000c 3B60     		str	r3, [r7]
  93:rtu_modbus/process_modbus_message.c **** 	
  94:rtu_modbus/process_modbus_message.c **** 	int function_code    = 0;
 249              		.loc 1 94 0
 250 000e 0023     		mov	r3, #0
 251 0010 BB61     		str	r3, [r7, #24]
  95:rtu_modbus/process_modbus_message.c ****     int crc_ok           = 0;
 252              		.loc 1 95 0
 253 0012 0023     		mov	r3, #0
 254 0014 7B61     		str	r3, [r7, #20]
  96:rtu_modbus/process_modbus_message.c ****     int out_length       = 0;
 255              		.loc 1 96 0
 256 0016 0023     		mov	r3, #0
 257 0018 FB61     		str	r3, [r7, #28]
  97:rtu_modbus/process_modbus_message.c **** 
  98:rtu_modbus/process_modbus_message.c ****     if( in_length < 5 ){ return 0; }
 258              		.loc 1 98 0
 259 001a FB68     		ldr	r3, [r7, #12]
 260 001c 042B     		cmp	r3, #4
 261 001e 01DC     		bgt	.L21
 262              		.loc 1 98 0 is_stmt 0 discriminator 1
 263 0020 0023     		mov	r3, #0
 264 0022 63E0     		b	.L22
 265              	.L21:
  99:rtu_modbus/process_modbus_message.c ****     
 100:rtu_modbus/process_modbus_message.c **** 	
 101:rtu_modbus/process_modbus_message.c ****     crc_ok =  compute_crc( in_length, in_buffer);
 266              		.loc 1 101 0 is_stmt 1
 267 0024 FA68     		ldr	r2, [r7, #12]
 268 0026 BB68     		ldr	r3, [r7, #8]
 269 0028 101C     		mov	r0, r2
 270 002a 191C     		mov	r1, r3
 271 002c FFF7FEFF 		bl	compute_crc
 272 0030 031C     		mov	r3, r0
 273 0032 7B61     		str	r3, [r7, #20]
 102:rtu_modbus/process_modbus_message.c **** 
 103:rtu_modbus/process_modbus_message.c **** 	if( crc_ok != 0)
 274              		.loc 1 103 0
 275 0034 7B69     		ldr	r3, [r7, #20]
 276 0036 002B     		cmp	r3, #0
 277 0038 40D0     		beq	.L23
 104:rtu_modbus/process_modbus_message.c **** 	{
 105:rtu_modbus/process_modbus_message.c **** 		function_code = in_buffer[1];
 278              		.loc 1 105 0
 279 003a BB68     		ldr	r3, [r7, #8]
 280 003c 0133     		add	r3, r3, #1
 281 003e 1B78     		ldrb	r3, [r3]
 282 0040 BB61     		str	r3, [r7, #24]
 106:rtu_modbus/process_modbus_message.c ****         out_buffer[0] = in_buffer[0];  // returning slave address
 283              		.loc 1 106 0
 284 0042 BB68     		ldr	r3, [r7, #8]
 285 0044 1A78     		ldrb	r2, [r3]
 286 0046 3B68     		ldr	r3, [r7]
 287 0048 1A70     		strb	r2, [r3]
 107:rtu_modbus/process_modbus_message.c ****         out_buffer[1] = in_buffer[1]; // returning function code
 288              		.loc 1 107 0
ARM GAS  C:\Users\glenn\AppData\Local\Temp\ccUNoMJJ.s 			page 8


 289 004a 3B68     		ldr	r3, [r7]
 290 004c 0133     		add	r3, r3, #1
 291 004e BA68     		ldr	r2, [r7, #8]
 292 0050 5278     		ldrb	r2, [r2, #1]
 293 0052 1A70     		strb	r2, [r3]
 108:rtu_modbus/process_modbus_message.c ****         out_buffer_length -=2;
 294              		.loc 1 108 0
 295 0054 7B68     		ldr	r3, [r7, #4]
 296 0056 023B     		sub	r3, r3, #2
 297 0058 7B60     		str	r3, [r7, #4]
 109:rtu_modbus/process_modbus_message.c ****         in_length         -=4;  // removing slave address, function code and 16 bit crc
 298              		.loc 1 109 0
 299 005a FB68     		ldr	r3, [r7, #12]
 300 005c 043B     		sub	r3, r3, #4
 301 005e FB60     		str	r3, [r7, #12]
 110:rtu_modbus/process_modbus_message.c **** 		// extract function code
 111:rtu_modbus/process_modbus_message.c **** 		switch( function_code )
 302              		.loc 1 111 0
 303 0060 BB69     		ldr	r3, [r7, #24]
 304 0062 102B     		cmp	r3, #16
 305 0064 0FD0     		beq	.L25
 306 0066 182B     		cmp	r3, #24
 307 0068 19D0     		beq	.L26
 308 006a 032B     		cmp	r3, #3
 309 006c 22D1     		bne	.L32
 112:rtu_modbus/process_modbus_message.c **** 		{
 113:rtu_modbus/process_modbus_message.c ****             case 3:
 114:rtu_modbus/process_modbus_message.c ****                     out_length = process_type_3_message(in_length, &in_buffer[2], out_buffer_length
 310              		.loc 1 114 0
 311 006e BB68     		ldr	r3, [r7, #8]
 312 0070 991C     		add	r1, r3, #2
 313 0072 7B68     		ldr	r3, [r7, #4]
 314 0074 9A1E     		sub	r2, r3, #2
 315 0076 3B68     		ldr	r3, [r7]
 316 0078 0233     		add	r3, r3, #2
 317 007a F868     		ldr	r0, [r7, #12]
 318 007c FFF7FEFF 		bl	process_type_3_message
 319 0080 031C     		mov	r3, r0
 320 0082 FB61     		str	r3, [r7, #28]
 115:rtu_modbus/process_modbus_message.c ****                                                      &out_buffer[2]);
 116:rtu_modbus/process_modbus_message.c ****                     break;
 321              		.loc 1 116 0
 322 0084 19E0     		b	.L28
 323              	.L25:
 117:rtu_modbus/process_modbus_message.c ****             
 118:rtu_modbus/process_modbus_message.c ****             case 16:
 119:rtu_modbus/process_modbus_message.c ****                     out_length = process_type_16_message( in_length, &in_buffer[2],out_buffer_lengt
 324              		.loc 1 119 0
 325 0086 BB68     		ldr	r3, [r7, #8]
 326 0088 991C     		add	r1, r3, #2
 327 008a 7B68     		ldr	r3, [r7, #4]
 328 008c 9A1E     		sub	r2, r3, #2
 329 008e 3B68     		ldr	r3, [r7]
 330 0090 0233     		add	r3, r3, #2
 331 0092 F868     		ldr	r0, [r7, #12]
 332 0094 FFF7FEFF 		bl	process_type_16_message
 333 0098 031C     		mov	r3, r0
ARM GAS  C:\Users\glenn\AppData\Local\Temp\ccUNoMJJ.s 			page 9


 334 009a FB61     		str	r3, [r7, #28]
 120:rtu_modbus/process_modbus_message.c ****                                                      &out_buffer[2]);
 121:rtu_modbus/process_modbus_message.c ****                     
 122:rtu_modbus/process_modbus_message.c ****                     break;
 335              		.loc 1 122 0
 336 009c 0DE0     		b	.L28
 337              	.L26:
 123:rtu_modbus/process_modbus_message.c ****             
 124:rtu_modbus/process_modbus_message.c ****             case 24:
 125:rtu_modbus/process_modbus_message.c ****                     out_length = process_type_24_message( in_length, &in_buffer[2], out_buffer_leng
 338              		.loc 1 125 0
 339 009e BB68     		ldr	r3, [r7, #8]
 340 00a0 991C     		add	r1, r3, #2
 341 00a2 3B68     		ldr	r3, [r7]
 342 00a4 0233     		add	r3, r3, #2
 343 00a6 F868     		ldr	r0, [r7, #12]
 344 00a8 7A68     		ldr	r2, [r7, #4]
 345 00aa FFF7FEFF 		bl	process_type_24_message
 346 00ae 031C     		mov	r3, r0
 347 00b0 FB61     		str	r3, [r7, #28]
 126:rtu_modbus/process_modbus_message.c ****                                    &out_buffer[2]);
 127:rtu_modbus/process_modbus_message.c ****                     break;
 348              		.loc 1 127 0
 349 00b2 02E0     		b	.L28
 350              	.L32:
 128:rtu_modbus/process_modbus_message.c ****                     
 129:rtu_modbus/process_modbus_message.c ****                      
 130:rtu_modbus/process_modbus_message.c ****             default:
 131:rtu_modbus/process_modbus_message.c ****                     out_length = 0; // unrecognized function code
 351              		.loc 1 131 0
 352 00b4 0023     		mov	r3, #0
 353 00b6 FB61     		str	r3, [r7, #28]
 354 00b8 02E0     		b	.L29
 355              	.L28:
 356 00ba 01E0     		b	.L29
 357              	.L23:
 132:rtu_modbus/process_modbus_message.c ****      
 133:rtu_modbus/process_modbus_message.c ****            }         
 134:rtu_modbus/process_modbus_message.c ****         
 135:rtu_modbus/process_modbus_message.c ****         }
 136:rtu_modbus/process_modbus_message.c ****         else
 137:rtu_modbus/process_modbus_message.c ****         {
 138:rtu_modbus/process_modbus_message.c ****             out_length = 0; // bad crc
 358              		.loc 1 138 0
 359 00bc 0023     		mov	r3, #0
 360 00be FB61     		str	r3, [r7, #28]
 361              	.L29:
 139:rtu_modbus/process_modbus_message.c ****         }
 140:rtu_modbus/process_modbus_message.c ****         if( out_length > 200 )
 362              		.loc 1 140 0
 363 00c0 FB69     		ldr	r3, [r7, #28]
 364 00c2 C82B     		cmp	r3, #200
 365 00c4 02DD     		ble	.L30
 141:rtu_modbus/process_modbus_message.c ****          {
 142:rtu_modbus/process_modbus_message.c ****             CYASSERT(0);
 366              		.loc 1 142 0 discriminator 1
 367 00c6 0020     		mov	r0, #0
ARM GAS  C:\Users\glenn\AppData\Local\Temp\ccUNoMJJ.s 			page 10


 368 00c8 FFF7FEFF 		bl	CyHalt
 369              	.L30:
 143:rtu_modbus/process_modbus_message.c ****          }
 144:rtu_modbus/process_modbus_message.c **** 
 145:rtu_modbus/process_modbus_message.c ****         if(  out_length > 0 )
 370              		.loc 1 145 0
 371 00cc FB69     		ldr	r3, [r7, #28]
 372 00ce 002B     		cmp	r3, #0
 373 00d0 0BDD     		ble	.L31
 146:rtu_modbus/process_modbus_message.c ****         {
 147:rtu_modbus/process_modbus_message.c ****             out_length += 2; // putting back slave and function id into count
 374              		.loc 1 147 0
 375 00d2 FB69     		ldr	r3, [r7, #28]
 376 00d4 0233     		add	r3, r3, #2
 377 00d6 FB61     		str	r3, [r7, #28]
 148:rtu_modbus/process_modbus_message.c ****             append_crc( out_length,out_buffer);
 378              		.loc 1 148 0
 379 00d8 FA69     		ldr	r2, [r7, #28]
 380 00da 3B68     		ldr	r3, [r7]
 381 00dc 101C     		mov	r0, r2
 382 00de 191C     		mov	r1, r3
 383 00e0 FFF7FEFF 		bl	append_crc
 149:rtu_modbus/process_modbus_message.c ****             out_length += 2; // adding crc
 384              		.loc 1 149 0
 385 00e4 FB69     		ldr	r3, [r7, #28]
 386 00e6 0233     		add	r3, r3, #2
 387 00e8 FB61     		str	r3, [r7, #28]
 388              	.L31:
 150:rtu_modbus/process_modbus_message.c ****         }
 151:rtu_modbus/process_modbus_message.c ****         
 152:rtu_modbus/process_modbus_message.c ****         
 153:rtu_modbus/process_modbus_message.c ****     
 154:rtu_modbus/process_modbus_message.c **** 
 155:rtu_modbus/process_modbus_message.c ****          return out_length;
 389              		.loc 1 155 0
 390 00ea FB69     		ldr	r3, [r7, #28]
 391              	.L22:
 156:rtu_modbus/process_modbus_message.c ****     
 157:rtu_modbus/process_modbus_message.c **** }    
 392              		.loc 1 157 0
 393 00ec 181C     		mov	r0, r3
 394 00ee BD46     		mov	sp, r7
 395 00f0 08B0     		add	sp, sp, #32
 396              		@ sp needed
 397 00f2 80BD     		pop	{r7, pc}
 398              		.cfi_endproc
 399              	.LFE68:
 400              		.size	process_modbus_message, .-process_modbus_message
 401              		.text
 402              	.Letext0:
 403              		.file 2 "Generated_Source\\PSoC4/cytypes.h"
 404              		.section	.debug_info,"",%progbits
 405              	.Ldebug_info0:
 406 0000 4F020000 		.4byte	0x24f
 407 0004 0400     		.2byte	0x4
 408 0006 00000000 		.4byte	.Ldebug_abbrev0
 409 000a 04       		.byte	0x4
ARM GAS  C:\Users\glenn\AppData\Local\Temp\ccUNoMJJ.s 			page 11


 410 000b 01       		.uleb128 0x1
 411 000c E2000000 		.4byte	.LASF32
 412 0010 01       		.byte	0x1
 413 0011 2F000000 		.4byte	.LASF33
 414 0015 53020000 		.4byte	.LASF34
 415 0019 00000000 		.4byte	.Ldebug_ranges0+0
 416 001d 00000000 		.4byte	0
 417 0021 00000000 		.4byte	.Ldebug_line0
 418 0025 02       		.uleb128 0x2
 419 0026 01       		.byte	0x1
 420 0027 06       		.byte	0x6
 421 0028 A9020000 		.4byte	.LASF0
 422 002c 02       		.uleb128 0x2
 423 002d 01       		.byte	0x1
 424 002e 08       		.byte	0x8
 425 002f 82000000 		.4byte	.LASF1
 426 0033 02       		.uleb128 0x2
 427 0034 02       		.byte	0x2
 428 0035 05       		.byte	0x5
 429 0036 15020000 		.4byte	.LASF2
 430 003a 02       		.uleb128 0x2
 431 003b 02       		.byte	0x2
 432 003c 07       		.byte	0x7
 433 003d B3000000 		.4byte	.LASF3
 434 0041 02       		.uleb128 0x2
 435 0042 04       		.byte	0x4
 436 0043 05       		.byte	0x5
 437 0044 43020000 		.4byte	.LASF4
 438 0048 02       		.uleb128 0x2
 439 0049 04       		.byte	0x4
 440 004a 07       		.byte	0x7
 441 004b 90000000 		.4byte	.LASF5
 442 004f 02       		.uleb128 0x2
 443 0050 08       		.byte	0x8
 444 0051 05       		.byte	0x5
 445 0052 FC010000 		.4byte	.LASF6
 446 0056 02       		.uleb128 0x2
 447 0057 08       		.byte	0x8
 448 0058 07       		.byte	0x7
 449 0059 90010000 		.4byte	.LASF7
 450 005d 03       		.uleb128 0x3
 451 005e 04       		.byte	0x4
 452 005f 05       		.byte	0x5
 453 0060 696E7400 		.ascii	"int\000"
 454 0064 02       		.uleb128 0x2
 455 0065 04       		.byte	0x4
 456 0066 07       		.byte	0x7
 457 0067 7E010000 		.4byte	.LASF8
 458 006b 04       		.uleb128 0x4
 459 006c 26020000 		.4byte	.LASF9
 460 0070 02       		.byte	0x2
 461 0071 9801     		.2byte	0x198
 462 0073 2C000000 		.4byte	0x2c
 463 0077 04       		.uleb128 0x4
 464 0078 70010000 		.4byte	.LASF10
 465 007c 02       		.byte	0x2
 466 007d 9901     		.2byte	0x199
ARM GAS  C:\Users\glenn\AppData\Local\Temp\ccUNoMJJ.s 			page 12


 467 007f 3A000000 		.4byte	0x3a
 468 0083 04       		.uleb128 0x4
 469 0084 77010000 		.4byte	.LASF11
 470 0088 02       		.byte	0x2
 471 0089 9A01     		.2byte	0x19a
 472 008b 48000000 		.4byte	0x48
 473 008f 02       		.uleb128 0x2
 474 0090 04       		.byte	0x4
 475 0091 04       		.byte	0x4
 476 0092 7C000000 		.4byte	.LASF12
 477 0096 02       		.uleb128 0x2
 478 0097 08       		.byte	0x8
 479 0098 04       		.byte	0x4
 480 0099 CD000000 		.4byte	.LASF13
 481 009d 02       		.uleb128 0x2
 482 009e 01       		.byte	0x1
 483 009f 08       		.byte	0x8
 484 00a0 0A020000 		.4byte	.LASF14
 485 00a4 02       		.uleb128 0x2
 486 00a5 04       		.byte	0x4
 487 00a6 07       		.byte	0x7
 488 00a7 D7010000 		.4byte	.LASF15
 489 00ab 05       		.uleb128 0x5
 490 00ac 04       		.byte	0x4
 491 00ad 6B000000 		.4byte	0x6b
 492 00b1 05       		.uleb128 0x5
 493 00b2 04       		.byte	0x4
 494 00b3 77000000 		.4byte	0x77
 495 00b7 06       		.uleb128 0x6
 496 00b8 60000000 		.4byte	.LASF35
 497 00bc 01       		.byte	0x1
 498 00bd 24       		.byte	0x24
 499 00be B1000000 		.4byte	0xb1
 500 00c2 00000000 		.4byte	.LFB64
 501 00c6 10000000 		.4byte	.LFE64-.LFB64
 502 00ca 01       		.uleb128 0x1
 503 00cb 9C       		.byte	0x9c
 504 00cc 07       		.uleb128 0x7
 505 00cd A7010000 		.4byte	.LASF36
 506 00d1 01       		.byte	0x1
 507 00d2 29       		.byte	0x29
 508 00d3 00000000 		.4byte	.LFB65
 509 00d7 34000000 		.4byte	.LFE65-.LFB65
 510 00db 01       		.uleb128 0x1
 511 00dc 9C       		.byte	0x9c
 512 00dd F0000000 		.4byte	0xf0
 513 00e1 08       		.uleb128 0x8
 514 00e2 8B010000 		.4byte	.LASF19
 515 00e6 01       		.byte	0x1
 516 00e7 2B       		.byte	0x2b
 517 00e8 77000000 		.4byte	0x77
 518 00ec 02       		.uleb128 0x2
 519 00ed 91       		.byte	0x91
 520 00ee 76       		.sleb128 -10
 521 00ef 00       		.byte	0
 522 00f0 09       		.uleb128 0x9
 523 00f1 E0010000 		.4byte	.LASF21
ARM GAS  C:\Users\glenn\AppData\Local\Temp\ccUNoMJJ.s 			page 13


 524 00f5 01       		.byte	0x1
 525 00f6 38       		.byte	0x38
 526 00f7 5D000000 		.4byte	0x5d
 527 00fb 00000000 		.4byte	.LFB66
 528 00ff 48000000 		.4byte	.LFE66-.LFB66
 529 0103 01       		.uleb128 0x1
 530 0104 9C       		.byte	0x9c
 531 0105 42010000 		.4byte	0x142
 532 0109 0A       		.uleb128 0xa
 533 010a 0F020000 		.4byte	.LASF16
 534 010e 01       		.byte	0x1
 535 010f 38       		.byte	0x38
 536 0110 64000000 		.4byte	0x64
 537 0114 02       		.uleb128 0x2
 538 0115 91       		.byte	0x91
 539 0116 6C       		.sleb128 -20
 540 0117 0A       		.uleb128 0xa
 541 0118 4C020000 		.4byte	.LASF17
 542 011c 01       		.byte	0x1
 543 011d 38       		.byte	0x38
 544 011e 64000000 		.4byte	0x64
 545 0122 02       		.uleb128 0x2
 546 0123 91       		.byte	0x91
 547 0124 68       		.sleb128 -24
 548 0125 0A       		.uleb128 0xa
 549 0126 1F020000 		.4byte	.LASF18
 550 012a 01       		.byte	0x1
 551 012b 38       		.byte	0x38
 552 012c B1000000 		.4byte	0xb1
 553 0130 02       		.uleb128 0x2
 554 0131 91       		.byte	0x91
 555 0132 64       		.sleb128 -28
 556 0133 08       		.uleb128 0x8
 557 0134 53000000 		.4byte	.LASF20
 558 0138 01       		.byte	0x1
 559 0139 3A       		.byte	0x3a
 560 013a 5D000000 		.4byte	0x5d
 561 013e 02       		.uleb128 0x2
 562 013f 91       		.byte	0x91
 563 0140 74       		.sleb128 -12
 564 0141 00       		.byte	0
 565 0142 09       		.uleb128 0x9
 566 0143 0A000000 		.4byte	.LASF22
 567 0147 01       		.byte	0x1
 568 0148 48       		.byte	0x48
 569 0149 5D000000 		.4byte	0x5d
 570 014d 00000000 		.4byte	.LFB67
 571 0151 48000000 		.4byte	.LFE67-.LFB67
 572 0155 01       		.uleb128 0x1
 573 0156 9C       		.byte	0x9c
 574 0157 94010000 		.4byte	0x194
 575 015b 0A       		.uleb128 0xa
 576 015c 0F020000 		.4byte	.LASF16
 577 0160 01       		.byte	0x1
 578 0161 48       		.byte	0x48
 579 0162 64000000 		.4byte	0x64
 580 0166 02       		.uleb128 0x2
ARM GAS  C:\Users\glenn\AppData\Local\Temp\ccUNoMJJ.s 			page 14


 581 0167 91       		.byte	0x91
 582 0168 6C       		.sleb128 -20
 583 0169 0A       		.uleb128 0xa
 584 016a 4C020000 		.4byte	.LASF17
 585 016e 01       		.byte	0x1
 586 016f 48       		.byte	0x48
 587 0170 64000000 		.4byte	0x64
 588 0174 02       		.uleb128 0x2
 589 0175 91       		.byte	0x91
 590 0176 68       		.sleb128 -24
 591 0177 0A       		.uleb128 0xa
 592 0178 1F020000 		.4byte	.LASF18
 593 017c 01       		.byte	0x1
 594 017d 48       		.byte	0x48
 595 017e B1000000 		.4byte	0xb1
 596 0182 02       		.uleb128 0x2
 597 0183 91       		.byte	0x91
 598 0184 64       		.sleb128 -28
 599 0185 08       		.uleb128 0x8
 600 0186 53000000 		.4byte	.LASF20
 601 018a 01       		.byte	0x1
 602 018b 4A       		.byte	0x4a
 603 018c 5D000000 		.4byte	0x5d
 604 0190 02       		.uleb128 0x2
 605 0191 91       		.byte	0x91
 606 0192 74       		.sleb128 -12
 607 0193 00       		.byte	0
 608 0194 09       		.uleb128 0x9
 609 0195 2C020000 		.4byte	.LASF23
 610 0199 01       		.byte	0x1
 611 019a 5A       		.byte	0x5a
 612 019b 5D000000 		.4byte	0x5d
 613 019f 00000000 		.4byte	.LFB68
 614 01a3 F4000000 		.4byte	.LFE68-.LFB68
 615 01a7 01       		.uleb128 0x1
 616 01a8 9C       		.byte	0x9c
 617 01a9 10020000 		.4byte	0x210
 618 01ad 0A       		.uleb128 0xa
 619 01ae B5020000 		.4byte	.LASF24
 620 01b2 01       		.byte	0x1
 621 01b3 5A       		.byte	0x5a
 622 01b4 5D000000 		.4byte	0x5d
 623 01b8 02       		.uleb128 0x2
 624 01b9 91       		.byte	0x91
 625 01ba 64       		.sleb128 -28
 626 01bb 0A       		.uleb128 0xa
 627 01bc 00000000 		.4byte	.LASF25
 628 01c0 01       		.byte	0x1
 629 01c1 5A       		.byte	0x5a
 630 01c2 AB000000 		.4byte	0xab
 631 01c6 02       		.uleb128 0x2
 632 01c7 91       		.byte	0x91
 633 01c8 60       		.sleb128 -32
 634 01c9 0A       		.uleb128 0xa
 635 01ca CA020000 		.4byte	.LASF26
 636 01ce 01       		.byte	0x1
 637 01cf 5B       		.byte	0x5b
ARM GAS  C:\Users\glenn\AppData\Local\Temp\ccUNoMJJ.s 			page 15


 638 01d0 5D000000 		.4byte	0x5d
 639 01d4 02       		.uleb128 0x2
 640 01d5 91       		.byte	0x91
 641 01d6 5C       		.sleb128 -36
 642 01d7 0A       		.uleb128 0xa
 643 01d8 24000000 		.4byte	.LASF27
 644 01dc 01       		.byte	0x1
 645 01dd 5B       		.byte	0x5b
 646 01de AB000000 		.4byte	0xab
 647 01e2 02       		.uleb128 0x2
 648 01e3 91       		.byte	0x91
 649 01e4 58       		.sleb128 -40
 650 01e5 08       		.uleb128 0x8
 651 01e6 D4000000 		.4byte	.LASF28
 652 01ea 01       		.byte	0x1
 653 01eb 5E       		.byte	0x5e
 654 01ec 5D000000 		.4byte	0x5d
 655 01f0 02       		.uleb128 0x2
 656 01f1 91       		.byte	0x91
 657 01f2 70       		.sleb128 -16
 658 01f3 08       		.uleb128 0x8
 659 01f4 C6000000 		.4byte	.LASF29
 660 01f8 01       		.byte	0x1
 661 01f9 5F       		.byte	0x5f
 662 01fa 5D000000 		.4byte	0x5d
 663 01fe 02       		.uleb128 0x2
 664 01ff 91       		.byte	0x91
 665 0200 6C       		.sleb128 -20
 666 0201 08       		.uleb128 0x8
 667 0202 BF020000 		.4byte	.LASF30
 668 0206 01       		.byte	0x1
 669 0207 60       		.byte	0x60
 670 0208 5D000000 		.4byte	0x5d
 671 020c 02       		.uleb128 0x2
 672 020d 91       		.byte	0x91
 673 020e 74       		.sleb128 -12
 674 020f 00       		.byte	0
 675 0210 0B       		.uleb128 0xb
 676 0211 77000000 		.4byte	0x77
 677 0215 20020000 		.4byte	0x220
 678 0219 0C       		.uleb128 0xc
 679 021a A4000000 		.4byte	0xa4
 680 021e FF       		.byte	0xff
 681 021f 00       		.byte	0
 682 0220 08       		.uleb128 0x8
 683 0221 A2000000 		.4byte	.LASF31
 684 0225 01       		.byte	0x1
 685 0226 1B       		.byte	0x1b
 686 0227 10020000 		.4byte	0x210
 687 022b 05       		.uleb128 0x5
 688 022c 03       		.byte	0x3
 689 022d 00000000 		.4byte	modbus_registers
 690 0231 0B       		.uleb128 0xb
 691 0232 77000000 		.4byte	0x77
 692 0236 41020000 		.4byte	0x241
 693 023a 0C       		.uleb128 0xc
 694 023b A4000000 		.4byte	0xa4
ARM GAS  C:\Users\glenn\AppData\Local\Temp\ccUNoMJJ.s 			page 16


 695 023f 01       		.byte	0x1
 696 0240 00       		.byte	0
 697 0241 0D       		.uleb128 0xd
 698 0242 C3010000 		.4byte	.LASF37
 699 0246 01       		.byte	0x1
 700 0247 21       		.byte	0x21
 701 0248 31020000 		.4byte	0x231
 702 024c 05       		.uleb128 0x5
 703 024d 03       		.byte	0x3
 704 024e 00000000 		.4byte	modbus_address_data
 705 0252 00       		.byte	0
 706              		.section	.debug_abbrev,"",%progbits
 707              	.Ldebug_abbrev0:
 708 0000 01       		.uleb128 0x1
 709 0001 11       		.uleb128 0x11
 710 0002 01       		.byte	0x1
 711 0003 25       		.uleb128 0x25
 712 0004 0E       		.uleb128 0xe
 713 0005 13       		.uleb128 0x13
 714 0006 0B       		.uleb128 0xb
 715 0007 03       		.uleb128 0x3
 716 0008 0E       		.uleb128 0xe
 717 0009 1B       		.uleb128 0x1b
 718 000a 0E       		.uleb128 0xe
 719 000b 55       		.uleb128 0x55
 720 000c 17       		.uleb128 0x17
 721 000d 11       		.uleb128 0x11
 722 000e 01       		.uleb128 0x1
 723 000f 10       		.uleb128 0x10
 724 0010 17       		.uleb128 0x17
 725 0011 00       		.byte	0
 726 0012 00       		.byte	0
 727 0013 02       		.uleb128 0x2
 728 0014 24       		.uleb128 0x24
 729 0015 00       		.byte	0
 730 0016 0B       		.uleb128 0xb
 731 0017 0B       		.uleb128 0xb
 732 0018 3E       		.uleb128 0x3e
 733 0019 0B       		.uleb128 0xb
 734 001a 03       		.uleb128 0x3
 735 001b 0E       		.uleb128 0xe
 736 001c 00       		.byte	0
 737 001d 00       		.byte	0
 738 001e 03       		.uleb128 0x3
 739 001f 24       		.uleb128 0x24
 740 0020 00       		.byte	0
 741 0021 0B       		.uleb128 0xb
 742 0022 0B       		.uleb128 0xb
 743 0023 3E       		.uleb128 0x3e
 744 0024 0B       		.uleb128 0xb
 745 0025 03       		.uleb128 0x3
 746 0026 08       		.uleb128 0x8
 747 0027 00       		.byte	0
 748 0028 00       		.byte	0
 749 0029 04       		.uleb128 0x4
 750 002a 16       		.uleb128 0x16
 751 002b 00       		.byte	0
ARM GAS  C:\Users\glenn\AppData\Local\Temp\ccUNoMJJ.s 			page 17


 752 002c 03       		.uleb128 0x3
 753 002d 0E       		.uleb128 0xe
 754 002e 3A       		.uleb128 0x3a
 755 002f 0B       		.uleb128 0xb
 756 0030 3B       		.uleb128 0x3b
 757 0031 05       		.uleb128 0x5
 758 0032 49       		.uleb128 0x49
 759 0033 13       		.uleb128 0x13
 760 0034 00       		.byte	0
 761 0035 00       		.byte	0
 762 0036 05       		.uleb128 0x5
 763 0037 0F       		.uleb128 0xf
 764 0038 00       		.byte	0
 765 0039 0B       		.uleb128 0xb
 766 003a 0B       		.uleb128 0xb
 767 003b 49       		.uleb128 0x49
 768 003c 13       		.uleb128 0x13
 769 003d 00       		.byte	0
 770 003e 00       		.byte	0
 771 003f 06       		.uleb128 0x6
 772 0040 2E       		.uleb128 0x2e
 773 0041 00       		.byte	0
 774 0042 3F       		.uleb128 0x3f
 775 0043 19       		.uleb128 0x19
 776 0044 03       		.uleb128 0x3
 777 0045 0E       		.uleb128 0xe
 778 0046 3A       		.uleb128 0x3a
 779 0047 0B       		.uleb128 0xb
 780 0048 3B       		.uleb128 0x3b
 781 0049 0B       		.uleb128 0xb
 782 004a 27       		.uleb128 0x27
 783 004b 19       		.uleb128 0x19
 784 004c 49       		.uleb128 0x49
 785 004d 13       		.uleb128 0x13
 786 004e 11       		.uleb128 0x11
 787 004f 01       		.uleb128 0x1
 788 0050 12       		.uleb128 0x12
 789 0051 06       		.uleb128 0x6
 790 0052 40       		.uleb128 0x40
 791 0053 18       		.uleb128 0x18
 792 0054 9742     		.uleb128 0x2117
 793 0056 19       		.uleb128 0x19
 794 0057 00       		.byte	0
 795 0058 00       		.byte	0
 796 0059 07       		.uleb128 0x7
 797 005a 2E       		.uleb128 0x2e
 798 005b 01       		.byte	0x1
 799 005c 3F       		.uleb128 0x3f
 800 005d 19       		.uleb128 0x19
 801 005e 03       		.uleb128 0x3
 802 005f 0E       		.uleb128 0xe
 803 0060 3A       		.uleb128 0x3a
 804 0061 0B       		.uleb128 0xb
 805 0062 3B       		.uleb128 0x3b
 806 0063 0B       		.uleb128 0xb
 807 0064 27       		.uleb128 0x27
 808 0065 19       		.uleb128 0x19
ARM GAS  C:\Users\glenn\AppData\Local\Temp\ccUNoMJJ.s 			page 18


 809 0066 11       		.uleb128 0x11
 810 0067 01       		.uleb128 0x1
 811 0068 12       		.uleb128 0x12
 812 0069 06       		.uleb128 0x6
 813 006a 40       		.uleb128 0x40
 814 006b 18       		.uleb128 0x18
 815 006c 9642     		.uleb128 0x2116
 816 006e 19       		.uleb128 0x19
 817 006f 01       		.uleb128 0x1
 818 0070 13       		.uleb128 0x13
 819 0071 00       		.byte	0
 820 0072 00       		.byte	0
 821 0073 08       		.uleb128 0x8
 822 0074 34       		.uleb128 0x34
 823 0075 00       		.byte	0
 824 0076 03       		.uleb128 0x3
 825 0077 0E       		.uleb128 0xe
 826 0078 3A       		.uleb128 0x3a
 827 0079 0B       		.uleb128 0xb
 828 007a 3B       		.uleb128 0x3b
 829 007b 0B       		.uleb128 0xb
 830 007c 49       		.uleb128 0x49
 831 007d 13       		.uleb128 0x13
 832 007e 02       		.uleb128 0x2
 833 007f 18       		.uleb128 0x18
 834 0080 00       		.byte	0
 835 0081 00       		.byte	0
 836 0082 09       		.uleb128 0x9
 837 0083 2E       		.uleb128 0x2e
 838 0084 01       		.byte	0x1
 839 0085 3F       		.uleb128 0x3f
 840 0086 19       		.uleb128 0x19
 841 0087 03       		.uleb128 0x3
 842 0088 0E       		.uleb128 0xe
 843 0089 3A       		.uleb128 0x3a
 844 008a 0B       		.uleb128 0xb
 845 008b 3B       		.uleb128 0x3b
 846 008c 0B       		.uleb128 0xb
 847 008d 27       		.uleb128 0x27
 848 008e 19       		.uleb128 0x19
 849 008f 49       		.uleb128 0x49
 850 0090 13       		.uleb128 0x13
 851 0091 11       		.uleb128 0x11
 852 0092 01       		.uleb128 0x1
 853 0093 12       		.uleb128 0x12
 854 0094 06       		.uleb128 0x6
 855 0095 40       		.uleb128 0x40
 856 0096 18       		.uleb128 0x18
 857 0097 9642     		.uleb128 0x2116
 858 0099 19       		.uleb128 0x19
 859 009a 01       		.uleb128 0x1
 860 009b 13       		.uleb128 0x13
 861 009c 00       		.byte	0
 862 009d 00       		.byte	0
 863 009e 0A       		.uleb128 0xa
 864 009f 05       		.uleb128 0x5
 865 00a0 00       		.byte	0
ARM GAS  C:\Users\glenn\AppData\Local\Temp\ccUNoMJJ.s 			page 19


 866 00a1 03       		.uleb128 0x3
 867 00a2 0E       		.uleb128 0xe
 868 00a3 3A       		.uleb128 0x3a
 869 00a4 0B       		.uleb128 0xb
 870 00a5 3B       		.uleb128 0x3b
 871 00a6 0B       		.uleb128 0xb
 872 00a7 49       		.uleb128 0x49
 873 00a8 13       		.uleb128 0x13
 874 00a9 02       		.uleb128 0x2
 875 00aa 18       		.uleb128 0x18
 876 00ab 00       		.byte	0
 877 00ac 00       		.byte	0
 878 00ad 0B       		.uleb128 0xb
 879 00ae 01       		.uleb128 0x1
 880 00af 01       		.byte	0x1
 881 00b0 49       		.uleb128 0x49
 882 00b1 13       		.uleb128 0x13
 883 00b2 01       		.uleb128 0x1
 884 00b3 13       		.uleb128 0x13
 885 00b4 00       		.byte	0
 886 00b5 00       		.byte	0
 887 00b6 0C       		.uleb128 0xc
 888 00b7 21       		.uleb128 0x21
 889 00b8 00       		.byte	0
 890 00b9 49       		.uleb128 0x49
 891 00ba 13       		.uleb128 0x13
 892 00bb 2F       		.uleb128 0x2f
 893 00bc 0B       		.uleb128 0xb
 894 00bd 00       		.byte	0
 895 00be 00       		.byte	0
 896 00bf 0D       		.uleb128 0xd
 897 00c0 34       		.uleb128 0x34
 898 00c1 00       		.byte	0
 899 00c2 03       		.uleb128 0x3
 900 00c3 0E       		.uleb128 0xe
 901 00c4 3A       		.uleb128 0x3a
 902 00c5 0B       		.uleb128 0xb
 903 00c6 3B       		.uleb128 0x3b
 904 00c7 0B       		.uleb128 0xb
 905 00c8 49       		.uleb128 0x49
 906 00c9 13       		.uleb128 0x13
 907 00ca 3F       		.uleb128 0x3f
 908 00cb 19       		.uleb128 0x19
 909 00cc 02       		.uleb128 0x2
 910 00cd 18       		.uleb128 0x18
 911 00ce 00       		.byte	0
 912 00cf 00       		.byte	0
 913 00d0 00       		.byte	0
 914              		.section	.debug_aranges,"",%progbits
 915 0000 3C000000 		.4byte	0x3c
 916 0004 0200     		.2byte	0x2
 917 0006 00000000 		.4byte	.Ldebug_info0
 918 000a 04       		.byte	0x4
 919 000b 00       		.byte	0
 920 000c 0000     		.2byte	0
 921 000e 0000     		.2byte	0
 922 0010 00000000 		.4byte	.LFB64
ARM GAS  C:\Users\glenn\AppData\Local\Temp\ccUNoMJJ.s 			page 20


 923 0014 10000000 		.4byte	.LFE64-.LFB64
 924 0018 00000000 		.4byte	.LFB65
 925 001c 34000000 		.4byte	.LFE65-.LFB65
 926 0020 00000000 		.4byte	.LFB66
 927 0024 48000000 		.4byte	.LFE66-.LFB66
 928 0028 00000000 		.4byte	.LFB67
 929 002c 48000000 		.4byte	.LFE67-.LFB67
 930 0030 00000000 		.4byte	.LFB68
 931 0034 F4000000 		.4byte	.LFE68-.LFB68
 932 0038 00000000 		.4byte	0
 933 003c 00000000 		.4byte	0
 934              		.section	.debug_ranges,"",%progbits
 935              	.Ldebug_ranges0:
 936 0000 00000000 		.4byte	.LFB64
 937 0004 10000000 		.4byte	.LFE64
 938 0008 00000000 		.4byte	.LFB65
 939 000c 34000000 		.4byte	.LFE65
 940 0010 00000000 		.4byte	.LFB66
 941 0014 48000000 		.4byte	.LFE66
 942 0018 00000000 		.4byte	.LFB67
 943 001c 48000000 		.4byte	.LFE67
 944 0020 00000000 		.4byte	.LFB68
 945 0024 F4000000 		.4byte	.LFE68
 946 0028 00000000 		.4byte	0
 947 002c 00000000 		.4byte	0
 948              		.section	.debug_line,"",%progbits
 949              	.Ldebug_line0:
 950 0000 EA000000 		.section	.debug_str,"MS",%progbits,1
 950      02005E00 
 950      00000201 
 950      FB0E0D00 
 950      01010101 
 951              	.LASF25:
 952 0000 696E5F62 		.ascii	"in_buffer\000"
 952      75666665 
 952      7200
 953              	.LASF22:
 954 000a 6765745F 		.ascii	"get_modbus_data_registers\000"
 954      6D6F6462 
 954      75735F64 
 954      6174615F 
 954      72656769 
 955              	.LASF27:
 956 0024 6F75745F 		.ascii	"out_buffer\000"
 956      62756666 
 956      657200
 957              	.LASF33:
 958 002f 7274755F 		.ascii	"rtu_modbus\\process_modbus_message.c\000"
 958      6D6F6462 
 958      75735C70 
 958      726F6365 
 958      73735F6D 
 959              	.LASF20:
 960 0053 72657475 		.ascii	"return_value\000"
 960      726E5F76 
 960      616C7565 
 960      00
ARM GAS  C:\Users\glenn\AppData\Local\Temp\ccUNoMJJ.s 			page 21


 961              	.LASF35:
 962 0060 6765745F 		.ascii	"get_modbus_register_address\000"
 962      6D6F6462 
 962      75735F72 
 962      65676973 
 962      7465725F 
 963              	.LASF12:
 964 007c 666C6F61 		.ascii	"float\000"
 964      7400
 965              	.LASF1:
 966 0082 756E7369 		.ascii	"unsigned char\000"
 966      676E6564 
 966      20636861 
 966      7200
 967              	.LASF5:
 968 0090 6C6F6E67 		.ascii	"long unsigned int\000"
 968      20756E73 
 968      69676E65 
 968      6420696E 
 968      7400
 969              	.LASF31:
 970 00a2 6D6F6462 		.ascii	"modbus_registers\000"
 970      75735F72 
 970      65676973 
 970      74657273 
 970      00
 971              	.LASF3:
 972 00b3 73686F72 		.ascii	"short unsigned int\000"
 972      7420756E 
 972      7369676E 
 972      65642069 
 972      6E7400
 973              	.LASF29:
 974 00c6 6372635F 		.ascii	"crc_ok\000"
 974      6F6B00
 975              	.LASF13:
 976 00cd 646F7562 		.ascii	"double\000"
 976      6C6500
 977              	.LASF28:
 978 00d4 66756E63 		.ascii	"function_code\000"
 978      74696F6E 
 978      5F636F64 
 978      6500
 979              	.LASF32:
 980 00e2 474E5520 		.ascii	"GNU C 4.9.3 20150303 (release) [ARM/embedded-4_9-br"
 980      4320342E 
 980      392E3320 
 980      32303135 
 980      30333033 
 981 0115 616E6368 		.ascii	"anch revision 221220] -mcpu=cortex-m0 -mthumb -g -O"
 981      20726576 
 981      6973696F 
 981      6E203232 
 981      31323230 
 982 0148 30202D66 		.ascii	"0 -ffunction-sections -ffat-lto-objects\000"
 982      66756E63 
 982      74696F6E 
ARM GAS  C:\Users\glenn\AppData\Local\Temp\ccUNoMJJ.s 			page 22


 982      2D736563 
 982      74696F6E 
 983              	.LASF10:
 984 0170 75696E74 		.ascii	"uint16\000"
 984      313600
 985              	.LASF11:
 986 0177 75696E74 		.ascii	"uint32\000"
 986      333200
 987              	.LASF8:
 988 017e 756E7369 		.ascii	"unsigned int\000"
 988      676E6564 
 988      20696E74 
 988      00
 989              	.LASF19:
 990 018b 74656D70 		.ascii	"temp\000"
 990      00
 991              	.LASF7:
 992 0190 6C6F6E67 		.ascii	"long long unsigned int\000"
 992      206C6F6E 
 992      6720756E 
 992      7369676E 
 992      65642069 
 993              	.LASF36:
 994 01a7 696E6974 		.ascii	"initialize_modbus_registers\000"
 994      69616C69 
 994      7A655F6D 
 994      6F646275 
 994      735F7265 
 995              	.LASF37:
 996 01c3 6D6F6462 		.ascii	"modbus_address_data\000"
 996      75735F61 
 996      64647265 
 996      73735F64 
 996      61746100 
 997              	.LASF15:
 998 01d7 73697A65 		.ascii	"sizetype\000"
 998      74797065 
 998      00
 999              	.LASF21:
 1000 01e0 73746F72 		.ascii	"store_modbus_data_registers\000"
 1000      655F6D6F 
 1000      64627573 
 1000      5F646174 
 1000      615F7265 
 1001              	.LASF6:
 1002 01fc 6C6F6E67 		.ascii	"long long int\000"
 1002      206C6F6E 
 1002      6720696E 
 1002      7400
 1003              	.LASF14:
 1004 020a 63686172 		.ascii	"char\000"
 1004      00
 1005              	.LASF16:
 1006 020f 696E6465 		.ascii	"index\000"
 1006      7800
 1007              	.LASF2:
 1008 0215 73686F72 		.ascii	"short int\000"
ARM GAS  C:\Users\glenn\AppData\Local\Temp\ccUNoMJJ.s 			page 23


 1008      7420696E 
 1008      7400
 1009              	.LASF18:
 1010 021f 62756666 		.ascii	"buffer\000"
 1010      657200
 1011              	.LASF9:
 1012 0226 75696E74 		.ascii	"uint8\000"
 1012      3800
 1013              	.LASF23:
 1014 022c 70726F63 		.ascii	"process_modbus_message\000"
 1014      6573735F 
 1014      6D6F6462 
 1014      75735F6D 
 1014      65737361 
 1015              	.LASF4:
 1016 0243 6C6F6E67 		.ascii	"long int\000"
 1016      20696E74 
 1016      00
 1017              	.LASF17:
 1018 024c 6C656E67 		.ascii	"length\000"
 1018      746800
 1019              	.LASF34:
 1020 0253 433A5C55 		.ascii	"C:\\Users\\glenn\\OneDrive\\PSOC\\moisture_sensor_4"
 1020      73657273 
 1020      5C676C65 
 1020      6E6E5C4F 
 1020      6E654472 
 1021 0281 6D5C4D6F 		.ascii	"m\\Moisture_Sensor\\Moisture_Sensor.cydsn\000"
 1021      69737475 
 1021      72655F53 
 1021      656E736F 
 1021      725C4D6F 
 1022              	.LASF0:
 1023 02a9 7369676E 		.ascii	"signed char\000"
 1023      65642063 
 1023      68617200 
 1024              	.LASF24:
 1025 02b5 696E5F6C 		.ascii	"in_length\000"
 1025      656E6774 
 1025      6800
 1026              	.LASF30:
 1027 02bf 6F75745F 		.ascii	"out_length\000"
 1027      6C656E67 
 1027      746800
 1028              	.LASF26:
 1029 02ca 6F75745F 		.ascii	"out_buffer_length\000"
 1029      62756666 
 1029      65725F6C 
 1029      656E6774 
 1029      6800
 1030              		.ident	"GCC: (GNU Tools for ARM Embedded Processors) 4.9.3 20150303 (release) [ARM/embedded-4_9-br
