ARM GAS  C:\Users\glenn\AppData\Local\Temp\ccsf0sMb.s 			page 1


   1              		.cpu cortex-m0
   2              		.fpu softvfp
   3              		.eabi_attribute 20, 1
   4              		.eabi_attribute 21, 1
   5              		.eabi_attribute 23, 3
   6              		.eabi_attribute 24, 1
   7              		.eabi_attribute 25, 1
   8              		.eabi_attribute 26, 1
   9              		.eabi_attribute 30, 2
  10              		.eabi_attribute 34, 0
  11              		.eabi_attribute 18, 4
  12              		.code	16
  13              		.file	"process_type_24_message.c"
  14              		.text
  15              	.Ltext0:
  16              		.cfi_sections	.debug_frame
  17              		.section	.text.process_type_24_message,"ax",%progbits
  18              		.align	2
  19              		.global	process_type_24_message
  20              		.code	16
  21              		.thumb_func
  22              		.type	process_type_24_message, %function
  23              	process_type_24_message:
  24              	.LFB64:
  25              		.file 1 "rtu_modbus\\process_type_24_message.c"
   1:rtu_modbus/process_type_24_message.c **** 
   2:rtu_modbus/process_type_24_message.c **** /*
   3:rtu_modbus/process_type_24_message.c **** **   File: "process_type_24_message.h"
   4:rtu_modbus/process_type_24_message.c **** **
   5:rtu_modbus/process_type_24_message.c **** **
   6:rtu_modbus/process_type_24_message.c **** Type 24 Query FIFO
   7:rtu_modbus/process_type_24_message.c ****     
   8:rtu_modbus/process_type_24_message.c **** Query
   9:rtu_modbus/process_type_24_message.c **** Slave Address 11
  10:rtu_modbus/process_type_24_message.c **** Function 18
  11:rtu_modbus/process_type_24_message.c **** FIFO Pointer Address Hi 04
  12:rtu_modbus/process_type_24_message.c **** FIFO Pointer Address Lo DE
  13:rtu_modbus/process_type_24_message.c **** Error Check (LRC or CRC) ––
  14:rtu_modbus/process_type_24_message.c **** 
  15:rtu_modbus/process_type_24_message.c **** Response
  16:rtu_modbus/process_type_24_message.c **** Slave Address 11
  17:rtu_modbus/process_type_24_message.c **** Function 18
  18:rtu_modbus/process_type_24_message.c **** Byte Count Hi 00
  19:rtu_modbus/process_type_24_message.c **** Byte Count Lo 08
  20:rtu_modbus/process_type_24_message.c **** FIFO Count Hi 00
  21:rtu_modbus/process_type_24_message.c **** FIFO Count Lo 03
  22:rtu_modbus/process_type_24_message.c **** FIFO Data Reg 1 Hi 01
  23:rtu_modbus/process_type_24_message.c **** FIFO Data Reg 1 Lo B8
  24:rtu_modbus/process_type_24_message.c **** FIFO Data Reg 2 Hi 12
  25:rtu_modbus/process_type_24_message.c **** FIFO Data Reg 2 Lo 84
  26:rtu_modbus/process_type_24_message.c **** FIFO Data Reg 3 Hi 13
  27:rtu_modbus/process_type_24_message.c **** FIFO Data Reg 3 Lo 22
  28:rtu_modbus/process_type_24_message.c **** Error Check (LRC or CRC) ––
  29:rtu_modbus/process_type_24_message.c **** */
  30:rtu_modbus/process_type_24_message.c **** 
  31:rtu_modbus/process_type_24_message.c **** 
  32:rtu_modbus/process_type_24_message.c **** 
ARM GAS  C:\Users\glenn\AppData\Local\Temp\ccsf0sMb.s 			page 2


  33:rtu_modbus/process_type_24_message.c **** 
  34:rtu_modbus/process_type_24_message.c **** #include <project.h>
  35:rtu_modbus/process_type_24_message.c **** #include "process_type_24_message.h" 
  36:rtu_modbus/process_type_24_message.c **** #include "modbus_utilities.h"
  37:rtu_modbus/process_type_24_message.c **** #include "event_fifo.h"
  38:rtu_modbus/process_type_24_message.c **** 
  39:rtu_modbus/process_type_24_message.c **** #define MAX_FIFO_NUMBER 10
  40:rtu_modbus/process_type_24_message.c **** 
  41:rtu_modbus/process_type_24_message.c **** int process_type_24_message( int in_length, uint8 *in, int out_length, uint8 *out )
  42:rtu_modbus/process_type_24_message.c **** {
  26              		.loc 1 42 0
  27              		.cfi_startproc
  28              	.LVL0:
  29 0000 F0B5     		push	{r4, r5, r6, r7, lr}
  30              		.cfi_def_cfa_offset 20
  31              		.cfi_offset 4, -20
  32              		.cfi_offset 5, -16
  33              		.cfi_offset 6, -12
  34              		.cfi_offset 7, -8
  35              		.cfi_offset 14, -4
  36 0002 4F46     		mov	r7, r9
  37 0004 4646     		mov	r6, r8
  38 0006 C0B4     		push	{r6, r7}
  39              		.cfi_def_cfa_offset 28
  40              		.cfi_offset 8, -28
  41              		.cfi_offset 9, -24
  43:rtu_modbus/process_type_24_message.c ****     unsigned fifo_number;
  44:rtu_modbus/process_type_24_message.c ****     uint16 event_data;
  45:rtu_modbus/process_type_24_message.c ****     unsigned i;
  46:rtu_modbus/process_type_24_message.c ****     uint16 event_id;
  47:rtu_modbus/process_type_24_message.c ****     unsigned queue_index;
  48:rtu_modbus/process_type_24_message.c ****     uint16   *temp_ptr;
  49:rtu_modbus/process_type_24_message.c ****     
  50:rtu_modbus/process_type_24_message.c ****     temp_ptr = (uint16 *)out;
  51:rtu_modbus/process_type_24_message.c ****     queue_index  = (*in++)*256;
  42              		.loc 1 51 0
  43 0008 0F78     		ldrb	r7, [r1]
  42:rtu_modbus/process_type_24_message.c ****     unsigned fifo_number;
  44              		.loc 1 42 0
  45 000a 1D1C     		mov	r5, r3
  46              	.LVL1:
  52:rtu_modbus/process_type_24_message.c ****     queue_index  += (*in);
  47              		.loc 1 52 0
  48 000c 4B78     		ldrb	r3, [r1, #1]
  49              	.LVL2:
  42:rtu_modbus/process_type_24_message.c ****     unsigned fifo_number;
  50              		.loc 1 42 0
  51 000e 85B0     		sub	sp, sp, #20
  52              		.cfi_def_cfa_offset 48
  51:rtu_modbus/process_type_24_message.c ****     queue_index  += (*in);
  53              		.loc 1 51 0
  54 0010 3F02     		lsl	r7, r7, #8
  55              	.LVL3:
  56              		.loc 1 52 0
  57 0012 FF18     		add	r7, r7, r3
  58              	.LVL4:
  53:rtu_modbus/process_type_24_message.c ****     if( queue_index >= EF_number_of_queues() )
ARM GAS  C:\Users\glenn\AppData\Local\Temp\ccsf0sMb.s 			page 3


  59              		.loc 1 53 0
  60 0014 FFF7FEFF 		bl	EF_number_of_queues
  61              	.LVL5:
  62 0018 031C     		mov	r3, r0
  54:rtu_modbus/process_type_24_message.c ****     {
  55:rtu_modbus/process_type_24_message.c ****         return 0;
  63              		.loc 1 55 0
  64 001a 0020     		mov	r0, #0
  53:rtu_modbus/process_type_24_message.c ****     if( queue_index >= EF_number_of_queues() )
  65              		.loc 1 53 0
  66 001c 9F42     		cmp	r7, r3
  67 001e 04D3     		bcc	.L10
  68              	.LVL6:
  69              	.L2:
  56:rtu_modbus/process_type_24_message.c ****     }
  57:rtu_modbus/process_type_24_message.c ****     
  58:rtu_modbus/process_type_24_message.c ****     fifo_number = EF_elements_in_queue( queue_index );
  59:rtu_modbus/process_type_24_message.c ****     if( fifo_number > MAX_FIFO_NUMBER )
  60:rtu_modbus/process_type_24_message.c ****     {
  61:rtu_modbus/process_type_24_message.c ****         fifo_number = MAX_FIFO_NUMBER;
  62:rtu_modbus/process_type_24_message.c ****     }
  63:rtu_modbus/process_type_24_message.c ****     /*
  64:rtu_modbus/process_type_24_message.c ****     ** Write out byte count
  65:rtu_modbus/process_type_24_message.c ****     **
  66:rtu_modbus/process_type_24_message.c ****     */
  67:rtu_modbus/process_type_24_message.c ****     *temp_ptr = fifo_number *4;
  68:rtu_modbus/process_type_24_message.c ****     swap_16( (uint8 *)temp_ptr++ );
  69:rtu_modbus/process_type_24_message.c ****     /*
  70:rtu_modbus/process_type_24_message.c ****     ** Write out fifo number 
  71:rtu_modbus/process_type_24_message.c ****     */
  72:rtu_modbus/process_type_24_message.c ****     *temp_ptr = fifo_number *2;
  73:rtu_modbus/process_type_24_message.c ****     swap_16( (uint8 *)temp_ptr++ );
  74:rtu_modbus/process_type_24_message.c ****     
  75:rtu_modbus/process_type_24_message.c **** 
  76:rtu_modbus/process_type_24_message.c ****  
  77:rtu_modbus/process_type_24_message.c ****     for( i= 0; i < fifo_number; i ++)
  78:rtu_modbus/process_type_24_message.c ****     {
  79:rtu_modbus/process_type_24_message.c ****         EF_dequeue_element( queue_index, &event_id, &event_data );
  80:rtu_modbus/process_type_24_message.c ****         *temp_ptr = event_id ;
  81:rtu_modbus/process_type_24_message.c ****         swap_16( (uint8 *)temp_ptr++ );
  82:rtu_modbus/process_type_24_message.c ****         *temp_ptr = event_data;
  83:rtu_modbus/process_type_24_message.c ****          swap_16( (uint8 *)temp_ptr++ );
  84:rtu_modbus/process_type_24_message.c **** 
  85:rtu_modbus/process_type_24_message.c ****     }
  86:rtu_modbus/process_type_24_message.c ****     return fifo_number*4+4;
  87:rtu_modbus/process_type_24_message.c **** }    
  70              		.loc 1 87 0
  71 0020 05B0     		add	sp, sp, #20
  72              		@ sp needed
  73              	.LVL7:
  74 0022 0CBC     		pop	{r2, r3}
  75 0024 9046     		mov	r8, r2
  76 0026 9946     		mov	r9, r3
  77 0028 F0BD     		pop	{r4, r5, r6, r7, pc}
  78              	.LVL8:
  79              	.L10:
  58:rtu_modbus/process_type_24_message.c ****     if( fifo_number > MAX_FIFO_NUMBER )
ARM GAS  C:\Users\glenn\AppData\Local\Temp\ccsf0sMb.s 			page 4


  80              		.loc 1 58 0
  81 002a 381C     		mov	r0, r7
  82 002c FFF7FEFF 		bl	EF_elements_in_queue
  83              	.LVL9:
  84 0030 8046     		mov	r8, r0
  85              	.LVL10:
  86 0032 0A28     		cmp	r0, #10
  87 0034 2AD8     		bhi	.L11
  88              	.L3:
  89              	.LVL11:
  67:rtu_modbus/process_type_24_message.c ****     swap_16( (uint8 *)temp_ptr++ );
  90              		.loc 1 67 0
  91 0036 6A46     		mov	r2, sp
  92 0038 4346     		mov	r3, r8
  93 003a D380     		strh	r3, [r2, #6]
  94 003c D388     		ldrh	r3, [r2, #6]
  73:rtu_modbus/process_type_24_message.c ****     
  95              		.loc 1 73 0
  96 003e 2C1D     		add	r4, r5, #4
  67:rtu_modbus/process_type_24_message.c ****     swap_16( (uint8 *)temp_ptr++ );
  97              		.loc 1 67 0
  98 0040 9A00     		lsl	r2, r3, #2
  99              	.LVL12:
  72:rtu_modbus/process_type_24_message.c ****     swap_16( (uint8 *)temp_ptr++ );
 100              		.loc 1 72 0
 101 0042 5B00     		lsl	r3, r3, #1
 102              	.LVL13:
 103              	.LBB10:
 104              	.LBB11:
 105              		.file 2 "rtu_modbus\\modbus_utilities.h"
   1:rtu_modbus/modbus_utilities.h **** /*
   2:rtu_modbus/modbus_utilities.h **** **
   3:rtu_modbus/modbus_utilities.h **** ** File: modbus_utilities.h
   4:rtu_modbus/modbus_utilities.h **** ** File for shuffling bytes for network ordering
   5:rtu_modbus/modbus_utilities.h **** **
   6:rtu_modbus/modbus_utilities.h **** **
   7:rtu_modbus/modbus_utilities.h **** **
   8:rtu_modbus/modbus_utilities.h **** */
   9:rtu_modbus/modbus_utilities.h **** 
  10:rtu_modbus/modbus_utilities.h **** #ifndef _MODBUS_UTILITES_H_
  11:rtu_modbus/modbus_utilities.h **** #define _MODBUS_UTILITES_H_
  12:rtu_modbus/modbus_utilities.h **** 
  13:rtu_modbus/modbus_utilities.h **** #include <project.h>
  14:rtu_modbus/modbus_utilities.h ****   
  15:rtu_modbus/modbus_utilities.h **** 
  16:rtu_modbus/modbus_utilities.h **** 
  17:rtu_modbus/modbus_utilities.h ****     
  18:rtu_modbus/modbus_utilities.h **** static inline void swap_16( uint8 *input )
  19:rtu_modbus/modbus_utilities.h **** {
  20:rtu_modbus/modbus_utilities.h ****     uint8 temp;
  21:rtu_modbus/modbus_utilities.h ****     uint8 *swap_ptr;
  22:rtu_modbus/modbus_utilities.h ****     
  23:rtu_modbus/modbus_utilities.h ****     swap_ptr = input+1;
  24:rtu_modbus/modbus_utilities.h ****     temp     = *input;
  25:rtu_modbus/modbus_utilities.h ****     *input   = *swap_ptr;
 106              		.loc 2 25 0
 107 0044 110A     		lsr	r1, r2, #8
ARM GAS  C:\Users\glenn\AppData\Local\Temp\ccsf0sMb.s 			page 5


  26:rtu_modbus/modbus_utilities.h ****     *swap_ptr = temp;
 108              		.loc 2 26 0
 109 0046 6A70     		strb	r2, [r5, #1]
 110              	.LBE11:
 111              	.LBE10:
 112              	.LBB13:
 113              	.LBB14:
 114 0048 EB70     		strb	r3, [r5, #3]
 115              	.LVL14:
  25:rtu_modbus/modbus_utilities.h ****     *swap_ptr = temp;
 116              		.loc 2 25 0
 117 004a 1A0A     		lsr	r2, r3, #8
 118              	.LVL15:
 119              	.LBE14:
 120              	.LBE13:
  77:rtu_modbus/process_type_24_message.c ****     {
 121              		.loc 1 77 0
 122 004c 4346     		mov	r3, r8
 123              	.LVL16:
 124              	.LBB16:
 125              	.LBB12:
  25:rtu_modbus/modbus_utilities.h ****     *swap_ptr = temp;
 126              		.loc 2 25 0
 127 004e 2970     		strb	r1, [r5]
 128              	.LBE12:
 129              	.LBE16:
 130              	.LBB17:
 131              	.LBB15:
 132 0050 AA70     		strb	r2, [r5, #2]
 133              	.LBE15:
 134              	.LBE17:
  77:rtu_modbus/process_type_24_message.c ****     {
 135              		.loc 1 77 0
 136 0052 002B     		cmp	r3, #0
 137 0054 16D0     		beq	.L6
 138 0056 4346     		mov	r3, r8
 139 0058 9B00     		lsl	r3, r3, #2
 140 005a 9946     		mov	r9, r3
 141 005c 02AB     		add	r3, sp, #8
 142 005e A144     		add	r9, r9, r4
 143 0060 9E1D     		add	r6, r3, #6
 144 0062 03AD     		add	r5, sp, #12
 145              	.LVL17:
 146              	.L5:
  79:rtu_modbus/process_type_24_message.c ****         *temp_ptr = event_id ;
 147              		.loc 1 79 0 discriminator 3
 148 0064 2A1C     		mov	r2, r5
 149 0066 381C     		mov	r0, r7
 150 0068 311C     		mov	r1, r6
 151 006a FFF7FEFF 		bl	EF_dequeue_element
 152              	.LVL18:
  80:rtu_modbus/process_type_24_message.c ****         swap_16( (uint8 *)temp_ptr++ );
 153              		.loc 1 80 0 discriminator 3
 154 006e 3388     		ldrh	r3, [r6]
 155              	.LVL19:
 156              	.LBB18:
 157              	.LBB19:
ARM GAS  C:\Users\glenn\AppData\Local\Temp\ccsf0sMb.s 			page 6


  25:rtu_modbus/modbus_utilities.h ****     *swap_ptr = temp;
 158              		.loc 2 25 0 discriminator 3
 159 0070 1A0A     		lsr	r2, r3, #8
 160              		.loc 2 26 0 discriminator 3
 161 0072 6370     		strb	r3, [r4, #1]
 162              	.LBE19:
 163              	.LBE18:
  82:rtu_modbus/process_type_24_message.c ****          swap_16( (uint8 *)temp_ptr++ );
 164              		.loc 1 82 0 discriminator 3
 165 0074 2B88     		ldrh	r3, [r5]
 166              	.LVL20:
 167              	.LBB21:
 168              	.LBB20:
  25:rtu_modbus/modbus_utilities.h ****     *swap_ptr = temp;
 169              		.loc 2 25 0 discriminator 3
 170 0076 2270     		strb	r2, [r4]
 171              	.LBE20:
 172              	.LBE21:
 173              	.LBB22:
 174              	.LBB23:
 175 0078 1A0A     		lsr	r2, r3, #8
 176 007a A270     		strb	r2, [r4, #2]
 177              		.loc 2 26 0 discriminator 3
 178 007c E370     		strb	r3, [r4, #3]
 179 007e 0434     		add	r4, r4, #4
 180              	.LVL21:
 181              	.LBE23:
 182              	.LBE22:
  77:rtu_modbus/process_type_24_message.c ****     {
 183              		.loc 1 77 0 discriminator 3
 184 0080 4C45     		cmp	r4, r9
 185 0082 EFD1     		bne	.L5
 186              	.LVL22:
 187              	.L6:
  86:rtu_modbus/process_type_24_message.c **** }    
 188              		.loc 1 86 0
 189 0084 4046     		mov	r0, r8
 190 0086 0130     		add	r0, r0, #1
 191 0088 8000     		lsl	r0, r0, #2
 192 008a C9E7     		b	.L2
 193              	.LVL23:
 194              	.L11:
 195 008c 0A23     		mov	r3, #10
 196 008e 9846     		mov	r8, r3
 197 0090 D1E7     		b	.L3
 198              		.cfi_endproc
 199              	.LFE64:
 200              		.size	process_type_24_message, .-process_type_24_message
 201 0092 C046     		.text
 202              	.Letext0:
 203              		.file 3 "Generated_Source\\PSoC4/cytypes.h"
 204              		.file 4 ".\\event_fifo/event_fifo.h"