ARM GAS  C:\Users\glenn\AppData\Local\Temp\ccrvLhU4.s 			page 1


   1              		.cpu cortex-m0
   2              		.fpu softvfp
   3              		.eabi_attribute 20, 1
   4              		.eabi_attribute 21, 1
   5              		.eabi_attribute 23, 3
   6              		.eabi_attribute 24, 1
   7              		.eabi_attribute 25, 1
   8              		.eabi_attribute 26, 1
   9              		.eabi_attribute 30, 2
  10              		.eabi_attribute 34, 0
  11              		.eabi_attribute 18, 4
  12              		.code	16
  13              		.file	"process_type_3_message.c"
  14              		.text
  15              	.Ltext0:
  16              		.cfi_sections	.debug_frame
  17              		.section	.text.process_type_3_message,"ax",%progbits
  18              		.align	2
  19              		.global	process_type_3_message
  20              		.code	16
  21              		.thumb_func
  22              		.type	process_type_3_message, %function
  23              	process_type_3_message:
  24              	.LFB66:
  25              		.file 1 "rtu_modbus\\process_type_3_message.c"
   1:rtu_modbus/process_type_3_message.c **** /*
   2:rtu_modbus/process_type_3_message.c **** **
   3:rtu_modbus/process_type_3_message.c **** ** File: process_type_3_message.c
   4:rtu_modbus/process_type_3_message.c **** 
   5:rtu_modbus/process_type_3_message.c **** Type 3 message
   6:rtu_modbus/process_type_3_message.c **** Query
   7:rtu_modbus/process_type_3_message.c **** Field Name (Hex)
   8:rtu_modbus/process_type_3_message.c **** Slave Address 11
   9:rtu_modbus/process_type_3_message.c **** Function 03
  10:rtu_modbus/process_type_3_message.c **** Starting Address Hi 00
  11:rtu_modbus/process_type_3_message.c **** Starting Address Lo 6B
  12:rtu_modbus/process_type_3_message.c **** No. of Points Hi 00
  13:rtu_modbus/process_type_3_message.c **** No. of Points Lo 03
  14:rtu_modbus/process_type_3_message.c **** Error Check (LRC or CRC) ––
  15:rtu_modbus/process_type_3_message.c **** 
  16:rtu_modbus/process_type_3_message.c ****     
  17:rtu_modbus/process_type_3_message.c **** Response
  18:rtu_modbus/process_type_3_message.c **** Slave Address 11
  19:rtu_modbus/process_type_3_message.c **** Function 03
  20:rtu_modbus/process_type_3_message.c **** Byte Count 06
  21:rtu_modbus/process_type_3_message.c **** Data Hi (Register 40108) 02
  22:rtu_modbus/process_type_3_message.c **** Data Lo (Register 40108) 2B
  23:rtu_modbus/process_type_3_message.c **** Data Hi (Register 40109) 00
  24:rtu_modbus/process_type_3_message.c **** Data Lo (Register 40109) 00
  25:rtu_modbus/process_type_3_message.c **** Data Hi (Register 40110) 00
  26:rtu_modbus/process_type_3_message.c **** Data Lo (Register 40110) 64
  27:rtu_modbus/process_type_3_message.c **** Error Check (LRC or CRC) ––
  28:rtu_modbus/process_type_3_message.c **** 
  29:rtu_modbus/process_type_3_message.c **** **
  30:rtu_modbus/process_type_3_message.c **** **
  31:rtu_modbus/process_type_3_message.c **** */
  32:rtu_modbus/process_type_3_message.c ****  
ARM GAS  C:\Users\glenn\AppData\Local\Temp\ccrvLhU4.s 			page 2


  33:rtu_modbus/process_type_3_message.c **** #include <project.h>
  34:rtu_modbus/process_type_3_message.c **** #include "process_type_3_message.h" 
  35:rtu_modbus/process_type_3_message.c **** 
  36:rtu_modbus/process_type_3_message.c **** #include "modbus_utilities.h"
  37:rtu_modbus/process_type_3_message.c **** #include "process_modbus_message.h"
  38:rtu_modbus/process_type_3_message.c **** 
  39:rtu_modbus/process_type_3_message.c **** 
  40:rtu_modbus/process_type_3_message.c **** 
  41:rtu_modbus/process_type_3_message.c **** int process_type_3_message( int in_length, uint8 *in, int out_length, uint8 *out )
  42:rtu_modbus/process_type_3_message.c **** {
  26              		.loc 1 42 0
  27              		.cfi_startproc
  28              	.LVL0:
  29 0000 F8B5     		push	{r3, r4, r5, r6, r7, lr}
  30              		.cfi_def_cfa_offset 24
  31              		.cfi_offset 3, -24
  32              		.cfi_offset 4, -20
  33              		.cfi_offset 5, -16
  34              		.cfi_offset 6, -12
  35              		.cfi_offset 7, -8
  36              		.cfi_offset 14, -4
  43:rtu_modbus/process_type_3_message.c **** 
  44:rtu_modbus/process_type_3_message.c ****     unsigned starting_register;
  45:rtu_modbus/process_type_3_message.c ****     int number;
  46:rtu_modbus/process_type_3_message.c ****     int i;
  47:rtu_modbus/process_type_3_message.c ****  
  48:rtu_modbus/process_type_3_message.c ****     
  49:rtu_modbus/process_type_3_message.c ****     
  50:rtu_modbus/process_type_3_message.c ****     
  51:rtu_modbus/process_type_3_message.c ****     
  52:rtu_modbus/process_type_3_message.c ****     starting_register = (*in++)*256;
  37              		.loc 1 52 0
  38 0002 0878     		ldrb	r0, [r1]
  39              	.LVL1:
  53:rtu_modbus/process_type_3_message.c ****     starting_register += (*in++);
  54:rtu_modbus/process_type_3_message.c ****     number = (*in++)*256;
  40              		.loc 1 54 0
  41 0004 8D78     		ldrb	r5, [r1, #2]
  52:rtu_modbus/process_type_3_message.c ****     starting_register += (*in++);
  42              		.loc 1 52 0
  43 0006 8446     		mov	ip, r0
  44              	.LVL2:
  53:rtu_modbus/process_type_3_message.c ****     starting_register += (*in++);
  45              		.loc 1 53 0
  46 0008 4878     		ldrb	r0, [r1, #1]
  47              	.LVL3:
  55:rtu_modbus/process_type_3_message.c ****     number += (*in++);
  48              		.loc 1 55 0
  49 000a C978     		ldrb	r1, [r1, #3]
  50              	.LVL4:
  54:rtu_modbus/process_type_3_message.c ****     number += (*in++);
  51              		.loc 1 54 0
  52 000c 2D02     		lsl	r5, r5, #8
  53              	.LVL5:
  54              		.loc 1 55 0
  55 000e 4D19     		add	r5, r1, r5
  56              	.LVL6:
ARM GAS  C:\Users\glenn\AppData\Local\Temp\ccrvLhU4.s 			page 3


  56:rtu_modbus/process_type_3_message.c ****     // check for storeage
  57:rtu_modbus/process_type_3_message.c ****     if( out_length < (int)(number *2))
  57              		.loc 1 57 0
  58 0010 6E00     		lsl	r6, r5, #1
  59 0012 9642     		cmp	r6, r2
  60 0014 01DD     		ble	.L2
  61              	.LVL7:
  62              	.L4:
  58:rtu_modbus/process_type_3_message.c ****     {
  59:rtu_modbus/process_type_3_message.c ****         return 0;
  63              		.loc 1 59 0
  64 0016 0020     		mov	r0, #0
  65              	.L3:
  60:rtu_modbus/process_type_3_message.c ****     }
  61:rtu_modbus/process_type_3_message.c ****     *out++ = number*2;
  62:rtu_modbus/process_type_3_message.c ****     if( get_modbus_data_registers( starting_register, number, (uint16 *) out ) == 0 )
  63:rtu_modbus/process_type_3_message.c ****     {
  64:rtu_modbus/process_type_3_message.c ****         return 0;
  65:rtu_modbus/process_type_3_message.c ****     }
  66:rtu_modbus/process_type_3_message.c ****     // now swap bytes
  67:rtu_modbus/process_type_3_message.c ****     for( i = 0; i< number; i++)
  68:rtu_modbus/process_type_3_message.c ****     {
  69:rtu_modbus/process_type_3_message.c ****         swap_16(out);
  70:rtu_modbus/process_type_3_message.c ****         out += 2;
  71:rtu_modbus/process_type_3_message.c ****     }
  72:rtu_modbus/process_type_3_message.c ****     return   (number*2) +1;  
  73:rtu_modbus/process_type_3_message.c ****     
  74:rtu_modbus/process_type_3_message.c **** }
  66              		.loc 1 74 0
  67              		@ sp needed
  68              	.LVL8:
  69 0018 F8BD     		pop	{r3, r4, r5, r6, r7, pc}
  70              	.LVL9:
  71              	.L2:
  61:rtu_modbus/process_type_3_message.c ****     if( get_modbus_data_registers( starting_register, number, (uint16 *) out ) == 0 )
  72              		.loc 1 61 0
  73 001a 5C1C     		add	r4, r3, #1
  74              	.LVL10:
  75 001c 1F1C     		mov	r7, r3
  76 001e 1E70     		strb	r6, [r3]
  52:rtu_modbus/process_type_3_message.c ****     starting_register += (*in++);
  77              		.loc 1 52 0
  78 0020 6346     		mov	r3, ip
  79 0022 1B02     		lsl	r3, r3, #8
  53:rtu_modbus/process_type_3_message.c ****     number = (*in++)*256;
  80              		.loc 1 53 0
  81 0024 1818     		add	r0, r3, r0
  82              	.LVL11:
  62:rtu_modbus/process_type_3_message.c ****     {
  83              		.loc 1 62 0
  84 0026 291C     		mov	r1, r5
  85 0028 221C     		mov	r2, r4
  86              	.LVL12:
  87 002a FFF7FEFF 		bl	get_modbus_data_registers
  88              	.LVL13:
  89 002e 0028     		cmp	r0, #0
  90 0030 F1D0     		beq	.L4
ARM GAS  C:\Users\glenn\AppData\Local\Temp\ccrvLhU4.s 			page 4


  91              	.LVL14:
  92 0032 701C     		add	r0, r6, #1
  93 0034 3B18     		add	r3, r7, r0
  67:rtu_modbus/process_type_3_message.c ****     {
  94              		.loc 1 67 0 discriminator 1
  95 0036 002D     		cmp	r5, #0
  96 0038 EED0     		beq	.L3
  97              	.LVL15:
  98              	.L10:
  99              	.LBB4:
 100              	.LBB5:
 101              		.file 2 "rtu_modbus\\modbus_utilities.h"
   1:rtu_modbus/modbus_utilities.h **** /*
   2:rtu_modbus/modbus_utilities.h **** **
   3:rtu_modbus/modbus_utilities.h **** ** File: modbus_utilities.h
   4:rtu_modbus/modbus_utilities.h **** ** File for shuffling bytes for network ordering
   5:rtu_modbus/modbus_utilities.h **** **
   6:rtu_modbus/modbus_utilities.h **** **
   7:rtu_modbus/modbus_utilities.h **** **
   8:rtu_modbus/modbus_utilities.h **** */
   9:rtu_modbus/modbus_utilities.h **** 
  10:rtu_modbus/modbus_utilities.h **** #ifndef _MODBUS_UTILITES_H_
  11:rtu_modbus/modbus_utilities.h **** #define _MODBUS_UTILITES_H_
  12:rtu_modbus/modbus_utilities.h **** 
  13:rtu_modbus/modbus_utilities.h **** #include <project.h>
  14:rtu_modbus/modbus_utilities.h ****   
  15:rtu_modbus/modbus_utilities.h **** 
  16:rtu_modbus/modbus_utilities.h **** 
  17:rtu_modbus/modbus_utilities.h ****     
  18:rtu_modbus/modbus_utilities.h **** static inline void swap_16( uint8 *input )
  19:rtu_modbus/modbus_utilities.h **** {
  20:rtu_modbus/modbus_utilities.h ****     uint8 temp;
  21:rtu_modbus/modbus_utilities.h ****     uint8 *swap_ptr;
  22:rtu_modbus/modbus_utilities.h ****     
  23:rtu_modbus/modbus_utilities.h ****     swap_ptr = input+1;
  24:rtu_modbus/modbus_utilities.h ****     temp     = *input;
 102              		.loc 2 24 0
 103 003a 2278     		ldrb	r2, [r4]
 104              	.LVL16:
  25:rtu_modbus/modbus_utilities.h ****     *input   = *swap_ptr;
 105              		.loc 2 25 0
 106 003c 6178     		ldrb	r1, [r4, #1]
  26:rtu_modbus/modbus_utilities.h ****     *swap_ptr = temp;
 107              		.loc 2 26 0
 108 003e 6270     		strb	r2, [r4, #1]
  25:rtu_modbus/modbus_utilities.h ****     *input   = *swap_ptr;
 109              		.loc 2 25 0
 110 0040 2170     		strb	r1, [r4]
 111              	.LBE5:
 112              	.LBE4:
  70:rtu_modbus/process_type_3_message.c ****     }
 113              		.loc 1 70 0
 114 0042 0234     		add	r4, r4, #2
 115              	.LVL17:
  67:rtu_modbus/process_type_3_message.c ****     {
 116              		.loc 1 67 0
 117 0044 9C42     		cmp	r4, r3
ARM GAS  C:\Users\glenn\AppData\Local\Temp\ccrvLhU4.s 			page 5


 118 0046 F8D1     		bne	.L10
 119 0048 E6E7     		b	.L3
 120              		.cfi_endproc
 121              	.LFE66:
 122              		.size	process_type_3_message, .-process_type_3_message
 123 004a C046     		.text
 124              	.Letext0:
 125              		.file 3 "Generated_Source\\PSoC4/cytypes.h"
 126              		.file 4 "rtu_modbus\\process_modbus_message.h"