ARM GAS  C:\Users\glenn\AppData\Local\Temp\ccNOMZ3x.s 			page 1


   1              		.cpu cortex-m0
   2              		.fpu softvfp
   3              		.eabi_attribute 20, 1
   4              		.eabi_attribute 21, 1
   5              		.eabi_attribute 23, 3
   6              		.eabi_attribute 24, 1
   7              		.eabi_attribute 25, 1
   8              		.eabi_attribute 26, 1
   9              		.eabi_attribute 30, 1
  10              		.eabi_attribute 34, 0
  11              		.eabi_attribute 18, 4
  12              		.code	16
  13              		.file	"UART_1_UART.c"
  14              		.text
  15              	.Ltext0:
  16              		.cfi_sections	.debug_frame
  17              		.section	.text.UART_1_UartInit,"ax",%progbits
  18              		.align	2
  19              		.global	UART_1_UartInit
  20              		.code	16
  21              		.thumb_func
  22              		.type	UART_1_UartInit, %function
  23              	UART_1_UartInit:
  24              	.LFB1:
  25              		.file 1 ".\\Generated_Source\\PSoC4\\UART_1_UART.c"
   1:.\Generated_Source\PSoC4/UART_1_UART.c **** /***************************************************************************//**
   2:.\Generated_Source\PSoC4/UART_1_UART.c **** * \file UART_1_UART.c
   3:.\Generated_Source\PSoC4/UART_1_UART.c **** * \version 3.20
   4:.\Generated_Source\PSoC4/UART_1_UART.c **** *
   5:.\Generated_Source\PSoC4/UART_1_UART.c **** * \brief
   6:.\Generated_Source\PSoC4/UART_1_UART.c **** *  This file provides the source code to the API for the SCB Component in
   7:.\Generated_Source\PSoC4/UART_1_UART.c **** *  UART mode.
   8:.\Generated_Source\PSoC4/UART_1_UART.c **** *
   9:.\Generated_Source\PSoC4/UART_1_UART.c **** * Note:
  10:.\Generated_Source\PSoC4/UART_1_UART.c **** *
  11:.\Generated_Source\PSoC4/UART_1_UART.c **** *******************************************************************************
  12:.\Generated_Source\PSoC4/UART_1_UART.c **** * \copyright
  13:.\Generated_Source\PSoC4/UART_1_UART.c **** * Copyright 2013-2016, Cypress Semiconductor Corporation.  All rights reserved.
  14:.\Generated_Source\PSoC4/UART_1_UART.c **** * You may use this file only in accordance with the license, terms, conditions,
  15:.\Generated_Source\PSoC4/UART_1_UART.c **** * disclaimers, and limitations in the end user license agreement accompanying
  16:.\Generated_Source\PSoC4/UART_1_UART.c **** * the software package with which this file was provided.
  17:.\Generated_Source\PSoC4/UART_1_UART.c **** *******************************************************************************/
  18:.\Generated_Source\PSoC4/UART_1_UART.c **** 
  19:.\Generated_Source\PSoC4/UART_1_UART.c **** #include "UART_1_PVT.h"
  20:.\Generated_Source\PSoC4/UART_1_UART.c **** #include "UART_1_SPI_UART_PVT.h"
  21:.\Generated_Source\PSoC4/UART_1_UART.c **** #include "cyapicallbacks.h"
  22:.\Generated_Source\PSoC4/UART_1_UART.c **** 
  23:.\Generated_Source\PSoC4/UART_1_UART.c **** #if (UART_1_UART_WAKE_ENABLE_CONST && UART_1_UART_RX_WAKEUP_IRQ)
  24:.\Generated_Source\PSoC4/UART_1_UART.c ****     /**
  25:.\Generated_Source\PSoC4/UART_1_UART.c ****     * \addtogroup group_globals
  26:.\Generated_Source\PSoC4/UART_1_UART.c ****     * \{
  27:.\Generated_Source\PSoC4/UART_1_UART.c ****     */
  28:.\Generated_Source\PSoC4/UART_1_UART.c ****     /** This global variable determines whether to enable Skip Start
  29:.\Generated_Source\PSoC4/UART_1_UART.c ****     * functionality when UART_1_Sleep() function is called:
  30:.\Generated_Source\PSoC4/UART_1_UART.c ****     * 0 – disable, other values – enable. Default value is 1.
  31:.\Generated_Source\PSoC4/UART_1_UART.c ****     * It is only available when Enable wakeup from Deep Sleep Mode is enabled.
  32:.\Generated_Source\PSoC4/UART_1_UART.c ****     */
ARM GAS  C:\Users\glenn\AppData\Local\Temp\ccNOMZ3x.s 			page 2


  33:.\Generated_Source\PSoC4/UART_1_UART.c ****     uint8 UART_1_skipStart = 1u;
  34:.\Generated_Source\PSoC4/UART_1_UART.c ****     /** \} globals */
  35:.\Generated_Source\PSoC4/UART_1_UART.c **** #endif /* (UART_1_UART_WAKE_ENABLE_CONST && UART_1_UART_RX_WAKEUP_IRQ) */
  36:.\Generated_Source\PSoC4/UART_1_UART.c **** 
  37:.\Generated_Source\PSoC4/UART_1_UART.c **** #if(UART_1_SCB_MODE_UNCONFIG_CONST_CFG)
  38:.\Generated_Source\PSoC4/UART_1_UART.c **** 
  39:.\Generated_Source\PSoC4/UART_1_UART.c ****     /***************************************
  40:.\Generated_Source\PSoC4/UART_1_UART.c ****     *  Configuration Structure Initialization
  41:.\Generated_Source\PSoC4/UART_1_UART.c ****     ***************************************/
  42:.\Generated_Source\PSoC4/UART_1_UART.c **** 
  43:.\Generated_Source\PSoC4/UART_1_UART.c ****     const UART_1_UART_INIT_STRUCT UART_1_configUart =
  44:.\Generated_Source\PSoC4/UART_1_UART.c ****     {
  45:.\Generated_Source\PSoC4/UART_1_UART.c ****         UART_1_UART_SUB_MODE,
  46:.\Generated_Source\PSoC4/UART_1_UART.c ****         UART_1_UART_DIRECTION,
  47:.\Generated_Source\PSoC4/UART_1_UART.c ****         UART_1_UART_DATA_BITS_NUM,
  48:.\Generated_Source\PSoC4/UART_1_UART.c ****         UART_1_UART_PARITY_TYPE,
  49:.\Generated_Source\PSoC4/UART_1_UART.c ****         UART_1_UART_STOP_BITS_NUM,
  50:.\Generated_Source\PSoC4/UART_1_UART.c ****         UART_1_UART_OVS_FACTOR,
  51:.\Generated_Source\PSoC4/UART_1_UART.c ****         UART_1_UART_IRDA_LOW_POWER,
  52:.\Generated_Source\PSoC4/UART_1_UART.c ****         UART_1_UART_MEDIAN_FILTER_ENABLE,
  53:.\Generated_Source\PSoC4/UART_1_UART.c ****         UART_1_UART_RETRY_ON_NACK,
  54:.\Generated_Source\PSoC4/UART_1_UART.c ****         UART_1_UART_IRDA_POLARITY,
  55:.\Generated_Source\PSoC4/UART_1_UART.c ****         UART_1_UART_DROP_ON_PARITY_ERR,
  56:.\Generated_Source\PSoC4/UART_1_UART.c ****         UART_1_UART_DROP_ON_FRAME_ERR,
  57:.\Generated_Source\PSoC4/UART_1_UART.c ****         UART_1_UART_WAKE_ENABLE,
  58:.\Generated_Source\PSoC4/UART_1_UART.c ****         0u,
  59:.\Generated_Source\PSoC4/UART_1_UART.c ****         NULL,
  60:.\Generated_Source\PSoC4/UART_1_UART.c ****         0u,
  61:.\Generated_Source\PSoC4/UART_1_UART.c ****         NULL,
  62:.\Generated_Source\PSoC4/UART_1_UART.c ****         UART_1_UART_MP_MODE_ENABLE,
  63:.\Generated_Source\PSoC4/UART_1_UART.c ****         UART_1_UART_MP_ACCEPT_ADDRESS,
  64:.\Generated_Source\PSoC4/UART_1_UART.c ****         UART_1_UART_MP_RX_ADDRESS,
  65:.\Generated_Source\PSoC4/UART_1_UART.c ****         UART_1_UART_MP_RX_ADDRESS_MASK,
  66:.\Generated_Source\PSoC4/UART_1_UART.c ****         (uint32) UART_1_SCB_IRQ_INTERNAL,
  67:.\Generated_Source\PSoC4/UART_1_UART.c ****         UART_1_UART_INTR_RX_MASK,
  68:.\Generated_Source\PSoC4/UART_1_UART.c ****         UART_1_UART_RX_TRIGGER_LEVEL,
  69:.\Generated_Source\PSoC4/UART_1_UART.c ****         UART_1_UART_INTR_TX_MASK,
  70:.\Generated_Source\PSoC4/UART_1_UART.c ****         UART_1_UART_TX_TRIGGER_LEVEL,
  71:.\Generated_Source\PSoC4/UART_1_UART.c ****         (uint8) UART_1_UART_BYTE_MODE_ENABLE,
  72:.\Generated_Source\PSoC4/UART_1_UART.c ****         (uint8) UART_1_UART_CTS_ENABLE,
  73:.\Generated_Source\PSoC4/UART_1_UART.c ****         (uint8) UART_1_UART_CTS_POLARITY,
  74:.\Generated_Source\PSoC4/UART_1_UART.c ****         (uint8) UART_1_UART_RTS_POLARITY,
  75:.\Generated_Source\PSoC4/UART_1_UART.c ****         (uint8) UART_1_UART_RTS_FIFO_LEVEL
  76:.\Generated_Source\PSoC4/UART_1_UART.c ****     };
  77:.\Generated_Source\PSoC4/UART_1_UART.c **** 
  78:.\Generated_Source\PSoC4/UART_1_UART.c **** 
  79:.\Generated_Source\PSoC4/UART_1_UART.c ****     /*******************************************************************************
  80:.\Generated_Source\PSoC4/UART_1_UART.c ****     * Function Name: UART_1_UartInit
  81:.\Generated_Source\PSoC4/UART_1_UART.c ****     ****************************************************************************//**
  82:.\Generated_Source\PSoC4/UART_1_UART.c ****     *
  83:.\Generated_Source\PSoC4/UART_1_UART.c ****     *  Configures the UART_1 for UART operation.
  84:.\Generated_Source\PSoC4/UART_1_UART.c ****     *
  85:.\Generated_Source\PSoC4/UART_1_UART.c ****     *  This function is intended specifically to be used when the UART_1
  86:.\Generated_Source\PSoC4/UART_1_UART.c ****     *  configuration is set to “Unconfigured UART_1” in the customizer.
  87:.\Generated_Source\PSoC4/UART_1_UART.c ****     *  After initializing the UART_1 in UART mode using this function,
  88:.\Generated_Source\PSoC4/UART_1_UART.c ****     *  the component can be enabled using the UART_1_Start() or
  89:.\Generated_Source\PSoC4/UART_1_UART.c ****     * UART_1_Enable() function.
ARM GAS  C:\Users\glenn\AppData\Local\Temp\ccNOMZ3x.s 			page 3


  90:.\Generated_Source\PSoC4/UART_1_UART.c ****     *  This function uses a pointer to a structure that provides the configuration
  91:.\Generated_Source\PSoC4/UART_1_UART.c ****     *  settings. This structure contains the same information that would otherwise
  92:.\Generated_Source\PSoC4/UART_1_UART.c ****     *  be provided by the customizer settings.
  93:.\Generated_Source\PSoC4/UART_1_UART.c ****     *
  94:.\Generated_Source\PSoC4/UART_1_UART.c ****     *  \param config: pointer to a structure that contains the following list of
  95:.\Generated_Source\PSoC4/UART_1_UART.c ****     *   fields. These fields match the selections available in the customizer.
  96:.\Generated_Source\PSoC4/UART_1_UART.c ****     *   Refer to the customizer for further description of the settings.
  97:.\Generated_Source\PSoC4/UART_1_UART.c ****     *
  98:.\Generated_Source\PSoC4/UART_1_UART.c ****     *******************************************************************************/
  99:.\Generated_Source\PSoC4/UART_1_UART.c ****     void UART_1_UartInit(const UART_1_UART_INIT_STRUCT *config)
 100:.\Generated_Source\PSoC4/UART_1_UART.c ****     {
 101:.\Generated_Source\PSoC4/UART_1_UART.c ****         uint32 pinsConfig;
 102:.\Generated_Source\PSoC4/UART_1_UART.c **** 
 103:.\Generated_Source\PSoC4/UART_1_UART.c ****         if (NULL == config)
 104:.\Generated_Source\PSoC4/UART_1_UART.c ****         {
 105:.\Generated_Source\PSoC4/UART_1_UART.c ****             CYASSERT(0u != 0u); /* Halt execution due to bad function parameter */
 106:.\Generated_Source\PSoC4/UART_1_UART.c ****         }
 107:.\Generated_Source\PSoC4/UART_1_UART.c ****         else
 108:.\Generated_Source\PSoC4/UART_1_UART.c ****         {
 109:.\Generated_Source\PSoC4/UART_1_UART.c ****             /* Get direction to configure UART pins: TX, RX or TX+RX */
 110:.\Generated_Source\PSoC4/UART_1_UART.c ****             pinsConfig  = config->direction;
 111:.\Generated_Source\PSoC4/UART_1_UART.c **** 
 112:.\Generated_Source\PSoC4/UART_1_UART.c ****         #if !(UART_1_CY_SCBIP_V0 || UART_1_CY_SCBIP_V1)
 113:.\Generated_Source\PSoC4/UART_1_UART.c ****             /* Add RTS and CTS pins to configure */
 114:.\Generated_Source\PSoC4/UART_1_UART.c ****             pinsConfig |= (0u != config->rtsRxFifoLevel) ? (UART_1_UART_RTS_PIN_ENABLE) : (0u);
 115:.\Generated_Source\PSoC4/UART_1_UART.c ****             pinsConfig |= (0u != config->enableCts)      ? (UART_1_UART_CTS_PIN_ENABLE) : (0u);
 116:.\Generated_Source\PSoC4/UART_1_UART.c ****         #endif /* !(UART_1_CY_SCBIP_V0 || UART_1_CY_SCBIP_V1) */
 117:.\Generated_Source\PSoC4/UART_1_UART.c **** 
 118:.\Generated_Source\PSoC4/UART_1_UART.c ****             /* Configure pins */
 119:.\Generated_Source\PSoC4/UART_1_UART.c ****             UART_1_SetPins(UART_1_SCB_MODE_UART, config->mode, pinsConfig);
 120:.\Generated_Source\PSoC4/UART_1_UART.c **** 
 121:.\Generated_Source\PSoC4/UART_1_UART.c ****             /* Store internal configuration */
 122:.\Generated_Source\PSoC4/UART_1_UART.c ****             UART_1_scbMode       = (uint8) UART_1_SCB_MODE_UART;
 123:.\Generated_Source\PSoC4/UART_1_UART.c ****             UART_1_scbEnableWake = (uint8) config->enableWake;
 124:.\Generated_Source\PSoC4/UART_1_UART.c ****             UART_1_scbEnableIntr = (uint8) config->enableInterrupt;
 125:.\Generated_Source\PSoC4/UART_1_UART.c **** 
 126:.\Generated_Source\PSoC4/UART_1_UART.c ****             /* Set RX direction internal variables */
 127:.\Generated_Source\PSoC4/UART_1_UART.c ****             UART_1_rxBuffer      =         config->rxBuffer;
 128:.\Generated_Source\PSoC4/UART_1_UART.c ****             UART_1_rxDataBits    = (uint8) config->dataBits;
 129:.\Generated_Source\PSoC4/UART_1_UART.c ****             UART_1_rxBufferSize  = (uint8) config->rxBufferSize;
 130:.\Generated_Source\PSoC4/UART_1_UART.c **** 
 131:.\Generated_Source\PSoC4/UART_1_UART.c ****             /* Set TX direction internal variables */
 132:.\Generated_Source\PSoC4/UART_1_UART.c ****             UART_1_txBuffer      =         config->txBuffer;
 133:.\Generated_Source\PSoC4/UART_1_UART.c ****             UART_1_txDataBits    = (uint8) config->dataBits;
 134:.\Generated_Source\PSoC4/UART_1_UART.c ****             UART_1_txBufferSize  = (uint8) config->txBufferSize;
 135:.\Generated_Source\PSoC4/UART_1_UART.c **** 
 136:.\Generated_Source\PSoC4/UART_1_UART.c ****             /* Configure UART interface */
 137:.\Generated_Source\PSoC4/UART_1_UART.c ****             if(UART_1_UART_MODE_IRDA == config->mode)
 138:.\Generated_Source\PSoC4/UART_1_UART.c ****             {
 139:.\Generated_Source\PSoC4/UART_1_UART.c ****                 /* OVS settings: IrDA */
 140:.\Generated_Source\PSoC4/UART_1_UART.c ****                 UART_1_CTRL_REG  = ((0u != config->enableIrdaLowPower) ?
 141:.\Generated_Source\PSoC4/UART_1_UART.c ****                                                 (UART_1_UART_GET_CTRL_OVS_IRDA_LP(config->oversampl
 142:.\Generated_Source\PSoC4/UART_1_UART.c ****                                                 (UART_1_CTRL_OVS_IRDA_OVS16));
 143:.\Generated_Source\PSoC4/UART_1_UART.c ****             }
 144:.\Generated_Source\PSoC4/UART_1_UART.c ****             else
 145:.\Generated_Source\PSoC4/UART_1_UART.c ****             {
 146:.\Generated_Source\PSoC4/UART_1_UART.c ****                 /* OVS settings: UART and SmartCard */
ARM GAS  C:\Users\glenn\AppData\Local\Temp\ccNOMZ3x.s 			page 4


 147:.\Generated_Source\PSoC4/UART_1_UART.c ****                 UART_1_CTRL_REG  = UART_1_GET_CTRL_OVS(config->oversample);
 148:.\Generated_Source\PSoC4/UART_1_UART.c ****             }
 149:.\Generated_Source\PSoC4/UART_1_UART.c **** 
 150:.\Generated_Source\PSoC4/UART_1_UART.c ****             UART_1_CTRL_REG     |= UART_1_GET_CTRL_BYTE_MODE  (config->enableByteMode)      |
 151:.\Generated_Source\PSoC4/UART_1_UART.c ****                                              UART_1_GET_CTRL_ADDR_ACCEPT(config->multiprocAcceptAdd
 152:.\Generated_Source\PSoC4/UART_1_UART.c ****                                              UART_1_CTRL_UART;
 153:.\Generated_Source\PSoC4/UART_1_UART.c **** 
 154:.\Generated_Source\PSoC4/UART_1_UART.c ****             /* Configure sub-mode: UART, SmartCard or IrDA */
 155:.\Generated_Source\PSoC4/UART_1_UART.c ****             UART_1_UART_CTRL_REG = UART_1_GET_UART_CTRL_MODE(config->mode);
 156:.\Generated_Source\PSoC4/UART_1_UART.c **** 
 157:.\Generated_Source\PSoC4/UART_1_UART.c ****             /* Configure RX direction */
 158:.\Generated_Source\PSoC4/UART_1_UART.c ****             UART_1_UART_RX_CTRL_REG = UART_1_GET_UART_RX_CTRL_MODE(config->stopBits)              |
 159:.\Generated_Source\PSoC4/UART_1_UART.c ****                                         UART_1_GET_UART_RX_CTRL_POLARITY(config->enableInvertedRx) 
 160:.\Generated_Source\PSoC4/UART_1_UART.c ****                                         UART_1_GET_UART_RX_CTRL_MP_MODE(config->enableMultiproc)   
 161:.\Generated_Source\PSoC4/UART_1_UART.c ****                                         UART_1_GET_UART_RX_CTRL_DROP_ON_PARITY_ERR(config->dropOnPa
 162:.\Generated_Source\PSoC4/UART_1_UART.c ****                                         UART_1_GET_UART_RX_CTRL_DROP_ON_FRAME_ERR(config->dropOnFra
 163:.\Generated_Source\PSoC4/UART_1_UART.c **** 
 164:.\Generated_Source\PSoC4/UART_1_UART.c ****             if(UART_1_UART_PARITY_NONE != config->parity)
 165:.\Generated_Source\PSoC4/UART_1_UART.c ****             {
 166:.\Generated_Source\PSoC4/UART_1_UART.c ****                UART_1_UART_RX_CTRL_REG |= UART_1_GET_UART_RX_CTRL_PARITY(config->parity) |
 167:.\Generated_Source\PSoC4/UART_1_UART.c ****                                                     UART_1_UART_RX_CTRL_PARITY_ENABLED;
 168:.\Generated_Source\PSoC4/UART_1_UART.c ****             }
 169:.\Generated_Source\PSoC4/UART_1_UART.c **** 
 170:.\Generated_Source\PSoC4/UART_1_UART.c ****             UART_1_RX_CTRL_REG      = UART_1_GET_RX_CTRL_DATA_WIDTH(config->dataBits)       |
 171:.\Generated_Source\PSoC4/UART_1_UART.c ****                                                 UART_1_GET_RX_CTRL_MEDIAN(config->enableMedianFilte
 172:.\Generated_Source\PSoC4/UART_1_UART.c ****                                                 UART_1_GET_UART_RX_CTRL_ENABLED(config->direction);
 173:.\Generated_Source\PSoC4/UART_1_UART.c **** 
 174:.\Generated_Source\PSoC4/UART_1_UART.c ****             UART_1_RX_FIFO_CTRL_REG = UART_1_GET_RX_FIFO_CTRL_TRIGGER_LEVEL(config->rxTriggerLevel)
 175:.\Generated_Source\PSoC4/UART_1_UART.c **** 
 176:.\Generated_Source\PSoC4/UART_1_UART.c ****             /* Configure MP address */
 177:.\Generated_Source\PSoC4/UART_1_UART.c ****             UART_1_RX_MATCH_REG     = UART_1_GET_RX_MATCH_ADDR(config->multiprocAddr) |
 178:.\Generated_Source\PSoC4/UART_1_UART.c ****                                                 UART_1_GET_RX_MATCH_MASK(config->multiprocAddrMask)
 179:.\Generated_Source\PSoC4/UART_1_UART.c **** 
 180:.\Generated_Source\PSoC4/UART_1_UART.c ****             /* Configure RX direction */
 181:.\Generated_Source\PSoC4/UART_1_UART.c ****             UART_1_UART_TX_CTRL_REG = UART_1_GET_UART_TX_CTRL_MODE(config->stopBits) |
 182:.\Generated_Source\PSoC4/UART_1_UART.c ****                                                 UART_1_GET_UART_TX_CTRL_RETRY_NACK(config->enableRe
 183:.\Generated_Source\PSoC4/UART_1_UART.c **** 
 184:.\Generated_Source\PSoC4/UART_1_UART.c ****             if(UART_1_UART_PARITY_NONE != config->parity)
 185:.\Generated_Source\PSoC4/UART_1_UART.c ****             {
 186:.\Generated_Source\PSoC4/UART_1_UART.c ****                UART_1_UART_TX_CTRL_REG |= UART_1_GET_UART_TX_CTRL_PARITY(config->parity) |
 187:.\Generated_Source\PSoC4/UART_1_UART.c ****                                                     UART_1_UART_TX_CTRL_PARITY_ENABLED;
 188:.\Generated_Source\PSoC4/UART_1_UART.c ****             }
 189:.\Generated_Source\PSoC4/UART_1_UART.c **** 
 190:.\Generated_Source\PSoC4/UART_1_UART.c ****             UART_1_TX_CTRL_REG      = UART_1_GET_TX_CTRL_DATA_WIDTH(config->dataBits)    |
 191:.\Generated_Source\PSoC4/UART_1_UART.c ****                                                 UART_1_GET_UART_TX_CTRL_ENABLED(config->direction);
 192:.\Generated_Source\PSoC4/UART_1_UART.c **** 
 193:.\Generated_Source\PSoC4/UART_1_UART.c ****             UART_1_TX_FIFO_CTRL_REG = UART_1_GET_TX_FIFO_CTRL_TRIGGER_LEVEL(config->txTriggerLevel)
 194:.\Generated_Source\PSoC4/UART_1_UART.c **** 
 195:.\Generated_Source\PSoC4/UART_1_UART.c ****         #if !(UART_1_CY_SCBIP_V0 || UART_1_CY_SCBIP_V1)
 196:.\Generated_Source\PSoC4/UART_1_UART.c ****             UART_1_UART_FLOW_CTRL_REG = UART_1_GET_UART_FLOW_CTRL_CTS_ENABLE(config->enableCts) | \
 197:.\Generated_Source\PSoC4/UART_1_UART.c ****                                             UART_1_GET_UART_FLOW_CTRL_CTS_POLARITY (config->ctsPola
 198:.\Generated_Source\PSoC4/UART_1_UART.c ****                                             UART_1_GET_UART_FLOW_CTRL_RTS_POLARITY (config->rtsPola
 199:.\Generated_Source\PSoC4/UART_1_UART.c ****                                             UART_1_GET_UART_FLOW_CTRL_TRIGGER_LEVEL(config->rtsRxFi
 200:.\Generated_Source\PSoC4/UART_1_UART.c ****         #endif /* !(UART_1_CY_SCBIP_V0 || UART_1_CY_SCBIP_V1) */
 201:.\Generated_Source\PSoC4/UART_1_UART.c **** 
 202:.\Generated_Source\PSoC4/UART_1_UART.c ****             /* Configure interrupt with UART handler but do not enable it */
 203:.\Generated_Source\PSoC4/UART_1_UART.c ****             CyIntDisable    (UART_1_ISR_NUMBER);
ARM GAS  C:\Users\glenn\AppData\Local\Temp\ccNOMZ3x.s 			page 5


 204:.\Generated_Source\PSoC4/UART_1_UART.c ****             CyIntSetPriority(UART_1_ISR_NUMBER, UART_1_ISR_PRIORITY);
 205:.\Generated_Source\PSoC4/UART_1_UART.c ****             (void) CyIntSetVector(UART_1_ISR_NUMBER, &UART_1_SPI_UART_ISR);
 206:.\Generated_Source\PSoC4/UART_1_UART.c **** 
 207:.\Generated_Source\PSoC4/UART_1_UART.c ****             /* Configure WAKE interrupt */
 208:.\Generated_Source\PSoC4/UART_1_UART.c ****         #if(UART_1_UART_RX_WAKEUP_IRQ)
 209:.\Generated_Source\PSoC4/UART_1_UART.c ****             CyIntDisable    (UART_1_RX_WAKE_ISR_NUMBER);
 210:.\Generated_Source\PSoC4/UART_1_UART.c ****             CyIntSetPriority(UART_1_RX_WAKE_ISR_NUMBER, UART_1_RX_WAKE_ISR_PRIORITY);
 211:.\Generated_Source\PSoC4/UART_1_UART.c ****             (void) CyIntSetVector(UART_1_RX_WAKE_ISR_NUMBER, &UART_1_UART_WAKEUP_ISR);
 212:.\Generated_Source\PSoC4/UART_1_UART.c ****         #endif /* (UART_1_UART_RX_WAKEUP_IRQ) */
 213:.\Generated_Source\PSoC4/UART_1_UART.c **** 
 214:.\Generated_Source\PSoC4/UART_1_UART.c ****             /* Configure interrupt sources */
 215:.\Generated_Source\PSoC4/UART_1_UART.c ****             UART_1_INTR_I2C_EC_MASK_REG = UART_1_NO_INTR_SOURCES;
 216:.\Generated_Source\PSoC4/UART_1_UART.c ****             UART_1_INTR_SPI_EC_MASK_REG = UART_1_NO_INTR_SOURCES;
 217:.\Generated_Source\PSoC4/UART_1_UART.c ****             UART_1_INTR_SLAVE_MASK_REG  = UART_1_NO_INTR_SOURCES;
 218:.\Generated_Source\PSoC4/UART_1_UART.c ****             UART_1_INTR_MASTER_MASK_REG = UART_1_NO_INTR_SOURCES;
 219:.\Generated_Source\PSoC4/UART_1_UART.c ****             UART_1_INTR_RX_MASK_REG     = config->rxInterruptMask;
 220:.\Generated_Source\PSoC4/UART_1_UART.c ****             UART_1_INTR_TX_MASK_REG     = config->txInterruptMask;
 221:.\Generated_Source\PSoC4/UART_1_UART.c ****         
 222:.\Generated_Source\PSoC4/UART_1_UART.c ****             /* Configure TX interrupt sources to restore. */
 223:.\Generated_Source\PSoC4/UART_1_UART.c ****             UART_1_IntrTxMask = LO16(UART_1_INTR_TX_MASK_REG);
 224:.\Generated_Source\PSoC4/UART_1_UART.c **** 
 225:.\Generated_Source\PSoC4/UART_1_UART.c ****             /* Clear RX buffer indexes */
 226:.\Generated_Source\PSoC4/UART_1_UART.c ****             UART_1_rxBufferHead     = 0u;
 227:.\Generated_Source\PSoC4/UART_1_UART.c ****             UART_1_rxBufferTail     = 0u;
 228:.\Generated_Source\PSoC4/UART_1_UART.c ****             UART_1_rxBufferOverflow = 0u;
 229:.\Generated_Source\PSoC4/UART_1_UART.c **** 
 230:.\Generated_Source\PSoC4/UART_1_UART.c ****             /* Clear TX buffer indexes */
 231:.\Generated_Source\PSoC4/UART_1_UART.c ****             UART_1_txBufferHead = 0u;
 232:.\Generated_Source\PSoC4/UART_1_UART.c ****             UART_1_txBufferTail = 0u;
 233:.\Generated_Source\PSoC4/UART_1_UART.c ****         }
 234:.\Generated_Source\PSoC4/UART_1_UART.c ****     }
 235:.\Generated_Source\PSoC4/UART_1_UART.c **** 
 236:.\Generated_Source\PSoC4/UART_1_UART.c **** #else
 237:.\Generated_Source\PSoC4/UART_1_UART.c **** 
 238:.\Generated_Source\PSoC4/UART_1_UART.c ****     /*******************************************************************************
 239:.\Generated_Source\PSoC4/UART_1_UART.c ****     * Function Name: UART_1_UartInit
 240:.\Generated_Source\PSoC4/UART_1_UART.c ****     ****************************************************************************//**
 241:.\Generated_Source\PSoC4/UART_1_UART.c ****     *
 242:.\Generated_Source\PSoC4/UART_1_UART.c ****     *  Configures the SCB for the UART operation.
 243:.\Generated_Source\PSoC4/UART_1_UART.c ****     *
 244:.\Generated_Source\PSoC4/UART_1_UART.c ****     *******************************************************************************/
 245:.\Generated_Source\PSoC4/UART_1_UART.c ****     void UART_1_UartInit(void)
 246:.\Generated_Source\PSoC4/UART_1_UART.c ****     {
  26              		.loc 1 246 0
  27              		.cfi_startproc
  28 0000 38B5     		push	{r3, r4, r5, lr}
  29              		.cfi_def_cfa_offset 16
  30              		.cfi_offset 3, -16
  31              		.cfi_offset 4, -12
  32              		.cfi_offset 5, -8
  33              		.cfi_offset 14, -4
 247:.\Generated_Source\PSoC4/UART_1_UART.c ****         /* Configure UART interface */
 248:.\Generated_Source\PSoC4/UART_1_UART.c ****         UART_1_CTRL_REG = UART_1_UART_DEFAULT_CTRL;
  34              		.loc 1 248 0
  35 0002 1B4A     		ldr	r2, .L2
  36 0004 1B4B     		ldr	r3, .L2+4
  37 0006 1A60     		str	r2, [r3]
ARM GAS  C:\Users\glenn\AppData\Local\Temp\ccNOMZ3x.s 			page 6


 249:.\Generated_Source\PSoC4/UART_1_UART.c **** 
 250:.\Generated_Source\PSoC4/UART_1_UART.c ****         /* Configure sub-mode: UART, SmartCard or IrDA */
 251:.\Generated_Source\PSoC4/UART_1_UART.c ****         UART_1_UART_CTRL_REG = UART_1_UART_DEFAULT_UART_CTRL;
  38              		.loc 1 251 0
  39 0008 0024     		mov	r4, #0
  40 000a 1B4B     		ldr	r3, .L2+8
  41 000c 1C60     		str	r4, [r3]
 252:.\Generated_Source\PSoC4/UART_1_UART.c **** 
 253:.\Generated_Source\PSoC4/UART_1_UART.c ****         /* Configure RX direction */
 254:.\Generated_Source\PSoC4/UART_1_UART.c ****         UART_1_UART_RX_CTRL_REG = UART_1_UART_DEFAULT_UART_RX_CTRL;
  42              		.loc 1 254 0
  43 000e 0122     		mov	r2, #1
  44 0010 1A4B     		ldr	r3, .L2+12
  45 0012 1A60     		str	r2, [r3]
 255:.\Generated_Source\PSoC4/UART_1_UART.c ****         UART_1_RX_CTRL_REG      = UART_1_UART_DEFAULT_RX_CTRL;
  46              		.loc 1 255 0
  47 0014 1A4B     		ldr	r3, .L2+16
  48 0016 1B49     		ldr	r1, .L2+20
  49 0018 0B60     		str	r3, [r1]
 256:.\Generated_Source\PSoC4/UART_1_UART.c ****         UART_1_RX_FIFO_CTRL_REG = UART_1_UART_DEFAULT_RX_FIFO_CTRL;
  50              		.loc 1 256 0
  51 001a 0720     		mov	r0, #7
  52 001c 1A49     		ldr	r1, .L2+24
  53 001e 0860     		str	r0, [r1]
 257:.\Generated_Source\PSoC4/UART_1_UART.c ****         UART_1_RX_MATCH_REG     = UART_1_UART_DEFAULT_RX_MATCH_REG;
  54              		.loc 1 257 0
  55 0020 1A49     		ldr	r1, .L2+28
  56 0022 0C60     		str	r4, [r1]
 258:.\Generated_Source\PSoC4/UART_1_UART.c **** 
 259:.\Generated_Source\PSoC4/UART_1_UART.c ****         /* Configure TX direction */
 260:.\Generated_Source\PSoC4/UART_1_UART.c ****         UART_1_UART_TX_CTRL_REG = UART_1_UART_DEFAULT_UART_TX_CTRL;
  57              		.loc 1 260 0
  58 0024 1A49     		ldr	r1, .L2+32
  59 0026 0A60     		str	r2, [r1]
 261:.\Generated_Source\PSoC4/UART_1_UART.c ****         UART_1_TX_CTRL_REG      = UART_1_UART_DEFAULT_TX_CTRL;
  60              		.loc 1 261 0
  61 0028 1A4A     		ldr	r2, .L2+36
  62 002a 1360     		str	r3, [r2]
 262:.\Generated_Source\PSoC4/UART_1_UART.c ****         UART_1_TX_FIFO_CTRL_REG = UART_1_UART_DEFAULT_TX_FIFO_CTRL;
  63              		.loc 1 262 0
  64 002c 1A4B     		ldr	r3, .L2+40
  65 002e 1C60     		str	r4, [r3]
 263:.\Generated_Source\PSoC4/UART_1_UART.c **** 
 264:.\Generated_Source\PSoC4/UART_1_UART.c ****     #if !(UART_1_CY_SCBIP_V0 || UART_1_CY_SCBIP_V1)
 265:.\Generated_Source\PSoC4/UART_1_UART.c ****         UART_1_UART_FLOW_CTRL_REG = UART_1_UART_DEFAULT_FLOW_CTRL;
  66              		.loc 1 265 0
  67 0030 0425     		mov	r5, #4
  68 0032 1A4B     		ldr	r3, .L2+44
  69 0034 1D60     		str	r5, [r3]
 266:.\Generated_Source\PSoC4/UART_1_UART.c ****     #endif /* !(UART_1_CY_SCBIP_V0 || UART_1_CY_SCBIP_V1) */
 267:.\Generated_Source\PSoC4/UART_1_UART.c **** 
 268:.\Generated_Source\PSoC4/UART_1_UART.c ****         /* Configure interrupt with UART handler but do not enable it */
 269:.\Generated_Source\PSoC4/UART_1_UART.c ****     #if(UART_1_SCB_IRQ_INTERNAL)
 270:.\Generated_Source\PSoC4/UART_1_UART.c ****         CyIntDisable    (UART_1_ISR_NUMBER);
  70              		.loc 1 270 0
  71 0036 0130     		add	r0, r0, #1
  72 0038 FFF7FEFF 		bl	CyIntDisable
ARM GAS  C:\Users\glenn\AppData\Local\Temp\ccNOMZ3x.s 			page 7


  73              	.LVL0:
 271:.\Generated_Source\PSoC4/UART_1_UART.c ****         CyIntSetPriority(UART_1_ISR_NUMBER, UART_1_ISR_PRIORITY);
  74              		.loc 1 271 0
  75 003c 0820     		mov	r0, #8
  76 003e 0321     		mov	r1, #3
  77 0040 FFF7FEFF 		bl	CyIntSetPriority
  78              	.LVL1:
 272:.\Generated_Source\PSoC4/UART_1_UART.c ****         (void) CyIntSetVector(UART_1_ISR_NUMBER, &UART_1_SPI_UART_ISR);
  79              		.loc 1 272 0
  80 0044 0820     		mov	r0, #8
  81 0046 1649     		ldr	r1, .L2+48
  82 0048 FFF7FEFF 		bl	CyIntSetVector
  83              	.LVL2:
 273:.\Generated_Source\PSoC4/UART_1_UART.c ****     #endif /* (UART_1_SCB_IRQ_INTERNAL) */
 274:.\Generated_Source\PSoC4/UART_1_UART.c **** 
 275:.\Generated_Source\PSoC4/UART_1_UART.c ****         /* Configure WAKE interrupt */
 276:.\Generated_Source\PSoC4/UART_1_UART.c ****     #if(UART_1_UART_RX_WAKEUP_IRQ)
 277:.\Generated_Source\PSoC4/UART_1_UART.c ****         CyIntDisable    (UART_1_RX_WAKE_ISR_NUMBER);
 278:.\Generated_Source\PSoC4/UART_1_UART.c ****         CyIntSetPriority(UART_1_RX_WAKE_ISR_NUMBER, UART_1_RX_WAKE_ISR_PRIORITY);
 279:.\Generated_Source\PSoC4/UART_1_UART.c ****         (void) CyIntSetVector(UART_1_RX_WAKE_ISR_NUMBER, &UART_1_UART_WAKEUP_ISR);
 280:.\Generated_Source\PSoC4/UART_1_UART.c ****     #endif /* (UART_1_UART_RX_WAKEUP_IRQ) */
 281:.\Generated_Source\PSoC4/UART_1_UART.c **** 
 282:.\Generated_Source\PSoC4/UART_1_UART.c ****         /* Configure interrupt sources */
 283:.\Generated_Source\PSoC4/UART_1_UART.c ****         UART_1_INTR_I2C_EC_MASK_REG = UART_1_UART_DEFAULT_INTR_I2C_EC_MASK;
  84              		.loc 1 283 0
  85 004c 154B     		ldr	r3, .L2+52
  86 004e 1C60     		str	r4, [r3]
 284:.\Generated_Source\PSoC4/UART_1_UART.c ****         UART_1_INTR_SPI_EC_MASK_REG = UART_1_UART_DEFAULT_INTR_SPI_EC_MASK;
  87              		.loc 1 284 0
  88 0050 154B     		ldr	r3, .L2+56
  89 0052 1C60     		str	r4, [r3]
 285:.\Generated_Source\PSoC4/UART_1_UART.c ****         UART_1_INTR_SLAVE_MASK_REG  = UART_1_UART_DEFAULT_INTR_SLAVE_MASK;
  90              		.loc 1 285 0
  91 0054 154B     		ldr	r3, .L2+60
  92 0056 1C60     		str	r4, [r3]
 286:.\Generated_Source\PSoC4/UART_1_UART.c ****         UART_1_INTR_MASTER_MASK_REG = UART_1_UART_DEFAULT_INTR_MASTER_MASK;
  93              		.loc 1 286 0
  94 0058 154B     		ldr	r3, .L2+64
  95 005a 1C60     		str	r4, [r3]
 287:.\Generated_Source\PSoC4/UART_1_UART.c ****         UART_1_INTR_RX_MASK_REG     = UART_1_UART_DEFAULT_INTR_RX_MASK;
  96              		.loc 1 287 0
  97 005c 154B     		ldr	r3, .L2+68
  98 005e 1D60     		str	r5, [r3]
 288:.\Generated_Source\PSoC4/UART_1_UART.c ****         UART_1_INTR_TX_MASK_REG     = UART_1_UART_DEFAULT_INTR_TX_MASK;
  99              		.loc 1 288 0
 100 0060 154B     		ldr	r3, .L2+72
 101 0062 0222     		mov	r2, #2
 102 0064 1A60     		str	r2, [r3]
 289:.\Generated_Source\PSoC4/UART_1_UART.c ****     
 290:.\Generated_Source\PSoC4/UART_1_UART.c ****         /* Configure TX interrupt sources to restore. */
 291:.\Generated_Source\PSoC4/UART_1_UART.c ****         UART_1_IntrTxMask = LO16(UART_1_INTR_TX_MASK_REG);
 103              		.loc 1 291 0
 104 0066 1A68     		ldr	r2, [r3]
 105 0068 144B     		ldr	r3, .L2+76
 106 006a 1A80     		strh	r2, [r3]
 292:.\Generated_Source\PSoC4/UART_1_UART.c **** 
 293:.\Generated_Source\PSoC4/UART_1_UART.c ****     #if(UART_1_INTERNAL_RX_SW_BUFFER_CONST)
ARM GAS  C:\Users\glenn\AppData\Local\Temp\ccNOMZ3x.s 			page 8


 294:.\Generated_Source\PSoC4/UART_1_UART.c ****         UART_1_rxBufferHead     = 0u;
 295:.\Generated_Source\PSoC4/UART_1_UART.c ****         UART_1_rxBufferTail     = 0u;
 296:.\Generated_Source\PSoC4/UART_1_UART.c ****         UART_1_rxBufferOverflow = 0u;
 297:.\Generated_Source\PSoC4/UART_1_UART.c ****     #endif /* (UART_1_INTERNAL_RX_SW_BUFFER_CONST) */
 298:.\Generated_Source\PSoC4/UART_1_UART.c **** 
 299:.\Generated_Source\PSoC4/UART_1_UART.c ****     #if(UART_1_INTERNAL_TX_SW_BUFFER_CONST)
 300:.\Generated_Source\PSoC4/UART_1_UART.c ****         UART_1_txBufferHead = 0u;
 301:.\Generated_Source\PSoC4/UART_1_UART.c ****         UART_1_txBufferTail = 0u;
 302:.\Generated_Source\PSoC4/UART_1_UART.c ****     #endif /* (UART_1_INTERNAL_TX_SW_BUFFER_CONST) */
 303:.\Generated_Source\PSoC4/UART_1_UART.c ****     }
 107              		.loc 1 303 0
 108              		@ sp needed
 109 006c 38BD     		pop	{r3, r4, r5, pc}
 110              	.L3:
 111 006e C046     		.align	2
 112              	.L2:
 113 0070 0B000002 		.word	33554443
 114 0074 00002440 		.word	1076101120
 115 0078 40002440 		.word	1076101184
 116 007c 48002440 		.word	1076101192
 117 0080 07000080 		.word	-2147483641
 118 0084 00032440 		.word	1076101888
 119 0088 04032440 		.word	1076101892
 120 008c 10032440 		.word	1076101904
 121 0090 44002440 		.word	1076101188
 122 0094 00022440 		.word	1076101632
 123 0098 04022440 		.word	1076101636
 124 009c 50002440 		.word	1076101200
 125 00a0 00000000 		.word	UART_1_SPI_UART_ISR
 126 00a4 880E2440 		.word	1076104840
 127 00a8 C80E2440 		.word	1076104904
 128 00ac 480F2440 		.word	1076105032
 129 00b0 080F2440 		.word	1076104968
 130 00b4 C80F2440 		.word	1076105160
 131 00b8 880F2440 		.word	1076105096
 132 00bc 00000000 		.word	UART_1_IntrTxMask
 133              		.cfi_endproc
 134              	.LFE1:
 135              		.size	UART_1_UartInit, .-UART_1_UartInit
 136              		.section	.text.UART_1_UartPostEnable,"ax",%progbits
 137              		.align	2
 138              		.global	UART_1_UartPostEnable
 139              		.code	16
 140              		.thumb_func
 141              		.type	UART_1_UartPostEnable, %function
 142              	UART_1_UartPostEnable:
 143              	.LFB2:
 304:.\Generated_Source\PSoC4/UART_1_UART.c **** #endif /* (UART_1_SCB_MODE_UNCONFIG_CONST_CFG) */
 305:.\Generated_Source\PSoC4/UART_1_UART.c **** 
 306:.\Generated_Source\PSoC4/UART_1_UART.c **** 
 307:.\Generated_Source\PSoC4/UART_1_UART.c **** /*******************************************************************************
 308:.\Generated_Source\PSoC4/UART_1_UART.c **** * Function Name: UART_1_UartPostEnable
 309:.\Generated_Source\PSoC4/UART_1_UART.c **** ****************************************************************************//**
 310:.\Generated_Source\PSoC4/UART_1_UART.c **** *
 311:.\Generated_Source\PSoC4/UART_1_UART.c **** *  Restores HSIOM settings for the UART output pins (TX and/or RTS) to be
 312:.\Generated_Source\PSoC4/UART_1_UART.c **** *  controlled by the SCB UART.
 313:.\Generated_Source\PSoC4/UART_1_UART.c **** *
ARM GAS  C:\Users\glenn\AppData\Local\Temp\ccNOMZ3x.s 			page 9


 314:.\Generated_Source\PSoC4/UART_1_UART.c **** *******************************************************************************/
 315:.\Generated_Source\PSoC4/UART_1_UART.c **** void UART_1_UartPostEnable(void)
 316:.\Generated_Source\PSoC4/UART_1_UART.c **** {
 144              		.loc 1 316 0
 145              		.cfi_startproc
 317:.\Generated_Source\PSoC4/UART_1_UART.c **** #if (UART_1_SCB_MODE_UNCONFIG_CONST_CFG)
 318:.\Generated_Source\PSoC4/UART_1_UART.c ****     #if (UART_1_TX_SDA_MISO_PIN)
 319:.\Generated_Source\PSoC4/UART_1_UART.c ****         if (UART_1_CHECK_TX_SDA_MISO_PIN_USED)
 320:.\Generated_Source\PSoC4/UART_1_UART.c ****         {
 321:.\Generated_Source\PSoC4/UART_1_UART.c ****             /* Set SCB UART to drive the output pin */
 322:.\Generated_Source\PSoC4/UART_1_UART.c ****             UART_1_SET_HSIOM_SEL(UART_1_TX_SDA_MISO_HSIOM_REG, UART_1_TX_SDA_MISO_HSIOM_MASK,
 323:.\Generated_Source\PSoC4/UART_1_UART.c ****                                            UART_1_TX_SDA_MISO_HSIOM_POS, UART_1_TX_SDA_MISO_HSIOM_S
 324:.\Generated_Source\PSoC4/UART_1_UART.c ****         }
 325:.\Generated_Source\PSoC4/UART_1_UART.c ****     #endif /* (UART_1_TX_SDA_MISO_PIN_PIN) */
 326:.\Generated_Source\PSoC4/UART_1_UART.c **** 
 327:.\Generated_Source\PSoC4/UART_1_UART.c ****     #if !(UART_1_CY_SCBIP_V0 || UART_1_CY_SCBIP_V1)
 328:.\Generated_Source\PSoC4/UART_1_UART.c ****         #if (UART_1_RTS_SS0_PIN)
 329:.\Generated_Source\PSoC4/UART_1_UART.c ****             if (UART_1_CHECK_RTS_SS0_PIN_USED)
 330:.\Generated_Source\PSoC4/UART_1_UART.c ****             {
 331:.\Generated_Source\PSoC4/UART_1_UART.c ****                 /* Set SCB UART to drive the output pin */
 332:.\Generated_Source\PSoC4/UART_1_UART.c ****                 UART_1_SET_HSIOM_SEL(UART_1_RTS_SS0_HSIOM_REG, UART_1_RTS_SS0_HSIOM_MASK,
 333:.\Generated_Source\PSoC4/UART_1_UART.c ****                                                UART_1_RTS_SS0_HSIOM_POS, UART_1_RTS_SS0_HSIOM_SEL_U
 334:.\Generated_Source\PSoC4/UART_1_UART.c ****             }
 335:.\Generated_Source\PSoC4/UART_1_UART.c ****         #endif /* (UART_1_RTS_SS0_PIN) */
 336:.\Generated_Source\PSoC4/UART_1_UART.c ****     #endif /* !(UART_1_CY_SCBIP_V0 || UART_1_CY_SCBIP_V1) */
 337:.\Generated_Source\PSoC4/UART_1_UART.c **** 
 338:.\Generated_Source\PSoC4/UART_1_UART.c **** #else
 339:.\Generated_Source\PSoC4/UART_1_UART.c ****     #if (UART_1_UART_TX_PIN)
 340:.\Generated_Source\PSoC4/UART_1_UART.c ****          /* Set SCB UART to drive the output pin */
 341:.\Generated_Source\PSoC4/UART_1_UART.c ****         UART_1_SET_HSIOM_SEL(UART_1_TX_HSIOM_REG, UART_1_TX_HSIOM_MASK,
 146              		.loc 1 341 0
 147 0000 0549     		ldr	r1, .L5
 148 0002 0B68     		ldr	r3, [r1]
 149 0004 F022     		mov	r2, #240
 150 0006 9343     		bic	r3, r2
 151 0008 603A     		sub	r2, r2, #96
 152 000a 1343     		orr	r3, r2
 153 000c 0B60     		str	r3, [r1]
 342:.\Generated_Source\PSoC4/UART_1_UART.c ****                                        UART_1_TX_HSIOM_POS, UART_1_TX_HSIOM_SEL_UART);
 343:.\Generated_Source\PSoC4/UART_1_UART.c ****     #endif /* (UART_1_UART_TX_PIN) */
 344:.\Generated_Source\PSoC4/UART_1_UART.c **** 
 345:.\Generated_Source\PSoC4/UART_1_UART.c ****     #if (UART_1_UART_RTS_PIN)
 346:.\Generated_Source\PSoC4/UART_1_UART.c ****         /* Set SCB UART to drive the output pin */
 347:.\Generated_Source\PSoC4/UART_1_UART.c ****         UART_1_SET_HSIOM_SEL(UART_1_RTS_HSIOM_REG, UART_1_RTS_HSIOM_MASK,
 348:.\Generated_Source\PSoC4/UART_1_UART.c ****                                        UART_1_RTS_HSIOM_POS, UART_1_RTS_HSIOM_SEL_UART);
 349:.\Generated_Source\PSoC4/UART_1_UART.c ****     #endif /* (UART_1_UART_RTS_PIN) */
 350:.\Generated_Source\PSoC4/UART_1_UART.c **** #endif /* (UART_1_SCB_MODE_UNCONFIG_CONST_CFG) */
 351:.\Generated_Source\PSoC4/UART_1_UART.c **** 
 352:.\Generated_Source\PSoC4/UART_1_UART.c ****     /* Restore TX interrupt sources. */
 353:.\Generated_Source\PSoC4/UART_1_UART.c ****     UART_1_SetTxInterruptMode(UART_1_IntrTxMask);
 154              		.loc 1 353 0
 155 000e 034B     		ldr	r3, .L5+4
 156 0010 1A88     		ldrh	r2, [r3]
 157 0012 034B     		ldr	r3, .L5+8
 158 0014 1A60     		str	r2, [r3]
 354:.\Generated_Source\PSoC4/UART_1_UART.c **** }
 159              		.loc 1 354 0
ARM GAS  C:\Users\glenn\AppData\Local\Temp\ccNOMZ3x.s 			page 10


 160              		@ sp needed
 161 0016 7047     		bx	lr
 162              	.L6:
 163              		.align	2
 164              	.L5:
 165 0018 00010240 		.word	1073873152
 166 001c 00000000 		.word	UART_1_IntrTxMask
 167 0020 880F2440 		.word	1076105096
 168              		.cfi_endproc
 169              	.LFE2:
 170              		.size	UART_1_UartPostEnable, .-UART_1_UartPostEnable
 171              		.section	.text.UART_1_UartStop,"ax",%progbits
 172              		.align	2
 173              		.global	UART_1_UartStop
 174              		.code	16
 175              		.thumb_func
 176              		.type	UART_1_UartStop, %function
 177              	UART_1_UartStop:
 178              	.LFB3:
 355:.\Generated_Source\PSoC4/UART_1_UART.c **** 
 356:.\Generated_Source\PSoC4/UART_1_UART.c **** 
 357:.\Generated_Source\PSoC4/UART_1_UART.c **** /*******************************************************************************
 358:.\Generated_Source\PSoC4/UART_1_UART.c **** * Function Name: UART_1_UartStop
 359:.\Generated_Source\PSoC4/UART_1_UART.c **** ****************************************************************************//**
 360:.\Generated_Source\PSoC4/UART_1_UART.c **** *
 361:.\Generated_Source\PSoC4/UART_1_UART.c **** *  Changes the HSIOM settings for the UART output pins (TX and/or RTS) to keep
 362:.\Generated_Source\PSoC4/UART_1_UART.c **** *  them inactive after the block is disabled. The output pins are controlled by
 363:.\Generated_Source\PSoC4/UART_1_UART.c **** *  the GPIO data register. Also, the function disables the skip start feature
 364:.\Generated_Source\PSoC4/UART_1_UART.c **** *  to not cause it to trigger after the component is enabled.
 365:.\Generated_Source\PSoC4/UART_1_UART.c **** *
 366:.\Generated_Source\PSoC4/UART_1_UART.c **** *******************************************************************************/
 367:.\Generated_Source\PSoC4/UART_1_UART.c **** void UART_1_UartStop(void)
 368:.\Generated_Source\PSoC4/UART_1_UART.c **** {
 179              		.loc 1 368 0
 180              		.cfi_startproc
 369:.\Generated_Source\PSoC4/UART_1_UART.c **** #if(UART_1_SCB_MODE_UNCONFIG_CONST_CFG)
 370:.\Generated_Source\PSoC4/UART_1_UART.c ****     #if (UART_1_TX_SDA_MISO_PIN)
 371:.\Generated_Source\PSoC4/UART_1_UART.c ****         if (UART_1_CHECK_TX_SDA_MISO_PIN_USED)
 372:.\Generated_Source\PSoC4/UART_1_UART.c ****         {
 373:.\Generated_Source\PSoC4/UART_1_UART.c ****             /* Set GPIO to drive output pin */
 374:.\Generated_Source\PSoC4/UART_1_UART.c ****             UART_1_SET_HSIOM_SEL(UART_1_TX_SDA_MISO_HSIOM_REG, UART_1_TX_SDA_MISO_HSIOM_MASK,
 375:.\Generated_Source\PSoC4/UART_1_UART.c ****                                            UART_1_TX_SDA_MISO_HSIOM_POS, UART_1_TX_SDA_MISO_HSIOM_S
 376:.\Generated_Source\PSoC4/UART_1_UART.c ****         }
 377:.\Generated_Source\PSoC4/UART_1_UART.c ****     #endif /* (UART_1_TX_SDA_MISO_PIN_PIN) */
 378:.\Generated_Source\PSoC4/UART_1_UART.c **** 
 379:.\Generated_Source\PSoC4/UART_1_UART.c ****     #if !(UART_1_CY_SCBIP_V0 || UART_1_CY_SCBIP_V1)
 380:.\Generated_Source\PSoC4/UART_1_UART.c ****         #if (UART_1_RTS_SS0_PIN)
 381:.\Generated_Source\PSoC4/UART_1_UART.c ****             if (UART_1_CHECK_RTS_SS0_PIN_USED)
 382:.\Generated_Source\PSoC4/UART_1_UART.c ****             {
 383:.\Generated_Source\PSoC4/UART_1_UART.c ****                 /* Set output pin state after block is disabled */
 384:.\Generated_Source\PSoC4/UART_1_UART.c ****                 UART_1_uart_rts_spi_ss0_Write(UART_1_GET_UART_RTS_INACTIVE);
 385:.\Generated_Source\PSoC4/UART_1_UART.c **** 
 386:.\Generated_Source\PSoC4/UART_1_UART.c ****                 /* Set GPIO to drive output pin */
 387:.\Generated_Source\PSoC4/UART_1_UART.c ****                 UART_1_SET_HSIOM_SEL(UART_1_RTS_SS0_HSIOM_REG, UART_1_RTS_SS0_HSIOM_MASK,
 388:.\Generated_Source\PSoC4/UART_1_UART.c ****                                                UART_1_RTS_SS0_HSIOM_POS, UART_1_RTS_SS0_HSIOM_SEL_G
 389:.\Generated_Source\PSoC4/UART_1_UART.c ****             }
 390:.\Generated_Source\PSoC4/UART_1_UART.c ****         #endif /* (UART_1_RTS_SS0_PIN) */
ARM GAS  C:\Users\glenn\AppData\Local\Temp\ccNOMZ3x.s 			page 11


 391:.\Generated_Source\PSoC4/UART_1_UART.c ****     #endif /* !(UART_1_CY_SCBIP_V0 || UART_1_CY_SCBIP_V1) */
 392:.\Generated_Source\PSoC4/UART_1_UART.c **** 
 393:.\Generated_Source\PSoC4/UART_1_UART.c **** #else
 394:.\Generated_Source\PSoC4/UART_1_UART.c ****     #if (UART_1_UART_TX_PIN)
 395:.\Generated_Source\PSoC4/UART_1_UART.c ****         /* Set GPIO to drive output pin */
 396:.\Generated_Source\PSoC4/UART_1_UART.c ****         UART_1_SET_HSIOM_SEL(UART_1_TX_HSIOM_REG, UART_1_TX_HSIOM_MASK,
 181              		.loc 1 396 0
 182 0000 064A     		ldr	r2, .L8
 183 0002 1368     		ldr	r3, [r2]
 184 0004 F021     		mov	r1, #240
 185 0006 8B43     		bic	r3, r1
 186 0008 1360     		str	r3, [r2]
 397:.\Generated_Source\PSoC4/UART_1_UART.c ****                                        UART_1_TX_HSIOM_POS, UART_1_TX_HSIOM_SEL_GPIO);
 398:.\Generated_Source\PSoC4/UART_1_UART.c ****     #endif /* (UART_1_UART_TX_PIN) */
 399:.\Generated_Source\PSoC4/UART_1_UART.c **** 
 400:.\Generated_Source\PSoC4/UART_1_UART.c ****     #if (UART_1_UART_RTS_PIN)
 401:.\Generated_Source\PSoC4/UART_1_UART.c ****         /* Set output pin state after block is disabled */
 402:.\Generated_Source\PSoC4/UART_1_UART.c ****         UART_1_rts_Write(UART_1_GET_UART_RTS_INACTIVE);
 403:.\Generated_Source\PSoC4/UART_1_UART.c **** 
 404:.\Generated_Source\PSoC4/UART_1_UART.c ****         /* Set GPIO to drive output pin */
 405:.\Generated_Source\PSoC4/UART_1_UART.c ****         UART_1_SET_HSIOM_SEL(UART_1_RTS_HSIOM_REG, UART_1_RTS_HSIOM_MASK,
 406:.\Generated_Source\PSoC4/UART_1_UART.c ****                                        UART_1_RTS_HSIOM_POS, UART_1_RTS_HSIOM_SEL_GPIO);
 407:.\Generated_Source\PSoC4/UART_1_UART.c ****     #endif /* (UART_1_UART_RTS_PIN) */
 408:.\Generated_Source\PSoC4/UART_1_UART.c **** 
 409:.\Generated_Source\PSoC4/UART_1_UART.c **** #endif /* (UART_1_SCB_MODE_UNCONFIG_CONST_CFG) */
 410:.\Generated_Source\PSoC4/UART_1_UART.c **** 
 411:.\Generated_Source\PSoC4/UART_1_UART.c **** #if (UART_1_UART_WAKE_ENABLE_CONST)
 412:.\Generated_Source\PSoC4/UART_1_UART.c ****     /* Disable skip start feature used for wakeup */
 413:.\Generated_Source\PSoC4/UART_1_UART.c ****     UART_1_UART_RX_CTRL_REG &= (uint32) ~UART_1_UART_RX_CTRL_SKIP_START;
 414:.\Generated_Source\PSoC4/UART_1_UART.c **** #endif /* (UART_1_UART_WAKE_ENABLE_CONST) */
 415:.\Generated_Source\PSoC4/UART_1_UART.c **** 
 416:.\Generated_Source\PSoC4/UART_1_UART.c ****     /* Store TX interrupt sources (exclude level triggered). */
 417:.\Generated_Source\PSoC4/UART_1_UART.c ****     UART_1_IntrTxMask = LO16(UART_1_GetTxInterruptMode() & UART_1_INTR_UART_TX_RESTORE);
 187              		.loc 1 417 0
 188 000a 054B     		ldr	r3, .L8+4
 189 000c 1A68     		ldr	r2, [r3]
 190 000e E423     		mov	r3, #228
 191 0010 DB00     		lsl	r3, r3, #3
 192 0012 1340     		and	r3, r2
 193 0014 034A     		ldr	r2, .L8+8
 194 0016 1380     		strh	r3, [r2]
 418:.\Generated_Source\PSoC4/UART_1_UART.c **** }
 195              		.loc 1 418 0
 196              		@ sp needed
 197 0018 7047     		bx	lr
 198              	.L9:
 199 001a C046     		.align	2
 200              	.L8:
 201 001c 00010240 		.word	1073873152
 202 0020 880F2440 		.word	1076105096
 203 0024 00000000 		.word	UART_1_IntrTxMask
 204              		.cfi_endproc
 205              	.LFE3:
 206              		.size	UART_1_UartStop, .-UART_1_UartStop
 207              		.section	.text.UART_1_UartSetRxAddress,"ax",%progbits
 208              		.align	2
 209              		.global	UART_1_UartSetRxAddress
ARM GAS  C:\Users\glenn\AppData\Local\Temp\ccNOMZ3x.s 			page 12


 210              		.code	16
 211              		.thumb_func
 212              		.type	UART_1_UartSetRxAddress, %function
 213              	UART_1_UartSetRxAddress:
 214              	.LFB4:
 419:.\Generated_Source\PSoC4/UART_1_UART.c **** 
 420:.\Generated_Source\PSoC4/UART_1_UART.c **** 
 421:.\Generated_Source\PSoC4/UART_1_UART.c **** /*******************************************************************************
 422:.\Generated_Source\PSoC4/UART_1_UART.c **** * Function Name: UART_1_UartSetRxAddress
 423:.\Generated_Source\PSoC4/UART_1_UART.c **** ****************************************************************************//**
 424:.\Generated_Source\PSoC4/UART_1_UART.c **** *
 425:.\Generated_Source\PSoC4/UART_1_UART.c **** *  Sets the hardware detectable receiver address for the UART in the
 426:.\Generated_Source\PSoC4/UART_1_UART.c **** *  Multiprocessor mode.
 427:.\Generated_Source\PSoC4/UART_1_UART.c **** *
 428:.\Generated_Source\PSoC4/UART_1_UART.c **** *  \param address: Address for hardware address detection.
 429:.\Generated_Source\PSoC4/UART_1_UART.c **** *
 430:.\Generated_Source\PSoC4/UART_1_UART.c **** *******************************************************************************/
 431:.\Generated_Source\PSoC4/UART_1_UART.c **** void UART_1_UartSetRxAddress(uint32 address)
 432:.\Generated_Source\PSoC4/UART_1_UART.c **** {
 215              		.loc 1 432 0
 216              		.cfi_startproc
 217              	.LVL3:
 433:.\Generated_Source\PSoC4/UART_1_UART.c ****      uint32 matchReg;
 434:.\Generated_Source\PSoC4/UART_1_UART.c **** 
 435:.\Generated_Source\PSoC4/UART_1_UART.c ****     matchReg = UART_1_RX_MATCH_REG;
 218              		.loc 1 435 0
 219 0000 034A     		ldr	r2, .L11
 220 0002 1368     		ldr	r3, [r2]
 221              	.LVL4:
 436:.\Generated_Source\PSoC4/UART_1_UART.c **** 
 437:.\Generated_Source\PSoC4/UART_1_UART.c ****     matchReg &= ((uint32) ~UART_1_RX_MATCH_ADDR_MASK); /* Clear address bits */
 222              		.loc 1 437 0
 223 0004 FF21     		mov	r1, #255
 224 0006 8B43     		bic	r3, r1
 225              	.LVL5:
 438:.\Generated_Source\PSoC4/UART_1_UART.c ****     matchReg |= ((uint32)  (address & UART_1_RX_MATCH_ADDR_MASK)); /* Set address  */
 226              		.loc 1 438 0
 227 0008 0840     		and	r0, r1
 228              	.LVL6:
 229 000a 1843     		orr	r0, r3
 230              	.LVL7:
 439:.\Generated_Source\PSoC4/UART_1_UART.c **** 
 440:.\Generated_Source\PSoC4/UART_1_UART.c ****     UART_1_RX_MATCH_REG = matchReg;
 231              		.loc 1 440 0
 232 000c 1060     		str	r0, [r2]
 441:.\Generated_Source\PSoC4/UART_1_UART.c **** }
 233              		.loc 1 441 0
 234              		@ sp needed
 235 000e 7047     		bx	lr
 236              	.L12:
 237              		.align	2
 238              	.L11:
 239 0010 10032440 		.word	1076101904
 240              		.cfi_endproc
 241              	.LFE4:
 242              		.size	UART_1_UartSetRxAddress, .-UART_1_UartSetRxAddress
 243              		.section	.text.UART_1_UartSetRxAddressMask,"ax",%progbits
ARM GAS  C:\Users\glenn\AppData\Local\Temp\ccNOMZ3x.s 			page 13


 244              		.align	2
 245              		.global	UART_1_UartSetRxAddressMask
 246              		.code	16
 247              		.thumb_func
 248              		.type	UART_1_UartSetRxAddressMask, %function
 249              	UART_1_UartSetRxAddressMask:
 250              	.LFB5:
 442:.\Generated_Source\PSoC4/UART_1_UART.c **** 
 443:.\Generated_Source\PSoC4/UART_1_UART.c **** 
 444:.\Generated_Source\PSoC4/UART_1_UART.c **** /*******************************************************************************
 445:.\Generated_Source\PSoC4/UART_1_UART.c **** * Function Name: UART_1_UartSetRxAddressMask
 446:.\Generated_Source\PSoC4/UART_1_UART.c **** ****************************************************************************//**
 447:.\Generated_Source\PSoC4/UART_1_UART.c **** *
 448:.\Generated_Source\PSoC4/UART_1_UART.c **** *  Sets the hardware address mask for the UART in the Multiprocessor mode.
 449:.\Generated_Source\PSoC4/UART_1_UART.c **** *
 450:.\Generated_Source\PSoC4/UART_1_UART.c **** *  \param addressMask: Address mask.
 451:.\Generated_Source\PSoC4/UART_1_UART.c **** *   - Bit value 0 – excludes bit from address comparison.
 452:.\Generated_Source\PSoC4/UART_1_UART.c **** *   - Bit value 1 – the bit needs to match with the corresponding bit
 453:.\Generated_Source\PSoC4/UART_1_UART.c **** *     of the address.
 454:.\Generated_Source\PSoC4/UART_1_UART.c **** *
 455:.\Generated_Source\PSoC4/UART_1_UART.c **** *******************************************************************************/
 456:.\Generated_Source\PSoC4/UART_1_UART.c **** void UART_1_UartSetRxAddressMask(uint32 addressMask)
 457:.\Generated_Source\PSoC4/UART_1_UART.c **** {
 251              		.loc 1 457 0
 252              		.cfi_startproc
 253              	.LVL8:
 458:.\Generated_Source\PSoC4/UART_1_UART.c ****     uint32 matchReg;
 459:.\Generated_Source\PSoC4/UART_1_UART.c **** 
 460:.\Generated_Source\PSoC4/UART_1_UART.c ****     matchReg = UART_1_RX_MATCH_REG;
 254              		.loc 1 460 0
 255 0000 034A     		ldr	r2, .L14
 256 0002 1168     		ldr	r1, [r2]
 257              	.LVL9:
 461:.\Generated_Source\PSoC4/UART_1_UART.c **** 
 462:.\Generated_Source\PSoC4/UART_1_UART.c ****     matchReg &= ((uint32) ~UART_1_RX_MATCH_MASK_MASK); /* Clear address mask bits */
 258              		.loc 1 462 0
 259 0004 034B     		ldr	r3, .L14+4
 260 0006 0B40     		and	r3, r1
 261              	.LVL10:
 463:.\Generated_Source\PSoC4/UART_1_UART.c ****     matchReg |= ((uint32) (addressMask << UART_1_RX_MATCH_MASK_POS));
 262              		.loc 1 463 0
 263 0008 0004     		lsl	r0, r0, #16
 264              	.LVL11:
 265 000a 1843     		orr	r0, r3
 266              	.LVL12:
 464:.\Generated_Source\PSoC4/UART_1_UART.c **** 
 465:.\Generated_Source\PSoC4/UART_1_UART.c ****     UART_1_RX_MATCH_REG = matchReg;
 267              		.loc 1 465 0
 268 000c 1060     		str	r0, [r2]
 466:.\Generated_Source\PSoC4/UART_1_UART.c **** }
 269              		.loc 1 466 0
 270              		@ sp needed
 271 000e 7047     		bx	lr
 272              	.L15:
 273              		.align	2
 274              	.L14:
 275 0010 10032440 		.word	1076101904
ARM GAS  C:\Users\glenn\AppData\Local\Temp\ccNOMZ3x.s 			page 14


 276 0014 FFFF00FF 		.word	-16711681
 277              		.cfi_endproc
 278              	.LFE5:
 279              		.size	UART_1_UartSetRxAddressMask, .-UART_1_UartSetRxAddressMask
 280              		.section	.text.UART_1_UartGetChar,"ax",%progbits
 281              		.align	2
 282              		.global	UART_1_UartGetChar
 283              		.code	16
 284              		.thumb_func
 285              		.type	UART_1_UartGetChar, %function
 286              	UART_1_UartGetChar:
 287              	.LFB6:
 467:.\Generated_Source\PSoC4/UART_1_UART.c **** 
 468:.\Generated_Source\PSoC4/UART_1_UART.c **** 
 469:.\Generated_Source\PSoC4/UART_1_UART.c **** #if(UART_1_UART_RX_DIRECTION)
 470:.\Generated_Source\PSoC4/UART_1_UART.c ****     /*******************************************************************************
 471:.\Generated_Source\PSoC4/UART_1_UART.c ****     * Function Name: UART_1_UartGetChar
 472:.\Generated_Source\PSoC4/UART_1_UART.c ****     ****************************************************************************//**
 473:.\Generated_Source\PSoC4/UART_1_UART.c ****     *
 474:.\Generated_Source\PSoC4/UART_1_UART.c ****     *  Retrieves next data element from receive buffer.
 475:.\Generated_Source\PSoC4/UART_1_UART.c ****     *  This function is designed for ASCII characters and returns a char where
 476:.\Generated_Source\PSoC4/UART_1_UART.c ****     *  1 to 255 are valid characters and 0 indicates an error occurred or no data
 477:.\Generated_Source\PSoC4/UART_1_UART.c ****     *  is present.
 478:.\Generated_Source\PSoC4/UART_1_UART.c ****     *  - RX software buffer is disabled: Returns data element retrieved from RX
 479:.\Generated_Source\PSoC4/UART_1_UART.c ****     *    FIFO.
 480:.\Generated_Source\PSoC4/UART_1_UART.c ****     *  - RX software buffer is enabled: Returns data element from the software
 481:.\Generated_Source\PSoC4/UART_1_UART.c ****     *    receive buffer.
 482:.\Generated_Source\PSoC4/UART_1_UART.c ****     *
 483:.\Generated_Source\PSoC4/UART_1_UART.c ****     *  \return
 484:.\Generated_Source\PSoC4/UART_1_UART.c ****     *   Next data element from the receive buffer. ASCII character values from
 485:.\Generated_Source\PSoC4/UART_1_UART.c ****     *   1 to 255 are valid. A returned zero signifies an error condition or no
 486:.\Generated_Source\PSoC4/UART_1_UART.c ****     *   data available.
 487:.\Generated_Source\PSoC4/UART_1_UART.c ****     *
 488:.\Generated_Source\PSoC4/UART_1_UART.c ****     *  \sideeffect
 489:.\Generated_Source\PSoC4/UART_1_UART.c ****     *   The errors bits may not correspond with reading characters due to
 490:.\Generated_Source\PSoC4/UART_1_UART.c ****     *   RX FIFO and software buffer usage.
 491:.\Generated_Source\PSoC4/UART_1_UART.c ****     *   RX software buffer is enabled: The internal software buffer overflow
 492:.\Generated_Source\PSoC4/UART_1_UART.c ****     *   is not treated as an error condition.
 493:.\Generated_Source\PSoC4/UART_1_UART.c ****     *   Check UART_1_rxBufferOverflow to capture that error condition.
 494:.\Generated_Source\PSoC4/UART_1_UART.c ****     *
 495:.\Generated_Source\PSoC4/UART_1_UART.c ****     *******************************************************************************/
 496:.\Generated_Source\PSoC4/UART_1_UART.c ****     uint32 UART_1_UartGetChar(void)
 497:.\Generated_Source\PSoC4/UART_1_UART.c ****     {
 288              		.loc 1 497 0
 289              		.cfi_startproc
 290 0000 08B5     		push	{r3, lr}
 291              		.cfi_def_cfa_offset 8
 292              		.cfi_offset 3, -8
 293              		.cfi_offset 14, -4
 294              	.LVL13:
 498:.\Generated_Source\PSoC4/UART_1_UART.c ****         uint32 rxData = 0u;
 499:.\Generated_Source\PSoC4/UART_1_UART.c **** 
 500:.\Generated_Source\PSoC4/UART_1_UART.c ****         /* Reads data only if there is data to read */
 501:.\Generated_Source\PSoC4/UART_1_UART.c ****         if (0u != UART_1_SpiUartGetRxBufferSize())
 295              		.loc 1 501 0
 296 0002 FFF7FEFF 		bl	UART_1_SpiUartGetRxBufferSize
 297              	.LVL14:
ARM GAS  C:\Users\glenn\AppData\Local\Temp\ccNOMZ3x.s 			page 15


 298 0006 0028     		cmp	r0, #0
 299 0008 02D0     		beq	.L19
 502:.\Generated_Source\PSoC4/UART_1_UART.c ****         {
 503:.\Generated_Source\PSoC4/UART_1_UART.c ****             rxData = UART_1_SpiUartReadRxData();
 300              		.loc 1 503 0
 301 000a FFF7FEFF 		bl	UART_1_SpiUartReadRxData
 302              	.LVL15:
 303 000e 00E0     		b	.L17
 304              	.LVL16:
 305              	.L19:
 498:.\Generated_Source\PSoC4/UART_1_UART.c ****         uint32 rxData = 0u;
 306              		.loc 1 498 0
 307 0010 0020     		mov	r0, #0
 308              	.LVL17:
 309              	.L17:
 504:.\Generated_Source\PSoC4/UART_1_UART.c ****         }
 505:.\Generated_Source\PSoC4/UART_1_UART.c **** 
 506:.\Generated_Source\PSoC4/UART_1_UART.c ****         if (UART_1_CHECK_INTR_RX(UART_1_INTR_RX_ERR))
 310              		.loc 1 506 0
 311 0012 054B     		ldr	r3, .L20
 312 0014 1A68     		ldr	r2, [r3]
 313 0016 D823     		mov	r3, #216
 314 0018 9B00     		lsl	r3, r3, #2
 315 001a 1A42     		tst	r2, r3
 316 001c 03D0     		beq	.L18
 317              	.LVL18:
 507:.\Generated_Source\PSoC4/UART_1_UART.c ****         {
 508:.\Generated_Source\PSoC4/UART_1_UART.c ****             rxData = 0u; /* Error occurred: returns zero */
 509:.\Generated_Source\PSoC4/UART_1_UART.c ****             UART_1_ClearRxInterruptSource(UART_1_INTR_RX_ERR);
 318              		.loc 1 509 0
 319 001e 1A1C     		mov	r2, r3
 320 0020 014B     		ldr	r3, .L20
 321 0022 1A60     		str	r2, [r3]
 508:.\Generated_Source\PSoC4/UART_1_UART.c ****             UART_1_ClearRxInterruptSource(UART_1_INTR_RX_ERR);
 322              		.loc 1 508 0
 323 0024 0020     		mov	r0, #0
 324              	.LVL19:
 325              	.L18:
 510:.\Generated_Source\PSoC4/UART_1_UART.c ****         }
 511:.\Generated_Source\PSoC4/UART_1_UART.c **** 
 512:.\Generated_Source\PSoC4/UART_1_UART.c ****         return (rxData);
 513:.\Generated_Source\PSoC4/UART_1_UART.c ****     }
 326              		.loc 1 513 0
 327              		@ sp needed
 328 0026 08BD     		pop	{r3, pc}
 329              	.L21:
 330              		.align	2
 331              	.L20:
 332 0028 C00F2440 		.word	1076105152
 333              		.cfi_endproc
 334              	.LFE6:
 335              		.size	UART_1_UartGetChar, .-UART_1_UartGetChar
 336              		.section	.text.UART_1_UartGetByte,"ax",%progbits
 337              		.align	2
 338              		.global	UART_1_UartGetByte
 339              		.code	16
 340              		.thumb_func
ARM GAS  C:\Users\glenn\AppData\Local\Temp\ccNOMZ3x.s 			page 16


 341              		.type	UART_1_UartGetByte, %function
 342              	UART_1_UartGetByte:
 343              	.LFB7:
 514:.\Generated_Source\PSoC4/UART_1_UART.c **** 
 515:.\Generated_Source\PSoC4/UART_1_UART.c **** 
 516:.\Generated_Source\PSoC4/UART_1_UART.c ****     /*******************************************************************************
 517:.\Generated_Source\PSoC4/UART_1_UART.c ****     * Function Name: UART_1_UartGetByte
 518:.\Generated_Source\PSoC4/UART_1_UART.c ****     ****************************************************************************//**
 519:.\Generated_Source\PSoC4/UART_1_UART.c ****     *
 520:.\Generated_Source\PSoC4/UART_1_UART.c ****     *  Retrieves the next data element from the receive buffer, returns the
 521:.\Generated_Source\PSoC4/UART_1_UART.c ****     *  received byte and error condition.
 522:.\Generated_Source\PSoC4/UART_1_UART.c ****     *   - The RX software buffer is disabled: returns the data element retrieved
 523:.\Generated_Source\PSoC4/UART_1_UART.c ****     *     from the RX FIFO. Undefined data will be returned if the RX FIFO is
 524:.\Generated_Source\PSoC4/UART_1_UART.c ****     *     empty.
 525:.\Generated_Source\PSoC4/UART_1_UART.c ****     *   - The RX software buffer is enabled: returns data element from the
 526:.\Generated_Source\PSoC4/UART_1_UART.c ****     *     software receive buffer.
 527:.\Generated_Source\PSoC4/UART_1_UART.c ****     *
 528:.\Generated_Source\PSoC4/UART_1_UART.c ****     *  \return
 529:.\Generated_Source\PSoC4/UART_1_UART.c ****     *   Bits 7-0 contain the next data element from the receive buffer and
 530:.\Generated_Source\PSoC4/UART_1_UART.c ****     *   other bits contain the error condition.
 531:.\Generated_Source\PSoC4/UART_1_UART.c ****     *   - UART_1_UART_RX_OVERFLOW - Attempt to write to a full
 532:.\Generated_Source\PSoC4/UART_1_UART.c ****     *     receiver FIFO.
 533:.\Generated_Source\PSoC4/UART_1_UART.c ****     *   - UART_1_UART_RX_UNDERFLOW	Attempt to read from an empty
 534:.\Generated_Source\PSoC4/UART_1_UART.c ****     *     receiver FIFO.
 535:.\Generated_Source\PSoC4/UART_1_UART.c ****     *   - UART_1_UART_RX_FRAME_ERROR - UART framing error detected.
 536:.\Generated_Source\PSoC4/UART_1_UART.c ****     *   - UART_1_UART_RX_PARITY_ERROR - UART parity error detected.
 537:.\Generated_Source\PSoC4/UART_1_UART.c ****     *
 538:.\Generated_Source\PSoC4/UART_1_UART.c ****     *  \sideeffect
 539:.\Generated_Source\PSoC4/UART_1_UART.c ****     *   The errors bits may not correspond with reading characters due to
 540:.\Generated_Source\PSoC4/UART_1_UART.c ****     *   RX FIFO and software buffer usage.
 541:.\Generated_Source\PSoC4/UART_1_UART.c ****     *   RX software buffer is enabled: The internal software buffer overflow
 542:.\Generated_Source\PSoC4/UART_1_UART.c ****     *   is not treated as an error condition.
 543:.\Generated_Source\PSoC4/UART_1_UART.c ****     *   Check UART_1_rxBufferOverflow to capture that error condition.
 544:.\Generated_Source\PSoC4/UART_1_UART.c ****     *
 545:.\Generated_Source\PSoC4/UART_1_UART.c ****     *******************************************************************************/
 546:.\Generated_Source\PSoC4/UART_1_UART.c ****     uint32 UART_1_UartGetByte(void)
 547:.\Generated_Source\PSoC4/UART_1_UART.c ****     {
 344              		.loc 1 547 0
 345              		.cfi_startproc
 346 0000 08B5     		push	{r3, lr}
 347              		.cfi_def_cfa_offset 8
 348              		.cfi_offset 3, -8
 349              		.cfi_offset 14, -4
 548:.\Generated_Source\PSoC4/UART_1_UART.c ****         uint32 rxData;
 549:.\Generated_Source\PSoC4/UART_1_UART.c ****         uint32 tmpStatus;
 550:.\Generated_Source\PSoC4/UART_1_UART.c **** 
 551:.\Generated_Source\PSoC4/UART_1_UART.c ****         #if (UART_1_CHECK_RX_SW_BUFFER)
 552:.\Generated_Source\PSoC4/UART_1_UART.c ****         {
 553:.\Generated_Source\PSoC4/UART_1_UART.c ****             UART_1_DisableInt();
 554:.\Generated_Source\PSoC4/UART_1_UART.c ****         }
 555:.\Generated_Source\PSoC4/UART_1_UART.c ****         #endif
 556:.\Generated_Source\PSoC4/UART_1_UART.c **** 
 557:.\Generated_Source\PSoC4/UART_1_UART.c ****         if (0u != UART_1_SpiUartGetRxBufferSize())
 350              		.loc 1 557 0
 351 0002 FFF7FEFF 		bl	UART_1_SpiUartGetRxBufferSize
 352              	.LVL20:
 353 0006 0028     		cmp	r0, #0
ARM GAS  C:\Users\glenn\AppData\Local\Temp\ccNOMZ3x.s 			page 17


 354 0008 02D0     		beq	.L23
 558:.\Generated_Source\PSoC4/UART_1_UART.c ****         {
 559:.\Generated_Source\PSoC4/UART_1_UART.c ****             /* Enables interrupt to receive more bytes: at least one byte is in
 560:.\Generated_Source\PSoC4/UART_1_UART.c ****             * buffer.
 561:.\Generated_Source\PSoC4/UART_1_UART.c ****             */
 562:.\Generated_Source\PSoC4/UART_1_UART.c ****             #if (UART_1_CHECK_RX_SW_BUFFER)
 563:.\Generated_Source\PSoC4/UART_1_UART.c ****             {
 564:.\Generated_Source\PSoC4/UART_1_UART.c ****                 UART_1_EnableInt();
 565:.\Generated_Source\PSoC4/UART_1_UART.c ****             }
 566:.\Generated_Source\PSoC4/UART_1_UART.c ****             #endif
 567:.\Generated_Source\PSoC4/UART_1_UART.c **** 
 568:.\Generated_Source\PSoC4/UART_1_UART.c ****             /* Get received byte */
 569:.\Generated_Source\PSoC4/UART_1_UART.c ****             rxData = UART_1_SpiUartReadRxData();
 355              		.loc 1 569 0
 356 000a FFF7FEFF 		bl	UART_1_SpiUartReadRxData
 357              	.LVL21:
 358 000e 01E0     		b	.L24
 359              	.LVL22:
 360              	.L23:
 570:.\Generated_Source\PSoC4/UART_1_UART.c ****         }
 571:.\Generated_Source\PSoC4/UART_1_UART.c ****         else
 572:.\Generated_Source\PSoC4/UART_1_UART.c ****         {
 573:.\Generated_Source\PSoC4/UART_1_UART.c ****             /* Reads a byte directly from RX FIFO: underflow is raised in the
 574:.\Generated_Source\PSoC4/UART_1_UART.c ****             * case of empty. Otherwise the first received byte will be read.
 575:.\Generated_Source\PSoC4/UART_1_UART.c ****             */
 576:.\Generated_Source\PSoC4/UART_1_UART.c ****             rxData = UART_1_RX_FIFO_RD_REG;
 361              		.loc 1 576 0
 362 0010 054B     		ldr	r3, .L25
 363 0012 1868     		ldr	r0, [r3]
 364              	.LVL23:
 365              	.L24:
 577:.\Generated_Source\PSoC4/UART_1_UART.c **** 
 578:.\Generated_Source\PSoC4/UART_1_UART.c **** 
 579:.\Generated_Source\PSoC4/UART_1_UART.c ****             /* Enables interrupt to receive more bytes. */
 580:.\Generated_Source\PSoC4/UART_1_UART.c ****             #if (UART_1_CHECK_RX_SW_BUFFER)
 581:.\Generated_Source\PSoC4/UART_1_UART.c ****             {
 582:.\Generated_Source\PSoC4/UART_1_UART.c **** 
 583:.\Generated_Source\PSoC4/UART_1_UART.c ****                 /* The byte has been read from RX FIFO. Clear RX interrupt to
 584:.\Generated_Source\PSoC4/UART_1_UART.c ****                 * not involve interrupt handler when RX FIFO is empty.
 585:.\Generated_Source\PSoC4/UART_1_UART.c ****                 */
 586:.\Generated_Source\PSoC4/UART_1_UART.c ****                 UART_1_ClearRxInterruptSource(UART_1_INTR_RX_NOT_EMPTY);
 587:.\Generated_Source\PSoC4/UART_1_UART.c **** 
 588:.\Generated_Source\PSoC4/UART_1_UART.c ****                 UART_1_EnableInt();
 589:.\Generated_Source\PSoC4/UART_1_UART.c ****             }
 590:.\Generated_Source\PSoC4/UART_1_UART.c ****             #endif
 591:.\Generated_Source\PSoC4/UART_1_UART.c ****         }
 592:.\Generated_Source\PSoC4/UART_1_UART.c **** 
 593:.\Generated_Source\PSoC4/UART_1_UART.c ****         /* Get and clear RX error mask */
 594:.\Generated_Source\PSoC4/UART_1_UART.c ****         tmpStatus = (UART_1_GetRxInterruptSource() & UART_1_INTR_RX_ERR);
 366              		.loc 1 594 0
 367 0014 054A     		ldr	r2, .L25+4
 368 0016 1368     		ldr	r3, [r2]
 369 0018 D821     		mov	r1, #216
 370 001a 8900     		lsl	r1, r1, #2
 371 001c 0B40     		and	r3, r1
 372              	.LVL24:
 595:.\Generated_Source\PSoC4/UART_1_UART.c ****         UART_1_ClearRxInterruptSource(UART_1_INTR_RX_ERR);
ARM GAS  C:\Users\glenn\AppData\Local\Temp\ccNOMZ3x.s 			page 18


 373              		.loc 1 595 0
 374 001e 1160     		str	r1, [r2]
 596:.\Generated_Source\PSoC4/UART_1_UART.c **** 
 597:.\Generated_Source\PSoC4/UART_1_UART.c ****         /* Puts together data and error status:
 598:.\Generated_Source\PSoC4/UART_1_UART.c ****         * MP mode and accept address: 9th bit is set to notify mark.
 599:.\Generated_Source\PSoC4/UART_1_UART.c ****         */
 600:.\Generated_Source\PSoC4/UART_1_UART.c ****         rxData |= ((uint32) (tmpStatus << 8u));
 375              		.loc 1 600 0
 376 0020 1B02     		lsl	r3, r3, #8
 377              	.LVL25:
 378 0022 1843     		orr	r0, r3
 379              	.LVL26:
 601:.\Generated_Source\PSoC4/UART_1_UART.c **** 
 602:.\Generated_Source\PSoC4/UART_1_UART.c ****         return (rxData);
 603:.\Generated_Source\PSoC4/UART_1_UART.c ****     }
 380              		.loc 1 603 0
 381              		@ sp needed
 382 0024 08BD     		pop	{r3, pc}
 383              	.L26:
 384 0026 C046     		.align	2
 385              	.L25:
 386 0028 40032440 		.word	1076101952
 387 002c C00F2440 		.word	1076105152
 388              		.cfi_endproc
 389              	.LFE7:
 390              		.size	UART_1_UartGetByte, .-UART_1_UartGetByte
 391              		.section	.text.UART_1_UartSetRtsPolarity,"ax",%progbits
 392              		.align	2
 393              		.global	UART_1_UartSetRtsPolarity
 394              		.code	16
 395              		.thumb_func
 396              		.type	UART_1_UartSetRtsPolarity, %function
 397              	UART_1_UartSetRtsPolarity:
 398              	.LFB8:
 604:.\Generated_Source\PSoC4/UART_1_UART.c **** 
 605:.\Generated_Source\PSoC4/UART_1_UART.c **** 
 606:.\Generated_Source\PSoC4/UART_1_UART.c ****     #if !(UART_1_CY_SCBIP_V0 || UART_1_CY_SCBIP_V1)
 607:.\Generated_Source\PSoC4/UART_1_UART.c ****         /*******************************************************************************
 608:.\Generated_Source\PSoC4/UART_1_UART.c ****         * Function Name: UART_1_UartSetRtsPolarity
 609:.\Generated_Source\PSoC4/UART_1_UART.c ****         ****************************************************************************//**
 610:.\Generated_Source\PSoC4/UART_1_UART.c ****         *
 611:.\Generated_Source\PSoC4/UART_1_UART.c ****         *  Sets active polarity of RTS output signal.
 612:.\Generated_Source\PSoC4/UART_1_UART.c ****         *  Only available for PSoC 4100 BLE / PSoC 4200 BLE / PSoC 4100M / PSoC 4200M /
 613:.\Generated_Source\PSoC4/UART_1_UART.c ****         *  PSoC 4200L / PSoC 4000S / PSoC 4100S / PSoC Analog Coprocessor devices.
 614:.\Generated_Source\PSoC4/UART_1_UART.c ****         *
 615:.\Generated_Source\PSoC4/UART_1_UART.c ****         *  \param polarity: Active polarity of RTS output signal.
 616:.\Generated_Source\PSoC4/UART_1_UART.c ****         *   - UART_1_UART_RTS_ACTIVE_LOW  - RTS signal is active low.
 617:.\Generated_Source\PSoC4/UART_1_UART.c ****         *   - UART_1_UART_RTS_ACTIVE_HIGH - RTS signal is active high.
 618:.\Generated_Source\PSoC4/UART_1_UART.c ****         *
 619:.\Generated_Source\PSoC4/UART_1_UART.c ****         *******************************************************************************/
 620:.\Generated_Source\PSoC4/UART_1_UART.c ****         void UART_1_UartSetRtsPolarity(uint32 polarity)
 621:.\Generated_Source\PSoC4/UART_1_UART.c ****         {
 399              		.loc 1 621 0
 400              		.cfi_startproc
 401              	.LVL27:
 622:.\Generated_Source\PSoC4/UART_1_UART.c ****             if(0u != polarity)
 402              		.loc 1 622 0
ARM GAS  C:\Users\glenn\AppData\Local\Temp\ccNOMZ3x.s 			page 19


 403 0000 0028     		cmp	r0, #0
 404 0002 06D0     		beq	.L28
 623:.\Generated_Source\PSoC4/UART_1_UART.c ****             {
 624:.\Generated_Source\PSoC4/UART_1_UART.c ****                 UART_1_UART_FLOW_CTRL_REG |= (uint32)  UART_1_UART_FLOW_CTRL_RTS_POLARITY;
 405              		.loc 1 624 0
 406 0004 064A     		ldr	r2, .L30
 407 0006 1368     		ldr	r3, [r2]
 408 0008 8021     		mov	r1, #128
 409 000a 4902     		lsl	r1, r1, #9
 410 000c 0B43     		orr	r3, r1
 411 000e 1360     		str	r3, [r2]
 412 0010 04E0     		b	.L27
 413              	.L28:
 625:.\Generated_Source\PSoC4/UART_1_UART.c ****             }
 626:.\Generated_Source\PSoC4/UART_1_UART.c ****             else
 627:.\Generated_Source\PSoC4/UART_1_UART.c ****             {
 628:.\Generated_Source\PSoC4/UART_1_UART.c ****                 UART_1_UART_FLOW_CTRL_REG &= (uint32) ~UART_1_UART_FLOW_CTRL_RTS_POLARITY;
 414              		.loc 1 628 0
 415 0012 034A     		ldr	r2, .L30
 416 0014 1168     		ldr	r1, [r2]
 417 0016 034B     		ldr	r3, .L30+4
 418 0018 0B40     		and	r3, r1
 419 001a 1360     		str	r3, [r2]
 420              	.L27:
 629:.\Generated_Source\PSoC4/UART_1_UART.c ****             }
 630:.\Generated_Source\PSoC4/UART_1_UART.c ****         }
 421              		.loc 1 630 0
 422              		@ sp needed
 423 001c 7047     		bx	lr
 424              	.L31:
 425 001e C046     		.align	2
 426              	.L30:
 427 0020 50002440 		.word	1076101200
 428 0024 FFFFFEFF 		.word	-65537
 429              		.cfi_endproc
 430              	.LFE8:
 431              		.size	UART_1_UartSetRtsPolarity, .-UART_1_UartSetRtsPolarity
 432              		.section	.text.UART_1_UartSetRtsFifoLevel,"ax",%progbits
 433              		.align	2
 434              		.global	UART_1_UartSetRtsFifoLevel
 435              		.code	16
 436              		.thumb_func
 437              		.type	UART_1_UartSetRtsFifoLevel, %function
 438              	UART_1_UartSetRtsFifoLevel:
 439              	.LFB9:
 631:.\Generated_Source\PSoC4/UART_1_UART.c **** 
 632:.\Generated_Source\PSoC4/UART_1_UART.c **** 
 633:.\Generated_Source\PSoC4/UART_1_UART.c ****         /*******************************************************************************
 634:.\Generated_Source\PSoC4/UART_1_UART.c ****         * Function Name: UART_1_UartSetRtsFifoLevel
 635:.\Generated_Source\PSoC4/UART_1_UART.c ****         ****************************************************************************//**
 636:.\Generated_Source\PSoC4/UART_1_UART.c ****         *
 637:.\Generated_Source\PSoC4/UART_1_UART.c ****         *  Sets level in the RX FIFO for RTS signal activation.
 638:.\Generated_Source\PSoC4/UART_1_UART.c ****         *  While the RX FIFO has fewer entries than the RX FIFO level the RTS signal
 639:.\Generated_Source\PSoC4/UART_1_UART.c ****         *  remains active, otherwise the RTS signal becomes inactive.
 640:.\Generated_Source\PSoC4/UART_1_UART.c ****         *  Only available for PSoC 4100 BLE / PSoC 4200 BLE / PSoC 4100M / PSoC 4200M /
 641:.\Generated_Source\PSoC4/UART_1_UART.c ****         *  PSoC 4200L / PSoC 4000S / PSoC 4100S / PSoC Analog Coprocessor devices.
 642:.\Generated_Source\PSoC4/UART_1_UART.c ****         *
ARM GAS  C:\Users\glenn\AppData\Local\Temp\ccNOMZ3x.s 			page 20


 643:.\Generated_Source\PSoC4/UART_1_UART.c ****         *  \param level: Level in the RX FIFO for RTS signal activation.
 644:.\Generated_Source\PSoC4/UART_1_UART.c ****         *   The range of valid level values is between 0 and RX FIFO depth - 1.
 645:.\Generated_Source\PSoC4/UART_1_UART.c ****         *   Setting level value to 0 disables RTS signal activation.
 646:.\Generated_Source\PSoC4/UART_1_UART.c ****         *
 647:.\Generated_Source\PSoC4/UART_1_UART.c ****         *******************************************************************************/
 648:.\Generated_Source\PSoC4/UART_1_UART.c ****         void UART_1_UartSetRtsFifoLevel(uint32 level)
 649:.\Generated_Source\PSoC4/UART_1_UART.c ****         {
 440              		.loc 1 649 0
 441              		.cfi_startproc
 442              	.LVL28:
 650:.\Generated_Source\PSoC4/UART_1_UART.c ****             uint32 uartFlowCtrl;
 651:.\Generated_Source\PSoC4/UART_1_UART.c **** 
 652:.\Generated_Source\PSoC4/UART_1_UART.c ****             uartFlowCtrl = UART_1_UART_FLOW_CTRL_REG;
 443              		.loc 1 652 0
 444 0000 034A     		ldr	r2, .L33
 445 0002 1368     		ldr	r3, [r2]
 446              	.LVL29:
 653:.\Generated_Source\PSoC4/UART_1_UART.c **** 
 654:.\Generated_Source\PSoC4/UART_1_UART.c ****             uartFlowCtrl &= ((uint32) ~UART_1_UART_FLOW_CTRL_TRIGGER_LEVEL_MASK); /* Clear level ma
 447              		.loc 1 654 0
 448 0004 0F21     		mov	r1, #15
 449 0006 8B43     		bic	r3, r1
 450              	.LVL30:
 655:.\Generated_Source\PSoC4/UART_1_UART.c ****             uartFlowCtrl |= ((uint32) (UART_1_UART_FLOW_CTRL_TRIGGER_LEVEL_MASK & level));
 451              		.loc 1 655 0
 452 0008 0840     		and	r0, r1
 453              	.LVL31:
 454 000a 1843     		orr	r0, r3
 455              	.LVL32:
 656:.\Generated_Source\PSoC4/UART_1_UART.c **** 
 657:.\Generated_Source\PSoC4/UART_1_UART.c ****             UART_1_UART_FLOW_CTRL_REG = uartFlowCtrl;
 456              		.loc 1 657 0
 457 000c 1060     		str	r0, [r2]
 658:.\Generated_Source\PSoC4/UART_1_UART.c ****         }
 458              		.loc 1 658 0
 459              		@ sp needed
 460 000e 7047     		bx	lr
 461              	.L34:
 462              		.align	2
 463              	.L33:
 464 0010 50002440 		.word	1076101200
 465              		.cfi_endproc
 466              	.LFE9:
 467              		.size	UART_1_UartSetRtsFifoLevel, .-UART_1_UartSetRtsFifoLevel
 468              		.section	.text.UART_1_UartPutString,"ax",%progbits
 469              		.align	2
 470              		.global	UART_1_UartPutString
 471              		.code	16
 472              		.thumb_func
 473              		.type	UART_1_UartPutString, %function
 474              	UART_1_UartPutString:
 475              	.LFB10:
 659:.\Generated_Source\PSoC4/UART_1_UART.c ****     #endif /* !(UART_1_CY_SCBIP_V0 || UART_1_CY_SCBIP_V1) */
 660:.\Generated_Source\PSoC4/UART_1_UART.c **** 
 661:.\Generated_Source\PSoC4/UART_1_UART.c **** #endif /* (UART_1_UART_RX_DIRECTION) */
 662:.\Generated_Source\PSoC4/UART_1_UART.c **** 
 663:.\Generated_Source\PSoC4/UART_1_UART.c **** 
ARM GAS  C:\Users\glenn\AppData\Local\Temp\ccNOMZ3x.s 			page 21


 664:.\Generated_Source\PSoC4/UART_1_UART.c **** #if(UART_1_UART_TX_DIRECTION)
 665:.\Generated_Source\PSoC4/UART_1_UART.c ****     /*******************************************************************************
 666:.\Generated_Source\PSoC4/UART_1_UART.c ****     * Function Name: UART_1_UartPutString
 667:.\Generated_Source\PSoC4/UART_1_UART.c ****     ****************************************************************************//**
 668:.\Generated_Source\PSoC4/UART_1_UART.c ****     *
 669:.\Generated_Source\PSoC4/UART_1_UART.c ****     *  Places a NULL terminated string in the transmit buffer to be sent at the
 670:.\Generated_Source\PSoC4/UART_1_UART.c ****     *  next available bus time.
 671:.\Generated_Source\PSoC4/UART_1_UART.c ****     *  This function is blocking and waits until there is a space available to put
 672:.\Generated_Source\PSoC4/UART_1_UART.c ****     *  requested data in transmit buffer.
 673:.\Generated_Source\PSoC4/UART_1_UART.c ****     *
 674:.\Generated_Source\PSoC4/UART_1_UART.c ****     *  \param string: pointer to the null terminated string array to be placed in the
 675:.\Generated_Source\PSoC4/UART_1_UART.c ****     *   transmit buffer.
 676:.\Generated_Source\PSoC4/UART_1_UART.c ****     *
 677:.\Generated_Source\PSoC4/UART_1_UART.c ****     *******************************************************************************/
 678:.\Generated_Source\PSoC4/UART_1_UART.c ****     void UART_1_UartPutString(const char8 string[])
 679:.\Generated_Source\PSoC4/UART_1_UART.c ****     {
 476              		.loc 1 679 0
 477              		.cfi_startproc
 478              	.LVL33:
 479 0000 38B5     		push	{r3, r4, r5, lr}
 480              		.cfi_def_cfa_offset 16
 481              		.cfi_offset 3, -16
 482              		.cfi_offset 4, -12
 483              		.cfi_offset 5, -8
 484              		.cfi_offset 14, -4
 485 0002 051C     		mov	r5, r0
 486              	.LVL34:
 680:.\Generated_Source\PSoC4/UART_1_UART.c ****         uint32 bufIndex;
 681:.\Generated_Source\PSoC4/UART_1_UART.c **** 
 682:.\Generated_Source\PSoC4/UART_1_UART.c ****         bufIndex = 0u;
 487              		.loc 1 682 0
 488 0004 0024     		mov	r4, #0
 683:.\Generated_Source\PSoC4/UART_1_UART.c **** 
 684:.\Generated_Source\PSoC4/UART_1_UART.c ****         /* Blocks the control flow until all data has been sent */
 685:.\Generated_Source\PSoC4/UART_1_UART.c ****         while(string[bufIndex] != ((char8) 0))
 489              		.loc 1 685 0
 490 0006 02E0     		b	.L36
 491              	.LVL35:
 492              	.L37:
 686:.\Generated_Source\PSoC4/UART_1_UART.c ****         {
 687:.\Generated_Source\PSoC4/UART_1_UART.c ****             UART_1_UartPutChar((uint32) string[bufIndex]);
 493              		.loc 1 687 0
 494 0008 FFF7FEFF 		bl	UART_1_SpiUartWriteTxData
 495              	.LVL36:
 688:.\Generated_Source\PSoC4/UART_1_UART.c ****             bufIndex++;
 496              		.loc 1 688 0
 497 000c 0134     		add	r4, r4, #1
 498              	.LVL37:
 499              	.L36:
 685:.\Generated_Source\PSoC4/UART_1_UART.c ****         {
 500              		.loc 1 685 0
 501 000e 285D     		ldrb	r0, [r5, r4]
 502 0010 0028     		cmp	r0, #0
 503 0012 F9D1     		bne	.L37
 689:.\Generated_Source\PSoC4/UART_1_UART.c ****         }
 690:.\Generated_Source\PSoC4/UART_1_UART.c ****     }
 504              		.loc 1 690 0
ARM GAS  C:\Users\glenn\AppData\Local\Temp\ccNOMZ3x.s 			page 22


 505              		@ sp needed
 506              	.LVL38:
 507              	.LVL39:
 508 0014 38BD     		pop	{r3, r4, r5, pc}
 509              		.cfi_endproc
 510              	.LFE10:
 511              		.size	UART_1_UartPutString, .-UART_1_UartPutString
 512 0016 C046     		.section	.text.UART_1_UartPutCRLF,"ax",%progbits
 513              		.align	2
 514              		.global	UART_1_UartPutCRLF
 515              		.code	16
 516              		.thumb_func
 517              		.type	UART_1_UartPutCRLF, %function
 518              	UART_1_UartPutCRLF:
 519              	.LFB11:
 691:.\Generated_Source\PSoC4/UART_1_UART.c **** 
 692:.\Generated_Source\PSoC4/UART_1_UART.c **** 
 693:.\Generated_Source\PSoC4/UART_1_UART.c ****     /*******************************************************************************
 694:.\Generated_Source\PSoC4/UART_1_UART.c ****     * Function Name: UART_1_UartPutCRLF
 695:.\Generated_Source\PSoC4/UART_1_UART.c ****     ****************************************************************************//**
 696:.\Generated_Source\PSoC4/UART_1_UART.c ****     *
 697:.\Generated_Source\PSoC4/UART_1_UART.c ****     *  Places byte of data followed by a carriage return (0x0D) and line feed
 698:.\Generated_Source\PSoC4/UART_1_UART.c ****     *  (0x0A) in the transmit buffer.
 699:.\Generated_Source\PSoC4/UART_1_UART.c ****     *  This function is blocking and waits until there is a space available to put
 700:.\Generated_Source\PSoC4/UART_1_UART.c ****     *  all requested data in transmit buffer.
 701:.\Generated_Source\PSoC4/UART_1_UART.c ****     *
 702:.\Generated_Source\PSoC4/UART_1_UART.c ****     *  \param txDataByte: the data to be transmitted.
 703:.\Generated_Source\PSoC4/UART_1_UART.c ****     *
 704:.\Generated_Source\PSoC4/UART_1_UART.c ****     *******************************************************************************/
 705:.\Generated_Source\PSoC4/UART_1_UART.c ****     void UART_1_UartPutCRLF(uint32 txDataByte)
 706:.\Generated_Source\PSoC4/UART_1_UART.c ****     {
 520              		.loc 1 706 0
 521              		.cfi_startproc
 522              	.LVL40:
 523 0000 08B5     		push	{r3, lr}
 524              		.cfi_def_cfa_offset 8
 525              		.cfi_offset 3, -8
 526              		.cfi_offset 14, -4
 707:.\Generated_Source\PSoC4/UART_1_UART.c ****         UART_1_UartPutChar(txDataByte);  /* Blocks control flow until all data has been sent */
 527              		.loc 1 707 0
 528 0002 FFF7FEFF 		bl	UART_1_SpiUartWriteTxData
 529              	.LVL41:
 708:.\Generated_Source\PSoC4/UART_1_UART.c ****         UART_1_UartPutChar(0x0Du);       /* Blocks control flow until all data has been sent */
 530              		.loc 1 708 0
 531 0006 0D20     		mov	r0, #13
 532 0008 FFF7FEFF 		bl	UART_1_SpiUartWriteTxData
 533              	.LVL42:
 709:.\Generated_Source\PSoC4/UART_1_UART.c ****         UART_1_UartPutChar(0x0Au);       /* Blocks control flow until all data has been sent */
 534              		.loc 1 709 0
 535 000c 0A20     		mov	r0, #10
 536 000e FFF7FEFF 		bl	UART_1_SpiUartWriteTxData
 537              	.LVL43:
 710:.\Generated_Source\PSoC4/UART_1_UART.c ****     }
 538              		.loc 1 710 0
 539              		@ sp needed
 540 0012 08BD     		pop	{r3, pc}
 541              		.cfi_endproc
ARM GAS  C:\Users\glenn\AppData\Local\Temp\ccNOMZ3x.s 			page 23


 542              	.LFE11:
 543              		.size	UART_1_UartPutCRLF, .-UART_1_UartPutCRLF
 544              		.section	.text.UART_1_UartEnableCts,"ax",%progbits
 545              		.align	2
 546              		.global	UART_1_UartEnableCts
 547              		.code	16
 548              		.thumb_func
 549              		.type	UART_1_UartEnableCts, %function
 550              	UART_1_UartEnableCts:
 551              	.LFB12:
 711:.\Generated_Source\PSoC4/UART_1_UART.c **** 
 712:.\Generated_Source\PSoC4/UART_1_UART.c **** 
 713:.\Generated_Source\PSoC4/UART_1_UART.c ****     #if !(UART_1_CY_SCBIP_V0 || UART_1_CY_SCBIP_V1)
 714:.\Generated_Source\PSoC4/UART_1_UART.c ****         /*******************************************************************************
 715:.\Generated_Source\PSoC4/UART_1_UART.c ****         * Function Name: UART_1SCB_UartEnableCts
 716:.\Generated_Source\PSoC4/UART_1_UART.c ****         ****************************************************************************//**
 717:.\Generated_Source\PSoC4/UART_1_UART.c ****         *
 718:.\Generated_Source\PSoC4/UART_1_UART.c ****         *  Enables usage of CTS input signal by the UART transmitter.
 719:.\Generated_Source\PSoC4/UART_1_UART.c ****         *  Only available for PSoC 4100 BLE / PSoC 4200 BLE / PSoC 4100M / PSoC 4200M /
 720:.\Generated_Source\PSoC4/UART_1_UART.c ****         *  PSoC 4200L / PSoC 4000S / PSoC 4100S / PSoC Analog Coprocessor devices.
 721:.\Generated_Source\PSoC4/UART_1_UART.c ****         *
 722:.\Generated_Source\PSoC4/UART_1_UART.c ****         *******************************************************************************/
 723:.\Generated_Source\PSoC4/UART_1_UART.c ****         void UART_1_UartEnableCts(void)
 724:.\Generated_Source\PSoC4/UART_1_UART.c ****         {
 552              		.loc 1 724 0
 553              		.cfi_startproc
 725:.\Generated_Source\PSoC4/UART_1_UART.c ****             UART_1_UART_FLOW_CTRL_REG |= (uint32)  UART_1_UART_FLOW_CTRL_CTS_ENABLE;
 554              		.loc 1 725 0
 555 0000 034A     		ldr	r2, .L40
 556 0002 1368     		ldr	r3, [r2]
 557 0004 8021     		mov	r1, #128
 558 0006 8904     		lsl	r1, r1, #18
 559 0008 0B43     		orr	r3, r1
 560 000a 1360     		str	r3, [r2]
 726:.\Generated_Source\PSoC4/UART_1_UART.c ****         }
 561              		.loc 1 726 0
 562              		@ sp needed
 563 000c 7047     		bx	lr
 564              	.L41:
 565 000e C046     		.align	2
 566              	.L40:
 567 0010 50002440 		.word	1076101200
 568              		.cfi_endproc
 569              	.LFE12:
 570              		.size	UART_1_UartEnableCts, .-UART_1_UartEnableCts
 571              		.section	.text.UART_1_UartDisableCts,"ax",%progbits
 572              		.align	2
 573              		.global	UART_1_UartDisableCts
 574              		.code	16
 575              		.thumb_func
 576              		.type	UART_1_UartDisableCts, %function
 577              	UART_1_UartDisableCts:
 578              	.LFB13:
 727:.\Generated_Source\PSoC4/UART_1_UART.c **** 
 728:.\Generated_Source\PSoC4/UART_1_UART.c **** 
 729:.\Generated_Source\PSoC4/UART_1_UART.c ****         /*******************************************************************************
 730:.\Generated_Source\PSoC4/UART_1_UART.c ****         * Function Name: UART_1_UartDisableCts
ARM GAS  C:\Users\glenn\AppData\Local\Temp\ccNOMZ3x.s 			page 24


 731:.\Generated_Source\PSoC4/UART_1_UART.c ****         ****************************************************************************//**
 732:.\Generated_Source\PSoC4/UART_1_UART.c ****         *
 733:.\Generated_Source\PSoC4/UART_1_UART.c ****         *  Disables usage of CTS input signal by the UART transmitter.
 734:.\Generated_Source\PSoC4/UART_1_UART.c ****         *  Only available for PSoC 4100 BLE / PSoC 4200 BLE / PSoC 4100M / PSoC 4200M /
 735:.\Generated_Source\PSoC4/UART_1_UART.c ****         *  PSoC 4200L / PSoC 4000S / PSoC 4100S / PSoC Analog Coprocessor devices.
 736:.\Generated_Source\PSoC4/UART_1_UART.c ****         *
 737:.\Generated_Source\PSoC4/UART_1_UART.c ****         *******************************************************************************/
 738:.\Generated_Source\PSoC4/UART_1_UART.c ****         void UART_1_UartDisableCts(void)
 739:.\Generated_Source\PSoC4/UART_1_UART.c ****         {
 579              		.loc 1 739 0
 580              		.cfi_startproc
 740:.\Generated_Source\PSoC4/UART_1_UART.c ****             UART_1_UART_FLOW_CTRL_REG &= (uint32) ~UART_1_UART_FLOW_CTRL_CTS_ENABLE;
 581              		.loc 1 740 0
 582 0000 024A     		ldr	r2, .L43
 583 0002 1168     		ldr	r1, [r2]
 584 0004 024B     		ldr	r3, .L43+4
 585 0006 0B40     		and	r3, r1
 586 0008 1360     		str	r3, [r2]
 741:.\Generated_Source\PSoC4/UART_1_UART.c ****         }
 587              		.loc 1 741 0
 588              		@ sp needed
 589 000a 7047     		bx	lr
 590              	.L44:
 591              		.align	2
 592              	.L43:
 593 000c 50002440 		.word	1076101200
 594 0010 FFFFFFFD 		.word	-33554433
 595              		.cfi_endproc
 596              	.LFE13:
 597              		.size	UART_1_UartDisableCts, .-UART_1_UartDisableCts
 598              		.section	.text.UART_1_UartSetCtsPolarity,"ax",%progbits
 599              		.align	2
 600              		.global	UART_1_UartSetCtsPolarity
 601              		.code	16
 602              		.thumb_func
 603              		.type	UART_1_UartSetCtsPolarity, %function
 604              	UART_1_UartSetCtsPolarity:
 605              	.LFB14:
 742:.\Generated_Source\PSoC4/UART_1_UART.c **** 
 743:.\Generated_Source\PSoC4/UART_1_UART.c **** 
 744:.\Generated_Source\PSoC4/UART_1_UART.c ****         /*******************************************************************************
 745:.\Generated_Source\PSoC4/UART_1_UART.c ****         * Function Name: UART_1_UartSetCtsPolarity
 746:.\Generated_Source\PSoC4/UART_1_UART.c ****         ****************************************************************************//**
 747:.\Generated_Source\PSoC4/UART_1_UART.c ****         *
 748:.\Generated_Source\PSoC4/UART_1_UART.c ****         *  Sets active polarity of CTS input signal.
 749:.\Generated_Source\PSoC4/UART_1_UART.c ****         *  Only available for PSoC 4100 BLE / PSoC 4200 BLE / PSoC 4100M / PSoC 4200M /
 750:.\Generated_Source\PSoC4/UART_1_UART.c ****         *  PSoC 4200L / PSoC 4000S / PSoC 4100S / PSoC Analog Coprocessor devices.
 751:.\Generated_Source\PSoC4/UART_1_UART.c ****         *
 752:.\Generated_Source\PSoC4/UART_1_UART.c ****         *  \param polarity: Active polarity of CTS output signal.
 753:.\Generated_Source\PSoC4/UART_1_UART.c ****         *   - UART_1_UART_CTS_ACTIVE_LOW  - CTS signal is active low.
 754:.\Generated_Source\PSoC4/UART_1_UART.c ****         *   - UART_1_UART_CTS_ACTIVE_HIGH - CTS signal is active high.
 755:.\Generated_Source\PSoC4/UART_1_UART.c ****         *
 756:.\Generated_Source\PSoC4/UART_1_UART.c ****         *******************************************************************************/
 757:.\Generated_Source\PSoC4/UART_1_UART.c ****         void UART_1_UartSetCtsPolarity(uint32 polarity)
 758:.\Generated_Source\PSoC4/UART_1_UART.c ****         {
 606              		.loc 1 758 0
 607              		.cfi_startproc
ARM GAS  C:\Users\glenn\AppData\Local\Temp\ccNOMZ3x.s 			page 25


 608              	.LVL44:
 759:.\Generated_Source\PSoC4/UART_1_UART.c ****             if (0u != polarity)
 609              		.loc 1 759 0
 610 0000 0028     		cmp	r0, #0
 611 0002 06D0     		beq	.L46
 760:.\Generated_Source\PSoC4/UART_1_UART.c ****             {
 761:.\Generated_Source\PSoC4/UART_1_UART.c ****                 UART_1_UART_FLOW_CTRL_REG |= (uint32)  UART_1_UART_FLOW_CTRL_CTS_POLARITY;
 612              		.loc 1 761 0
 613 0004 064A     		ldr	r2, .L48
 614 0006 1368     		ldr	r3, [r2]
 615 0008 8021     		mov	r1, #128
 616 000a 4904     		lsl	r1, r1, #17
 617 000c 0B43     		orr	r3, r1
 618 000e 1360     		str	r3, [r2]
 619 0010 04E0     		b	.L45
 620              	.L46:
 762:.\Generated_Source\PSoC4/UART_1_UART.c ****             }
 763:.\Generated_Source\PSoC4/UART_1_UART.c ****             else
 764:.\Generated_Source\PSoC4/UART_1_UART.c ****             {
 765:.\Generated_Source\PSoC4/UART_1_UART.c ****                 UART_1_UART_FLOW_CTRL_REG &= (uint32) ~UART_1_UART_FLOW_CTRL_CTS_POLARITY;
 621              		.loc 1 765 0
 622 0012 034A     		ldr	r2, .L48
 623 0014 1168     		ldr	r1, [r2]
 624 0016 034B     		ldr	r3, .L48+4
 625 0018 0B40     		and	r3, r1
 626 001a 1360     		str	r3, [r2]
 627              	.L45:
 766:.\Generated_Source\PSoC4/UART_1_UART.c ****             }
 767:.\Generated_Source\PSoC4/UART_1_UART.c ****         }
 628              		.loc 1 767 0
 629              		@ sp needed
 630 001c 7047     		bx	lr
 631              	.L49:
 632 001e C046     		.align	2
 633              	.L48:
 634 0020 50002440 		.word	1076101200
 635 0024 FFFFFFFE 		.word	-16777217
 636              		.cfi_endproc
 637              	.LFE14:
 638              		.size	UART_1_UartSetCtsPolarity, .-UART_1_UartSetCtsPolarity
 639              		.text
 640              	.Letext0:
 641              		.file 2 "Generated_Source\\PSoC4/cytypes.h"
 642              		.file 3 "Generated_Source\\PSoC4/CyLib.h"
 643              		.file 4 ".\\Generated_Source\\PSoC4\\UART_1_SPI_UART.h"
 644              		.file 5 ".\\Generated_Source\\PSoC4\\UART_1_PVT.h"