ARM GAS  C:\Users\glenn\AppData\Local\Temp\cchG8oEv.s 			page 1


   1              		.cpu cortex-m0
   2              		.fpu softvfp
   3              		.eabi_attribute 20, 1
   4              		.eabi_attribute 21, 1
   5              		.eabi_attribute 23, 3
   6              		.eabi_attribute 24, 1
   7              		.eabi_attribute 25, 1
   8              		.eabi_attribute 26, 1
   9              		.eabi_attribute 30, 6
  10              		.eabi_attribute 34, 0
  11              		.eabi_attribute 18, 4
  12              		.code	16
  13              		.file	"UART_1_PM.c"
  14              		.text
  15              	.Ltext0:
  16              		.cfi_sections	.debug_frame
  17              		.bss
  18              		.align	2
  19              	UART_1_backup:
  20 0000 00       		.space	1
  21 0001 000000   		.section	.text.UART_1_SaveConfig,"ax",%progbits
  22              		.align	2
  23              		.global	UART_1_SaveConfig
  24              		.code	16
  25              		.thumb_func
  26              		.type	UART_1_SaveConfig, %function
  27              	UART_1_SaveConfig:
  28              	.LFB1:
  29              		.file 1 "Generated_Source\\PSoC4\\UART_1_PM.c"
   1:Generated_Source\PSoC4/UART_1_PM.c **** /*******************************************************************************
   2:Generated_Source\PSoC4/UART_1_PM.c **** * File Name: UART_1_PM.c
   3:Generated_Source\PSoC4/UART_1_PM.c **** * Version 2.50
   4:Generated_Source\PSoC4/UART_1_PM.c **** *
   5:Generated_Source\PSoC4/UART_1_PM.c **** * Description:
   6:Generated_Source\PSoC4/UART_1_PM.c **** *  This file provides Sleep/WakeUp APIs functionality.
   7:Generated_Source\PSoC4/UART_1_PM.c **** *
   8:Generated_Source\PSoC4/UART_1_PM.c **** * Note:
   9:Generated_Source\PSoC4/UART_1_PM.c **** *
  10:Generated_Source\PSoC4/UART_1_PM.c **** ********************************************************************************
  11:Generated_Source\PSoC4/UART_1_PM.c **** * Copyright 2008-2015, Cypress Semiconductor Corporation.  All rights reserved.
  12:Generated_Source\PSoC4/UART_1_PM.c **** * You may use this file only in accordance with the license, terms, conditions,
  13:Generated_Source\PSoC4/UART_1_PM.c **** * disclaimers, and limitations in the end user license agreement accompanying
  14:Generated_Source\PSoC4/UART_1_PM.c **** * the software package with which this file was provided.
  15:Generated_Source\PSoC4/UART_1_PM.c **** *******************************************************************************/
  16:Generated_Source\PSoC4/UART_1_PM.c **** 
  17:Generated_Source\PSoC4/UART_1_PM.c **** #include "UART_1.h"
  18:Generated_Source\PSoC4/UART_1_PM.c **** 
  19:Generated_Source\PSoC4/UART_1_PM.c **** 
  20:Generated_Source\PSoC4/UART_1_PM.c **** /***************************************
  21:Generated_Source\PSoC4/UART_1_PM.c **** * Local data allocation
  22:Generated_Source\PSoC4/UART_1_PM.c **** ***************************************/
  23:Generated_Source\PSoC4/UART_1_PM.c **** 
  24:Generated_Source\PSoC4/UART_1_PM.c **** static UART_1_BACKUP_STRUCT  UART_1_backup =
  25:Generated_Source\PSoC4/UART_1_PM.c **** {
  26:Generated_Source\PSoC4/UART_1_PM.c ****     /* enableState - disabled */
  27:Generated_Source\PSoC4/UART_1_PM.c ****     0u,
  28:Generated_Source\PSoC4/UART_1_PM.c **** };
ARM GAS  C:\Users\glenn\AppData\Local\Temp\cchG8oEv.s 			page 2


  29:Generated_Source\PSoC4/UART_1_PM.c **** 
  30:Generated_Source\PSoC4/UART_1_PM.c **** 
  31:Generated_Source\PSoC4/UART_1_PM.c **** 
  32:Generated_Source\PSoC4/UART_1_PM.c **** /*******************************************************************************
  33:Generated_Source\PSoC4/UART_1_PM.c **** * Function Name: UART_1_SaveConfig
  34:Generated_Source\PSoC4/UART_1_PM.c **** ********************************************************************************
  35:Generated_Source\PSoC4/UART_1_PM.c **** *
  36:Generated_Source\PSoC4/UART_1_PM.c **** * Summary:
  37:Generated_Source\PSoC4/UART_1_PM.c **** *  This function saves the component nonretention control register.
  38:Generated_Source\PSoC4/UART_1_PM.c **** *  Does not save the FIFO which is a set of nonretention registers.
  39:Generated_Source\PSoC4/UART_1_PM.c **** *  This function is called by the UART_1_Sleep() function.
  40:Generated_Source\PSoC4/UART_1_PM.c **** *
  41:Generated_Source\PSoC4/UART_1_PM.c **** * Parameters:
  42:Generated_Source\PSoC4/UART_1_PM.c **** *  None.
  43:Generated_Source\PSoC4/UART_1_PM.c **** *
  44:Generated_Source\PSoC4/UART_1_PM.c **** * Return:
  45:Generated_Source\PSoC4/UART_1_PM.c **** *  None.
  46:Generated_Source\PSoC4/UART_1_PM.c **** *
  47:Generated_Source\PSoC4/UART_1_PM.c **** * Global Variables:
  48:Generated_Source\PSoC4/UART_1_PM.c **** *  UART_1_backup - modified when non-retention registers are saved.
  49:Generated_Source\PSoC4/UART_1_PM.c **** *
  50:Generated_Source\PSoC4/UART_1_PM.c **** * Reentrant:
  51:Generated_Source\PSoC4/UART_1_PM.c **** *  No.
  52:Generated_Source\PSoC4/UART_1_PM.c **** *
  53:Generated_Source\PSoC4/UART_1_PM.c **** *******************************************************************************/
  54:Generated_Source\PSoC4/UART_1_PM.c **** void UART_1_SaveConfig(void)
  55:Generated_Source\PSoC4/UART_1_PM.c **** {
  30              		.loc 1 55 0
  31              		.cfi_startproc
  32 0000 80B5     		push	{r7, lr}
  33              		.cfi_def_cfa_offset 8
  34              		.cfi_offset 7, -8
  35              		.cfi_offset 14, -4
  36 0002 00AF     		add	r7, sp, #0
  37              		.cfi_def_cfa_register 7
  56:Generated_Source\PSoC4/UART_1_PM.c ****     #if(UART_1_CONTROL_REG_REMOVED == 0u)
  57:Generated_Source\PSoC4/UART_1_PM.c ****         UART_1_backup.cr = UART_1_CONTROL_REG;
  58:Generated_Source\PSoC4/UART_1_PM.c ****     #endif /* End UART_1_CONTROL_REG_REMOVED */
  59:Generated_Source\PSoC4/UART_1_PM.c **** }
  38              		.loc 1 59 0
  39 0004 BD46     		mov	sp, r7
  40              		@ sp needed
  41 0006 80BD     		pop	{r7, pc}
  42              		.cfi_endproc
  43              	.LFE1:
  44              		.size	UART_1_SaveConfig, .-UART_1_SaveConfig
  45              		.section	.text.UART_1_RestoreConfig,"ax",%progbits
  46              		.align	2
  47              		.global	UART_1_RestoreConfig
  48              		.code	16
  49              		.thumb_func
  50              		.type	UART_1_RestoreConfig, %function
  51              	UART_1_RestoreConfig:
  52              	.LFB2:
  60:Generated_Source\PSoC4/UART_1_PM.c **** 
  61:Generated_Source\PSoC4/UART_1_PM.c **** 
  62:Generated_Source\PSoC4/UART_1_PM.c **** /*******************************************************************************
ARM GAS  C:\Users\glenn\AppData\Local\Temp\cchG8oEv.s 			page 3


  63:Generated_Source\PSoC4/UART_1_PM.c **** * Function Name: UART_1_RestoreConfig
  64:Generated_Source\PSoC4/UART_1_PM.c **** ********************************************************************************
  65:Generated_Source\PSoC4/UART_1_PM.c **** *
  66:Generated_Source\PSoC4/UART_1_PM.c **** * Summary:
  67:Generated_Source\PSoC4/UART_1_PM.c **** *  Restores the nonretention control register except FIFO.
  68:Generated_Source\PSoC4/UART_1_PM.c **** *  Does not restore the FIFO which is a set of nonretention registers.
  69:Generated_Source\PSoC4/UART_1_PM.c **** *
  70:Generated_Source\PSoC4/UART_1_PM.c **** * Parameters:
  71:Generated_Source\PSoC4/UART_1_PM.c **** *  None.
  72:Generated_Source\PSoC4/UART_1_PM.c **** *
  73:Generated_Source\PSoC4/UART_1_PM.c **** * Return:
  74:Generated_Source\PSoC4/UART_1_PM.c **** *  None.
  75:Generated_Source\PSoC4/UART_1_PM.c **** *
  76:Generated_Source\PSoC4/UART_1_PM.c **** * Global Variables:
  77:Generated_Source\PSoC4/UART_1_PM.c **** *  UART_1_backup - used when non-retention registers are restored.
  78:Generated_Source\PSoC4/UART_1_PM.c **** *
  79:Generated_Source\PSoC4/UART_1_PM.c **** * Reentrant:
  80:Generated_Source\PSoC4/UART_1_PM.c **** *  No.
  81:Generated_Source\PSoC4/UART_1_PM.c **** *
  82:Generated_Source\PSoC4/UART_1_PM.c **** * Notes:
  83:Generated_Source\PSoC4/UART_1_PM.c **** *  If this function is called without calling UART_1_SaveConfig() 
  84:Generated_Source\PSoC4/UART_1_PM.c **** *  first, the data loaded may be incorrect.
  85:Generated_Source\PSoC4/UART_1_PM.c **** *
  86:Generated_Source\PSoC4/UART_1_PM.c **** *******************************************************************************/
  87:Generated_Source\PSoC4/UART_1_PM.c **** void UART_1_RestoreConfig(void)
  88:Generated_Source\PSoC4/UART_1_PM.c **** {
  53              		.loc 1 88 0
  54              		.cfi_startproc
  55 0000 80B5     		push	{r7, lr}
  56              		.cfi_def_cfa_offset 8
  57              		.cfi_offset 7, -8
  58              		.cfi_offset 14, -4
  59 0002 00AF     		add	r7, sp, #0
  60              		.cfi_def_cfa_register 7
  89:Generated_Source\PSoC4/UART_1_PM.c ****     #if(UART_1_CONTROL_REG_REMOVED == 0u)
  90:Generated_Source\PSoC4/UART_1_PM.c ****         UART_1_CONTROL_REG = UART_1_backup.cr;
  91:Generated_Source\PSoC4/UART_1_PM.c ****     #endif /* End UART_1_CONTROL_REG_REMOVED */
  92:Generated_Source\PSoC4/UART_1_PM.c **** }
  61              		.loc 1 92 0
  62 0004 BD46     		mov	sp, r7
  63              		@ sp needed
  64 0006 80BD     		pop	{r7, pc}
  65              		.cfi_endproc
  66              	.LFE2:
  67              		.size	UART_1_RestoreConfig, .-UART_1_RestoreConfig
  68              		.section	.text.UART_1_Sleep,"ax",%progbits
  69              		.align	2
  70              		.global	UART_1_Sleep
  71              		.code	16
  72              		.thumb_func
  73              		.type	UART_1_Sleep, %function
  74              	UART_1_Sleep:
  75              	.LFB3:
  93:Generated_Source\PSoC4/UART_1_PM.c **** 
  94:Generated_Source\PSoC4/UART_1_PM.c **** 
  95:Generated_Source\PSoC4/UART_1_PM.c **** /*******************************************************************************
  96:Generated_Source\PSoC4/UART_1_PM.c **** * Function Name: UART_1_Sleep
ARM GAS  C:\Users\glenn\AppData\Local\Temp\cchG8oEv.s 			page 4


  97:Generated_Source\PSoC4/UART_1_PM.c **** ********************************************************************************
  98:Generated_Source\PSoC4/UART_1_PM.c **** *
  99:Generated_Source\PSoC4/UART_1_PM.c **** * Summary:
 100:Generated_Source\PSoC4/UART_1_PM.c **** *  This is the preferred API to prepare the component for sleep. 
 101:Generated_Source\PSoC4/UART_1_PM.c **** *  The UART_1_Sleep() API saves the current component state. Then it
 102:Generated_Source\PSoC4/UART_1_PM.c **** *  calls the UART_1_Stop() function and calls 
 103:Generated_Source\PSoC4/UART_1_PM.c **** *  UART_1_SaveConfig() to save the hardware configuration.
 104:Generated_Source\PSoC4/UART_1_PM.c **** *  Call the UART_1_Sleep() function before calling the CyPmSleep() 
 105:Generated_Source\PSoC4/UART_1_PM.c **** *  or the CyPmHibernate() function. 
 106:Generated_Source\PSoC4/UART_1_PM.c **** *
 107:Generated_Source\PSoC4/UART_1_PM.c **** * Parameters:
 108:Generated_Source\PSoC4/UART_1_PM.c **** *  None.
 109:Generated_Source\PSoC4/UART_1_PM.c **** *
 110:Generated_Source\PSoC4/UART_1_PM.c **** * Return:
 111:Generated_Source\PSoC4/UART_1_PM.c **** *  None.
 112:Generated_Source\PSoC4/UART_1_PM.c **** *
 113:Generated_Source\PSoC4/UART_1_PM.c **** * Global Variables:
 114:Generated_Source\PSoC4/UART_1_PM.c **** *  UART_1_backup - modified when non-retention registers are saved.
 115:Generated_Source\PSoC4/UART_1_PM.c **** *
 116:Generated_Source\PSoC4/UART_1_PM.c **** * Reentrant:
 117:Generated_Source\PSoC4/UART_1_PM.c **** *  No.
 118:Generated_Source\PSoC4/UART_1_PM.c **** *
 119:Generated_Source\PSoC4/UART_1_PM.c **** *******************************************************************************/
 120:Generated_Source\PSoC4/UART_1_PM.c **** void UART_1_Sleep(void)
 121:Generated_Source\PSoC4/UART_1_PM.c **** {
  76              		.loc 1 121 0
  77              		.cfi_startproc
  78 0000 80B5     		push	{r7, lr}
  79              		.cfi_def_cfa_offset 8
  80              		.cfi_offset 7, -8
  81              		.cfi_offset 14, -4
  82 0002 00AF     		add	r7, sp, #0
  83              		.cfi_def_cfa_register 7
 122:Generated_Source\PSoC4/UART_1_PM.c ****     #if(UART_1_RX_ENABLED || UART_1_HD_ENABLED)
 123:Generated_Source\PSoC4/UART_1_PM.c ****         if((UART_1_RXSTATUS_ACTL_REG  & UART_1_INT_ENABLE) != 0u)
  84              		.loc 1 123 0
  85 0004 094B     		ldr	r3, .L6
  86 0006 1B78     		ldrb	r3, [r3]
  87 0008 DBB2     		uxtb	r3, r3
  88 000a 1A1C     		mov	r2, r3
  89 000c 1023     		mov	r3, #16
  90 000e 1340     		and	r3, r2
  91 0010 03D0     		beq	.L4
 124:Generated_Source\PSoC4/UART_1_PM.c ****         {
 125:Generated_Source\PSoC4/UART_1_PM.c ****             UART_1_backup.enableState = 1u;
  92              		.loc 1 125 0
  93 0012 074B     		ldr	r3, .L6+4
  94 0014 0122     		mov	r2, #1
  95 0016 1A70     		strb	r2, [r3]
  96 0018 02E0     		b	.L5
  97              	.L4:
 126:Generated_Source\PSoC4/UART_1_PM.c ****         }
 127:Generated_Source\PSoC4/UART_1_PM.c ****         else
 128:Generated_Source\PSoC4/UART_1_PM.c ****         {
 129:Generated_Source\PSoC4/UART_1_PM.c ****             UART_1_backup.enableState = 0u;
  98              		.loc 1 129 0
  99 001a 054B     		ldr	r3, .L6+4
ARM GAS  C:\Users\glenn\AppData\Local\Temp\cchG8oEv.s 			page 5


 100 001c 0022     		mov	r2, #0
 101 001e 1A70     		strb	r2, [r3]
 102              	.L5:
 130:Generated_Source\PSoC4/UART_1_PM.c ****         }
 131:Generated_Source\PSoC4/UART_1_PM.c ****     #else
 132:Generated_Source\PSoC4/UART_1_PM.c ****         if((UART_1_TXSTATUS_ACTL_REG  & UART_1_INT_ENABLE) !=0u)
 133:Generated_Source\PSoC4/UART_1_PM.c ****         {
 134:Generated_Source\PSoC4/UART_1_PM.c ****             UART_1_backup.enableState = 1u;
 135:Generated_Source\PSoC4/UART_1_PM.c ****         }
 136:Generated_Source\PSoC4/UART_1_PM.c ****         else
 137:Generated_Source\PSoC4/UART_1_PM.c ****         {
 138:Generated_Source\PSoC4/UART_1_PM.c ****             UART_1_backup.enableState = 0u;
 139:Generated_Source\PSoC4/UART_1_PM.c ****         }
 140:Generated_Source\PSoC4/UART_1_PM.c ****     #endif /* End UART_1_RX_ENABLED || UART_1_HD_ENABLED*/
 141:Generated_Source\PSoC4/UART_1_PM.c **** 
 142:Generated_Source\PSoC4/UART_1_PM.c ****     UART_1_Stop();
 103              		.loc 1 142 0
 104 0020 FFF7FEFF 		bl	UART_1_Stop
 143:Generated_Source\PSoC4/UART_1_PM.c ****     UART_1_SaveConfig();
 105              		.loc 1 143 0
 106 0024 FFF7FEFF 		bl	UART_1_SaveConfig
 144:Generated_Source\PSoC4/UART_1_PM.c **** }
 107              		.loc 1 144 0
 108 0028 BD46     		mov	sp, r7
 109              		@ sp needed
 110 002a 80BD     		pop	{r7, pc}
 111              	.L7:
 112              		.align	2
 113              	.L6:
 114 002c 91000F40 		.word	1074725009
 115 0030 00000000 		.word	UART_1_backup
 116              		.cfi_endproc
 117              	.LFE3:
 118              		.size	UART_1_Sleep, .-UART_1_Sleep
 119              		.section	.text.UART_1_Wakeup,"ax",%progbits
 120              		.align	2
 121              		.global	UART_1_Wakeup
 122              		.code	16
 123              		.thumb_func
 124              		.type	UART_1_Wakeup, %function
 125              	UART_1_Wakeup:
 126              	.LFB4:
 145:Generated_Source\PSoC4/UART_1_PM.c **** 
 146:Generated_Source\PSoC4/UART_1_PM.c **** 
 147:Generated_Source\PSoC4/UART_1_PM.c **** /*******************************************************************************
 148:Generated_Source\PSoC4/UART_1_PM.c **** * Function Name: UART_1_Wakeup
 149:Generated_Source\PSoC4/UART_1_PM.c **** ********************************************************************************
 150:Generated_Source\PSoC4/UART_1_PM.c **** *
 151:Generated_Source\PSoC4/UART_1_PM.c **** * Summary:
 152:Generated_Source\PSoC4/UART_1_PM.c **** *  This is the preferred API to restore the component to the state when 
 153:Generated_Source\PSoC4/UART_1_PM.c **** *  UART_1_Sleep() was called. The UART_1_Wakeup() function
 154:Generated_Source\PSoC4/UART_1_PM.c **** *  calls the UART_1_RestoreConfig() function to restore the 
 155:Generated_Source\PSoC4/UART_1_PM.c **** *  configuration. If the component was enabled before the 
 156:Generated_Source\PSoC4/UART_1_PM.c **** *  UART_1_Sleep() function was called, the UART_1_Wakeup()
 157:Generated_Source\PSoC4/UART_1_PM.c **** *  function will also re-enable the component.
 158:Generated_Source\PSoC4/UART_1_PM.c **** *
 159:Generated_Source\PSoC4/UART_1_PM.c **** * Parameters:
ARM GAS  C:\Users\glenn\AppData\Local\Temp\cchG8oEv.s 			page 6


 160:Generated_Source\PSoC4/UART_1_PM.c **** *  None.
 161:Generated_Source\PSoC4/UART_1_PM.c **** *
 162:Generated_Source\PSoC4/UART_1_PM.c **** * Return:
 163:Generated_Source\PSoC4/UART_1_PM.c **** *  None.
 164:Generated_Source\PSoC4/UART_1_PM.c **** *
 165:Generated_Source\PSoC4/UART_1_PM.c **** * Global Variables:
 166:Generated_Source\PSoC4/UART_1_PM.c **** *  UART_1_backup - used when non-retention registers are restored.
 167:Generated_Source\PSoC4/UART_1_PM.c **** *
 168:Generated_Source\PSoC4/UART_1_PM.c **** * Reentrant:
 169:Generated_Source\PSoC4/UART_1_PM.c **** *  No.
 170:Generated_Source\PSoC4/UART_1_PM.c **** *
 171:Generated_Source\PSoC4/UART_1_PM.c **** *******************************************************************************/
 172:Generated_Source\PSoC4/UART_1_PM.c **** void UART_1_Wakeup(void)
 173:Generated_Source\PSoC4/UART_1_PM.c **** {
 127              		.loc 1 173 0
 128              		.cfi_startproc
 129 0000 80B5     		push	{r7, lr}
 130              		.cfi_def_cfa_offset 8
 131              		.cfi_offset 7, -8
 132              		.cfi_offset 14, -4
 133 0002 00AF     		add	r7, sp, #0
 134              		.cfi_def_cfa_register 7
 174:Generated_Source\PSoC4/UART_1_PM.c ****     UART_1_RestoreConfig();
 135              		.loc 1 174 0
 136 0004 FFF7FEFF 		bl	UART_1_RestoreConfig
 175:Generated_Source\PSoC4/UART_1_PM.c ****     #if( (UART_1_RX_ENABLED) || (UART_1_HD_ENABLED) )
 176:Generated_Source\PSoC4/UART_1_PM.c ****         UART_1_ClearRxBuffer();
 137              		.loc 1 176 0
 138 0008 FFF7FEFF 		bl	UART_1_ClearRxBuffer
 177:Generated_Source\PSoC4/UART_1_PM.c ****     #endif /* End (UART_1_RX_ENABLED) || (UART_1_HD_ENABLED) */
 178:Generated_Source\PSoC4/UART_1_PM.c ****     #if(UART_1_TX_ENABLED || UART_1_HD_ENABLED)
 179:Generated_Source\PSoC4/UART_1_PM.c ****         UART_1_ClearTxBuffer();
 139              		.loc 1 179 0
 140 000c FFF7FEFF 		bl	UART_1_ClearTxBuffer
 180:Generated_Source\PSoC4/UART_1_PM.c ****     #endif /* End UART_1_TX_ENABLED || UART_1_HD_ENABLED */
 181:Generated_Source\PSoC4/UART_1_PM.c **** 
 182:Generated_Source\PSoC4/UART_1_PM.c ****     if(UART_1_backup.enableState != 0u)
 141              		.loc 1 182 0
 142 0010 034B     		ldr	r3, .L10
 143 0012 1B78     		ldrb	r3, [r3]
 144 0014 002B     		cmp	r3, #0
 145 0016 01D0     		beq	.L8
 183:Generated_Source\PSoC4/UART_1_PM.c ****     {
 184:Generated_Source\PSoC4/UART_1_PM.c ****         UART_1_Enable();
 146              		.loc 1 184 0
 147 0018 FFF7FEFF 		bl	UART_1_Enable
 148              	.L8:
 185:Generated_Source\PSoC4/UART_1_PM.c ****     }
 186:Generated_Source\PSoC4/UART_1_PM.c **** }
 149              		.loc 1 186 0
 150 001c BD46     		mov	sp, r7
 151              		@ sp needed
 152 001e 80BD     		pop	{r7, pc}
 153              	.L11:
 154              		.align	2
 155              	.L10:
 156 0020 00000000 		.word	UART_1_backup
ARM GAS  C:\Users\glenn\AppData\Local\Temp\cchG8oEv.s 			page 7


 157              		.cfi_endproc
 158              	.LFE4:
 159              		.size	UART_1_Wakeup, .-UART_1_Wakeup
 160              		.text
 161              	.Letext0:
 162              		.file 2 "Generated_Source\\PSoC4\\cytypes.h"
 163              		.file 3 "Generated_Source\\PSoC4\\UART_1.h"